

Microchip MPLAB XC8 Assembler V2.36 build 20220127204148 
                                                                                               Sat Aug 19 15:22:08 2023

Microchip MPLAB XC8 C Compiler v2.36 (Free license) build 20220127204148 Og1 
     1                           	processor	18F46K80
     2                           	fnconf	rparam,??,?,0
     3                           	pagewidth 120
     4                           	opt	flic
     5                           	psect	idataCOMRAM,global,class=CODE,delta=1,noexec
     6                           	psect	cinit,global,reloc=2,class=CODE,delta=1
     7                           	psect	bssCOMRAM,global,class=COMRAM,space=1,delta=1,lowdata,noexec
     8                           	psect	dataCOMRAM,global,class=COMRAM,space=1,delta=1,lowdata,noexec
     9                           	psect	bssBANK0,global,class=BANK0,space=1,delta=1,lowdata,noexec
    10                           	psect	bssBANK1,global,class=BANK1,space=1,delta=1,lowdata,noexec
    11                           	psect	cstackCOMRAM,global,class=COMRAM,space=1,delta=1,lowdata,noexec
    12                           	psect	text0,global,reloc=2,class=CODE,delta=1
    13                           	psect	text1,global,reloc=2,class=CODE,delta=1
    14                           	psect	text2,global,reloc=2,class=CODE,delta=1
    15                           	psect	text3,global,reloc=2,class=CODE,delta=1
    16                           	psect	text4,global,reloc=2,class=CODE,delta=1
    17                           	psect	text5,global,reloc=2,class=CODE,delta=1
    18                           	psect	text6,global,reloc=2,class=CODE,delta=1
    19                           	psect	text7,global,reloc=2,class=CODE,delta=1
    20                           	psect	text8,global,reloc=2,class=CODE,delta=1
    21                           	psect	text9,global,reloc=2,class=CODE,delta=1,group=1
    22                           	psect	text10,global,reloc=2,class=CODE,delta=1,group=1
    23                           	psect	text11,global,reloc=2,class=CODE,delta=1,group=1
    24                           	psect	text12,global,reloc=2,class=CODE,delta=1,group=1
    25                           	psect	text13,global,reloc=2,class=CODE,delta=1
    26                           	psect	text14,global,reloc=2,class=CODE,delta=1
    27                           	psect	text15,global,reloc=2,class=CODE,delta=1
    28                           	psect	text16,global,reloc=2,class=CODE,delta=1
    29                           	psect	text17,global,reloc=2,class=CODE,delta=1
    30                           	psect	text18,global,reloc=2,class=CODE,delta=1
    31                           	psect	text19,global,reloc=2,class=CODE,delta=1
    32                           	psect	text20,global,reloc=2,class=CODE,delta=1
    33                           	psect	text21,global,reloc=2,class=CODE,delta=1
    34                           	psect	text22,global,reloc=2,class=CODE,delta=1
    35                           	psect	text23,global,reloc=2,class=CODE,delta=1
    36                           	psect	text24,global,reloc=2,class=CODE,delta=1
    37                           	psect	text25,global,reloc=2,class=CODE,delta=1
    38                           	psect	intcode,global,reloc=2,class=CODE,delta=1
    39                           	psect	text27,global,reloc=2,class=CODE,delta=1
    40                           	psect	text28,global,reloc=2,class=CODE,delta=1
    41                           	psect	intsave_regs,global,class=BIGRAM,space=1,delta=1,noexec
    42                           	psect	text29,global,reloc=2,class=CODE,delta=1
    43                           	psect	rparam,global,class=COMRAM,space=1,delta=1,noexec
    44                           	psect	temp,global,ovrld,common,class=COMRAM,space=1,delta=1
    45                           	psect	idloc,global,abs,ovrld,class=IDLOC,space=5,delta=1,noexec
    46                           	psect	config,global,abs,ovrld,class=CONFIG,space=4,delta=1,noexec
    47  0000                     
    48                           ; Version 2.35
    49                           ; Generated 05/05/2021 GMT
    50                           ; 
    51                           ; Copyright © 2021, Microchip Technology Inc. and its subsidiaries ("Microchip")
    52                           ; All rights reserved.
    53                           ; 
    54                           ; This software is developed by Microchip Technology Inc. and its subsidiaries ("Microch
      +                          ip").
    55                           ; 
    56                           ; Redistribution and use in source and binary forms, with or without modification, are
    57                           ; permitted provided that the following conditions are met:
    58                           ; 
    59                           ;     1. Redistributions of source code must retain the above copyright notice, this lis
      +                          t of
    60                           ;        conditions and the following disclaimer.
    61                           ; 
    62                           ;     2. Redistributions in binary form must reproduce the above copyright notice, this 
      +                          list
    63                           ;        of conditions and the following disclaimer in the documentation and/or other
    64                           ;        materials provided with the distribution. Publication is not required when
    65                           ;        this file is used in an embedded application.
    66                           ; 
    67                           ;     3. Microchip's name may not be used to endorse or promote products derived from th
      +                          is
    68                           ;        software without specific prior written permission.
    69                           ; 
    70                           ; THIS SOFTWARE IS PROVIDED BY MICROCHIP "AS IS" AND ANY EXPRESS OR IMPLIED WARRANTIES,
    71                           ; INCLUDING, BUT NOT LIMITED TO, THE IMPLIED WARRANTIES OF MERCHANTABILITY AND FITNESS F
      +                          OR
    72                           ; PURPOSE ARE DISCLAIMED.  IN NO EVENT SHALL MICROCHIP BE LIABLE FOR ANY DIRECT, INDIREC
      +                          T,
    73                           ; INCIDENTAL, SPECIAL, EXEMPLARY, OR CONSEQUENTIAL DAMAGES (INCLUDING BUT NOT LIMITED TO
    74                           ; PROCUREMENT OF SUBSTITUTE GOODS OR SERVICES; LOSS OF USE, DATA OR PROFITS; OR BUSINESS
    75                           ; INTERRUPTION) HOWSOEVER CAUSED AND ON ANY THEORY OF LIABILITY, WHETHER IN CONTRACT, ST
      +                          RICT
    76                           ; LIABILITY, OR TORT (INCLUDING NEGLIGENCE OR OTHERWISE) ARISING IN ANY WAY OUT OF THE U
      +                          SE OF
    77                           ; THIS SOFTWARE, EVEN IF ADVISED OF THE POSSIBILITY OF SUCH DAMAGE.
    78                           ; 
    79                           ; 
    80                           ; Code-generator required, PIC18F46K80 Definitions
    81                           ; 
    82                           ; SFR Addresses
    83  0000                     
    84                           	psect	idataCOMRAM
    85  0018AA                     __pidataCOMRAM:
    86                           	callstack 0
    87                           
    88                           ;initializer for _THRESVOLT
    89  0018AA  3333               	dw	13107
    90  0018AC  4123               	dw	16675
    91  0000                     _ADRESL	set	4035
    92  0000                     _ADRESH	set	4036
    93  0000                     _COMSTATbits	set	3953
    94  0000                     _RXB1SIDH	set	3889
    95  0000                     _RXB1SIDL	set	3890
    96  0000                     _RXB0D7	set	3949
    97  0000                     _RXB0D6	set	3948
    98  0000                     _RXB0D5	set	3947
    99  0000                     _RXB0D4	set	3946
   100  0000                     _RXB0D3	set	3945
   101  0000                     _RXB0D2	set	3944
   102  0000                     _RXB0D1	set	3943
   103  0000                     _RXB0D0	set	3942
   104  0000                     _RXB0DLC	set	3941
   105  0000                     _RXB0SIDH	set	3937
   106  0000                     _RXB0EIDL	set	3940
   107  0000                     _RXB0EIDH	set	3939
   108  0000                     _RXB0SIDL	set	3938
   109  0000                     _TXB2SIDL	set	3842
   110  0000                     _TXB2SIDH	set	3841
   111  0000                     _TXB2EIDH	set	3843
   112  0000                     _TXB2CONbits	set	3840
   113  0000                     _TXB1SIDL	set	3858
   114  0000                     _TXB1SIDH	set	3857
   115  0000                     _TXB1EIDH	set	3859
   116  0000                     _TXB1CONbits	set	3856
   117  0000                     _TXB0SIDL	set	3874
   118  0000                     _TXB0SIDH	set	3873
   119  0000                     _TXB0EIDH	set	3875
   120  0000                     _TXB0CONbits	set	3872
   121  0000                     _BRGCON3	set	3653
   122  0000                     _BRGCON2	set	3652
   123  0000                     _RXF15SIDL	set	3693
   124  0000                     _RXF15SIDH	set	3692
   125  0000                     _RXF15EIDH	set	3694
   126  0000                     _RXF14SIDL	set	3689
   127  0000                     _RXF14SIDH	set	3688
   128  0000                     _RXF14EIDL	set	3691
   129  0000                     _RXF14EIDH	set	3690
   130  0000                     _RXF13SIDL	set	3685
   131  0000                     _RXF13SIDH	set	3684
   132  0000                     _RXF13EIDL	set	3687
   133  0000                     _RXF13EIDH	set	3686
   134  0000                     _RXF12SIDL	set	3681
   135  0000                     _RXF12SIDH	set	3680
   136  0000                     _RXF12EIDL	set	3683
   137  0000                     _RXF12EIDH	set	3682
   138  0000                     _RXF11SIDL	set	3677
   139  0000                     _RXF11SIDH	set	3676
   140  0000                     _RXF11EIDL	set	3679
   141  0000                     _RXF11EIDH	set	3678
   142  0000                     _RXF10SIDL	set	3673
   143  0000                     _RXF10SIDH	set	3672
   144  0000                     _RXF10EIDL	set	3675
   145  0000                     _RXF10EIDH	set	3674
   146  0000                     _RXF9SIDL	set	3669
   147  0000                     _RXF9SIDH	set	3668
   148  0000                     _RXF9EIDL	set	3671
   149  0000                     _RXF9EIDH	set	3670
   150  0000                     _RXF8SIDL	set	3665
   151  0000                     _RXF8SIDH	set	3664
   152  0000                     _RXF8EIDL	set	3667
   153  0000                     _RXF8EIDH	set	3666
   154  0000                     _RXF7SIDL	set	3661
   155  0000                     _RXF7SIDH	set	3660
   156  0000                     _RXF7EIDL	set	3663
   157  0000                     _RXF7EIDH	set	3662
   158  0000                     _RXF6SIDL	set	3657
   159  0000                     _RXF6SIDH	set	3656
   160  0000                     _RXF6EIDL	set	3659
   161  0000                     _RXF6EIDH	set	3658
   162  0000                     _RXF5SIDL	set	3829
   163  0000                     _RXF5SIDH	set	3828
   164  0000                     _RXF5EIDL	set	3831
   165  0000                     _RXF5EIDH	set	3830
   166  0000                     _RXF4SIDL	set	3825
   167  0000                     _RXF4SIDH	set	3824
   168  0000                     _RXF4EIDL	set	3827
   169  0000                     _RXF4EIDH	set	3826
   170  0000                     _RXF3SIDL	set	3821
   171  0000                     _RXF3SIDH	set	3820
   172  0000                     _RXF3EIDL	set	3823
   173  0000                     _RXF3EIDH	set	3822
   174  0000                     _RXF2SIDL	set	3817
   175  0000                     _RXF2SIDH	set	3816
   176  0000                     _RXF2EIDL	set	3819
   177  0000                     _RXF2EIDH	set	3818
   178  0000                     _RXF1SIDL	set	3813
   179  0000                     _RXF1SIDH	set	3812
   180  0000                     _RXF1EIDL	set	3815
   181  0000                     _RXF1EIDH	set	3814
   182  0000                     _RXF0SIDL	set	3809
   183  0000                     _RXF0EIDL	set	3811
   184  0000                     _RXFBCON7	set	3704
   185  0000                     _RXFBCON6	set	3703
   186  0000                     _RXFBCON5	set	3702
   187  0000                     _RXFBCON4	set	3701
   188  0000                     _RXFBCON3	set	3700
   189  0000                     _RXFBCON2	set	3699
   190  0000                     _RXFBCON1	set	3698
   191  0000                     _RXFBCON0	set	3697
   192  0000                     _MSEL3	set	3708
   193  0000                     _MSEL2	set	3707
   194  0000                     _MSEL1	set	3706
   195  0000                     _MSEL0	set	3705
   196  0000                     _RXFCON1	set	3655
   197  0000                     _RXM1SIDL	set	3837
   198  0000                     _RXM1SIDH	set	3836
   199  0000                     _RXM1EIDL	set	3839
   200  0000                     _RXM1EIDH	set	3838
   201  0000                     _RXM0SIDL	set	3833
   202  0000                     _RXM0EIDL	set	3835
   203  0000                     _CIOCON	set	3952
   204  0000                     _ECANCON	set	3954
   205  0000                     _TRISD	set	3989
   206  0000                     _TRISC	set	3988
   207  0000                     _TRISB	set	3987
   208  0000                     _LATC	set	3979
   209  0000                     _LATB	set	3978
   210  0000                     _LATCbits	set	3979
   211  0000                     _LATAbits	set	3977
   212  0000                     _ADCON0bits	set	4034
   213  0000                     _BRGCON1	set	3651
   214  0000                     _RXFCON0	set	3654
   215  0000                     _BSEL0	set	3709
   216  0000                     _WPUB	set	3931
   217  0000                     _ANCON1	set	3932
   218  0000                     _ANCON0	set	3933
   219  0000                     _LATA	set	3977
   220  0000                     _LATD	set	3980
   221  0000                     _LATE	set	3981
   222  0000                     _TRISA	set	3986
   223  0000                     _TRISE	set	3990
   224  0000                     _REFOCON	set	3994
   225  0000                     _OSCTUNE	set	3995
   226  0000                     _OSCCON2	set	4050
   227  0000                     _OSCCON	set	4051
   228  0000                     _INTCON2bits	set	4081
   229  0000                     _RXB0CONbits	set	3936
   230  0000                     _CANSTAT	set	3950
   231  0000                     _CANCON	set	3951
   232  0000                     _INTCONbits	set	4082
   233  0000                     _ADCON2	set	4032
   234  0000                     _ADCON1	set	4033
   235  0000                     _ADCON0	set	4034
   236  0000                     _RCONbits	set	4048
   237  0000                     _PIE5bits	set	3958
   238  0000                     _PIR5bits	set	3959
   239  0000                     _RXF0SIDH	set	3808
   240  0000                     _RXF0EIDH	set	3810
   241  0000                     _RXM0SIDH	set	3832
   242  0000                     _RXM0EIDH	set	3834
   243  0000                     _RXF15EIDL	set	3695
   244  0000                     _PORTAbits	set	3968
   245  0000                     _RXB1CONbits	set	3888
   246  0000                     _TXB0D7	set	3885
   247  0000                     _TXB0D6	set	3884
   248  0000                     _TXB0D5	set	3883
   249  0000                     _TXB0D4	set	3882
   250  0000                     _TXB0D3	set	3881
   251  0000                     _TXB0D2	set	3880
   252  0000                     _TXB0D1	set	3879
   253  0000                     _TXB0D0	set	3878
   254  0000                     _TXB0DLC	set	3877
   255  0000                     _TXB0EIDL	set	3876
   256  0000                     _TXB1D7	set	3869
   257  0000                     _TXB1D6	set	3868
   258  0000                     _TXB1D5	set	3867
   259  0000                     _TXB1D4	set	3866
   260  0000                     _TXB1D3	set	3865
   261  0000                     _TXB1D2	set	3864
   262  0000                     _TXB1D1	set	3863
   263  0000                     _TXB1D0	set	3862
   264  0000                     _TXB1DLC	set	3861
   265  0000                     _TXB1EIDL	set	3860
   266  0000                     _TXB2D7	set	3853
   267  0000                     _TXB2D6	set	3852
   268  0000                     _TXB2D5	set	3851
   269  0000                     _TXB2D4	set	3850
   270  0000                     _TXB2D3	set	3849
   271  0000                     _TXB2D2	set	3848
   272  0000                     _TXB2D1	set	3847
   273  0000                     _TXB2D0	set	3846
   274  0000                     _TXB2DLC	set	3845
   275  0000                     _TXB2EIDL	set	3844
   276  0000                     _RXB1D7	set	3901
   277  0000                     _RXB1D6	set	3900
   278  0000                     _RXB1D5	set	3899
   279  0000                     _RXB1D4	set	3898
   280  0000                     _RXB1D3	set	3897
   281  0000                     _RXB1D2	set	3896
   282  0000                     _RXB1D1	set	3895
   283  0000                     _RXB1D0	set	3894
   284  0000                     _RXB1DLC	set	3893
   285  0000                     _RXB1EIDL	set	3892
   286  0000                     _RXB1EIDH	set	3891
   287  0000                     _PORTCbits	set	3970
   288                           
   289                           ; #config settings
   290                           
   291                           	psect	cinit
   292  001644                     __pcinit:
   293                           	callstack 0
   294  001644                     start_initialization:
   295                           	callstack 0
   296  001644                     __initialization:
   297                           	callstack 0
   298                           
   299                           ; Initialize objects allocated to COMRAM (4 bytes)
   300                           ; load TBLPTR registers with __pidataCOMRAM
   301  001644  0EAA               	movlw	low __pidataCOMRAM
   302  001646  6EF6               	movwf	tblptrl,c
   303  001648  0E18               	movlw	high __pidataCOMRAM
   304  00164A  6EF7               	movwf	tblptrh,c
   305  00164C  0E00               	movlw	low (__pidataCOMRAM shr (0+16))
   306  00164E  6EF8               	movwf	tblptru,c
   307  001650  EE00  F057         	lfsr	0,__pdataCOMRAM
   308  001654  EE10 F004          	lfsr	1,4
   309  001658                     copy_data0:
   310  001658  0009               	tblrd		*+
   311  00165A  CFF5 FFEE          	movff	tablat,postinc0
   312  00165E  50E5               	movf	postdec1,w,c
   313  001660  50E1               	movf	fsr1l,w,c
   314  001662  E1FA               	bnz	copy_data0
   315                           
   316                           ; Clear objects allocated to BANK1 (28 bytes)
   317  001664  EE01  F000         	lfsr	0,__pbssBANK1
   318  001668  0E1C               	movlw	28
   319  00166A                     clear_0:
   320  00166A  6AEE               	clrf	postinc0,c
   321  00166C  06E8               	decf	wreg,f,c
   322  00166E  E1FD               	bnz	clear_0
   323                           
   324                           ; Clear objects allocated to BANK0 (154 bytes)
   325  001670  EE00  F060         	lfsr	0,__pbssBANK0
   326  001674  0E9A               	movlw	154
   327  001676                     clear_1:
   328  001676  6AEE               	clrf	postinc0,c
   329  001678  06E8               	decf	wreg,f,c
   330  00167A  E1FD               	bnz	clear_1
   331                           
   332                           ; Clear objects allocated to COMRAM (22 bytes)
   333  00167C  EE00  F041         	lfsr	0,__pbssCOMRAM
   334  001680  0E16               	movlw	22
   335  001682                     clear_2:
   336  001682  6AEE               	clrf	postinc0,c
   337  001684  06E8               	decf	wreg,f,c
   338  001686  E1FD               	bnz	clear_2
   339  001688                     end_of_initialization:
   340                           	callstack 0
   341  001688                     __end_of__initialization:
   342                           	callstack 0
   343  001688  905B               	bcf	int$flags,0,c	;clear compiler interrupt flag (level 1)
   344  00168A  925B               	bcf	int$flags,1,c	;clear compiler interrupt flag (level 2)
   345  00168C  0E00               	movlw	low (__Lmediumconst shr (0+16))
   346  00168E  6EF8               	movwf	tblptru,c
   347  001690  0100               	movlb	0
   348  001692  EFD1  F00A         	goto	_main	;jump to C main() function
   349                           
   350                           	psect	bssCOMRAM
   351  000041                     __pbssCOMRAM:
   352                           	callstack 0
   353  000041                     	ds	2
   354  000043                     _STARTUP_SUCCESS:
   355                           	callstack 0
   356  000043                     	ds	2
   357  000045                     _ADC_InterruptHandler:
   358                           	callstack 0
   359  000045                     	ds	2
   360  000047                     _WakeUpInterruptHandler:
   361                           	callstack 0
   362  000047                     	ds	2
   363  000049                     _tx10:
   364                           	callstack 0
   365  000049                     	ds	14
   366                           
   367                           	psect	dataCOMRAM
   368  000057                     __pdataCOMRAM:
   369                           	callstack 0
   370  000057                     	ds	4
   371                           
   372                           	psect	bssBANK0
   373  000060                     __pbssBANK0:
   374                           	callstack 0
   375  000060                     _rx:
   376                           	callstack 0
   377  000060                     	ds	14
   378  00006E                     _tx21:
   379                           	callstack 0
   380  00006E                     	ds	14
   381  00007C                     _tx20:
   382                           	callstack 0
   383  00007C                     	ds	14
   384  00008A                     _tx8:
   385                           	callstack 0
   386  00008A                     	ds	14
   387  000098                     _tx7:
   388                           	callstack 0
   389  000098                     	ds	14
   390  0000A6                     _tx6:
   391                           	callstack 0
   392  0000A6                     	ds	14
   393  0000B4                     _tx5:
   394                           	callstack 0
   395  0000B4                     	ds	14
   396  0000C2                     _tx4:
   397                           	callstack 0
   398  0000C2                     	ds	14
   399  0000D0                     _tx3:
   400                           	callstack 0
   401  0000D0                     	ds	14
   402  0000DE                     _tx2:
   403                           	callstack 0
   404  0000DE                     	ds	14
   405  0000EC                     _tx1:
   406                           	callstack 0
   407  0000EC                     	ds	14
   408                           
   409                           	psect	bssBANK1
   410  000100                     __pbssBANK1:
   411                           	callstack 0
   412  000100                     _tx13:
   413                           	callstack 0
   414  000100                     	ds	14
   415  00010E                     _tx9:
   416                           	callstack 0
   417  00010E                     	ds	14
   418                           
   419                           	psect	cstackCOMRAM
   420  000001                     __pcstackCOMRAM:
   421                           	callstack 0
   422  000001                     ??_INTERRUPT_InterruptManager:
   423  000001                     
   424                           ; 1 bytes @ 0x0
   425  000001                     	ds	2
   426  000003                     ??_undo_seq:
   427  000003                     ?_ADC_GetConversion:
   428                           	callstack 0
   429  000003                     ?___fldiv:
   430                           	callstack 0
   431  000003                     ECAN_SetWakeUpInterruptHandler@handler:
   432                           	callstack 0
   433  000003                     convertCANid2Reg@tempPassedInID:
   434                           	callstack 0
   435  000003                     ___flge@ff1:
   436                           	callstack 0
   437  000003                     ___fldiv@b:
   438                           	callstack 0
   439                           
   440                           ; 4 bytes @ 0x2
   441  000003                     	ds	2
   442  000005                     ??_ECAN_Initialize:
   443  000005                     ??_ADC_GetConversion:
   444                           
   445                           ; 1 bytes @ 0x4
   446  000005                     	ds	1
   447  000006                     
   448                           ; 1 bytes @ 0x5
   449  000006                     	ds	1
   450  000007                     convertCANid2Reg@canIdType:
   451                           	callstack 0
   452  000007                     ADC_GetConversion@channel:
   453                           	callstack 0
   454  000007                     ___flge@ff2:
   455                           	callstack 0
   456  000007                     ___fldiv@a:
   457                           	callstack 0
   458                           
   459                           ; 4 bytes @ 0x6
   460  000007                     	ds	1
   461  000008                     ?___xxtofl:
   462                           	callstack 0
   463  000008                     convertCANid2Reg@passedInEIDH:
   464                           	callstack 0
   465  000008                     ___xxtofl@val:
   466                           	callstack 0
   467                           
   468                           ; 4 bytes @ 0x7
   469  000008                     	ds	2
   470  00000A                     convertCANid2Reg@passedInEIDL:
   471                           	callstack 0
   472                           
   473                           ; 2 bytes @ 0x9
   474  00000A                     	ds	1
   475  00000B                     ??___fldiv:
   476  00000B                     ??___flge:
   477                           
   478                           ; 1 bytes @ 0xA
   479  00000B                     	ds	1
   480  00000C                     ??___xxtofl:
   481  00000C                     convertCANid2Reg@passedInSIDH:
   482                           	callstack 0
   483                           
   484                           ; 2 bytes @ 0xB
   485  00000C                     	ds	2
   486  00000E                     convertCANid2Reg@passedInSIDL:
   487                           	callstack 0
   488                           
   489                           ; 2 bytes @ 0xD
   490  00000E                     	ds	1
   491  00000F                     ?_highOrlow:
   492                           	callstack 0
   493  00000F                     highOrlow@voltage:
   494                           	callstack 0
   495  00000F                     ___fldiv@rem:
   496                           	callstack 0
   497                           
   498                           ; 4 bytes @ 0xE
   499  00000F                     	ds	1
   500  000010                     ??_convertCANid2Reg:
   501  000010                     ___xxtofl@sign:
   502                           	callstack 0
   503                           
   504                           ; 1 bytes @ 0xF
   505  000010                     	ds	1
   506  000011                     ___xxtofl@exp:
   507                           	callstack 0
   508                           
   509                           ; 1 bytes @ 0x10
   510  000011                     	ds	1
   511  000012                     ___xxtofl@arg:
   512                           	callstack 0
   513                           
   514                           ; 4 bytes @ 0x11
   515  000012                     	ds	1
   516  000013                     ___fldiv@sign:
   517                           	callstack 0
   518  000013                     highOrlow@output:
   519                           	callstack 0
   520                           
   521                           ; 2 bytes @ 0x12
   522  000013                     	ds	1
   523  000014                     convertCANid2Reg@wipSIDL:
   524                           	callstack 0
   525  000014                     ___fldiv@new_exp:
   526                           	callstack 0
   527                           
   528                           ; 2 bytes @ 0x13
   529  000014                     	ds	1
   530  000015                     CAN_transmit@tempCanMsg:
   531                           	callstack 0
   532                           
   533                           ; 2 bytes @ 0x14
   534  000015                     	ds	1
   535  000016                     ___fldiv@grs:
   536                           	callstack 0
   537                           
   538                           ; 4 bytes @ 0x15
   539  000016                     	ds	1
   540  000017                     CAN_transmit@tempEIDH:
   541                           	callstack 0
   542                           
   543                           ; 1 bytes @ 0x16
   544  000017                     	ds	1
   545  000018                     CAN_transmit@tempEIDL:
   546                           	callstack 0
   547                           
   548                           ; 1 bytes @ 0x17
   549  000018                     	ds	1
   550  000019                     CAN_transmit@tempSIDH:
   551                           	callstack 0
   552                           
   553                           ; 1 bytes @ 0x18
   554  000019                     	ds	1
   555  00001A                     CAN_transmit@tempSIDL:
   556                           	callstack 0
   557  00001A                     ___fldiv@bexp:
   558                           	callstack 0
   559                           
   560                           ; 1 bytes @ 0x19
   561  00001A                     	ds	1
   562  00001B                     ___fldiv@aexp:
   563                           	callstack 0
   564  00001B                     canbus_msg_motor@number:
   565                           	callstack 0
   566  00001B                     canbus_msg_startupfail@number:
   567                           	callstack 0
   568  00001B                     canbus_msg_bps@number:
   569                           	callstack 0
   570  00001B                     canbus_shutdown_success@number:
   571                           	callstack 0
   572  00001B                     canbus_motor_rearL_tx@number:
   573                           	callstack 0
   574                           
   575                           ; 2 bytes @ 0x1A
   576  00001B                     	ds	1
   577  00001C                     ?___flmul:
   578                           	callstack 0
   579  00001C                     ___flmul@b:
   580                           	callstack 0
   581                           
   582                           ; 4 bytes @ 0x1B
   583  00001C                     	ds	1
   584  00001D                     
   585                           ; 1 bytes @ 0x1C
   586  00001D                     	ds	3
   587  000020                     ___flmul@a:
   588                           	callstack 0
   589                           
   590                           ; 4 bytes @ 0x1F
   591  000020                     	ds	4
   592  000024                     ??___flmul:
   593                           
   594                           ; 1 bytes @ 0x23
   595  000024                     	ds	4
   596  000028                     ___flmul@sign:
   597                           	callstack 0
   598                           
   599                           ; 1 bytes @ 0x27
   600  000028                     	ds	1
   601  000029                     ___flmul@grs:
   602                           	callstack 0
   603                           
   604                           ; 4 bytes @ 0x28
   605  000029                     	ds	4
   606  00002D                     ___flmul@aexp:
   607                           	callstack 0
   608                           
   609                           ; 1 bytes @ 0x2C
   610  00002D                     	ds	1
   611  00002E                     ___flmul@bexp:
   612                           	callstack 0
   613                           
   614                           ; 1 bytes @ 0x2D
   615  00002E                     	ds	1
   616  00002F                     ___flmul@prod:
   617                           	callstack 0
   618                           
   619                           ; 4 bytes @ 0x2E
   620  00002F                     	ds	4
   621  000033                     ___flmul@temp:
   622                           	callstack 0
   623                           
   624                           ; 2 bytes @ 0x32
   625  000033                     	ds	2
   626  000035                     ?_ADC_Conv_pinSeven:
   627                           	callstack 0
   628  000035                     ?_ADC_Conv_pinNine:
   629                           	callstack 0
   630                           
   631                           ; 2 bytes @ 0x34
   632  000035                     	ds	2
   633  000037                     ADC_Conv_pinSeven@input_voltage:
   634                           	callstack 0
   635  000037                     ADC_Conv_pinNine@input_voltage:
   636                           	callstack 0
   637                           
   638                           ; 4 bytes @ 0x36
   639  000037                     	ds	4
   640  00003B                     ADC_Conv_pinSeven@adc_val:
   641                           	callstack 0
   642  00003B                     ADC_Conv_pinNine@adc_val:
   643                           	callstack 0
   644                           
   645                           ; 4 bytes @ 0x3A
   646  00003B                     	ds	4
   647  00003F                     ??_start_up_seq:
   648                           
   649                           ; 1 bytes @ 0x3E
   650  00003F                     	ds	2
   651  000041                     
   652                           ; 1 bytes @ 0x40
   653 ;;
   654 ;;Main: autosize = 0, tempsize = 0, incstack = 0, save=0
   655 ;;
   656 ;; *************** function _main *****************
   657 ;; Defined at:
   658 ;;		line 325 in file "main.c"
   659 ;; Parameters:    Size  Location     Type
   660 ;;		None
   661 ;; Auto vars:     Size  Location     Type
   662 ;;		None
   663 ;; Return value:  Size  Location     Type
   664 ;;                  1    wreg      void 
   665 ;; Registers used:
   666 ;;		wreg, fsr2l, fsr2h, status,2, status,0, prodl, prodh, cstack
   667 ;; Tracked objects:
   668 ;;		On entry : 0/0
   669 ;;		On exit  : 0/0
   670 ;;		Unchanged: 0/0
   671 ;; Data sizes:     COMRAM   BANK0   BANK1   BANK2   BANK3   BANK4   BANK5   BANK6   BANK7   BANK8   BANK9  BANK10  BANK1
      +1  BANK12  BANK13  BANK14
   672 ;;      Params:         0       0       0       0       0       0       0       0       0       0       0       0       
      +0       0       0       0
   673 ;;      Locals:         0       0       0       0       0       0       0       0       0       0       0       0       
      +0       0       0       0
   674 ;;      Temps:          0       0       0       0       0       0       0       0       0       0       0       0       
      +0       0       0       0
   675 ;;      Totals:         0       0       0       0       0       0       0       0       0       0       0       0       
      +0       0       0       0
   676 ;;Total ram usage:        0 bytes
   677 ;; Hardware stack levels required when called: 7
   678 ;; This function calls:
   679 ;;		_ADC_Conv_pinNine
   680 ;;		_ADC_Conv_pinSeven
   681 ;;		_CAN_transmit
   682 ;;		_SYSTEM_Initialize
   683 ;;		_canbus_shutdown_success
   684 ;;		_e_stop_seq
   685 ;;		_start_up_seq
   686 ;; This function is called by:
   687 ;;		Startup code after reset
   688 ;; This function uses a non-reentrant model
   689 ;;
   690                           
   691                           	psect	text0
   692  0015A2                     __ptext0:
   693                           	callstack 0
   694  0015A2                     _main:
   695                           	callstack 24
   696  0015A2                     
   697                           ;main.c: 327:     SYSTEM_Initialize();
   698  0015A2  EC28  F00C         	call	_SYSTEM_Initialize	;wreg free
   699  0015A6                     l3060:
   700                           
   701                           ;main.c: 328:     STARTUP_SUCCESS = 0;
   702  0015A6  0E00               	movlw	0
   703  0015A8  6E44               	movwf	(_STARTUP_SUCCESS+1)^0,c
   704  0015AA  0E00               	movlw	0
   705  0015AC  6E43               	movwf	_STARTUP_SUCCESS^0,c
   706  0015AE                     l3062:
   707                           
   708                           ;main.c: 334:         tx21.frame.idType = 1;
   709  0015AE  0E01               	movlw	1
   710  0015B0  0100               	movlb	0	; () banked
   711  0015B2  6F6E               	movwf	_tx21& (0+255),b
   712  0015B4                     
   713                           ; BSR set to: 0
   714                           ;main.c: 335:         tx21.frame.id = 0x39;
   715  0015B4  0E39               	movlw	57
   716  0015B6  6F6F               	movwf	(_tx21+1)& (0+255),b
   717  0015B8  0E00               	movlw	0
   718  0015BA  6F70               	movwf	(_tx21+2)& (0+255),b
   719  0015BC  0E00               	movlw	0
   720  0015BE  6F71               	movwf	(_tx21+3)& (0+255),b
   721  0015C0  0E00               	movlw	0
   722  0015C2  6F72               	movwf	(_tx21+4)& (0+255),b
   723  0015C4                     
   724                           ; BSR set to: 0
   725                           ;main.c: 336:         tx21.frame.dlc = 1;
   726  0015C4  0E01               	movlw	1
   727  0015C6  6F73               	movwf	(_tx21+5)& (0+255),b
   728  0015C8                     
   729                           ; BSR set to: 0
   730                           ;main.c: 337:         tx21.frame.data0 = ADC_Conv_pinNine();
   731  0015C8  EC41  F009         	call	_ADC_Conv_pinNine	;wreg free
   732  0015CC  5035               	movf	?_ADC_Conv_pinNine^0,w,c
   733  0015CE  0100               	movlb	0	; () banked
   734  0015D0  6F74               	movwf	(_tx21+6)& (0+255),b
   735  0015D2                     
   736                           ; BSR set to: 0
   737                           ;main.c: 338:         CAN_transmit(&tx21);
   738  0015D2  0E6E               	movlw	low _tx21
   739  0015D4  6E15               	movwf	CAN_transmit@tempCanMsg^0,c
   740  0015D6  0E00               	movlw	high _tx21
   741  0015D8  6E16               	movwf	(CAN_transmit@tempCanMsg+1)^0,c
   742  0015DA  EC0A  F004         	call	_CAN_transmit	;wreg free
   743  0015DE                     
   744                           ;main.c: 339:         if (STARTUP_SUCCESS == 0){
   745  0015DE  5043               	movf	_STARTUP_SUCCESS^0,w,c
   746  0015E0  1044               	iorwf	(_STARTUP_SUCCESS+1)^0,w,c
   747  0015E2  A4D8               	btfss	status,2,c
   748  0015E4  EFF6  F00A         	goto	u1901
   749  0015E8  EFF8  F00A         	goto	u1900
   750  0015EC                     u1901:
   751  0015EC  EFFC  F00A         	goto	l3076
   752  0015F0                     u1900:
   753  0015F0                     
   754                           ;main.c: 340:                 start_up_seq();
   755  0015F0  EC55  F00A         	call	_start_up_seq	;wreg free
   756                           
   757                           ;main.c: 341:             }
   758  0015F4  EFD7  F00A         	goto	l3062
   759  0015F8                     l3076:
   760                           
   761                           ;main.c: 343:             if (ADC_Conv_pinSeven() == 0){
   762  0015F8  ECAF  F008         	call	_ADC_Conv_pinSeven	;wreg free
   763  0015FC  5035               	movf	?_ADC_Conv_pinSeven^0,w,c
   764  0015FE  1036               	iorwf	(?_ADC_Conv_pinSeven+1)^0,w,c
   765  001600  A4D8               	btfss	status,2,c
   766  001602  EF05  F00B         	goto	u1911
   767  001606  EF07  F00B         	goto	u1910
   768  00160A                     u1911:
   769  00160A  EF0F  F00B         	goto	l3082
   770  00160E                     u1910:
   771  00160E                     
   772                           ;main.c: 344:                 canbus_shutdown_success(1);
   773  00160E  0E00               	movlw	0
   774  001610  6E1C               	movwf	(canbus_shutdown_success@number+1)^0,c
   775  001612  0E01               	movlw	1
   776  001614  6E1B               	movwf	canbus_shutdown_success@number^0,c
   777  001616  EC03  F00C         	call	_canbus_shutdown_success	;wreg free
   778  00161A  EFD3  F00A         	goto	l3060
   779  00161E                     l3082:
   780  00161E  EC41  F009         	call	_ADC_Conv_pinNine	;wreg free
   781  001622  5035               	movf	?_ADC_Conv_pinNine^0,w,c
   782  001624  1036               	iorwf	(?_ADC_Conv_pinNine+1)^0,w,c
   783  001626  A4D8               	btfss	status,2,c
   784  001628  EF18  F00B         	goto	u1921
   785  00162C  EF1A  F00B         	goto	u1920
   786  001630                     u1921:
   787  001630  EF1E  F00B         	goto	l716
   788  001634                     u1920:
   789  001634                     
   790                           ;main.c: 348:                 e_stop_seq();
   791  001634  EC3E  F00C         	call	_e_stop_seq	;wreg free
   792  001638  EFD7  F00A         	goto	l3062
   793  00163C                     l716:
   794  00163C  EFD7  F00A         	goto	l3062
   795  001640  EF26  F000         	goto	start
   796  001644                     __end_of_main:
   797                           	callstack 0
   798                           
   799 ;; *************** function _start_up_seq *****************
   800 ;; Defined at:
   801 ;;		line 196 in file "main.c"
   802 ;; Parameters:    Size  Location     Type
   803 ;;		None
   804 ;; Auto vars:     Size  Location     Type
   805 ;;		None
   806 ;; Return value:  Size  Location     Type
   807 ;;                  1    wreg      void 
   808 ;; Registers used:
   809 ;;		wreg, fsr2l, fsr2h, status,2, status,0, prodl, prodh, cstack
   810 ;; Tracked objects:
   811 ;;		On entry : 0/0
   812 ;;		On exit  : 0/0
   813 ;;		Unchanged: 0/0
   814 ;; Data sizes:     COMRAM   BANK0   BANK1   BANK2   BANK3   BANK4   BANK5   BANK6   BANK7   BANK8   BANK9  BANK10  BANK1
      +1  BANK12  BANK13  BANK14
   815 ;;      Params:         0       0       0       0       0       0       0       0       0       0       0       0       
      +0       0       0       0
   816 ;;      Locals:         0       0       0       0       0       0       0       0       0       0       0       0       
      +0       0       0       0
   817 ;;      Temps:          2       0       0       0       0       0       0       0       0       0       0       0       
      +0       0       0       0
   818 ;;      Totals:         2       0       0       0       0       0       0       0       0       0       0       0       
      +0       0       0       0
   819 ;;Total ram usage:        2 bytes
   820 ;; Hardware stack levels used: 1
   821 ;; Hardware stack levels required when called: 6
   822 ;; This function calls:
   823 ;;		_ADC_Conv_pinNine
   824 ;;		_ADC_Conv_pinSeven
   825 ;;		_CAN_transmit
   826 ;;		_canbus_motor_rearL_tx
   827 ;;		_canbus_msg_motor
   828 ;;		_canbus_msg_startupfail
   829 ;;		_undo_seq
   830 ;; This function is called by:
   831 ;;		_main
   832 ;; This function uses a non-reentrant model
   833 ;;
   834                           
   835                           	psect	text1
   836  0014AA                     __ptext1:
   837                           	callstack 0
   838  0014AA                     _start_up_seq:
   839                           	callstack 24
   840  0014AA                     
   841                           ;main.c: 198:     if (ADC_Conv_pinSeven() == 1){
   842  0014AA  ECAF  F008         	call	_ADC_Conv_pinSeven	;wreg free
   843  0014AE  0435               	decf	?_ADC_Conv_pinSeven^0,w,c
   844  0014B0  1036               	iorwf	(?_ADC_Conv_pinSeven+1)^0,w,c
   845  0014B2  A4D8               	btfss	status,2,c
   846  0014B4  EF5E  F00A         	goto	u1851
   847  0014B8  EF60  F00A         	goto	u1850
   848  0014BC                     u1851:
   849  0014BC  EFD0  F00A         	goto	l693
   850  0014C0                     u1850:
   851  0014C0  8089               	bsf	137,0,c	;volatile
   852  0014C2  8C8B               	bsf	139,6,c	;volatile
   853  0014C4                     
   854                           ;main.c: 201:         _delay((unsigned long)((50)*(20000000/4000.0)));
   855  0014C4  0E02               	movlw	2
   856  0014C6  6E40               	movwf	(??_start_up_seq+1)^0,c
   857  0014C8  0E45               	movlw	69
   858  0014CA  6E3F               	movwf	??_start_up_seq^0,c
   859  0014CC  0EAA               	movlw	170
   860  0014CE                     u1937:
   861  0014CE  2EE8               	decfsz	wreg,f,c
   862  0014D0  D7FE               	bra	u1937
   863  0014D2  2E3F               	decfsz	??_start_up_seq^0,f,c
   864  0014D4  D7FC               	bra	u1937
   865  0014D6  2E40               	decfsz	(??_start_up_seq+1)^0,f,c
   866  0014D8  D7FA               	bra	u1937
   867  0014DA                     
   868                           ;main.c: 204:         if (ADC_Conv_pinNine() == 1){
   869  0014DA  EC41  F009         	call	_ADC_Conv_pinNine	;wreg free
   870  0014DE  0435               	decf	?_ADC_Conv_pinNine^0,w,c
   871  0014E0  1036               	iorwf	(?_ADC_Conv_pinNine+1)^0,w,c
   872  0014E2  A4D8               	btfss	status,2,c
   873  0014E4  EF76  F00A         	goto	u1861
   874  0014E8  EF78  F00A         	goto	u1860
   875  0014EC                     u1861:
   876  0014EC  EFC8  F00A         	goto	l3032
   877  0014F0                     u1860:
   878  0014F0  8489               	bsf	137,2,c	;volatile
   879  0014F2  8689               	bsf	137,3,c	;volatile
   880  0014F4  828B               	bsf	139,1,c	;volatile
   881  0014F6  888B               	bsf	139,4,c	;volatile
   882  0014F8                     
   883                           ;main.c: 209:             _delay((unsigned long)((5)*(20000000/4000.0)));
   884  0014F8  0E21               	movlw	33
   885  0014FA  6E3F               	movwf	??_start_up_seq^0,c
   886  0014FC  0E76               	movlw	118
   887  0014FE                     u1947:
   888  0014FE  2EE8               	decfsz	wreg,f,c
   889  001500  D7FE               	bra	u1947
   890  001502  2E3F               	decfsz	??_start_up_seq^0,f,c
   891  001504  D7FC               	bra	u1947
   892  001506  D000               	nop2	
   893  001508  848B               	bsf	139,2,c	;volatile
   894  00150A  8A8B               	bsf	139,5,c	;volatile
   895  00150C                     
   896                           ;main.c: 213:             _delay((unsigned long)((5)*(20000000/4000.0)));
   897  00150C  0E21               	movlw	33
   898  00150E  6E3F               	movwf	??_start_up_seq^0,c
   899  001510  0E76               	movlw	118
   900  001512                     u1957:
   901  001512  2EE8               	decfsz	wreg,f,c
   902  001514  D7FE               	bra	u1957
   903  001516  2E3F               	decfsz	??_start_up_seq^0,f,c
   904  001518  D7FC               	bra	u1957
   905  00151A  D000               	nop2	
   906  00151C                     
   907                           ;main.c: 217:             canbus_motor_rearL_tx(0b00000010);
   908  00151C  0E00               	movlw	0
   909  00151E  6E1C               	movwf	(canbus_motor_rearL_tx@number+1)^0,c
   910  001520  0E02               	movlw	2
   911  001522  6E1B               	movwf	canbus_motor_rearL_tx@number^0,c
   912  001524  ECD7  F00B         	call	_canbus_motor_rearL_tx	;wreg free
   913  001528  808B               	bsf	139,0,c	;volatile
   914  00152A  868B               	bsf	139,3,c	;volatile
   915  00152C                     
   916                           ;main.c: 254:                         _delay((unsigned long)((500)*(20000000/4000.0)));
   917  00152C  0E0D               	movlw	13
   918  00152E  6E40               	movwf	(??_start_up_seq+1)^0,c
   919  001530  0EAF               	movlw	175
   920  001532  6E3F               	movwf	??_start_up_seq^0,c
   921  001534  0EB6               	movlw	182
   922  001536                     u1967:
   923  001536  2EE8               	decfsz	wreg,f,c
   924  001538  D7FE               	bra	u1967
   925  00153A  2E3F               	decfsz	??_start_up_seq^0,f,c
   926  00153C  D7FC               	bra	u1967
   927  00153E  2E40               	decfsz	(??_start_up_seq+1)^0,f,c
   928  001540  D7FA               	bra	u1967
   929  001542  D000               	nop2	
   930  001544  948B               	bcf	139,2,c	;volatile
   931  001546  9A8B               	bcf	139,5,c	;volatile
   932  001548                     
   933                           ;main.c: 259:                         _delay((unsigned long)((10)*(20000000/4000.0)));
   934  001548  0E41               	movlw	65
   935  00154A  6E3F               	movwf	??_start_up_seq^0,c
   936  00154C  0EEE               	movlw	238
   937  00154E                     u1977:
   938  00154E  2EE8               	decfsz	wreg,f,c
   939  001550  D7FE               	bra	u1977
   940  001552  2E3F               	decfsz	??_start_up_seq^0,f,c
   941  001554  D7FC               	bra	u1977
   942  001556  D000               	nop2	
   943  001558  8289               	bsf	137,1,c	;volatile
   944  00155A                     
   945                           ;main.c: 264:                         STARTUP_SUCCESS = 1;
   946  00155A  0E00               	movlw	0
   947  00155C  6E44               	movwf	(_STARTUP_SUCCESS+1)^0,c
   948  00155E  0E01               	movlw	1
   949  001560  6E43               	movwf	_STARTUP_SUCCESS^0,c
   950  001562                     
   951                           ;main.c: 265:                         tx20.frame.idType = 1;
   952  001562  0E01               	movlw	1
   953  001564  0100               	movlb	0	; () banked
   954  001566  6F7C               	movwf	_tx20& (0+255),b
   955  001568                     
   956                           ; BSR set to: 0
   957                           ;main.c: 266:                         tx20.frame.id = 0x183;
   958  001568  0E83               	movlw	131
   959  00156A  6F7D               	movwf	(_tx20+1)& (0+255),b
   960  00156C  0E01               	movlw	1
   961  00156E  6F7E               	movwf	(_tx20+2)& (0+255),b
   962  001570  0E00               	movlw	0
   963  001572  6F7F               	movwf	(_tx20+3)& (0+255),b
   964  001574  0E00               	movlw	0
   965  001576  6F80               	movwf	(_tx20+4)& (0+255),b
   966  001578                     
   967                           ; BSR set to: 0
   968                           ;main.c: 267:                         tx20.frame.dlc = 1;
   969  001578  0E01               	movlw	1
   970  00157A  6F81               	movwf	(_tx20+5)& (0+255),b
   971  00157C                     
   972                           ; BSR set to: 0
   973                           ;main.c: 268:                         tx20.frame.data0 = STARTUP_SUCCESS;
   974  00157C  C043  F082         	movff	_STARTUP_SUCCESS,_tx20+6
   975  001580                     
   976                           ; BSR set to: 0
   977                           ;main.c: 269:                         CAN_transmit(&tx20);
   978  001580  0E7C               	movlw	low _tx20
   979  001582  6E15               	movwf	CAN_transmit@tempCanMsg^0,c
   980  001584  0E00               	movlw	high _tx20
   981  001586  6E16               	movwf	(CAN_transmit@tempCanMsg+1)^0,c
   982  001588  EC0A  F004         	call	_CAN_transmit	;wreg free
   983  00158C  EFD0  F00A         	goto	l693
   984  001590                     l3032:
   985                           
   986                           ;main.c: 278:             undo_seq();
   987  001590  ECFE  F007         	call	_undo_seq	;wreg free
   988  001594                     
   989                           ;main.c: 280:             canbus_msg_startupfail(1);
   990  001594  0E00               	movlw	0
   991  001596  6E1C               	movwf	(canbus_msg_startupfail@number+1)^0,c
   992  001598  0E01               	movlw	1
   993  00159A  6E1B               	movwf	canbus_msg_startupfail@number^0,c
   994  00159C  ECAB  F00B         	call	_canbus_msg_startupfail	;wreg free
   995  0015A0                     l693:
   996  0015A0  0012               	return		;funcret
   997  0015A2                     __end_of_start_up_seq:
   998                           	callstack 0
   999                           
  1000 ;; *************** function _undo_seq *****************
  1001 ;; Defined at:
  1002 ;;		line 149 in file "main.c"
  1003 ;; Parameters:    Size  Location     Type
  1004 ;;		None
  1005 ;; Auto vars:     Size  Location     Type
  1006 ;;		None
  1007 ;; Return value:  Size  Location     Type
  1008 ;;                  1    wreg      void 
  1009 ;; Registers used:
  1010 ;;		wreg
  1011 ;; Tracked objects:
  1012 ;;		On entry : 0/0
  1013 ;;		On exit  : 0/0
  1014 ;;		Unchanged: 0/0
  1015 ;; Data sizes:     COMRAM   BANK0   BANK1   BANK2   BANK3   BANK4   BANK5   BANK6   BANK7   BANK8   BANK9  BANK10  BANK1
      +1  BANK12  BANK13  BANK14
  1016 ;;      Params:         0       0       0       0       0       0       0       0       0       0       0       0       
      +0       0       0       0
  1017 ;;      Locals:         0       0       0       0       0       0       0       0       0       0       0       0       
      +0       0       0       0
  1018 ;;      Temps:          1       0       0       0       0       0       0       0       0       0       0       0       
      +0       0       0       0
  1019 ;;      Totals:         1       0       0       0       0       0       0       0       0       0       0       0       
      +0       0       0       0
  1020 ;;Total ram usage:        1 bytes
  1021 ;; Hardware stack levels used: 1
  1022 ;; Hardware stack levels required when called: 3
  1023 ;; This function calls:
  1024 ;;		Nothing
  1025 ;; This function is called by:
  1026 ;;		_start_up_seq
  1027 ;; This function uses a non-reentrant model
  1028 ;;
  1029                           
  1030                           	psect	text2
  1031  000FFC                     __ptext2:
  1032                           	callstack 0
  1033  000FFC                     _undo_seq:
  1034                           	callstack 26
  1035  000FFC                     
  1036                           ;main.c: 150:     if (PORTAbits.RA1 == 1){
  1037  000FFC  A280               	btfss	128,1,c	;volatile
  1038  000FFE  EF03  F008         	goto	u1741
  1039  001002  EF05  F008         	goto	u1740
  1040  001006                     u1741:
  1041  001006  EF0E  F008         	goto	l2926
  1042  00100A                     u1740:
  1043  00100A  9289               	bcf	137,1,c	;volatile
  1044  00100C                     
  1045                           ;main.c: 152:         _delay((unsigned long)((5)*(20000000/4000.0)));
  1046  00100C  0E21               	movlw	33
  1047  00100E  6E03               	movwf	??_undo_seq^0,c
  1048  001010  0E76               	movlw	118
  1049  001012                     u1987:
  1050  001012  2EE8               	decfsz	wreg,f,c
  1051  001014  D7FE               	bra	u1987
  1052  001016  2E03               	decfsz	??_undo_seq^0,f,c
  1053  001018  D7FC               	bra	u1987
  1054  00101A  D000               	nop2	
  1055  00101C                     l2926:
  1056                           
  1057                           ;main.c: 154:     if (PORTCbits.RC3 == 1){
  1058  00101C  A682               	btfss	130,3,c	;volatile
  1059  00101E  EF13  F008         	goto	u1751
  1060  001022  EF15  F008         	goto	u1750
  1061  001026                     u1751:
  1062  001026  EF1E  F008         	goto	l2930
  1063  00102A                     u1750:
  1064  00102A  968B               	bcf	139,3,c	;volatile
  1065  00102C                     
  1066                           ;main.c: 156:         _delay((unsigned long)((5)*(20000000/4000.0)));
  1067  00102C  0E21               	movlw	33
  1068  00102E  6E03               	movwf	??_undo_seq^0,c
  1069  001030  0E76               	movlw	118
  1070  001032                     u1997:
  1071  001032  2EE8               	decfsz	wreg,f,c
  1072  001034  D7FE               	bra	u1997
  1073  001036  2E03               	decfsz	??_undo_seq^0,f,c
  1074  001038  D7FC               	bra	u1997
  1075  00103A  D000               	nop2	
  1076  00103C                     l2930:
  1077                           
  1078                           ;main.c: 158:     if (PORTCbits.RC0 == 1){
  1079  00103C  A082               	btfss	130,0,c	;volatile
  1080  00103E  EF23  F008         	goto	u1761
  1081  001042  EF25  F008         	goto	u1760
  1082  001046                     u1761:
  1083  001046  EF2E  F008         	goto	l2934
  1084  00104A                     u1760:
  1085  00104A  908B               	bcf	139,0,c	;volatile
  1086  00104C                     
  1087                           ;main.c: 160:         _delay((unsigned long)((5)*(20000000/4000.0)));
  1088  00104C  0E21               	movlw	33
  1089  00104E  6E03               	movwf	??_undo_seq^0,c
  1090  001050  0E76               	movlw	118
  1091  001052                     u2007:
  1092  001052  2EE8               	decfsz	wreg,f,c
  1093  001054  D7FE               	bra	u2007
  1094  001056  2E03               	decfsz	??_undo_seq^0,f,c
  1095  001058  D7FC               	bra	u2007
  1096  00105A  D000               	nop2	
  1097  00105C                     l2934:
  1098                           
  1099                           ;main.c: 162:     if (PORTCbits.RC5 == 1){
  1100  00105C  AA82               	btfss	130,5,c	;volatile
  1101  00105E  EF33  F008         	goto	u1771
  1102  001062  EF35  F008         	goto	u1770
  1103  001066                     u1771:
  1104  001066  EF3E  F008         	goto	l2938
  1105  00106A                     u1770:
  1106  00106A  9A8B               	bcf	139,5,c	;volatile
  1107  00106C                     
  1108                           ;main.c: 164:         _delay((unsigned long)((5)*(20000000/4000.0)));
  1109  00106C  0E21               	movlw	33
  1110  00106E  6E03               	movwf	??_undo_seq^0,c
  1111  001070  0E76               	movlw	118
  1112  001072                     u2017:
  1113  001072  2EE8               	decfsz	wreg,f,c
  1114  001074  D7FE               	bra	u2017
  1115  001076  2E03               	decfsz	??_undo_seq^0,f,c
  1116  001078  D7FC               	bra	u2017
  1117  00107A  D000               	nop2	
  1118  00107C                     l2938:
  1119                           
  1120                           ;main.c: 166:     if (PORTCbits.RC2 == 1){
  1121  00107C  A482               	btfss	130,2,c	;volatile
  1122  00107E  EF43  F008         	goto	u1781
  1123  001082  EF45  F008         	goto	u1780
  1124  001086                     u1781:
  1125  001086  EF4E  F008         	goto	l2942
  1126  00108A                     u1780:
  1127  00108A  948B               	bcf	139,2,c	;volatile
  1128  00108C                     
  1129                           ;main.c: 168:         _delay((unsigned long)((5)*(20000000/4000.0)));
  1130  00108C  0E21               	movlw	33
  1131  00108E  6E03               	movwf	??_undo_seq^0,c
  1132  001090  0E76               	movlw	118
  1133  001092                     u2027:
  1134  001092  2EE8               	decfsz	wreg,f,c
  1135  001094  D7FE               	bra	u2027
  1136  001096  2E03               	decfsz	??_undo_seq^0,f,c
  1137  001098  D7FC               	bra	u2027
  1138  00109A  D000               	nop2	
  1139  00109C                     l2942:
  1140                           
  1141                           ;main.c: 170:     if (PORTCbits.RC4 == 1){
  1142  00109C  A882               	btfss	130,4,c	;volatile
  1143  00109E  EF53  F008         	goto	u1791
  1144  0010A2  EF55  F008         	goto	u1790
  1145  0010A6                     u1791:
  1146  0010A6  EF5E  F008         	goto	l2946
  1147  0010AA                     u1790:
  1148  0010AA  988B               	bcf	139,4,c	;volatile
  1149  0010AC                     
  1150                           ;main.c: 172:         _delay((unsigned long)((5)*(20000000/4000.0)));
  1151  0010AC  0E21               	movlw	33
  1152  0010AE  6E03               	movwf	??_undo_seq^0,c
  1153  0010B0  0E76               	movlw	118
  1154  0010B2                     u2037:
  1155  0010B2  2EE8               	decfsz	wreg,f,c
  1156  0010B4  D7FE               	bra	u2037
  1157  0010B6  2E03               	decfsz	??_undo_seq^0,f,c
  1158  0010B8  D7FC               	bra	u2037
  1159  0010BA  D000               	nop2	
  1160  0010BC                     l2946:
  1161                           
  1162                           ;main.c: 174:     if (PORTCbits.RC1== 1){
  1163  0010BC  A282               	btfss	130,1,c	;volatile
  1164  0010BE  EF63  F008         	goto	u1801
  1165  0010C2  EF65  F008         	goto	u1800
  1166  0010C6                     u1801:
  1167  0010C6  EF6E  F008         	goto	l2950
  1168  0010CA                     u1800:
  1169  0010CA  928B               	bcf	139,1,c	;volatile
  1170  0010CC                     
  1171                           ;main.c: 176:         _delay((unsigned long)((5)*(20000000/4000.0)));
  1172  0010CC  0E21               	movlw	33
  1173  0010CE  6E03               	movwf	??_undo_seq^0,c
  1174  0010D0  0E76               	movlw	118
  1175  0010D2                     u2047:
  1176  0010D2  2EE8               	decfsz	wreg,f,c
  1177  0010D4  D7FE               	bra	u2047
  1178  0010D6  2E03               	decfsz	??_undo_seq^0,f,c
  1179  0010D8  D7FC               	bra	u2047
  1180  0010DA  D000               	nop2	
  1181  0010DC                     l2950:
  1182                           
  1183                           ;main.c: 178:     if (PORTAbits.RA3 == 1){
  1184  0010DC  A680               	btfss	128,3,c	;volatile
  1185  0010DE  EF73  F008         	goto	u1811
  1186  0010E2  EF75  F008         	goto	u1810
  1187  0010E6                     u1811:
  1188  0010E6  EF7E  F008         	goto	l2954
  1189  0010EA                     u1810:
  1190  0010EA  9689               	bcf	137,3,c	;volatile
  1191  0010EC                     
  1192                           ;main.c: 180:         _delay((unsigned long)((5)*(20000000/4000.0)));
  1193  0010EC  0E21               	movlw	33
  1194  0010EE  6E03               	movwf	??_undo_seq^0,c
  1195  0010F0  0E76               	movlw	118
  1196  0010F2                     u2057:
  1197  0010F2  2EE8               	decfsz	wreg,f,c
  1198  0010F4  D7FE               	bra	u2057
  1199  0010F6  2E03               	decfsz	??_undo_seq^0,f,c
  1200  0010F8  D7FC               	bra	u2057
  1201  0010FA  D000               	nop2	
  1202  0010FC                     l2954:
  1203                           
  1204                           ;main.c: 182:     if (PORTAbits.RA2 == 1){
  1205  0010FC  A480               	btfss	128,2,c	;volatile
  1206  0010FE  EF83  F008         	goto	u1821
  1207  001102  EF85  F008         	goto	u1820
  1208  001106                     u1821:
  1209  001106  EF8E  F008         	goto	l2958
  1210  00110A                     u1820:
  1211  00110A  9489               	bcf	137,2,c	;volatile
  1212  00110C                     
  1213                           ;main.c: 184:         _delay((unsigned long)((5)*(20000000/4000.0)));
  1214  00110C  0E21               	movlw	33
  1215  00110E  6E03               	movwf	??_undo_seq^0,c
  1216  001110  0E76               	movlw	118
  1217  001112                     u2067:
  1218  001112  2EE8               	decfsz	wreg,f,c
  1219  001114  D7FE               	bra	u2067
  1220  001116  2E03               	decfsz	??_undo_seq^0,f,c
  1221  001118  D7FC               	bra	u2067
  1222  00111A  D000               	nop2	
  1223  00111C                     l2958:
  1224                           
  1225                           ;main.c: 186:     if (PORTCbits.RC6 == 1){
  1226  00111C  AC82               	btfss	130,6,c	;volatile
  1227  00111E  EF93  F008         	goto	u1831
  1228  001122  EF95  F008         	goto	u1830
  1229  001126                     u1831:
  1230  001126  EF9E  F008         	goto	l2962
  1231  00112A                     u1830:
  1232  00112A  9C8B               	bcf	139,6,c	;volatile
  1233  00112C                     
  1234                           ;main.c: 188:         _delay((unsigned long)((5)*(20000000/4000.0)));
  1235  00112C  0E21               	movlw	33
  1236  00112E  6E03               	movwf	??_undo_seq^0,c
  1237  001130  0E76               	movlw	118
  1238  001132                     u2077:
  1239  001132  2EE8               	decfsz	wreg,f,c
  1240  001134  D7FE               	bra	u2077
  1241  001136  2E03               	decfsz	??_undo_seq^0,f,c
  1242  001138  D7FC               	bra	u2077
  1243  00113A  D000               	nop2	
  1244  00113C                     l2962:
  1245                           
  1246                           ;main.c: 190:     if ((PORTAbits.RA0) == 1){
  1247  00113C  A080               	btfss	128,0,c	;volatile
  1248  00113E  EFA3  F008         	goto	u1841
  1249  001142  EFA5  F008         	goto	u1840
  1250  001146                     u1841:
  1251  001146  EFAE  F008         	goto	l658
  1252  00114A                     u1840:
  1253  00114A  9089               	bcf	137,0,c	;volatile
  1254  00114C                     
  1255                           ;main.c: 192:         _delay((unsigned long)((5)*(20000000/4000.0)));
  1256  00114C  0E21               	movlw	33
  1257  00114E  6E03               	movwf	??_undo_seq^0,c
  1258  001150  0E76               	movlw	118
  1259  001152                     u2087:
  1260  001152  2EE8               	decfsz	wreg,f,c
  1261  001154  D7FE               	bra	u2087
  1262  001156  2E03               	decfsz	??_undo_seq^0,f,c
  1263  001158  D7FC               	bra	u2087
  1264  00115A  D000               	nop2	
  1265  00115C                     l658:
  1266  00115C  0012               	return		;funcret
  1267  00115E                     __end_of_undo_seq:
  1268                           	callstack 0
  1269                           
  1270 ;; *************** function _canbus_msg_startupfail *****************
  1271 ;; Defined at:
  1272 ;;		line 96 in file "main.c"
  1273 ;; Parameters:    Size  Location     Type
  1274 ;;  number          2   26[COMRAM] int 
  1275 ;; Auto vars:     Size  Location     Type
  1276 ;;		None
  1277 ;; Return value:  Size  Location     Type
  1278 ;;                  1    wreg      void 
  1279 ;; Registers used:
  1280 ;;		wreg, fsr2l, fsr2h, status,2, status,0, cstack
  1281 ;; Tracked objects:
  1282 ;;		On entry : 0/0
  1283 ;;		On exit  : 0/0
  1284 ;;		Unchanged: 0/0
  1285 ;; Data sizes:     COMRAM   BANK0   BANK1   BANK2   BANK3   BANK4   BANK5   BANK6   BANK7   BANK8   BANK9  BANK10  BANK1
      +1  BANK12  BANK13  BANK14
  1286 ;;      Params:         2       0       0       0       0       0       0       0       0       0       0       0       
      +0       0       0       0
  1287 ;;      Locals:         0       0       0       0       0       0       0       0       0       0       0       0       
      +0       0       0       0
  1288 ;;      Temps:          0       0       0       0       0       0       0       0       0       0       0       0       
      +0       0       0       0
  1289 ;;      Totals:         2       0       0       0       0       0       0       0       0       0       0       0       
      +0       0       0       0
  1290 ;;Total ram usage:        2 bytes
  1291 ;; Hardware stack levels used: 1
  1292 ;; Hardware stack levels required when called: 5
  1293 ;; This function calls:
  1294 ;;		_CAN_transmit
  1295 ;; This function is called by:
  1296 ;;		_start_up_seq
  1297 ;; This function uses a non-reentrant model
  1298 ;;
  1299                           
  1300                           	psect	text3
  1301  001756                     __ptext3:
  1302                           	callstack 0
  1303  001756                     _canbus_msg_startupfail:
  1304                           	callstack 24
  1305  001756                     
  1306                           ;main.c: 97:     tx3.frame.idType = 1;
  1307  001756  0E01               	movlw	1
  1308  001758  0100               	movlb	0	; () banked
  1309  00175A  6FD0               	movwf	_tx3& (0+255),b
  1310                           
  1311                           ;main.c: 98:     tx3.frame.id = 0x3;
  1312  00175C  0E03               	movlw	3
  1313  00175E  6FD1               	movwf	(_tx3+1)& (0+255),b
  1314  001760  0E00               	movlw	0
  1315  001762  6FD2               	movwf	(_tx3+2)& (0+255),b
  1316  001764  0E00               	movlw	0
  1317  001766  6FD3               	movwf	(_tx3+3)& (0+255),b
  1318  001768  0E00               	movlw	0
  1319  00176A  6FD4               	movwf	(_tx3+4)& (0+255),b
  1320                           
  1321                           ;main.c: 99:     tx3.frame.dlc = 0x01;
  1322  00176C  0E01               	movlw	1
  1323  00176E  6FD5               	movwf	(_tx3+5)& (0+255),b
  1324  001770                     
  1325                           ; BSR set to: 0
  1326                           ;main.c: 100:     tx3.frame.data0 = number;
  1327  001770  C01B  F0D6         	movff	canbus_msg_startupfail@number,_tx3+6
  1328  001774                     
  1329                           ; BSR set to: 0
  1330                           ;main.c: 101:     CAN_transmit(&tx3);
  1331  001774  0ED0               	movlw	low _tx3
  1332  001776  6E15               	movwf	CAN_transmit@tempCanMsg^0,c
  1333  001778  0E00               	movlw	high _tx3
  1334  00177A  6E16               	movwf	(CAN_transmit@tempCanMsg+1)^0,c
  1335  00177C  EC0A  F004         	call	_CAN_transmit	;wreg free
  1336  001780  0012               	return		;funcret
  1337  001782                     __end_of_canbus_msg_startupfail:
  1338                           	callstack 0
  1339                           
  1340 ;; *************** function _canbus_msg_motor *****************
  1341 ;; Defined at:
  1342 ;;		line 87 in file "main.c"
  1343 ;; Parameters:    Size  Location     Type
  1344 ;;  number          2   26[COMRAM] int 
  1345 ;; Auto vars:     Size  Location     Type
  1346 ;;		None
  1347 ;; Return value:  Size  Location     Type
  1348 ;;                  1    wreg      void 
  1349 ;; Registers used:
  1350 ;;		wreg, fsr2l, fsr2h, status,2, status,0, cstack
  1351 ;; Tracked objects:
  1352 ;;		On entry : 0/0
  1353 ;;		On exit  : 0/0
  1354 ;;		Unchanged: 0/0
  1355 ;; Data sizes:     COMRAM   BANK0   BANK1   BANK2   BANK3   BANK4   BANK5   BANK6   BANK7   BANK8   BANK9  BANK10  BANK1
      +1  BANK12  BANK13  BANK14
  1356 ;;      Params:         2       0       0       0       0       0       0       0       0       0       0       0       
      +0       0       0       0
  1357 ;;      Locals:         0       0       0       0       0       0       0       0       0       0       0       0       
      +0       0       0       0
  1358 ;;      Temps:          0       0       0       0       0       0       0       0       0       0       0       0       
      +0       0       0       0
  1359 ;;      Totals:         2       0       0       0       0       0       0       0       0       0       0       0       
      +0       0       0       0
  1360 ;;Total ram usage:        2 bytes
  1361 ;; Hardware stack levels used: 1
  1362 ;; Hardware stack levels required when called: 5
  1363 ;; This function calls:
  1364 ;;		_CAN_transmit
  1365 ;; This function is called by:
  1366 ;;		_start_up_seq
  1367 ;; This function uses a non-reentrant model
  1368 ;;
  1369                           
  1370                           	psect	text4
  1371  001782                     __ptext4:
  1372                           	callstack 0
  1373  001782                     _canbus_msg_motor:
  1374                           	callstack 24
  1375  001782                     
  1376                           ;main.c: 88:     tx2.frame.idType = 1;
  1377  001782  0E01               	movlw	1
  1378  001784  0100               	movlb	0	; () banked
  1379  001786  6FDE               	movwf	_tx2& (0+255),b
  1380                           
  1381                           ;main.c: 89:     tx2.frame.id = 0x2;
  1382  001788  0E02               	movlw	2
  1383  00178A  6FDF               	movwf	(_tx2+1)& (0+255),b
  1384  00178C  0E00               	movlw	0
  1385  00178E  6FE0               	movwf	(_tx2+2)& (0+255),b
  1386  001790  0E00               	movlw	0
  1387  001792  6FE1               	movwf	(_tx2+3)& (0+255),b
  1388  001794  0E00               	movlw	0
  1389  001796  6FE2               	movwf	(_tx2+4)& (0+255),b
  1390                           
  1391                           ;main.c: 90:     tx2.frame.dlc = 0x01;
  1392  001798  0E01               	movlw	1
  1393  00179A  6FE3               	movwf	(_tx2+5)& (0+255),b
  1394  00179C                     
  1395                           ; BSR set to: 0
  1396                           ;main.c: 91:     tx2.frame.data0 = number;
  1397  00179C  C01B  F0E4         	movff	canbus_msg_motor@number,_tx2+6
  1398  0017A0                     
  1399                           ; BSR set to: 0
  1400                           ;main.c: 92:     CAN_transmit(&tx2);
  1401  0017A0  0EDE               	movlw	low _tx2
  1402  0017A2  6E15               	movwf	CAN_transmit@tempCanMsg^0,c
  1403  0017A4  0E00               	movlw	high _tx2
  1404  0017A6  6E16               	movwf	(CAN_transmit@tempCanMsg+1)^0,c
  1405  0017A8  EC0A  F004         	call	_CAN_transmit	;wreg free
  1406  0017AC  0012               	return		;funcret
  1407  0017AE                     __end_of_canbus_msg_motor:
  1408                           	callstack 0
  1409                           
  1410 ;; *************** function _canbus_motor_rearL_tx *****************
  1411 ;; Defined at:
  1412 ;;		line 141 in file "main.c"
  1413 ;; Parameters:    Size  Location     Type
  1414 ;;  number          2   26[COMRAM] int 
  1415 ;; Auto vars:     Size  Location     Type
  1416 ;;		None
  1417 ;; Return value:  Size  Location     Type
  1418 ;;                  1    wreg      void 
  1419 ;; Registers used:
  1420 ;;		wreg, fsr2l, fsr2h, status,2, status,0, cstack
  1421 ;; Tracked objects:
  1422 ;;		On entry : 0/0
  1423 ;;		On exit  : 0/0
  1424 ;;		Unchanged: 0/0
  1425 ;; Data sizes:     COMRAM   BANK0   BANK1   BANK2   BANK3   BANK4   BANK5   BANK6   BANK7   BANK8   BANK9  BANK10  BANK1
      +1  BANK12  BANK13  BANK14
  1426 ;;      Params:         2       0       0       0       0       0       0       0       0       0       0       0       
      +0       0       0       0
  1427 ;;      Locals:         0       0       0       0       0       0       0       0       0       0       0       0       
      +0       0       0       0
  1428 ;;      Temps:          0       0       0       0       0       0       0       0       0       0       0       0       
      +0       0       0       0
  1429 ;;      Totals:         2       0       0       0       0       0       0       0       0       0       0       0       
      +0       0       0       0
  1430 ;;Total ram usage:        2 bytes
  1431 ;; Hardware stack levels used: 1
  1432 ;; Hardware stack levels required when called: 5
  1433 ;; This function calls:
  1434 ;;		_CAN_transmit
  1435 ;; This function is called by:
  1436 ;;		_start_up_seq
  1437 ;; This function uses a non-reentrant model
  1438 ;;
  1439                           
  1440                           	psect	text5
  1441  0017AE                     __ptext5:
  1442                           	callstack 0
  1443  0017AE                     _canbus_motor_rearL_tx:
  1444                           	callstack 24
  1445  0017AE                     
  1446                           ;main.c: 142:     tx8.frame.idType = 1;
  1447  0017AE  0E01               	movlw	1
  1448  0017B0  0100               	movlb	0	; () banked
  1449  0017B2  6F8A               	movwf	_tx8& (0+255),b
  1450                           
  1451                           ;main.c: 143:     tx8.frame.id = 0x08F89540;
  1452  0017B4  0E40               	movlw	64
  1453  0017B6  6F8B               	movwf	(_tx8+1)& (0+255),b
  1454  0017B8  0E95               	movlw	149
  1455  0017BA  6F8C               	movwf	(_tx8+2)& (0+255),b
  1456  0017BC  0EF8               	movlw	248
  1457  0017BE  6F8D               	movwf	(_tx8+3)& (0+255),b
  1458  0017C0  0E08               	movlw	8
  1459  0017C2  6F8E               	movwf	(_tx8+4)& (0+255),b
  1460                           
  1461                           ;main.c: 144:     tx8.frame.dlc = 0x01;
  1462  0017C4  0E01               	movlw	1
  1463  0017C6  6F8F               	movwf	(_tx8+5)& (0+255),b
  1464  0017C8                     
  1465                           ; BSR set to: 0
  1466                           ;main.c: 145:     tx8.frame.data0 = number;
  1467  0017C8  C01B  F090         	movff	canbus_motor_rearL_tx@number,_tx8+6
  1468  0017CC                     
  1469                           ; BSR set to: 0
  1470                           ;main.c: 146:     CAN_transmit(&tx8);
  1471  0017CC  0E8A               	movlw	low _tx8
  1472  0017CE  6E15               	movwf	CAN_transmit@tempCanMsg^0,c
  1473  0017D0  0E00               	movlw	high _tx8
  1474  0017D2  6E16               	movwf	(CAN_transmit@tempCanMsg+1)^0,c
  1475  0017D4  EC0A  F004         	call	_CAN_transmit	;wreg free
  1476  0017D8  0012               	return		;funcret
  1477  0017DA                     __end_of_canbus_motor_rearL_tx:
  1478                           	callstack 0
  1479                           
  1480 ;; *************** function _ADC_Conv_pinSeven *****************
  1481 ;; Defined at:
  1482 ;;		line 35 in file "main.c"
  1483 ;; Parameters:    Size  Location     Type
  1484 ;;		None
  1485 ;; Auto vars:     Size  Location     Type
  1486 ;;  adc_val         4   58[COMRAM] float 
  1487 ;;  input_voltag    4   54[COMRAM] float 
  1488 ;; Return value:  Size  Location     Type
  1489 ;;                  2   52[COMRAM] int 
  1490 ;; Registers used:
  1491 ;;		wreg, fsr2l, fsr2h, status,2, status,0, prodl, prodh, cstack
  1492 ;; Tracked objects:
  1493 ;;		On entry : 0/0
  1494 ;;		On exit  : 0/0
  1495 ;;		Unchanged: 0/0
  1496 ;; Data sizes:     COMRAM   BANK0   BANK1   BANK2   BANK3   BANK4   BANK5   BANK6   BANK7   BANK8   BANK9  BANK10  BANK1
      +1  BANK12  BANK13  BANK14
  1497 ;;      Params:         2       0       0       0       0       0       0       0       0       0       0       0       
      +0       0       0       0
  1498 ;;      Locals:         8       0       0       0       0       0       0       0       0       0       0       0       
      +0       0       0       0
  1499 ;;      Temps:          0       0       0       0       0       0       0       0       0       0       0       0       
      +0       0       0       0
  1500 ;;      Totals:        10       0       0       0       0       0       0       0       0       0       0       0       
      +0       0       0       0
  1501 ;;Total ram usage:       10 bytes
  1502 ;; Hardware stack levels used: 1
  1503 ;; Hardware stack levels required when called: 5
  1504 ;; This function calls:
  1505 ;;		_ADC_GetConversion
  1506 ;;		_CAN_transmit
  1507 ;;		___fldiv
  1508 ;;		___flmul
  1509 ;;		___xxtofl
  1510 ;;		_highOrlow
  1511 ;; This function is called by:
  1512 ;;		_start_up_seq
  1513 ;;		_main
  1514 ;;		_aux_battery_failure
  1515 ;;		_aux_battery_LV
  1516 ;; This function uses a non-reentrant model
  1517 ;;
  1518                           
  1519                           	psect	text6
  1520  00115E                     __ptext6:
  1521                           	callstack 0
  1522  00115E                     _ADC_Conv_pinSeven:
  1523                           	callstack 24
  1524  00115E                     
  1525                           ;main.c: 36:     float adc_val = ADC_GetConversion(channel_AN4);
  1526  00115E  0E04               	movlw	4
  1527  001160  EC73  F00B         	call	_ADC_GetConversion
  1528  001164  C003  F008         	movff	?_ADC_GetConversion,___xxtofl@val
  1529  001168  C004  F009         	movff	?_ADC_GetConversion+1,___xxtofl@val+1
  1530  00116C  6A0A               	clrf	(___xxtofl@val+2)^0,c
  1531  00116E  6A0B               	clrf	(___xxtofl@val+3)^0,c
  1532  001170  0E00               	movlw	0
  1533  001172  EC97  F005         	call	___xxtofl
  1534  001176  C008  F03B         	movff	?___xxtofl,ADC_Conv_pinSeven@adc_val
  1535  00117A  C009  F03C         	movff	?___xxtofl+1,ADC_Conv_pinSeven@adc_val+1
  1536  00117E  C00A  F03D         	movff	?___xxtofl+2,ADC_Conv_pinSeven@adc_val+2
  1537  001182  C00B  F03E         	movff	?___xxtofl+3,ADC_Conv_pinSeven@adc_val+3
  1538  001186                     
  1539                           ;main.c: 37:     adc_val = (adc_val / 1023.0)*5.0;
  1540  001186  0E00               	movlw	0
  1541  001188  6E07               	movwf	___fldiv@a^0,c
  1542  00118A  0EC0               	movlw	192
  1543  00118C  6E08               	movwf	(___fldiv@a+1)^0,c
  1544  00118E  0E7F               	movlw	127
  1545  001190  6E09               	movwf	(___fldiv@a+2)^0,c
  1546  001192  0E44               	movlw	68
  1547  001194  6E0A               	movwf	(___fldiv@a+3)^0,c
  1548  001196  C03B  F003         	movff	ADC_Conv_pinSeven@adc_val,___fldiv@b
  1549  00119A  C03C  F004         	movff	ADC_Conv_pinSeven@adc_val+1,___fldiv@b+1
  1550  00119E  C03D  F005         	movff	ADC_Conv_pinSeven@adc_val+2,___fldiv@b+2
  1551  0011A2  C03E  F006         	movff	ADC_Conv_pinSeven@adc_val+3,___fldiv@b+3
  1552  0011A6  EC3D  F002         	call	___fldiv	;wreg free
  1553  0011AA  C003  F01C         	movff	?___fldiv,___flmul@b
  1554  0011AE  C004  F01D         	movff	?___fldiv+1,___flmul@b+1
  1555  0011B2  C005  F01E         	movff	?___fldiv+2,___flmul@b+2
  1556  0011B6  C006  F01F         	movff	?___fldiv+3,___flmul@b+3
  1557  0011BA  0E00               	movlw	0
  1558  0011BC  6E20               	movwf	___flmul@a^0,c
  1559  0011BE  0E00               	movlw	0
  1560  0011C0  6E21               	movwf	(___flmul@a+1)^0,c
  1561  0011C2  0EA0               	movlw	160
  1562  0011C4  6E22               	movwf	(___flmul@a+2)^0,c
  1563  0011C6  0E40               	movlw	64
  1564  0011C8  6E23               	movwf	(___flmul@a+3)^0,c
  1565  0011CA  EC28  F000         	call	___flmul	;wreg free
  1566  0011CE  C01C  F03B         	movff	?___flmul,ADC_Conv_pinSeven@adc_val
  1567  0011D2  C01D  F03C         	movff	?___flmul+1,ADC_Conv_pinSeven@adc_val+1
  1568  0011D6  C01E  F03D         	movff	?___flmul+2,ADC_Conv_pinSeven@adc_val+2
  1569  0011DA  C01F  F03E         	movff	?___flmul+3,ADC_Conv_pinSeven@adc_val+3
  1570  0011DE                     
  1571                           ;main.c: 38:     float input_voltage = adc_val*3.0;
  1572  0011DE  C03B  F01C         	movff	ADC_Conv_pinSeven@adc_val,___flmul@b
  1573  0011E2  C03C  F01D         	movff	ADC_Conv_pinSeven@adc_val+1,___flmul@b+1
  1574  0011E6  C03D  F01E         	movff	ADC_Conv_pinSeven@adc_val+2,___flmul@b+2
  1575  0011EA  C03E  F01F         	movff	ADC_Conv_pinSeven@adc_val+3,___flmul@b+3
  1576  0011EE  0E00               	movlw	0
  1577  0011F0  6E20               	movwf	___flmul@a^0,c
  1578  0011F2  0E00               	movlw	0
  1579  0011F4  6E21               	movwf	(___flmul@a+1)^0,c
  1580  0011F6  0E40               	movlw	64
  1581  0011F8  6E22               	movwf	(___flmul@a+2)^0,c
  1582  0011FA  0E40               	movlw	64
  1583  0011FC  6E23               	movwf	(___flmul@a+3)^0,c
  1584  0011FE  EC28  F000         	call	___flmul	;wreg free
  1585  001202  C01C  F037         	movff	?___flmul,ADC_Conv_pinSeven@input_voltage
  1586  001206  C01D  F038         	movff	?___flmul+1,ADC_Conv_pinSeven@input_voltage+1
  1587  00120A  C01E  F039         	movff	?___flmul+2,ADC_Conv_pinSeven@input_voltage+2
  1588  00120E  C01F  F03A         	movff	?___flmul+3,ADC_Conv_pinSeven@input_voltage+3
  1589                           
  1590                           ;main.c: 39:     if (highOrlow(input_voltage)==1){
  1591  001212  C037  F00F         	movff	ADC_Conv_pinSeven@input_voltage,highOrlow@voltage
  1592  001216  C038  F010         	movff	ADC_Conv_pinSeven@input_voltage+1,highOrlow@voltage+1
  1593  00121A  C039  F011         	movff	ADC_Conv_pinSeven@input_voltage+2,highOrlow@voltage+2
  1594  00121E  C03A  F012         	movff	ADC_Conv_pinSeven@input_voltage+3,highOrlow@voltage+3
  1595  001222  EC4B  F00B         	call	_highOrlow	;wreg free
  1596  001226  040F               	decf	?_highOrlow^0,w,c
  1597  001228  1010               	iorwf	(?_highOrlow+1)^0,w,c
  1598  00122A  A4D8               	btfss	status,2,c
  1599  00122C  EF1A  F009         	goto	u1721
  1600  001230  EF1C  F009         	goto	u1720
  1601  001234                     u1721:
  1602  001234  EF1E  F009         	goto	l2874
  1603  001238                     u1720:
  1604  001238  EF32  F009         	goto	l2878
  1605  00123C                     l2874:
  1606                           
  1607                           ;main.c: 47:         tx10.frame.idType = 1;
  1608  00123C  0E01               	movlw	1
  1609  00123E  6E49               	movwf	_tx10^0,c
  1610                           
  1611                           ;main.c: 48:         tx10.frame.id = 0x69;
  1612  001240  0E69               	movlw	105
  1613  001242  6E4A               	movwf	(_tx10+1)^0,c
  1614  001244  0E00               	movlw	0
  1615  001246  6E4B               	movwf	(_tx10+2)^0,c
  1616  001248  0E00               	movlw	0
  1617  00124A  6E4C               	movwf	(_tx10+3)^0,c
  1618  00124C  0E00               	movlw	0
  1619  00124E  6E4D               	movwf	(_tx10+4)^0,c
  1620                           
  1621                           ;main.c: 49:         tx10.frame.dlc = 0x01;
  1622  001250  0E01               	movlw	1
  1623  001252  6E4E               	movwf	(_tx10+5)^0,c
  1624                           
  1625                           ;main.c: 50:         tx10.frame.data0 = 1;
  1626  001254  0E01               	movlw	1
  1627  001256  6E4F               	movwf	(_tx10+6)^0,c
  1628  001258                     
  1629                           ;main.c: 51:         CAN_transmit(&tx10);
  1630  001258  0E49               	movlw	low _tx10
  1631  00125A  6E15               	movwf	CAN_transmit@tempCanMsg^0,c
  1632  00125C  0E00               	movlw	high _tx10
  1633  00125E  6E16               	movwf	(CAN_transmit@tempCanMsg+1)^0,c
  1634  001260  EC0A  F004         	call	_CAN_transmit	;wreg free
  1635  001264                     l2878:
  1636                           
  1637                           ;main.c: 53:     return highOrlow(input_voltage);
  1638  001264  C037  F00F         	movff	ADC_Conv_pinSeven@input_voltage,highOrlow@voltage
  1639  001268  C038  F010         	movff	ADC_Conv_pinSeven@input_voltage+1,highOrlow@voltage+1
  1640  00126C  C039  F011         	movff	ADC_Conv_pinSeven@input_voltage+2,highOrlow@voltage+2
  1641  001270  C03A  F012         	movff	ADC_Conv_pinSeven@input_voltage+3,highOrlow@voltage+3
  1642  001274  EC4B  F00B         	call	_highOrlow	;wreg free
  1643  001278  C00F  F035         	movff	?_highOrlow,?_ADC_Conv_pinSeven
  1644  00127C  C010  F036         	movff	?_highOrlow+1,?_ADC_Conv_pinSeven+1
  1645  001280  0012               	return		;funcret
  1646  001282                     __end_of_ADC_Conv_pinSeven:
  1647                           	callstack 0
  1648                           
  1649 ;; *************** function _ADC_Conv_pinNine *****************
  1650 ;; Defined at:
  1651 ;;		line 56 in file "main.c"
  1652 ;; Parameters:    Size  Location     Type
  1653 ;;		None
  1654 ;; Auto vars:     Size  Location     Type
  1655 ;;  adc_val         4   58[COMRAM] float 
  1656 ;;  input_voltag    4   54[COMRAM] float 
  1657 ;; Return value:  Size  Location     Type
  1658 ;;                  2   52[COMRAM] int 
  1659 ;; Registers used:
  1660 ;;		wreg, fsr2l, fsr2h, status,2, status,0, prodl, prodh, cstack
  1661 ;; Tracked objects:
  1662 ;;		On entry : 0/0
  1663 ;;		On exit  : 0/0
  1664 ;;		Unchanged: 0/0
  1665 ;; Data sizes:     COMRAM   BANK0   BANK1   BANK2   BANK3   BANK4   BANK5   BANK6   BANK7   BANK8   BANK9  BANK10  BANK1
      +1  BANK12  BANK13  BANK14
  1666 ;;      Params:         2       0       0       0       0       0       0       0       0       0       0       0       
      +0       0       0       0
  1667 ;;      Locals:         8       0       0       0       0       0       0       0       0       0       0       0       
      +0       0       0       0
  1668 ;;      Temps:          0       0       0       0       0       0       0       0       0       0       0       0       
      +0       0       0       0
  1669 ;;      Totals:        10       0       0       0       0       0       0       0       0       0       0       0       
      +0       0       0       0
  1670 ;;Total ram usage:       10 bytes
  1671 ;; Hardware stack levels used: 1
  1672 ;; Hardware stack levels required when called: 5
  1673 ;; This function calls:
  1674 ;;		_ADC_GetConversion
  1675 ;;		_CAN_transmit
  1676 ;;		___fldiv
  1677 ;;		___flmul
  1678 ;;		___xxtofl
  1679 ;;		_highOrlow
  1680 ;; This function is called by:
  1681 ;;		_start_up_seq
  1682 ;;		_main
  1683 ;;		_aux_battery_failure
  1684 ;; This function uses a non-reentrant model
  1685 ;;
  1686                           
  1687                           	psect	text7
  1688  001282                     __ptext7:
  1689                           	callstack 0
  1690  001282                     _ADC_Conv_pinNine:
  1691                           	callstack 24
  1692  001282                     
  1693                           ;main.c: 57:     float adc_val = ADC_GetConversion(channel_AN6);
  1694  001282  0E06               	movlw	6
  1695  001284  EC73  F00B         	call	_ADC_GetConversion
  1696  001288  C003  F008         	movff	?_ADC_GetConversion,___xxtofl@val
  1697  00128C  C004  F009         	movff	?_ADC_GetConversion+1,___xxtofl@val+1
  1698  001290  6A0A               	clrf	(___xxtofl@val+2)^0,c
  1699  001292  6A0B               	clrf	(___xxtofl@val+3)^0,c
  1700  001294  0E00               	movlw	0
  1701  001296  EC97  F005         	call	___xxtofl
  1702  00129A  C008  F03B         	movff	?___xxtofl,ADC_Conv_pinNine@adc_val
  1703  00129E  C009  F03C         	movff	?___xxtofl+1,ADC_Conv_pinNine@adc_val+1
  1704  0012A2  C00A  F03D         	movff	?___xxtofl+2,ADC_Conv_pinNine@adc_val+2
  1705  0012A6  C00B  F03E         	movff	?___xxtofl+3,ADC_Conv_pinNine@adc_val+3
  1706  0012AA                     
  1707                           ;main.c: 58:     adc_val = (adc_val / 1023.0)*5.0;
  1708  0012AA  0E00               	movlw	0
  1709  0012AC  6E07               	movwf	___fldiv@a^0,c
  1710  0012AE  0EC0               	movlw	192
  1711  0012B0  6E08               	movwf	(___fldiv@a+1)^0,c
  1712  0012B2  0E7F               	movlw	127
  1713  0012B4  6E09               	movwf	(___fldiv@a+2)^0,c
  1714  0012B6  0E44               	movlw	68
  1715  0012B8  6E0A               	movwf	(___fldiv@a+3)^0,c
  1716  0012BA  C03B  F003         	movff	ADC_Conv_pinNine@adc_val,___fldiv@b
  1717  0012BE  C03C  F004         	movff	ADC_Conv_pinNine@adc_val+1,___fldiv@b+1
  1718  0012C2  C03D  F005         	movff	ADC_Conv_pinNine@adc_val+2,___fldiv@b+2
  1719  0012C6  C03E  F006         	movff	ADC_Conv_pinNine@adc_val+3,___fldiv@b+3
  1720  0012CA  EC3D  F002         	call	___fldiv	;wreg free
  1721  0012CE  C003  F01C         	movff	?___fldiv,___flmul@b
  1722  0012D2  C004  F01D         	movff	?___fldiv+1,___flmul@b+1
  1723  0012D6  C005  F01E         	movff	?___fldiv+2,___flmul@b+2
  1724  0012DA  C006  F01F         	movff	?___fldiv+3,___flmul@b+3
  1725  0012DE  0E00               	movlw	0
  1726  0012E0  6E20               	movwf	___flmul@a^0,c
  1727  0012E2  0E00               	movlw	0
  1728  0012E4  6E21               	movwf	(___flmul@a+1)^0,c
  1729  0012E6  0EA0               	movlw	160
  1730  0012E8  6E22               	movwf	(___flmul@a+2)^0,c
  1731  0012EA  0E40               	movlw	64
  1732  0012EC  6E23               	movwf	(___flmul@a+3)^0,c
  1733  0012EE  EC28  F000         	call	___flmul	;wreg free
  1734  0012F2  C01C  F03B         	movff	?___flmul,ADC_Conv_pinNine@adc_val
  1735  0012F6  C01D  F03C         	movff	?___flmul+1,ADC_Conv_pinNine@adc_val+1
  1736  0012FA  C01E  F03D         	movff	?___flmul+2,ADC_Conv_pinNine@adc_val+2
  1737  0012FE  C01F  F03E         	movff	?___flmul+3,ADC_Conv_pinNine@adc_val+3
  1738  001302                     
  1739                           ;main.c: 59:     float input_voltage = adc_val*3.0;
  1740  001302  C03B  F01C         	movff	ADC_Conv_pinNine@adc_val,___flmul@b
  1741  001306  C03C  F01D         	movff	ADC_Conv_pinNine@adc_val+1,___flmul@b+1
  1742  00130A  C03D  F01E         	movff	ADC_Conv_pinNine@adc_val+2,___flmul@b+2
  1743  00130E  C03E  F01F         	movff	ADC_Conv_pinNine@adc_val+3,___flmul@b+3
  1744  001312  0E00               	movlw	0
  1745  001314  6E20               	movwf	___flmul@a^0,c
  1746  001316  0E00               	movlw	0
  1747  001318  6E21               	movwf	(___flmul@a+1)^0,c
  1748  00131A  0E40               	movlw	64
  1749  00131C  6E22               	movwf	(___flmul@a+2)^0,c
  1750  00131E  0E40               	movlw	64
  1751  001320  6E23               	movwf	(___flmul@a+3)^0,c
  1752  001322  EC28  F000         	call	___flmul	;wreg free
  1753  001326  C01C  F037         	movff	?___flmul,ADC_Conv_pinNine@input_voltage
  1754  00132A  C01D  F038         	movff	?___flmul+1,ADC_Conv_pinNine@input_voltage+1
  1755  00132E  C01E  F039         	movff	?___flmul+2,ADC_Conv_pinNine@input_voltage+2
  1756  001332  C01F  F03A         	movff	?___flmul+3,ADC_Conv_pinNine@input_voltage+3
  1757                           
  1758                           ;main.c: 60:     if (highOrlow(input_voltage)==1){
  1759  001336  C037  F00F         	movff	ADC_Conv_pinNine@input_voltage,highOrlow@voltage
  1760  00133A  C038  F010         	movff	ADC_Conv_pinNine@input_voltage+1,highOrlow@voltage+1
  1761  00133E  C039  F011         	movff	ADC_Conv_pinNine@input_voltage+2,highOrlow@voltage+2
  1762  001342  C03A  F012         	movff	ADC_Conv_pinNine@input_voltage+3,highOrlow@voltage+3
  1763  001346  EC4B  F00B         	call	_highOrlow	;wreg free
  1764  00134A  040F               	decf	?_highOrlow^0,w,c
  1765  00134C  1010               	iorwf	(?_highOrlow+1)^0,w,c
  1766  00134E  A4D8               	btfss	status,2,c
  1767  001350  EFAC  F009         	goto	u1731
  1768  001354  EFAE  F009         	goto	u1730
  1769  001358                     u1731:
  1770  001358  EFB0  F009         	goto	l2890
  1771  00135C                     u1730:
  1772  00135C  EFC4  F009         	goto	l2894
  1773  001360                     l2890:
  1774                           
  1775                           ;main.c: 68:         tx10.frame.idType = 1;
  1776  001360  0E01               	movlw	1
  1777  001362  6E49               	movwf	_tx10^0,c
  1778                           
  1779                           ;main.c: 69:         tx10.frame.id = 0x69;
  1780  001364  0E69               	movlw	105
  1781  001366  6E4A               	movwf	(_tx10+1)^0,c
  1782  001368  0E00               	movlw	0
  1783  00136A  6E4B               	movwf	(_tx10+2)^0,c
  1784  00136C  0E00               	movlw	0
  1785  00136E  6E4C               	movwf	(_tx10+3)^0,c
  1786  001370  0E00               	movlw	0
  1787  001372  6E4D               	movwf	(_tx10+4)^0,c
  1788                           
  1789                           ;main.c: 70:         tx10.frame.dlc = 0x01;
  1790  001374  0E01               	movlw	1
  1791  001376  6E4E               	movwf	(_tx10+5)^0,c
  1792                           
  1793                           ;main.c: 71:         tx10.frame.data0 = 1;
  1794  001378  0E01               	movlw	1
  1795  00137A  6E4F               	movwf	(_tx10+6)^0,c
  1796  00137C                     
  1797                           ;main.c: 72:         CAN_transmit(&tx10);
  1798  00137C  0E49               	movlw	low _tx10
  1799  00137E  6E15               	movwf	CAN_transmit@tempCanMsg^0,c
  1800  001380  0E00               	movlw	high _tx10
  1801  001382  6E16               	movwf	(CAN_transmit@tempCanMsg+1)^0,c
  1802  001384  EC0A  F004         	call	_CAN_transmit	;wreg free
  1803  001388                     l2894:
  1804                           
  1805                           ;main.c: 74:     return highOrlow(input_voltage);
  1806  001388  C037  F00F         	movff	ADC_Conv_pinNine@input_voltage,highOrlow@voltage
  1807  00138C  C038  F010         	movff	ADC_Conv_pinNine@input_voltage+1,highOrlow@voltage+1
  1808  001390  C039  F011         	movff	ADC_Conv_pinNine@input_voltage+2,highOrlow@voltage+2
  1809  001394  C03A  F012         	movff	ADC_Conv_pinNine@input_voltage+3,highOrlow@voltage+3
  1810  001398  EC4B  F00B         	call	_highOrlow	;wreg free
  1811  00139C  C00F  F035         	movff	?_highOrlow,?_ADC_Conv_pinNine
  1812  0013A0  C010  F036         	movff	?_highOrlow+1,?_ADC_Conv_pinNine+1
  1813  0013A4  0012               	return		;funcret
  1814  0013A6                     __end_of_ADC_Conv_pinNine:
  1815                           	callstack 0
  1816                           
  1817 ;; *************** function _highOrlow *****************
  1818 ;; Defined at:
  1819 ;;		line 24 in file "main.c"
  1820 ;; Parameters:    Size  Location     Type
  1821 ;;  voltage         4   14[COMRAM] float 
  1822 ;; Auto vars:     Size  Location     Type
  1823 ;;  output          2   18[COMRAM] int 
  1824 ;; Return value:  Size  Location     Type
  1825 ;;                  2   14[COMRAM] int 
  1826 ;; Registers used:
  1827 ;;		wreg, status,2, status,0, cstack
  1828 ;; Tracked objects:
  1829 ;;		On entry : 0/0
  1830 ;;		On exit  : 0/0
  1831 ;;		Unchanged: 0/0
  1832 ;; Data sizes:     COMRAM   BANK0   BANK1   BANK2   BANK3   BANK4   BANK5   BANK6   BANK7   BANK8   BANK9  BANK10  BANK1
      +1  BANK12  BANK13  BANK14
  1833 ;;      Params:         4       0       0       0       0       0       0       0       0       0       0       0       
      +0       0       0       0
  1834 ;;      Locals:         2       0       0       0       0       0       0       0       0       0       0       0       
      +0       0       0       0
  1835 ;;      Temps:          0       0       0       0       0       0       0       0       0       0       0       0       
      +0       0       0       0
  1836 ;;      Totals:         6       0       0       0       0       0       0       0       0       0       0       0       
      +0       0       0       0
  1837 ;;Total ram usage:        6 bytes
  1838 ;; Hardware stack levels used: 1
  1839 ;; Hardware stack levels required when called: 4
  1840 ;; This function calls:
  1841 ;;		___flge
  1842 ;; This function is called by:
  1843 ;;		_ADC_Conv_pinSeven
  1844 ;;		_ADC_Conv_pinNine
  1845 ;; This function uses a non-reentrant model
  1846 ;;
  1847                           
  1848                           	psect	text8
  1849  001696                     __ptext8:
  1850                           	callstack 0
  1851  001696                     _highOrlow:
  1852                           	callstack 24
  1853  001696                     
  1854                           ;main.c: 25:     int output;;main.c: 26:     if (voltage >= 10.2) {
  1855  001696  C00F  F003         	movff	highOrlow@voltage,___flge@ff1
  1856  00169A  C010  F004         	movff	highOrlow@voltage+1,___flge@ff1+1
  1857  00169E  C011  F005         	movff	highOrlow@voltage+2,___flge@ff1+2
  1858  0016A2  C012  F006         	movff	highOrlow@voltage+3,___flge@ff1+3
  1859  0016A6  0E33               	movlw	51
  1860  0016A8  6E07               	movwf	___flge@ff2^0,c
  1861  0016AA  0E33               	movlw	51
  1862  0016AC  6E08               	movwf	(___flge@ff2+1)^0,c
  1863  0016AE  0E23               	movlw	35
  1864  0016B0  6E09               	movwf	(___flge@ff2+2)^0,c
  1865  0016B2  0E41               	movlw	65
  1866  0016B4  6E0A               	movwf	(___flge@ff2+3)^0,c
  1867  0016B6  ECD3  F009         	call	___flge	;wreg free
  1868  0016BA  A0D8               	btfss	status,0,c
  1869  0016BC  EF62  F00B         	goto	u1171
  1870  0016C0  EF64  F00B         	goto	u1170
  1871  0016C4                     u1171:
  1872  0016C4  EF6A  F00B         	goto	l2500
  1873  0016C8                     u1170:
  1874  0016C8                     
  1875                           ;main.c: 27:         output = 1;
  1876  0016C8  0E00               	movlw	0
  1877  0016CA  6E14               	movwf	(highOrlow@output+1)^0,c
  1878  0016CC  0E01               	movlw	1
  1879  0016CE  6E13               	movwf	highOrlow@output^0,c
  1880                           
  1881                           ;main.c: 28:     }
  1882  0016D0  EF6E  F00B         	goto	l2502
  1883  0016D4                     l2500:
  1884                           
  1885                           ;main.c: 30:         output = 0;
  1886  0016D4  0E00               	movlw	0
  1887  0016D6  6E14               	movwf	(highOrlow@output+1)^0,c
  1888  0016D8  0E00               	movlw	0
  1889  0016DA  6E13               	movwf	highOrlow@output^0,c
  1890  0016DC                     l2502:
  1891                           
  1892                           ;main.c: 32:     return output;
  1893  0016DC  C013  F00F         	movff	highOrlow@output,?_highOrlow
  1894  0016E0  C014  F010         	movff	highOrlow@output+1,?_highOrlow+1
  1895  0016E4  0012               	return		;funcret
  1896  0016E6                     __end_of_highOrlow:
  1897                           	callstack 0
  1898                           
  1899 ;; *************** function ___flge *****************
  1900 ;; Defined at:
  1901 ;;		line 4 in file "C:\Program Files\Microchip\xc8\v2.36\pic\sources\c99\common\flge.c"
  1902 ;; Parameters:    Size  Location     Type
  1903 ;;  ff1             4    2[COMRAM] int 
  1904 ;;  ff2             4    6[COMRAM] int 
  1905 ;; Auto vars:     Size  Location     Type
  1906 ;;		None
  1907 ;; Return value:  Size  Location     Type
  1908 ;;		None               void
  1909 ;; Registers used:
  1910 ;;		wreg, status,2, status,0
  1911 ;; Tracked objects:
  1912 ;;		On entry : 0/0
  1913 ;;		On exit  : 0/0
  1914 ;;		Unchanged: 0/0
  1915 ;; Data sizes:     COMRAM   BANK0   BANK1   BANK2   BANK3   BANK4   BANK5   BANK6   BANK7   BANK8   BANK9  BANK10  BANK1
      +1  BANK12  BANK13  BANK14
  1916 ;;      Params:         8       0       0       0       0       0       0       0       0       0       0       0       
      +0       0       0       0
  1917 ;;      Locals:         0       0       0       0       0       0       0       0       0       0       0       0       
      +0       0       0       0
  1918 ;;      Temps:          4       0       0       0       0       0       0       0       0       0       0       0       
      +0       0       0       0
  1919 ;;      Totals:        12       0       0       0       0       0       0       0       0       0       0       0       
      +0       0       0       0
  1920 ;;Total ram usage:       12 bytes
  1921 ;; Hardware stack levels used: 1
  1922 ;; Hardware stack levels required when called: 3
  1923 ;; This function calls:
  1924 ;;		Nothing
  1925 ;; This function is called by:
  1926 ;;		_highOrlow
  1927 ;; This function uses a non-reentrant model
  1928 ;;
  1929                           
  1930                           	psect	text9
  1931  0013A6                     __ptext9:
  1932                           	callstack 0
  1933  0013A6                     ___flge:
  1934                           	callstack 24
  1935  0013A6  0E00               	movlw	0
  1936  0013A8  1403               	andwf	___flge@ff1^0,w,c
  1937  0013AA  6E0B               	movwf	??___flge^0,c
  1938  0013AC  0E00               	movlw	0
  1939  0013AE  1404               	andwf	(___flge@ff1+1)^0,w,c
  1940  0013B0  6E0C               	movwf	(??___flge+1)^0,c
  1941  0013B2  0E80               	movlw	128
  1942  0013B4  1405               	andwf	(___flge@ff1+2)^0,w,c
  1943  0013B6  6E0D               	movwf	(??___flge+2)^0,c
  1944  0013B8  0E7F               	movlw	127
  1945  0013BA  1406               	andwf	(___flge@ff1+3)^0,w,c
  1946  0013BC  6E0E               	movwf	(??___flge+3)^0,c
  1947  0013BE  500B               	movf	??___flge^0,w,c
  1948  0013C0  100C               	iorwf	(??___flge+1)^0,w,c
  1949  0013C2  100D               	iorwf	(??___flge+2)^0,w,c
  1950  0013C4  100E               	iorwf	(??___flge+3)^0,w,c
  1951  0013C6  A4D8               	btfss	status,2,c
  1952  0013C8  EFE8  F009         	goto	u1081
  1953  0013CC  EFEA  F009         	goto	u1080
  1954  0013D0                     u1081:
  1955  0013D0  EFF2  F009         	goto	l2364
  1956  0013D4                     u1080:
  1957  0013D4  0E00               	movlw	0
  1958  0013D6  6E03               	movwf	___flge@ff1^0,c
  1959  0013D8  0E00               	movlw	0
  1960  0013DA  6E04               	movwf	(___flge@ff1+1)^0,c
  1961  0013DC  0E00               	movlw	0
  1962  0013DE  6E05               	movwf	(___flge@ff1+2)^0,c
  1963  0013E0  0E00               	movlw	0
  1964  0013E2  6E06               	movwf	(___flge@ff1+3)^0,c
  1965  0013E4                     l2364:
  1966  0013E4  0E00               	movlw	0
  1967  0013E6  1407               	andwf	___flge@ff2^0,w,c
  1968  0013E8  6E0B               	movwf	??___flge^0,c
  1969  0013EA  0E00               	movlw	0
  1970  0013EC  1408               	andwf	(___flge@ff2+1)^0,w,c
  1971  0013EE  6E0C               	movwf	(??___flge+1)^0,c
  1972  0013F0  0E80               	movlw	128
  1973  0013F2  1409               	andwf	(___flge@ff2+2)^0,w,c
  1974  0013F4  6E0D               	movwf	(??___flge+2)^0,c
  1975  0013F6  0E7F               	movlw	127
  1976  0013F8  140A               	andwf	(___flge@ff2+3)^0,w,c
  1977  0013FA  6E0E               	movwf	(??___flge+3)^0,c
  1978  0013FC  500B               	movf	??___flge^0,w,c
  1979  0013FE  100C               	iorwf	(??___flge+1)^0,w,c
  1980  001400  100D               	iorwf	(??___flge+2)^0,w,c
  1981  001402  100E               	iorwf	(??___flge+3)^0,w,c
  1982  001404  A4D8               	btfss	status,2,c
  1983  001406  EF07  F00A         	goto	u1091
  1984  00140A  EF09  F00A         	goto	u1090
  1985  00140E                     u1091:
  1986  00140E  EF11  F00A         	goto	l2368
  1987  001412                     u1090:
  1988  001412  0E00               	movlw	0
  1989  001414  6E07               	movwf	___flge@ff2^0,c
  1990  001416  0E00               	movlw	0
  1991  001418  6E08               	movwf	(___flge@ff2+1)^0,c
  1992  00141A  0E00               	movlw	0
  1993  00141C  6E09               	movwf	(___flge@ff2+2)^0,c
  1994  00141E  0E00               	movlw	0
  1995  001420  6E0A               	movwf	(___flge@ff2+3)^0,c
  1996  001422                     l2368:
  1997  001422  AE06               	btfss	(___flge@ff1+3)^0,7,c
  1998  001424  EF16  F00A         	goto	u1101
  1999  001428  EF18  F00A         	goto	u1100
  2000  00142C                     u1101:
  2001  00142C  EF21  F00A         	goto	l2372
  2002  001430                     u1100:
  2003  001430  6C03               	negf	___flge@ff1^0,c
  2004  001432  1E04               	comf	(___flge@ff1+1)^0,f,c
  2005  001434  B0D8               	btfsc	status,0,c
  2006  001436  2A04               	incf	(___flge@ff1+1)^0,f,c
  2007  001438  1E05               	comf	(___flge@ff1+2)^0,f,c
  2008  00143A  B0D8               	btfsc	status,0,c
  2009  00143C  2A05               	incf	(___flge@ff1+2)^0,f,c
  2010  00143E  0E80               	movlw	128
  2011  001440  5606               	subfwb	(___flge@ff1+3)^0,f,c
  2012  001442                     l2372:
  2013  001442  AE0A               	btfss	(___flge@ff2+3)^0,7,c
  2014  001444  EF26  F00A         	goto	u1111
  2015  001448  EF28  F00A         	goto	u1110
  2016  00144C                     u1111:
  2017  00144C  EF31  F00A         	goto	l990
  2018  001450                     u1110:
  2019  001450  6C07               	negf	___flge@ff2^0,c
  2020  001452  1E08               	comf	(___flge@ff2+1)^0,f,c
  2021  001454  B0D8               	btfsc	status,0,c
  2022  001456  2A08               	incf	(___flge@ff2+1)^0,f,c
  2023  001458  1E09               	comf	(___flge@ff2+2)^0,f,c
  2024  00145A  B0D8               	btfsc	status,0,c
  2025  00145C  2A09               	incf	(___flge@ff2+2)^0,f,c
  2026  00145E  0E80               	movlw	128
  2027  001460  560A               	subfwb	(___flge@ff2+3)^0,f,c
  2028  001462                     l990:
  2029  001462  0E00               	movlw	0
  2030  001464  1A03               	xorwf	___flge@ff1^0,f,c
  2031  001466  0E00               	movlw	0
  2032  001468  1A04               	xorwf	(___flge@ff1+1)^0,f,c
  2033  00146A  0E00               	movlw	0
  2034  00146C  1A05               	xorwf	(___flge@ff1+2)^0,f,c
  2035  00146E  0E80               	movlw	128
  2036  001470  1A06               	xorwf	(___flge@ff1+3)^0,f,c
  2037  001472  0E00               	movlw	0
  2038  001474  1A07               	xorwf	___flge@ff2^0,f,c
  2039  001476  0E00               	movlw	0
  2040  001478  1A08               	xorwf	(___flge@ff2+1)^0,f,c
  2041  00147A  0E00               	movlw	0
  2042  00147C  1A09               	xorwf	(___flge@ff2+2)^0,f,c
  2043  00147E  0E80               	movlw	128
  2044  001480  1A0A               	xorwf	(___flge@ff2+3)^0,f,c
  2045  001482  5007               	movf	___flge@ff2^0,w,c
  2046  001484  5C03               	subwf	___flge@ff1^0,w,c
  2047  001486  5008               	movf	(___flge@ff2+1)^0,w,c
  2048  001488  5804               	subwfb	(___flge@ff1+1)^0,w,c
  2049  00148A  5009               	movf	(___flge@ff2+2)^0,w,c
  2050  00148C  5805               	subwfb	(___flge@ff1+2)^0,w,c
  2051  00148E  500A               	movf	(___flge@ff2+3)^0,w,c
  2052  001490  5806               	subwfb	(___flge@ff1+3)^0,w,c
  2053  001492  B0D8               	btfsc	status,0,c
  2054  001494  EF4E  F00A         	goto	u1121
  2055  001498  EF50  F00A         	goto	u1120
  2056  00149C                     u1121:
  2057  00149C  EF53  F00A         	goto	l2378
  2058  0014A0                     u1120:
  2059  0014A0  90D8               	bcf	status,0,c
  2060  0014A2  EF54  F00A         	goto	l995
  2061  0014A6                     l2378:
  2062  0014A6  80D8               	bsf	status,0,c
  2063  0014A8                     l995:
  2064  0014A8  0012               	return		;funcret
  2065  0014AA                     __end_of___flge:
  2066                           	callstack 0
  2067                           
  2068 ;; *************** function ___xxtofl *****************
  2069 ;; Defined at:
  2070 ;;		line 10 in file "C:\Program Files\Microchip\xc8\v2.36\pic\sources\c99\common\xxtofl.c"
  2071 ;; Parameters:    Size  Location     Type
  2072 ;;  sign            1    wreg     unsigned char 
  2073 ;;  val             4    7[COMRAM] long 
  2074 ;; Auto vars:     Size  Location     Type
  2075 ;;  sign            1   15[COMRAM] unsigned char 
  2076 ;;  arg             4   17[COMRAM] unsigned long 
  2077 ;;  exp             1   16[COMRAM] unsigned char 
  2078 ;; Return value:  Size  Location     Type
  2079 ;;                  4    7[COMRAM] unsigned char 
  2080 ;; Registers used:
  2081 ;;		wreg, status,2, status,0
  2082 ;; Tracked objects:
  2083 ;;		On entry : 0/0
  2084 ;;		On exit  : 0/0
  2085 ;;		Unchanged: 0/0
  2086 ;; Data sizes:     COMRAM   BANK0   BANK1   BANK2   BANK3   BANK4   BANK5   BANK6   BANK7   BANK8   BANK9  BANK10  BANK1
      +1  BANK12  BANK13  BANK14
  2087 ;;      Params:         4       0       0       0       0       0       0       0       0       0       0       0       
      +0       0       0       0
  2088 ;;      Locals:         6       0       0       0       0       0       0       0       0       0       0       0       
      +0       0       0       0
  2089 ;;      Temps:          4       0       0       0       0       0       0       0       0       0       0       0       
      +0       0       0       0
  2090 ;;      Totals:        14       0       0       0       0       0       0       0       0       0       0       0       
      +0       0       0       0
  2091 ;;Total ram usage:       14 bytes
  2092 ;; Hardware stack levels used: 1
  2093 ;; Hardware stack levels required when called: 3
  2094 ;; This function calls:
  2095 ;;		Nothing
  2096 ;; This function is called by:
  2097 ;;		_ADC_Conv_pinSeven
  2098 ;;		_ADC_Conv_pinNine
  2099 ;; This function uses a non-reentrant model
  2100 ;;
  2101                           
  2102                           	psect	text10
  2103  000B2E                     __ptext10:
  2104                           	callstack 0
  2105  000B2E                     ___xxtofl:
  2106                           	callstack 25
  2107                           
  2108                           ;incstack = 0
  2109                           ;___xxtofl@sign stored from wreg
  2110  000B2E  6E10               	movwf	___xxtofl@sign^0,c
  2111  000B30  5010               	movf	___xxtofl@sign^0,w,c
  2112  000B32  B4D8               	btfsc	status,2,c
  2113  000B34  EF9E  F005         	goto	u1601
  2114  000B38  EFA0  F005         	goto	u1600
  2115  000B3C                     u1601:
  2116  000B3C  EFC2  F005         	goto	l1380
  2117  000B40                     u1600:
  2118  000B40  BE0B               	btfsc	(___xxtofl@val+3)^0,7,c
  2119  000B42  EFA7  F005         	goto	u1610
  2120  000B46  EFA5  F005         	goto	u1611
  2121  000B4A                     u1611:
  2122  000B4A  EFC2  F005         	goto	l1380
  2123  000B4E                     u1610:
  2124  000B4E  C008  F00C         	movff	___xxtofl@val,??___xxtofl
  2125  000B52  C009  F00D         	movff	___xxtofl@val+1,??___xxtofl+1
  2126  000B56  C00A  F00E         	movff	___xxtofl@val+2,??___xxtofl+2
  2127  000B5A  C00B  F00F         	movff	___xxtofl@val+3,??___xxtofl+3
  2128  000B5E  1E0C               	comf	??___xxtofl^0,f,c
  2129  000B60  1E0D               	comf	(??___xxtofl+1)^0,f,c
  2130  000B62  1E0E               	comf	(??___xxtofl+2)^0,f,c
  2131  000B64  1E0F               	comf	(??___xxtofl+3)^0,f,c
  2132  000B66  2A0C               	incf	??___xxtofl^0,f,c
  2133  000B68  0E00               	movlw	0
  2134  000B6A  220D               	addwfc	(??___xxtofl+1)^0,f,c
  2135  000B6C  220E               	addwfc	(??___xxtofl+2)^0,f,c
  2136  000B6E  220F               	addwfc	(??___xxtofl+3)^0,f,c
  2137  000B70  C00C  F012         	movff	??___xxtofl,___xxtofl@arg
  2138  000B74  C00D  F013         	movff	??___xxtofl+1,___xxtofl@arg+1
  2139  000B78  C00E  F014         	movff	??___xxtofl+2,___xxtofl@arg+2
  2140  000B7C  C00F  F015         	movff	??___xxtofl+3,___xxtofl@arg+3
  2141  000B80  EFCA  F005         	goto	l2780
  2142  000B84                     l1380:
  2143  000B84  C008  F012         	movff	___xxtofl@val,___xxtofl@arg
  2144  000B88  C009  F013         	movff	___xxtofl@val+1,___xxtofl@arg+1
  2145  000B8C  C00A  F014         	movff	___xxtofl@val+2,___xxtofl@arg+2
  2146  000B90  C00B  F015         	movff	___xxtofl@val+3,___xxtofl@arg+3
  2147  000B94                     l2780:
  2148  000B94  5008               	movf	___xxtofl@val^0,w,c
  2149  000B96  1009               	iorwf	(___xxtofl@val+1)^0,w,c
  2150  000B98  100A               	iorwf	(___xxtofl@val+2)^0,w,c
  2151  000B9A  100B               	iorwf	(___xxtofl@val+3)^0,w,c
  2152  000B9C  A4D8               	btfss	status,2,c
  2153  000B9E  EFD3  F005         	goto	u1621
  2154  000BA2  EFD5  F005         	goto	u1620
  2155  000BA6                     u1621:
  2156  000BA6  EFDF  F005         	goto	l2786
  2157  000BAA                     u1620:
  2158  000BAA  0E00               	movlw	0
  2159  000BAC  6E08               	movwf	?___xxtofl^0,c
  2160  000BAE  0E00               	movlw	0
  2161  000BB0  6E09               	movwf	(?___xxtofl+1)^0,c
  2162  000BB2  0E00               	movlw	0
  2163  000BB4  6E0A               	movwf	(?___xxtofl+2)^0,c
  2164  000BB6  0E00               	movlw	0
  2165  000BB8  6E0B               	movwf	(?___xxtofl+3)^0,c
  2166  000BBA  EF70  F006         	goto	l1383
  2167  000BBE                     l2786:
  2168  000BBE  0E96               	movlw	150
  2169  000BC0  6E11               	movwf	___xxtofl@exp^0,c
  2170  000BC2  EFE9  F005         	goto	l2790
  2171  000BC6                     l2788:
  2172  000BC6  2A11               	incf	___xxtofl@exp^0,f,c
  2173  000BC8  90D8               	bcf	status,0,c
  2174  000BCA  3215               	rrcf	(___xxtofl@arg+3)^0,f,c
  2175  000BCC  3214               	rrcf	(___xxtofl@arg+2)^0,f,c
  2176  000BCE  3213               	rrcf	(___xxtofl@arg+1)^0,f,c
  2177  000BD0  3212               	rrcf	___xxtofl@arg^0,f,c
  2178  000BD2                     l2790:
  2179  000BD2  0E00               	movlw	0
  2180  000BD4  1412               	andwf	___xxtofl@arg^0,w,c
  2181  000BD6  6E0C               	movwf	??___xxtofl^0,c
  2182  000BD8  0E00               	movlw	0
  2183  000BDA  1413               	andwf	(___xxtofl@arg+1)^0,w,c
  2184  000BDC  6E0D               	movwf	(??___xxtofl+1)^0,c
  2185  000BDE  0E00               	movlw	0
  2186  000BE0  1414               	andwf	(___xxtofl@arg+2)^0,w,c
  2187  000BE2  6E0E               	movwf	(??___xxtofl+2)^0,c
  2188  000BE4  0EFE               	movlw	254
  2189  000BE6  1415               	andwf	(___xxtofl@arg+3)^0,w,c
  2190  000BE8  6E0F               	movwf	(??___xxtofl+3)^0,c
  2191  000BEA  500C               	movf	??___xxtofl^0,w,c
  2192  000BEC  100D               	iorwf	(??___xxtofl+1)^0,w,c
  2193  000BEE  100E               	iorwf	(??___xxtofl+2)^0,w,c
  2194  000BF0  100F               	iorwf	(??___xxtofl+3)^0,w,c
  2195  000BF2  A4D8               	btfss	status,2,c
  2196  000BF4  EFFE  F005         	goto	u1631
  2197  000BF8  EF00  F006         	goto	u1630
  2198  000BFC                     u1631:
  2199  000BFC  EFE3  F005         	goto	l2788
  2200  000C00                     u1630:
  2201  000C00  EF0E  F006         	goto	l1387
  2202  000C04                     l2792:
  2203  000C04  2A11               	incf	___xxtofl@exp^0,f,c
  2204  000C06  0E01               	movlw	1
  2205  000C08  2612               	addwf	___xxtofl@arg^0,f,c
  2206  000C0A  0E00               	movlw	0
  2207  000C0C  2213               	addwfc	(___xxtofl@arg+1)^0,f,c
  2208  000C0E  2214               	addwfc	(___xxtofl@arg+2)^0,f,c
  2209  000C10  2215               	addwfc	(___xxtofl@arg+3)^0,f,c
  2210  000C12  90D8               	bcf	status,0,c
  2211  000C14  3215               	rrcf	(___xxtofl@arg+3)^0,f,c
  2212  000C16  3214               	rrcf	(___xxtofl@arg+2)^0,f,c
  2213  000C18  3213               	rrcf	(___xxtofl@arg+1)^0,f,c
  2214  000C1A  3212               	rrcf	___xxtofl@arg^0,f,c
  2215  000C1C                     l1387:
  2216  000C1C  0E00               	movlw	0
  2217  000C1E  1412               	andwf	___xxtofl@arg^0,w,c
  2218  000C20  6E0C               	movwf	??___xxtofl^0,c
  2219  000C22  0E00               	movlw	0
  2220  000C24  1413               	andwf	(___xxtofl@arg+1)^0,w,c
  2221  000C26  6E0D               	movwf	(??___xxtofl+1)^0,c
  2222  000C28  0E00               	movlw	0
  2223  000C2A  1414               	andwf	(___xxtofl@arg+2)^0,w,c
  2224  000C2C  6E0E               	movwf	(??___xxtofl+2)^0,c
  2225  000C2E  0EFF               	movlw	255
  2226  000C30  1415               	andwf	(___xxtofl@arg+3)^0,w,c
  2227  000C32  6E0F               	movwf	(??___xxtofl+3)^0,c
  2228  000C34  500C               	movf	??___xxtofl^0,w,c
  2229  000C36  100D               	iorwf	(??___xxtofl+1)^0,w,c
  2230  000C38  100E               	iorwf	(??___xxtofl+2)^0,w,c
  2231  000C3A  100F               	iorwf	(??___xxtofl+3)^0,w,c
  2232  000C3C  A4D8               	btfss	status,2,c
  2233  000C3E  EF23  F006         	goto	u1641
  2234  000C42  EF25  F006         	goto	u1640
  2235  000C46                     u1641:
  2236  000C46  EF02  F006         	goto	l2792
  2237  000C4A                     u1640:
  2238  000C4A  EF2D  F006         	goto	l2800
  2239  000C4E                     l2798:
  2240  000C4E  0611               	decf	___xxtofl@exp^0,f,c
  2241  000C50  90D8               	bcf	status,0,c
  2242  000C52  3612               	rlcf	___xxtofl@arg^0,f,c
  2243  000C54  3613               	rlcf	(___xxtofl@arg+1)^0,f,c
  2244  000C56  3614               	rlcf	(___xxtofl@arg+2)^0,f,c
  2245  000C58  3615               	rlcf	(___xxtofl@arg+3)^0,f,c
  2246  000C5A                     l2800:
  2247  000C5A  BE14               	btfsc	(___xxtofl@arg+2)^0,7,c
  2248  000C5C  EF32  F006         	goto	u1651
  2249  000C60  EF34  F006         	goto	u1650
  2250  000C64                     u1651:
  2251  000C64  EF3C  F006         	goto	l1394
  2252  000C68                     u1650:
  2253  000C68  0E02               	movlw	2
  2254  000C6A  6011               	cpfslt	___xxtofl@exp^0,c
  2255  000C6C  EF3A  F006         	goto	u1661
  2256  000C70  EF3C  F006         	goto	u1660
  2257  000C74                     u1661:
  2258  000C74  EF27  F006         	goto	l2798
  2259  000C78                     u1660:
  2260  000C78                     l1394:
  2261  000C78  B011               	btfsc	___xxtofl@exp^0,0,c
  2262  000C7A  EF41  F006         	goto	u1671
  2263  000C7E  EF43  F006         	goto	u1670
  2264  000C82                     u1671:
  2265  000C82  EF44  F006         	goto	l2806
  2266  000C86                     u1670:
  2267  000C86  9E14               	bcf	(___xxtofl@arg+2)^0,7,c
  2268  000C88                     l2806:
  2269  000C88  90D8               	bcf	status,0,c
  2270  000C8A  3211               	rrcf	___xxtofl@exp^0,f,c
  2271  000C8C  C011  F00C         	movff	___xxtofl@exp,??___xxtofl
  2272  000C90  6A0D               	clrf	(??___xxtofl+1)^0,c
  2273  000C92  6A0E               	clrf	(??___xxtofl+2)^0,c
  2274  000C94  6A0F               	clrf	(??___xxtofl+3)^0,c
  2275  000C96  C00C  F00F         	movff	??___xxtofl,??___xxtofl+3
  2276  000C9A  6A0E               	clrf	(??___xxtofl+2)^0,c
  2277  000C9C  6A0D               	clrf	(??___xxtofl+1)^0,c
  2278  000C9E  6A0C               	clrf	??___xxtofl^0,c
  2279  000CA0  500C               	movf	??___xxtofl^0,w,c
  2280  000CA2  1212               	iorwf	___xxtofl@arg^0,f,c
  2281  000CA4  500D               	movf	(??___xxtofl+1)^0,w,c
  2282  000CA6  1213               	iorwf	(___xxtofl@arg+1)^0,f,c
  2283  000CA8  500E               	movf	(??___xxtofl+2)^0,w,c
  2284  000CAA  1214               	iorwf	(___xxtofl@arg+2)^0,f,c
  2285  000CAC  500F               	movf	(??___xxtofl+3)^0,w,c
  2286  000CAE  1215               	iorwf	(___xxtofl@arg+3)^0,f,c
  2287  000CB0  5010               	movf	___xxtofl@sign^0,w,c
  2288  000CB2  B4D8               	btfsc	status,2,c
  2289  000CB4  EF5E  F006         	goto	u1681
  2290  000CB8  EF60  F006         	goto	u1680
  2291  000CBC                     u1681:
  2292  000CBC  EF68  F006         	goto	l2816
  2293  000CC0                     u1680:
  2294  000CC0  BE0B               	btfsc	(___xxtofl@val+3)^0,7,c
  2295  000CC2  EF67  F006         	goto	u1690
  2296  000CC6  EF65  F006         	goto	u1691
  2297  000CCA                     u1691:
  2298  000CCA  EF68  F006         	goto	l2816
  2299  000CCE                     u1690:
  2300  000CCE  8E15               	bsf	(___xxtofl@arg+3)^0,7,c
  2301  000CD0                     l2816:
  2302  000CD0  C012  F008         	movff	___xxtofl@arg,?___xxtofl
  2303  000CD4  C013  F009         	movff	___xxtofl@arg+1,?___xxtofl+1
  2304  000CD8  C014  F00A         	movff	___xxtofl@arg+2,?___xxtofl+2
  2305  000CDC  C015  F00B         	movff	___xxtofl@arg+3,?___xxtofl+3
  2306  000CE0                     l1383:
  2307  000CE0  0012               	return		;funcret
  2308  000CE2                     __end_of___xxtofl:
  2309                           	callstack 0
  2310                           
  2311 ;; *************** function ___flmul *****************
  2312 ;; Defined at:
  2313 ;;		line 8 in file "C:\Program Files\Microchip\xc8\v2.36\pic\sources\c99\common\sprcmul.c"
  2314 ;; Parameters:    Size  Location     Type
  2315 ;;  b               4   27[COMRAM] unsigned char 
  2316 ;;  a               4   31[COMRAM] unsigned char 
  2317 ;; Auto vars:     Size  Location     Type
  2318 ;;  prod            4   46[COMRAM] struct .
  2319 ;;  grs             4   40[COMRAM] unsigned long 
  2320 ;;  temp            2   50[COMRAM] struct .
  2321 ;;  bexp            1   45[COMRAM] unsigned char 
  2322 ;;  aexp            1   44[COMRAM] unsigned char 
  2323 ;;  sign            1   39[COMRAM] unsigned char 
  2324 ;; Return value:  Size  Location     Type
  2325 ;;                  4   27[COMRAM] unsigned char 
  2326 ;; Registers used:
  2327 ;;		wreg, status,2, status,0, prodl, prodh
  2328 ;; Tracked objects:
  2329 ;;		On entry : 0/0
  2330 ;;		On exit  : 0/0
  2331 ;;		Unchanged: 0/0
  2332 ;; Data sizes:     COMRAM   BANK0   BANK1   BANK2   BANK3   BANK4   BANK5   BANK6   BANK7   BANK8   BANK9  BANK10  BANK1
      +1  BANK12  BANK13  BANK14
  2333 ;;      Params:         8       0       0       0       0       0       0       0       0       0       0       0       
      +0       0       0       0
  2334 ;;      Locals:        13       0       0       0       0       0       0       0       0       0       0       0       
      +0       0       0       0
  2335 ;;      Temps:          4       0       0       0       0       0       0       0       0       0       0       0       
      +0       0       0       0
  2336 ;;      Totals:        25       0       0       0       0       0       0       0       0       0       0       0       
      +0       0       0       0
  2337 ;;Total ram usage:       25 bytes
  2338 ;; Hardware stack levels used: 1
  2339 ;; Hardware stack levels required when called: 3
  2340 ;; This function calls:
  2341 ;;		Nothing
  2342 ;; This function is called by:
  2343 ;;		_ADC_Conv_pinSeven
  2344 ;;		_ADC_Conv_pinNine
  2345 ;; This function uses a non-reentrant model
  2346 ;;
  2347                           
  2348                           	psect	text11
  2349  000050                     __ptext11:
  2350                           	callstack 0
  2351  000050                     ___flmul:
  2352                           	callstack 25
  2353  000050  501F               	movf	(___flmul@b+3)^0,w,c
  2354  000052  0B80               	andlw	128
  2355  000054  6E28               	movwf	___flmul@sign^0,c
  2356  000056  501F               	movf	(___flmul@b+3)^0,w,c
  2357  000058  241F               	addwf	(___flmul@b+3)^0,w,c
  2358  00005A  6E2E               	movwf	___flmul@bexp^0,c
  2359  00005C  AE1E               	btfss	(___flmul@b+2)^0,7,c
  2360  00005E  EF33  F000         	goto	u1411
  2361  000062  EF35  F000         	goto	u1410
  2362  000066                     u1411:
  2363  000066  EF36  F000         	goto	l2650
  2364  00006A                     u1410:
  2365  00006A  802E               	bsf	___flmul@bexp^0,0,c
  2366  00006C                     l2650:
  2367  00006C  502E               	movf	___flmul@bexp^0,w,c
  2368  00006E  B4D8               	btfsc	status,2,c
  2369  000070  EF3C  F000         	goto	u1421
  2370  000074  EF3E  F000         	goto	u1420
  2371  000078                     u1421:
  2372  000078  EF51  F000         	goto	l2658
  2373  00007C                     u1420:
  2374  00007C  282E               	incf	___flmul@bexp^0,w,c
  2375  00007E  A4D8               	btfss	status,2,c
  2376  000080  EF44  F000         	goto	u1431
  2377  000084  EF46  F000         	goto	u1430
  2378  000088                     u1431:
  2379  000088  EF4E  F000         	goto	l2656
  2380  00008C                     u1430:
  2381  00008C  0E00               	movlw	0
  2382  00008E  6E1C               	movwf	___flmul@b^0,c
  2383  000090  0E00               	movlw	0
  2384  000092  6E1D               	movwf	(___flmul@b+1)^0,c
  2385  000094  0E00               	movlw	0
  2386  000096  6E1E               	movwf	(___flmul@b+2)^0,c
  2387  000098  0E00               	movlw	0
  2388  00009A  6E1F               	movwf	(___flmul@b+3)^0,c
  2389  00009C                     l2656:
  2390  00009C  8E1E               	bsf	(___flmul@b+2)^0,7,c
  2391  00009E  EF59  F000         	goto	l2660
  2392  0000A2                     l2658:
  2393  0000A2  0E00               	movlw	0
  2394  0000A4  6E1C               	movwf	___flmul@b^0,c
  2395  0000A6  0E00               	movlw	0
  2396  0000A8  6E1D               	movwf	(___flmul@b+1)^0,c
  2397  0000AA  0E00               	movlw	0
  2398  0000AC  6E1E               	movwf	(___flmul@b+2)^0,c
  2399  0000AE  0E00               	movlw	0
  2400  0000B0  6E1F               	movwf	(___flmul@b+3)^0,c
  2401  0000B2                     l2660:
  2402  0000B2  5023               	movf	(___flmul@a+3)^0,w,c
  2403  0000B4  0B80               	andlw	128
  2404  0000B6  1A28               	xorwf	___flmul@sign^0,f,c
  2405  0000B8  5023               	movf	(___flmul@a+3)^0,w,c
  2406  0000BA  2423               	addwf	(___flmul@a+3)^0,w,c
  2407  0000BC  6E2D               	movwf	___flmul@aexp^0,c
  2408  0000BE  AE22               	btfss	(___flmul@a+2)^0,7,c
  2409  0000C0  EF64  F000         	goto	u1441
  2410  0000C4  EF66  F000         	goto	u1440
  2411  0000C8                     u1441:
  2412  0000C8  EF67  F000         	goto	l2668
  2413  0000CC                     u1440:
  2414  0000CC  802D               	bsf	___flmul@aexp^0,0,c
  2415  0000CE                     l2668:
  2416  0000CE  502D               	movf	___flmul@aexp^0,w,c
  2417  0000D0  B4D8               	btfsc	status,2,c
  2418  0000D2  EF6D  F000         	goto	u1451
  2419  0000D6  EF6F  F000         	goto	u1450
  2420  0000DA                     u1451:
  2421  0000DA  EF82  F000         	goto	l2676
  2422  0000DE                     u1450:
  2423  0000DE  282D               	incf	___flmul@aexp^0,w,c
  2424  0000E0  A4D8               	btfss	status,2,c
  2425  0000E2  EF75  F000         	goto	u1461
  2426  0000E6  EF77  F000         	goto	u1460
  2427  0000EA                     u1461:
  2428  0000EA  EF7F  F000         	goto	l2674
  2429  0000EE                     u1460:
  2430  0000EE  0E00               	movlw	0
  2431  0000F0  6E20               	movwf	___flmul@a^0,c
  2432  0000F2  0E00               	movlw	0
  2433  0000F4  6E21               	movwf	(___flmul@a+1)^0,c
  2434  0000F6  0E00               	movlw	0
  2435  0000F8  6E22               	movwf	(___flmul@a+2)^0,c
  2436  0000FA  0E00               	movlw	0
  2437  0000FC  6E23               	movwf	(___flmul@a+3)^0,c
  2438  0000FE                     l2674:
  2439  0000FE  8E22               	bsf	(___flmul@a+2)^0,7,c
  2440  000100  EF8A  F000         	goto	l1339
  2441  000104                     l2676:
  2442  000104  0E00               	movlw	0
  2443  000106  6E20               	movwf	___flmul@a^0,c
  2444  000108  0E00               	movlw	0
  2445  00010A  6E21               	movwf	(___flmul@a+1)^0,c
  2446  00010C  0E00               	movlw	0
  2447  00010E  6E22               	movwf	(___flmul@a+2)^0,c
  2448  000110  0E00               	movlw	0
  2449  000112  6E23               	movwf	(___flmul@a+3)^0,c
  2450  000114                     l1339:
  2451  000114  502D               	movf	___flmul@aexp^0,w,c
  2452  000116  B4D8               	btfsc	status,2,c
  2453  000118  EF90  F000         	goto	u1471
  2454  00011C  EF92  F000         	goto	u1470
  2455  000120                     u1471:
  2456  000120  EF9A  F000         	goto	l2680
  2457  000124                     u1470:
  2458  000124  502E               	movf	___flmul@bexp^0,w,c
  2459  000126  A4D8               	btfss	status,2,c
  2460  000128  EF98  F000         	goto	u1481
  2461  00012C  EF9A  F000         	goto	u1480
  2462  000130                     u1481:
  2463  000130  EFA4  F000         	goto	l2684
  2464  000134                     u1480:
  2465  000134                     l2680:
  2466  000134  0E00               	movlw	0
  2467  000136  6E1C               	movwf	?___flmul^0,c
  2468  000138  0E00               	movlw	0
  2469  00013A  6E1D               	movwf	(?___flmul+1)^0,c
  2470  00013C  0E00               	movlw	0
  2471  00013E  6E1E               	movwf	(?___flmul+2)^0,c
  2472  000140  0E00               	movlw	0
  2473  000142  6E1F               	movwf	(?___flmul+3)^0,c
  2474  000144  EF3C  F002         	goto	l1343
  2475  000148                     l2684:
  2476  000148  5022               	movf	(___flmul@a+2)^0,w,c
  2477  00014A  021C               	mulwf	___flmul@b^0,c
  2478  00014C  CFF3 F033          	movff	prodl,___flmul@temp
  2479  000150  CFF4 F034          	movff	prodh,___flmul@temp+1
  2480  000154  5033               	movf	___flmul@temp^0,w,c
  2481  000156  6E29               	movwf	___flmul@grs^0,c
  2482  000158  6A2A               	clrf	(___flmul@grs+1)^0,c
  2483  00015A  6A2B               	clrf	(___flmul@grs+2)^0,c
  2484  00015C  6A2C               	clrf	(___flmul@grs+3)^0,c
  2485  00015E  5034               	movf	(___flmul@temp+1)^0,w,c
  2486  000160  6E2F               	movwf	___flmul@prod^0,c
  2487  000162  6A30               	clrf	(___flmul@prod+1)^0,c
  2488  000164  6A31               	clrf	(___flmul@prod+2)^0,c
  2489  000166  6A32               	clrf	(___flmul@prod+3)^0,c
  2490  000168  5021               	movf	(___flmul@a+1)^0,w,c
  2491  00016A  021D               	mulwf	(___flmul@b+1)^0,c
  2492  00016C  CFF3 F033          	movff	prodl,___flmul@temp
  2493  000170  CFF4 F034          	movff	prodh,___flmul@temp+1
  2494  000174  5033               	movf	___flmul@temp^0,w,c
  2495  000176  2629               	addwf	___flmul@grs^0,f,c
  2496  000178  0E00               	movlw	0
  2497  00017A  222A               	addwfc	(___flmul@grs+1)^0,f,c
  2498  00017C  222B               	addwfc	(___flmul@grs+2)^0,f,c
  2499  00017E  222C               	addwfc	(___flmul@grs+3)^0,f,c
  2500  000180  5034               	movf	(___flmul@temp+1)^0,w,c
  2501  000182  262F               	addwf	___flmul@prod^0,f,c
  2502  000184  0E00               	movlw	0
  2503  000186  2230               	addwfc	(___flmul@prod+1)^0,f,c
  2504  000188  2231               	addwfc	(___flmul@prod+2)^0,f,c
  2505  00018A  2232               	addwfc	(___flmul@prod+3)^0,f,c
  2506  00018C  5020               	movf	___flmul@a^0,w,c
  2507  00018E  021E               	mulwf	(___flmul@b+2)^0,c
  2508  000190  CFF3 F033          	movff	prodl,___flmul@temp
  2509  000194  CFF4 F034          	movff	prodh,___flmul@temp+1
  2510  000198  5033               	movf	___flmul@temp^0,w,c
  2511  00019A  2629               	addwf	___flmul@grs^0,f,c
  2512  00019C  0E00               	movlw	0
  2513  00019E  222A               	addwfc	(___flmul@grs+1)^0,f,c
  2514  0001A0  222B               	addwfc	(___flmul@grs+2)^0,f,c
  2515  0001A2  222C               	addwfc	(___flmul@grs+3)^0,f,c
  2516  0001A4  5034               	movf	(___flmul@temp+1)^0,w,c
  2517  0001A6  262F               	addwf	___flmul@prod^0,f,c
  2518  0001A8  0E00               	movlw	0
  2519  0001AA  2230               	addwfc	(___flmul@prod+1)^0,f,c
  2520  0001AC  2231               	addwfc	(___flmul@prod+2)^0,f,c
  2521  0001AE  2232               	addwfc	(___flmul@prod+3)^0,f,c
  2522  0001B0  C02B  F02C         	movff	___flmul@grs+2,___flmul@grs+3
  2523  0001B4  C02A  F02B         	movff	___flmul@grs+1,___flmul@grs+2
  2524  0001B8  C029  F02A         	movff	___flmul@grs,___flmul@grs+1
  2525  0001BC  6A29               	clrf	___flmul@grs^0,c
  2526  0001BE  5020               	movf	___flmul@a^0,w,c
  2527  0001C0  021D               	mulwf	(___flmul@b+1)^0,c
  2528  0001C2  CFF3 F033          	movff	prodl,___flmul@temp
  2529  0001C6  CFF4 F034          	movff	prodh,___flmul@temp+1
  2530  0001CA  5033               	movf	___flmul@temp^0,w,c
  2531  0001CC  2629               	addwf	___flmul@grs^0,f,c
  2532  0001CE  5034               	movf	(___flmul@temp+1)^0,w,c
  2533  0001D0  222A               	addwfc	(___flmul@grs+1)^0,f,c
  2534  0001D2  0E00               	movlw	0
  2535  0001D4  222B               	addwfc	(___flmul@grs+2)^0,f,c
  2536  0001D6  0E00               	movlw	0
  2537  0001D8  222C               	addwfc	(___flmul@grs+3)^0,f,c
  2538  0001DA  5021               	movf	(___flmul@a+1)^0,w,c
  2539  0001DC  021C               	mulwf	___flmul@b^0,c
  2540  0001DE  CFF3 F033          	movff	prodl,___flmul@temp
  2541  0001E2  CFF4 F034          	movff	prodh,___flmul@temp+1
  2542  0001E6  5033               	movf	___flmul@temp^0,w,c
  2543  0001E8  2629               	addwf	___flmul@grs^0,f,c
  2544  0001EA  5034               	movf	(___flmul@temp+1)^0,w,c
  2545  0001EC  222A               	addwfc	(___flmul@grs+1)^0,f,c
  2546  0001EE  0E00               	movlw	0
  2547  0001F0  222B               	addwfc	(___flmul@grs+2)^0,f,c
  2548  0001F2  0E00               	movlw	0
  2549  0001F4  222C               	addwfc	(___flmul@grs+3)^0,f,c
  2550  0001F6  C02B  F02C         	movff	___flmul@grs+2,___flmul@grs+3
  2551  0001FA  C02A  F02B         	movff	___flmul@grs+1,___flmul@grs+2
  2552  0001FE  C029  F02A         	movff	___flmul@grs,___flmul@grs+1
  2553  000202  6A29               	clrf	___flmul@grs^0,c
  2554  000204  5020               	movf	___flmul@a^0,w,c
  2555  000206  021C               	mulwf	___flmul@b^0,c
  2556  000208  CFF3 F033          	movff	prodl,___flmul@temp
  2557  00020C  CFF4 F034          	movff	prodh,___flmul@temp+1
  2558  000210  5033               	movf	___flmul@temp^0,w,c
  2559  000212  2629               	addwf	___flmul@grs^0,f,c
  2560  000214  5034               	movf	(___flmul@temp+1)^0,w,c
  2561  000216  222A               	addwfc	(___flmul@grs+1)^0,f,c
  2562  000218  0E00               	movlw	0
  2563  00021A  222B               	addwfc	(___flmul@grs+2)^0,f,c
  2564  00021C  0E00               	movlw	0
  2565  00021E  222C               	addwfc	(___flmul@grs+3)^0,f,c
  2566  000220  5022               	movf	(___flmul@a+2)^0,w,c
  2567  000222  021D               	mulwf	(___flmul@b+1)^0,c
  2568  000224  CFF3 F033          	movff	prodl,___flmul@temp
  2569  000228  CFF4 F034          	movff	prodh,___flmul@temp+1
  2570  00022C  5033               	movf	___flmul@temp^0,w,c
  2571  00022E  262F               	addwf	___flmul@prod^0,f,c
  2572  000230  5034               	movf	(___flmul@temp+1)^0,w,c
  2573  000232  2230               	addwfc	(___flmul@prod+1)^0,f,c
  2574  000234  0E00               	movlw	0
  2575  000236  2231               	addwfc	(___flmul@prod+2)^0,f,c
  2576  000238  0E00               	movlw	0
  2577  00023A  2232               	addwfc	(___flmul@prod+3)^0,f,c
  2578  00023C  5021               	movf	(___flmul@a+1)^0,w,c
  2579  00023E  021E               	mulwf	(___flmul@b+2)^0,c
  2580  000240  CFF3 F033          	movff	prodl,___flmul@temp
  2581  000244  CFF4 F034          	movff	prodh,___flmul@temp+1
  2582  000248  5033               	movf	___flmul@temp^0,w,c
  2583  00024A  262F               	addwf	___flmul@prod^0,f,c
  2584  00024C  5034               	movf	(___flmul@temp+1)^0,w,c
  2585  00024E  2230               	addwfc	(___flmul@prod+1)^0,f,c
  2586  000250  0E00               	movlw	0
  2587  000252  2231               	addwfc	(___flmul@prod+2)^0,f,c
  2588  000254  0E00               	movlw	0
  2589  000256  2232               	addwfc	(___flmul@prod+3)^0,f,c
  2590  000258  5022               	movf	(___flmul@a+2)^0,w,c
  2591  00025A  021E               	mulwf	(___flmul@b+2)^0,c
  2592  00025C  CFF3 F033          	movff	prodl,___flmul@temp
  2593  000260  CFF4 F034          	movff	prodh,___flmul@temp+1
  2594  000264  5033               	movf	___flmul@temp^0,w,c
  2595  000266  6E24               	movwf	??___flmul^0,c
  2596  000268  5034               	movf	(___flmul@temp+1)^0,w,c
  2597  00026A  6E25               	movwf	(??___flmul+1)^0,c
  2598  00026C  6A26               	clrf	(??___flmul+2)^0,c
  2599  00026E  6A27               	clrf	(??___flmul+3)^0,c
  2600  000270  C026  F027         	movff	??___flmul+2,??___flmul+3
  2601  000274  C025  F026         	movff	??___flmul+1,??___flmul+2
  2602  000278  C024  F025         	movff	??___flmul,??___flmul+1
  2603  00027C  6A24               	clrf	??___flmul^0,c
  2604  00027E  5024               	movf	??___flmul^0,w,c
  2605  000280  262F               	addwf	___flmul@prod^0,f,c
  2606  000282  5025               	movf	(??___flmul+1)^0,w,c
  2607  000284  2230               	addwfc	(___flmul@prod+1)^0,f,c
  2608  000286  5026               	movf	(??___flmul+2)^0,w,c
  2609  000288  2231               	addwfc	(___flmul@prod+2)^0,f,c
  2610  00028A  5027               	movf	(??___flmul+3)^0,w,c
  2611  00028C  2232               	addwfc	(___flmul@prod+3)^0,f,c
  2612  00028E  C029  F024         	movff	___flmul@grs,??___flmul
  2613  000292  C02A  F025         	movff	___flmul@grs+1,??___flmul+1
  2614  000296  C02B  F026         	movff	___flmul@grs+2,??___flmul+2
  2615  00029A  C02C  F027         	movff	___flmul@grs+3,??___flmul+3
  2616  00029E  0E19               	movlw	25
  2617  0002A0  EF57  F001         	goto	u1490
  2618  0002A4                     u1495:
  2619  0002A4  90D8               	bcf	status,0,c
  2620  0002A6  3227               	rrcf	(??___flmul+3)^0,f,c
  2621  0002A8  3226               	rrcf	(??___flmul+2)^0,f,c
  2622  0002AA  3225               	rrcf	(??___flmul+1)^0,f,c
  2623  0002AC  3224               	rrcf	??___flmul^0,f,c
  2624  0002AE                     u1490:
  2625  0002AE  2EE8               	decfsz	wreg,f,c
  2626  0002B0  EF52  F001         	goto	u1495
  2627  0002B4  5024               	movf	??___flmul^0,w,c
  2628  0002B6  262F               	addwf	___flmul@prod^0,f,c
  2629  0002B8  5025               	movf	(??___flmul+1)^0,w,c
  2630  0002BA  2230               	addwfc	(___flmul@prod+1)^0,f,c
  2631  0002BC  5026               	movf	(??___flmul+2)^0,w,c
  2632  0002BE  2231               	addwfc	(___flmul@prod+2)^0,f,c
  2633  0002C0  5027               	movf	(??___flmul+3)^0,w,c
  2634  0002C2  2232               	addwfc	(___flmul@prod+3)^0,f,c
  2635  0002C4  C02B  F02C         	movff	___flmul@grs+2,___flmul@grs+3
  2636  0002C8  C02A  F02B         	movff	___flmul@grs+1,___flmul@grs+2
  2637  0002CC  C029  F02A         	movff	___flmul@grs,___flmul@grs+1
  2638  0002D0  6A29               	clrf	___flmul@grs^0,c
  2639  0002D2  502D               	movf	___flmul@aexp^0,w,c
  2640  0002D4  C02E  F024         	movff	___flmul@bexp,??___flmul
  2641  0002D8  6A25               	clrf	(??___flmul+1)^0,c
  2642  0002DA  2624               	addwf	??___flmul^0,f,c
  2643  0002DC  0E00               	movlw	0
  2644  0002DE  2225               	addwfc	(??___flmul+1)^0,f,c
  2645  0002E0  0E82               	movlw	130
  2646  0002E2  2424               	addwf	??___flmul^0,w,c
  2647  0002E4  6E33               	movwf	___flmul@temp^0,c
  2648  0002E6  0EFF               	movlw	255
  2649  0002E8  2025               	addwfc	(??___flmul+1)^0,w,c
  2650  0002EA  6E34               	movwf	(___flmul@temp+1)^0,c
  2651  0002EC  EF8D  F001         	goto	l2732
  2652  0002F0                     l2726:
  2653  0002F0  90D8               	bcf	status,0,c
  2654  0002F2  362F               	rlcf	___flmul@prod^0,f,c
  2655  0002F4  3630               	rlcf	(___flmul@prod+1)^0,f,c
  2656  0002F6  3631               	rlcf	(___flmul@prod+2)^0,f,c
  2657  0002F8  3632               	rlcf	(___flmul@prod+3)^0,f,c
  2658  0002FA  AE2C               	btfss	(___flmul@grs+3)^0,7,c
  2659  0002FC  EF82  F001         	goto	u1501
  2660  000300  EF84  F001         	goto	u1500
  2661  000304                     u1501:
  2662  000304  EF85  F001         	goto	l1346
  2663  000308                     u1500:
  2664  000308  802F               	bsf	___flmul@prod^0,0,c
  2665  00030A                     l1346:
  2666  00030A  90D8               	bcf	status,0,c
  2667  00030C  3629               	rlcf	___flmul@grs^0,f,c
  2668  00030E  362A               	rlcf	(___flmul@grs+1)^0,f,c
  2669  000310  362B               	rlcf	(___flmul@grs+2)^0,f,c
  2670  000312  362C               	rlcf	(___flmul@grs+3)^0,f,c
  2671  000314  0633               	decf	___flmul@temp^0,f,c
  2672  000316  A0D8               	btfss	status,0,c
  2673  000318  0634               	decf	(___flmul@temp+1)^0,f,c
  2674  00031A                     l2732:
  2675  00031A  AE31               	btfss	(___flmul@prod+2)^0,7,c
  2676  00031C  EF92  F001         	goto	u1511
  2677  000320  EF94  F001         	goto	u1510
  2678  000324                     u1511:
  2679  000324  EF78  F001         	goto	l2726
  2680  000328                     u1510:
  2681  000328  0E00               	movlw	0
  2682  00032A  6E2D               	movwf	___flmul@aexp^0,c
  2683  00032C  AE2C               	btfss	(___flmul@grs+3)^0,7,c
  2684  00032E  EF9B  F001         	goto	u1521
  2685  000332  EF9D  F001         	goto	u1520
  2686  000336                     u1521:
  2687  000336  EFC1  F001         	goto	l1348
  2688  00033A                     u1520:
  2689  00033A  0EFF               	movlw	255
  2690  00033C  1429               	andwf	___flmul@grs^0,w,c
  2691  00033E  6E24               	movwf	??___flmul^0,c
  2692  000340  0EFF               	movlw	255
  2693  000342  142A               	andwf	(___flmul@grs+1)^0,w,c
  2694  000344  6E25               	movwf	(??___flmul+1)^0,c
  2695  000346  0EFF               	movlw	255
  2696  000348  142B               	andwf	(___flmul@grs+2)^0,w,c
  2697  00034A  6E26               	movwf	(??___flmul+2)^0,c
  2698  00034C  0E7F               	movlw	127
  2699  00034E  142C               	andwf	(___flmul@grs+3)^0,w,c
  2700  000350  6E27               	movwf	(??___flmul+3)^0,c
  2701  000352  5024               	movf	??___flmul^0,w,c
  2702  000354  1025               	iorwf	(??___flmul+1)^0,w,c
  2703  000356  1026               	iorwf	(??___flmul+2)^0,w,c
  2704  000358  1027               	iorwf	(??___flmul+3)^0,w,c
  2705  00035A  B4D8               	btfsc	status,2,c
  2706  00035C  EFB2  F001         	goto	u1531
  2707  000360  EFB4  F001         	goto	u1530
  2708  000364                     u1531:
  2709  000364  EFB8  F001         	goto	l1349
  2710  000368                     u1530:
  2711  000368                     l2740:
  2712  000368  0E01               	movlw	1
  2713  00036A  6E2D               	movwf	___flmul@aexp^0,c
  2714  00036C  EFC1  F001         	goto	l1348
  2715  000370                     l1349:
  2716  000370  A02F               	btfss	___flmul@prod^0,0,c
  2717  000372  EFBD  F001         	goto	u1541
  2718  000376  EFBF  F001         	goto	u1540
  2719  00037A                     u1541:
  2720  00037A  EFC1  F001         	goto	l1348
  2721  00037E                     u1540:
  2722  00037E  EFB4  F001         	goto	l2740
  2723  000382                     l1348:
  2724  000382  502D               	movf	___flmul@aexp^0,w,c
  2725  000384  B4D8               	btfsc	status,2,c
  2726  000386  EFC7  F001         	goto	u1551
  2727  00038A  EFC9  F001         	goto	u1550
  2728  00038E                     u1551:
  2729  00038E  EFED  F001         	goto	l2752
  2730  000392                     u1550:
  2731  000392  0E01               	movlw	1
  2732  000394  262F               	addwf	___flmul@prod^0,f,c
  2733  000396  0E00               	movlw	0
  2734  000398  2230               	addwfc	(___flmul@prod+1)^0,f,c
  2735  00039A  2231               	addwfc	(___flmul@prod+2)^0,f,c
  2736  00039C  2232               	addwfc	(___flmul@prod+3)^0,f,c
  2737  00039E  A032               	btfss	(___flmul@prod+3)^0,0,c
  2738  0003A0  EFD4  F001         	goto	u1561
  2739  0003A4  EFD6  F001         	goto	u1560
  2740  0003A8                     u1561:
  2741  0003A8  EFED  F001         	goto	l2752
  2742  0003AC                     u1560:
  2743  0003AC  C02F  F024         	movff	___flmul@prod,??___flmul
  2744  0003B0  C030  F025         	movff	___flmul@prod+1,??___flmul+1
  2745  0003B4  C031  F026         	movff	___flmul@prod+2,??___flmul+2
  2746  0003B8  C032  F027         	movff	___flmul@prod+3,??___flmul+3
  2747  0003BC  3427               	rlcf	(??___flmul+3)^0,w,c
  2748  0003BE  3227               	rrcf	(??___flmul+3)^0,f,c
  2749  0003C0  3226               	rrcf	(??___flmul+2)^0,f,c
  2750  0003C2  3225               	rrcf	(??___flmul+1)^0,f,c
  2751  0003C4  3224               	rrcf	??___flmul^0,f,c
  2752  0003C6  C024  F02F         	movff	??___flmul,___flmul@prod
  2753  0003CA  C025  F030         	movff	??___flmul+1,___flmul@prod+1
  2754  0003CE  C026  F031         	movff	??___flmul+2,___flmul@prod+2
  2755  0003D2  C027  F032         	movff	??___flmul+3,___flmul@prod+3
  2756  0003D6  4A33               	infsnz	___flmul@temp^0,f,c
  2757  0003D8  2A34               	incf	(___flmul@temp+1)^0,f,c
  2758  0003DA                     l2752:
  2759  0003DA  BE34               	btfsc	(___flmul@temp+1)^0,7,c
  2760  0003DC  EFF8  F001         	goto	u1571
  2761  0003E0  5034               	movf	(___flmul@temp+1)^0,w,c
  2762  0003E2  E108               	bnz	u1570
  2763  0003E4  2833               	incf	___flmul@temp^0,w,c
  2764  0003E6  A0D8               	btfss	status,0,c
  2765  0003E8  EFF8  F001         	goto	u1571
  2766  0003EC  EFFA  F001         	goto	u1570
  2767  0003F0                     u1571:
  2768  0003F0  EF04  F002         	goto	l2756
  2769  0003F4                     u1570:
  2770  0003F4  0E00               	movlw	0
  2771  0003F6  6E2F               	movwf	___flmul@prod^0,c
  2772  0003F8  0E00               	movlw	0
  2773  0003FA  6E30               	movwf	(___flmul@prod+1)^0,c
  2774  0003FC  0E80               	movlw	128
  2775  0003FE  6E31               	movwf	(___flmul@prod+2)^0,c
  2776  000400  0E7F               	movlw	127
  2777  000402  6E32               	movwf	(___flmul@prod+3)^0,c
  2778  000404  EF32  F002         	goto	l2768
  2779  000408                     l2756:
  2780  000408  BE34               	btfsc	(___flmul@temp+1)^0,7,c
  2781  00040A  EF11  F002         	goto	u1580
  2782  00040E  5034               	movf	(___flmul@temp+1)^0,w,c
  2783  000410  E106               	bnz	u1581
  2784  000412  0433               	decf	___flmul@temp^0,w,c
  2785  000414  B0D8               	btfsc	status,0,c
  2786  000416  EF0F  F002         	goto	u1581
  2787  00041A  EF11  F002         	goto	u1580
  2788  00041E                     u1581:
  2789  00041E  EF1D  F002         	goto	l1356
  2790  000422                     u1580:
  2791  000422  0E00               	movlw	0
  2792  000424  6E2F               	movwf	___flmul@prod^0,c
  2793  000426  0E00               	movlw	0
  2794  000428  6E30               	movwf	(___flmul@prod+1)^0,c
  2795  00042A  0E00               	movlw	0
  2796  00042C  6E31               	movwf	(___flmul@prod+2)^0,c
  2797  00042E  0E00               	movlw	0
  2798  000430  6E32               	movwf	(___flmul@prod+3)^0,c
  2799  000432  0E00               	movlw	0
  2800  000434  6E28               	movwf	___flmul@sign^0,c
  2801  000436  EF32  F002         	goto	l2768
  2802  00043A                     l1356:
  2803  00043A  C033  F02E         	movff	___flmul@temp,___flmul@bexp
  2804  00043E  0EFF               	movlw	255
  2805  000440  162F               	andwf	___flmul@prod^0,f,c
  2806  000442  0EFF               	movlw	255
  2807  000444  1630               	andwf	(___flmul@prod+1)^0,f,c
  2808  000446  0E7F               	movlw	127
  2809  000448  1631               	andwf	(___flmul@prod+2)^0,f,c
  2810  00044A  0E00               	movlw	0
  2811  00044C  1632               	andwf	(___flmul@prod+3)^0,f,c
  2812  00044E  A02E               	btfss	___flmul@bexp^0,0,c
  2813  000450  EF2C  F002         	goto	u1591
  2814  000454  EF2E  F002         	goto	u1590
  2815  000458                     u1591:
  2816  000458  EF2F  F002         	goto	l2766
  2817  00045C                     u1590:
  2818  00045C  8E31               	bsf	(___flmul@prod+2)^0,7,c
  2819  00045E                     l2766:
  2820  00045E  90D8               	bcf	status,0,c
  2821  000460  302E               	rrcf	___flmul@bexp^0,w,c
  2822  000462  6E32               	movwf	(___flmul@prod+3)^0,c
  2823  000464                     l2768:
  2824  000464  5028               	movf	___flmul@sign^0,w,c
  2825  000466  1232               	iorwf	(___flmul@prod+3)^0,f,c
  2826  000468  C02F  F01C         	movff	___flmul@prod,?___flmul
  2827  00046C  C030  F01D         	movff	___flmul@prod+1,?___flmul+1
  2828  000470  C031  F01E         	movff	___flmul@prod+2,?___flmul+2
  2829  000474  C032  F01F         	movff	___flmul@prod+3,?___flmul+3
  2830  000478                     l1343:
  2831  000478  0012               	return		;funcret
  2832  00047A                     __end_of___flmul:
  2833                           	callstack 0
  2834                           
  2835 ;; *************** function ___fldiv *****************
  2836 ;; Defined at:
  2837 ;;		line 11 in file "C:\Program Files\Microchip\xc8\v2.36\pic\sources\c99\common\sprcdiv.c"
  2838 ;; Parameters:    Size  Location     Type
  2839 ;;  b               4    2[COMRAM] unsigned char 
  2840 ;;  a               4    6[COMRAM] unsigned char 
  2841 ;; Auto vars:     Size  Location     Type
  2842 ;;  grs             4   21[COMRAM] unsigned long 
  2843 ;;  rem             4   14[COMRAM] unsigned long 
  2844 ;;  new_exp         2   19[COMRAM] short 
  2845 ;;  aexp            1   26[COMRAM] unsigned char 
  2846 ;;  bexp            1   25[COMRAM] unsigned char 
  2847 ;;  sign            1   18[COMRAM] unsigned char 
  2848 ;; Return value:  Size  Location     Type
  2849 ;;                  4    2[COMRAM] unsigned char 
  2850 ;; Registers used:
  2851 ;;		wreg, status,2, status,0
  2852 ;; Tracked objects:
  2853 ;;		On entry : 0/0
  2854 ;;		On exit  : 0/0
  2855 ;;		Unchanged: 0/0
  2856 ;; Data sizes:     COMRAM   BANK0   BANK1   BANK2   BANK3   BANK4   BANK5   BANK6   BANK7   BANK8   BANK9  BANK10  BANK1
      +1  BANK12  BANK13  BANK14
  2857 ;;      Params:         8       0       0       0       0       0       0       0       0       0       0       0       
      +0       0       0       0
  2858 ;;      Locals:        13       0       0       0       0       0       0       0       0       0       0       0       
      +0       0       0       0
  2859 ;;      Temps:          4       0       0       0       0       0       0       0       0       0       0       0       
      +0       0       0       0
  2860 ;;      Totals:        25       0       0       0       0       0       0       0       0       0       0       0       
      +0       0       0       0
  2861 ;;Total ram usage:       25 bytes
  2862 ;; Hardware stack levels used: 1
  2863 ;; Hardware stack levels required when called: 3
  2864 ;; This function calls:
  2865 ;;		Nothing
  2866 ;; This function is called by:
  2867 ;;		_ADC_Conv_pinSeven
  2868 ;;		_ADC_Conv_pinNine
  2869 ;; This function uses a non-reentrant model
  2870 ;;
  2871                           
  2872                           	psect	text12
  2873  00047A                     __ptext12:
  2874                           	callstack 0
  2875  00047A                     ___fldiv:
  2876                           	callstack 25
  2877  00047A  5006               	movf	(___fldiv@b+3)^0,w,c
  2878  00047C  0B80               	andlw	128
  2879  00047E  6E13               	movwf	___fldiv@sign^0,c
  2880  000480  5006               	movf	(___fldiv@b+3)^0,w,c
  2881  000482  2406               	addwf	(___fldiv@b+3)^0,w,c
  2882  000484  6E1A               	movwf	___fldiv@bexp^0,c
  2883  000486  AE05               	btfss	(___fldiv@b+2)^0,7,c
  2884  000488  EF48  F002         	goto	u1181
  2885  00048C  EF4A  F002         	goto	u1180
  2886  000490                     u1181:
  2887  000490  EF4B  F002         	goto	l2512
  2888  000494                     u1180:
  2889  000494  801A               	bsf	___fldiv@bexp^0,0,c
  2890  000496                     l2512:
  2891  000496  501A               	movf	___fldiv@bexp^0,w,c
  2892  000498  B4D8               	btfsc	status,2,c
  2893  00049A  EF51  F002         	goto	u1191
  2894  00049E  EF53  F002         	goto	u1190
  2895  0004A2                     u1191:
  2896  0004A2  EF68  F002         	goto	l2522
  2897  0004A6                     u1190:
  2898  0004A6  281A               	incf	___fldiv@bexp^0,w,c
  2899  0004A8  A4D8               	btfss	status,2,c
  2900  0004AA  EF59  F002         	goto	u1201
  2901  0004AE  EF5B  F002         	goto	u1200
  2902  0004B2                     u1201:
  2903  0004B2  EF63  F002         	goto	l2518
  2904  0004B6                     u1200:
  2905  0004B6  0E00               	movlw	0
  2906  0004B8  6E03               	movwf	___fldiv@b^0,c
  2907  0004BA  0E00               	movlw	0
  2908  0004BC  6E04               	movwf	(___fldiv@b+1)^0,c
  2909  0004BE  0E00               	movlw	0
  2910  0004C0  6E05               	movwf	(___fldiv@b+2)^0,c
  2911  0004C2  0E00               	movlw	0
  2912  0004C4  6E06               	movwf	(___fldiv@b+3)^0,c
  2913  0004C6                     l2518:
  2914  0004C6  8E05               	bsf	(___fldiv@b+2)^0,7,c
  2915  0004C8  0E00               	movlw	0
  2916  0004CA  6E06               	movwf	(___fldiv@b+3)^0,c
  2917  0004CC  EF70  F002         	goto	l2524
  2918  0004D0                     l2522:
  2919  0004D0  0E00               	movlw	0
  2920  0004D2  6E03               	movwf	___fldiv@b^0,c
  2921  0004D4  0E00               	movlw	0
  2922  0004D6  6E04               	movwf	(___fldiv@b+1)^0,c
  2923  0004D8  0E00               	movlw	0
  2924  0004DA  6E05               	movwf	(___fldiv@b+2)^0,c
  2925  0004DC  0E00               	movlw	0
  2926  0004DE  6E06               	movwf	(___fldiv@b+3)^0,c
  2927  0004E0                     l2524:
  2928  0004E0  500A               	movf	(___fldiv@a+3)^0,w,c
  2929  0004E2  0B80               	andlw	128
  2930  0004E4  1A13               	xorwf	___fldiv@sign^0,f,c
  2931  0004E6  500A               	movf	(___fldiv@a+3)^0,w,c
  2932  0004E8  240A               	addwf	(___fldiv@a+3)^0,w,c
  2933  0004EA  6E1B               	movwf	___fldiv@aexp^0,c
  2934  0004EC  AE09               	btfss	(___fldiv@a+2)^0,7,c
  2935  0004EE  EF7B  F002         	goto	u1211
  2936  0004F2  EF7D  F002         	goto	u1210
  2937  0004F6                     u1211:
  2938  0004F6  EF7E  F002         	goto	l2532
  2939  0004FA                     u1210:
  2940  0004FA  801B               	bsf	___fldiv@aexp^0,0,c
  2941  0004FC                     l2532:
  2942  0004FC  501B               	movf	___fldiv@aexp^0,w,c
  2943  0004FE  B4D8               	btfsc	status,2,c
  2944  000500  EF84  F002         	goto	u1221
  2945  000504  EF86  F002         	goto	u1220
  2946  000508                     u1221:
  2947  000508  EF9B  F002         	goto	l2542
  2948  00050C                     u1220:
  2949  00050C  281B               	incf	___fldiv@aexp^0,w,c
  2950  00050E  A4D8               	btfss	status,2,c
  2951  000510  EF8C  F002         	goto	u1231
  2952  000514  EF8E  F002         	goto	u1230
  2953  000518                     u1231:
  2954  000518  EF96  F002         	goto	l2538
  2955  00051C                     u1230:
  2956  00051C  0E00               	movlw	0
  2957  00051E  6E07               	movwf	___fldiv@a^0,c
  2958  000520  0E00               	movlw	0
  2959  000522  6E08               	movwf	(___fldiv@a+1)^0,c
  2960  000524  0E00               	movlw	0
  2961  000526  6E09               	movwf	(___fldiv@a+2)^0,c
  2962  000528  0E00               	movlw	0
  2963  00052A  6E0A               	movwf	(___fldiv@a+3)^0,c
  2964  00052C                     l2538:
  2965  00052C  8E09               	bsf	(___fldiv@a+2)^0,7,c
  2966  00052E  0E00               	movlw	0
  2967  000530  6E0A               	movwf	(___fldiv@a+3)^0,c
  2968  000532  EFA3  F002         	goto	l2544
  2969  000536                     l2542:
  2970  000536  0E00               	movlw	0
  2971  000538  6E07               	movwf	___fldiv@a^0,c
  2972  00053A  0E00               	movlw	0
  2973  00053C  6E08               	movwf	(___fldiv@a+1)^0,c
  2974  00053E  0E00               	movlw	0
  2975  000540  6E09               	movwf	(___fldiv@a+2)^0,c
  2976  000542  0E00               	movlw	0
  2977  000544  6E0A               	movwf	(___fldiv@a+3)^0,c
  2978  000546                     l2544:
  2979  000546  5007               	movf	___fldiv@a^0,w,c
  2980  000548  1008               	iorwf	(___fldiv@a+1)^0,w,c
  2981  00054A  1009               	iorwf	(___fldiv@a+2)^0,w,c
  2982  00054C  100A               	iorwf	(___fldiv@a+3)^0,w,c
  2983  00054E  A4D8               	btfss	status,2,c
  2984  000550  EFAC  F002         	goto	u1241
  2985  000554  EFAE  F002         	goto	u1240
  2986  000558                     u1241:
  2987  000558  EFC6  F002         	goto	l2556
  2988  00055C                     u1240:
  2989  00055C  0E00               	movlw	0
  2990  00055E  6E03               	movwf	___fldiv@b^0,c
  2991  000560  0E00               	movlw	0
  2992  000562  6E04               	movwf	(___fldiv@b+1)^0,c
  2993  000564  0E00               	movlw	0
  2994  000566  6E05               	movwf	(___fldiv@b+2)^0,c
  2995  000568  0E00               	movlw	0
  2996  00056A  6E06               	movwf	(___fldiv@b+3)^0,c
  2997  00056C  0E80               	movlw	128
  2998  00056E  1205               	iorwf	(___fldiv@b+2)^0,f,c
  2999  000570  0E7F               	movlw	127
  3000  000572  1206               	iorwf	(___fldiv@b+3)^0,f,c
  3001  000574                     l2550:
  3002  000574  5013               	movf	___fldiv@sign^0,w,c
  3003  000576  1206               	iorwf	(___fldiv@b+3)^0,f,c
  3004  000578  C003  F003         	movff	___fldiv@b,?___fldiv
  3005  00057C  C004  F004         	movff	___fldiv@b+1,?___fldiv+1
  3006  000580  C005  F005         	movff	___fldiv@b+2,?___fldiv+2
  3007  000584  C006  F006         	movff	___fldiv@b+3,?___fldiv+3
  3008  000588  EF09  F004         	goto	l1307
  3009  00058C                     l2556:
  3010  00058C  501A               	movf	___fldiv@bexp^0,w,c
  3011  00058E  A4D8               	btfss	status,2,c
  3012  000590  EFCC  F002         	goto	u1251
  3013  000594  EFCE  F002         	goto	u1250
  3014  000598                     u1251:
  3015  000598  EFD8  F002         	goto	l2564
  3016  00059C                     u1250:
  3017  00059C  0E00               	movlw	0
  3018  00059E  6E03               	movwf	?___fldiv^0,c
  3019  0005A0  0E00               	movlw	0
  3020  0005A2  6E04               	movwf	(?___fldiv+1)^0,c
  3021  0005A4  0E00               	movlw	0
  3022  0005A6  6E05               	movwf	(?___fldiv+2)^0,c
  3023  0005A8  0E00               	movlw	0
  3024  0005AA  6E06               	movwf	(?___fldiv+3)^0,c
  3025  0005AC  EF09  F004         	goto	l1307
  3026  0005B0                     l2564:
  3027  0005B0  501B               	movf	___fldiv@aexp^0,w,c
  3028  0005B2  C01A  F00B         	movff	___fldiv@bexp,??___fldiv
  3029  0005B6  6A0C               	clrf	(??___fldiv+1)^0,c
  3030  0005B8  5E0B               	subwf	??___fldiv^0,f,c
  3031  0005BA  0E00               	movlw	0
  3032  0005BC  5A0C               	subwfb	(??___fldiv+1)^0,f,c
  3033  0005BE  0E7F               	movlw	127
  3034  0005C0  240B               	addwf	??___fldiv^0,w,c
  3035  0005C2  6E14               	movwf	___fldiv@new_exp^0,c
  3036  0005C4  0E00               	movlw	0
  3037  0005C6  200C               	addwfc	(??___fldiv+1)^0,w,c
  3038  0005C8  6E15               	movwf	(___fldiv@new_exp+1)^0,c
  3039  0005CA  C003  F00F         	movff	___fldiv@b,___fldiv@rem
  3040  0005CE  C004  F010         	movff	___fldiv@b+1,___fldiv@rem+1
  3041  0005D2  C005  F011         	movff	___fldiv@b+2,___fldiv@rem+2
  3042  0005D6  C006  F012         	movff	___fldiv@b+3,___fldiv@rem+3
  3043  0005DA  0E00               	movlw	0
  3044  0005DC  6E03               	movwf	___fldiv@b^0,c
  3045  0005DE  0E00               	movlw	0
  3046  0005E0  6E04               	movwf	(___fldiv@b+1)^0,c
  3047  0005E2  0E00               	movlw	0
  3048  0005E4  6E05               	movwf	(___fldiv@b+2)^0,c
  3049  0005E6  0E00               	movlw	0
  3050  0005E8  6E06               	movwf	(___fldiv@b+3)^0,c
  3051  0005EA  0E00               	movlw	0
  3052  0005EC  6E16               	movwf	___fldiv@grs^0,c
  3053  0005EE  0E00               	movlw	0
  3054  0005F0  6E17               	movwf	(___fldiv@grs+1)^0,c
  3055  0005F2  0E00               	movlw	0
  3056  0005F4  6E18               	movwf	(___fldiv@grs+2)^0,c
  3057  0005F6  0E00               	movlw	0
  3058  0005F8  6E19               	movwf	(___fldiv@grs+3)^0,c
  3059  0005FA  0E00               	movlw	0
  3060  0005FC  6E1B               	movwf	___fldiv@aexp^0,c
  3061  0005FE  EF39  F003         	goto	l1309
  3062  000602                     l2574:
  3063  000602  501B               	movf	___fldiv@aexp^0,w,c
  3064  000604  B4D8               	btfsc	status,2,c
  3065  000606  EF07  F003         	goto	u1261
  3066  00060A  EF09  F003         	goto	u1260
  3067  00060E                     u1261:
  3068  00060E  EF20  F003         	goto	l2582
  3069  000612                     u1260:
  3070  000612  90D8               	bcf	status,0,c
  3071  000614  360F               	rlcf	___fldiv@rem^0,f,c
  3072  000616  3610               	rlcf	(___fldiv@rem+1)^0,f,c
  3073  000618  3611               	rlcf	(___fldiv@rem+2)^0,f,c
  3074  00061A  3612               	rlcf	(___fldiv@rem+3)^0,f,c
  3075  00061C  90D8               	bcf	status,0,c
  3076  00061E  3603               	rlcf	___fldiv@b^0,f,c
  3077  000620  3604               	rlcf	(___fldiv@b+1)^0,f,c
  3078  000622  3605               	rlcf	(___fldiv@b+2)^0,f,c
  3079  000624  3606               	rlcf	(___fldiv@b+3)^0,f,c
  3080  000626  AE19               	btfss	(___fldiv@grs+3)^0,7,c
  3081  000628  EF18  F003         	goto	u1271
  3082  00062C  EF1A  F003         	goto	u1270
  3083  000630                     u1271:
  3084  000630  EF1B  F003         	goto	l1312
  3085  000634                     u1270:
  3086  000634  8003               	bsf	___fldiv@b^0,0,c
  3087  000636                     l1312:
  3088  000636  90D8               	bcf	status,0,c
  3089  000638  3616               	rlcf	___fldiv@grs^0,f,c
  3090  00063A  3617               	rlcf	(___fldiv@grs+1)^0,f,c
  3091  00063C  3618               	rlcf	(___fldiv@grs+2)^0,f,c
  3092  00063E  3619               	rlcf	(___fldiv@grs+3)^0,f,c
  3093  000640                     l2582:
  3094  000640  5007               	movf	___fldiv@a^0,w,c
  3095  000642  5C0F               	subwf	___fldiv@rem^0,w,c
  3096  000644  5008               	movf	(___fldiv@a+1)^0,w,c
  3097  000646  5810               	subwfb	(___fldiv@rem+1)^0,w,c
  3098  000648  5009               	movf	(___fldiv@a+2)^0,w,c
  3099  00064A  5811               	subwfb	(___fldiv@rem+2)^0,w,c
  3100  00064C  500A               	movf	(___fldiv@a+3)^0,w,c
  3101  00064E  5812               	subwfb	(___fldiv@rem+3)^0,w,c
  3102  000650  A0D8               	btfss	status,0,c
  3103  000652  EF2D  F003         	goto	u1281
  3104  000656  EF2F  F003         	goto	u1280
  3105  00065A                     u1281:
  3106  00065A  EF38  F003         	goto	l2588
  3107  00065E                     u1280:
  3108  00065E  8C19               	bsf	(___fldiv@grs+3)^0,6,c
  3109  000660  5007               	movf	___fldiv@a^0,w,c
  3110  000662  5E0F               	subwf	___fldiv@rem^0,f,c
  3111  000664  5008               	movf	(___fldiv@a+1)^0,w,c
  3112  000666  5A10               	subwfb	(___fldiv@rem+1)^0,f,c
  3113  000668  5009               	movf	(___fldiv@a+2)^0,w,c
  3114  00066A  5A11               	subwfb	(___fldiv@rem+2)^0,f,c
  3115  00066C  500A               	movf	(___fldiv@a+3)^0,w,c
  3116  00066E  5A12               	subwfb	(___fldiv@rem+3)^0,f,c
  3117  000670                     l2588:
  3118  000670  2A1B               	incf	___fldiv@aexp^0,f,c
  3119  000672                     l1309:
  3120  000672  0E19               	movlw	25
  3121  000674  641B               	cpfsgt	___fldiv@aexp^0,c
  3122  000676  EF3F  F003         	goto	u1291
  3123  00067A  EF41  F003         	goto	u1290
  3124  00067E                     u1291:
  3125  00067E  EF01  F003         	goto	l2574
  3126  000682                     u1290:
  3127  000682  500F               	movf	___fldiv@rem^0,w,c
  3128  000684  1010               	iorwf	(___fldiv@rem+1)^0,w,c
  3129  000686  1011               	iorwf	(___fldiv@rem+2)^0,w,c
  3130  000688  1012               	iorwf	(___fldiv@rem+3)^0,w,c
  3131  00068A  B4D8               	btfsc	status,2,c
  3132  00068C  EF4A  F003         	goto	u1301
  3133  000690  EF4C  F003         	goto	u1300
  3134  000694                     u1301:
  3135  000694  EF64  F003         	goto	l2600
  3136  000698                     u1300:
  3137  000698  8016               	bsf	___fldiv@grs^0,0,c
  3138  00069A  EF64  F003         	goto	l2600
  3139  00069E                     l2594:
  3140  00069E  90D8               	bcf	status,0,c
  3141  0006A0  3603               	rlcf	___fldiv@b^0,f,c
  3142  0006A2  3604               	rlcf	(___fldiv@b+1)^0,f,c
  3143  0006A4  3605               	rlcf	(___fldiv@b+2)^0,f,c
  3144  0006A6  3606               	rlcf	(___fldiv@b+3)^0,f,c
  3145  0006A8  AE19               	btfss	(___fldiv@grs+3)^0,7,c
  3146  0006AA  EF59  F003         	goto	u1311
  3147  0006AE  EF5B  F003         	goto	u1310
  3148  0006B2                     u1311:
  3149  0006B2  EF5C  F003         	goto	l1318
  3150  0006B6                     u1310:
  3151  0006B6  8003               	bsf	___fldiv@b^0,0,c
  3152  0006B8                     l1318:
  3153  0006B8  90D8               	bcf	status,0,c
  3154  0006BA  3616               	rlcf	___fldiv@grs^0,f,c
  3155  0006BC  3617               	rlcf	(___fldiv@grs+1)^0,f,c
  3156  0006BE  3618               	rlcf	(___fldiv@grs+2)^0,f,c
  3157  0006C0  3619               	rlcf	(___fldiv@grs+3)^0,f,c
  3158  0006C2  0614               	decf	___fldiv@new_exp^0,f,c
  3159  0006C4  A0D8               	btfss	status,0,c
  3160  0006C6  0615               	decf	(___fldiv@new_exp+1)^0,f,c
  3161  0006C8                     l2600:
  3162  0006C8  AE05               	btfss	(___fldiv@b+2)^0,7,c
  3163  0006CA  EF69  F003         	goto	u1321
  3164  0006CE  EF6B  F003         	goto	u1320
  3165  0006D2                     u1321:
  3166  0006D2  EF4F  F003         	goto	l2594
  3167  0006D6                     u1320:
  3168  0006D6  0E00               	movlw	0
  3169  0006D8  6E1B               	movwf	___fldiv@aexp^0,c
  3170  0006DA  AE19               	btfss	(___fldiv@grs+3)^0,7,c
  3171  0006DC  EF72  F003         	goto	u1331
  3172  0006E0  EF74  F003         	goto	u1330
  3173  0006E4                     u1331:
  3174  0006E4  EF98  F003         	goto	l1320
  3175  0006E8                     u1330:
  3176  0006E8  0EFF               	movlw	255
  3177  0006EA  1416               	andwf	___fldiv@grs^0,w,c
  3178  0006EC  6E0B               	movwf	??___fldiv^0,c
  3179  0006EE  0EFF               	movlw	255
  3180  0006F0  1417               	andwf	(___fldiv@grs+1)^0,w,c
  3181  0006F2  6E0C               	movwf	(??___fldiv+1)^0,c
  3182  0006F4  0EFF               	movlw	255
  3183  0006F6  1418               	andwf	(___fldiv@grs+2)^0,w,c
  3184  0006F8  6E0D               	movwf	(??___fldiv+2)^0,c
  3185  0006FA  0E7F               	movlw	127
  3186  0006FC  1419               	andwf	(___fldiv@grs+3)^0,w,c
  3187  0006FE  6E0E               	movwf	(??___fldiv+3)^0,c
  3188  000700  500B               	movf	??___fldiv^0,w,c
  3189  000702  100C               	iorwf	(??___fldiv+1)^0,w,c
  3190  000704  100D               	iorwf	(??___fldiv+2)^0,w,c
  3191  000706  100E               	iorwf	(??___fldiv+3)^0,w,c
  3192  000708  B4D8               	btfsc	status,2,c
  3193  00070A  EF89  F003         	goto	u1341
  3194  00070E  EF8B  F003         	goto	u1340
  3195  000712                     u1341:
  3196  000712  EF8F  F003         	goto	l1321
  3197  000716                     u1340:
  3198  000716                     l2608:
  3199  000716  0E01               	movlw	1
  3200  000718  6E1B               	movwf	___fldiv@aexp^0,c
  3201  00071A  EF98  F003         	goto	l1320
  3202  00071E                     l1321:
  3203  00071E  A003               	btfss	___fldiv@b^0,0,c
  3204  000720  EF94  F003         	goto	u1351
  3205  000724  EF96  F003         	goto	u1350
  3206  000728                     u1351:
  3207  000728  EF98  F003         	goto	l1320
  3208  00072C                     u1350:
  3209  00072C  EF8B  F003         	goto	l2608
  3210  000730                     l1320:
  3211  000730  501B               	movf	___fldiv@aexp^0,w,c
  3212  000732  B4D8               	btfsc	status,2,c
  3213  000734  EF9E  F003         	goto	u1361
  3214  000738  EFA0  F003         	goto	u1360
  3215  00073C                     u1361:
  3216  00073C  EFC4  F003         	goto	l2620
  3217  000740                     u1360:
  3218  000740  0E01               	movlw	1
  3219  000742  2603               	addwf	___fldiv@b^0,f,c
  3220  000744  0E00               	movlw	0
  3221  000746  2204               	addwfc	(___fldiv@b+1)^0,f,c
  3222  000748  2205               	addwfc	(___fldiv@b+2)^0,f,c
  3223  00074A  2206               	addwfc	(___fldiv@b+3)^0,f,c
  3224  00074C  A006               	btfss	(___fldiv@b+3)^0,0,c
  3225  00074E  EFAB  F003         	goto	u1371
  3226  000752  EFAD  F003         	goto	u1370
  3227  000756                     u1371:
  3228  000756  EFC4  F003         	goto	l2620
  3229  00075A                     u1370:
  3230  00075A  C003  F00B         	movff	___fldiv@b,??___fldiv
  3231  00075E  C004  F00C         	movff	___fldiv@b+1,??___fldiv+1
  3232  000762  C005  F00D         	movff	___fldiv@b+2,??___fldiv+2
  3233  000766  C006  F00E         	movff	___fldiv@b+3,??___fldiv+3
  3234  00076A  340E               	rlcf	(??___fldiv+3)^0,w,c
  3235  00076C  320E               	rrcf	(??___fldiv+3)^0,f,c
  3236  00076E  320D               	rrcf	(??___fldiv+2)^0,f,c
  3237  000770  320C               	rrcf	(??___fldiv+1)^0,f,c
  3238  000772  320B               	rrcf	??___fldiv^0,f,c
  3239  000774  C00B  F003         	movff	??___fldiv,___fldiv@b
  3240  000778  C00C  F004         	movff	??___fldiv+1,___fldiv@b+1
  3241  00077C  C00D  F005         	movff	??___fldiv+2,___fldiv@b+2
  3242  000780  C00E  F006         	movff	??___fldiv+3,___fldiv@b+3
  3243  000784  4A14               	infsnz	___fldiv@new_exp^0,f,c
  3244  000786  2A15               	incf	(___fldiv@new_exp+1)^0,f,c
  3245  000788                     l2620:
  3246  000788  BE15               	btfsc	(___fldiv@new_exp+1)^0,7,c
  3247  00078A  EFCF  F003         	goto	u1381
  3248  00078E  5015               	movf	(___fldiv@new_exp+1)^0,w,c
  3249  000790  E108               	bnz	u1380
  3250  000792  2814               	incf	___fldiv@new_exp^0,w,c
  3251  000794  A0D8               	btfss	status,0,c
  3252  000796  EFCF  F003         	goto	u1381
  3253  00079A  EFD1  F003         	goto	u1380
  3254  00079E                     u1381:
  3255  00079E  EFDC  F003         	goto	l2624
  3256  0007A2                     u1380:
  3257  0007A2  0E00               	movlw	0
  3258  0007A4  6E15               	movwf	(___fldiv@new_exp+1)^0,c
  3259  0007A6  6814               	setf	___fldiv@new_exp^0,c
  3260  0007A8  0E00               	movlw	0
  3261  0007AA  6E03               	movwf	___fldiv@b^0,c
  3262  0007AC  0E00               	movlw	0
  3263  0007AE  6E04               	movwf	(___fldiv@b+1)^0,c
  3264  0007B0  0E00               	movlw	0
  3265  0007B2  6E05               	movwf	(___fldiv@b+2)^0,c
  3266  0007B4  0E00               	movlw	0
  3267  0007B6  6E06               	movwf	(___fldiv@b+3)^0,c
  3268  0007B8                     l2624:
  3269  0007B8  BE15               	btfsc	(___fldiv@new_exp+1)^0,7,c
  3270  0007BA  EFE9  F003         	goto	u1390
  3271  0007BE  5015               	movf	(___fldiv@new_exp+1)^0,w,c
  3272  0007C0  E106               	bnz	u1391
  3273  0007C2  0414               	decf	___fldiv@new_exp^0,w,c
  3274  0007C4  B0D8               	btfsc	status,0,c
  3275  0007C6  EFE7  F003         	goto	u1391
  3276  0007CA  EFE9  F003         	goto	u1390
  3277  0007CE                     u1391:
  3278  0007CE  EFF7  F003         	goto	l2628
  3279  0007D2                     u1390:
  3280  0007D2  0E00               	movlw	0
  3281  0007D4  6E15               	movwf	(___fldiv@new_exp+1)^0,c
  3282  0007D6  0E00               	movlw	0
  3283  0007D8  6E14               	movwf	___fldiv@new_exp^0,c
  3284  0007DA  0E00               	movlw	0
  3285  0007DC  6E03               	movwf	___fldiv@b^0,c
  3286  0007DE  0E00               	movlw	0
  3287  0007E0  6E04               	movwf	(___fldiv@b+1)^0,c
  3288  0007E2  0E00               	movlw	0
  3289  0007E4  6E05               	movwf	(___fldiv@b+2)^0,c
  3290  0007E6  0E00               	movlw	0
  3291  0007E8  6E06               	movwf	(___fldiv@b+3)^0,c
  3292  0007EA  0E00               	movlw	0
  3293  0007EC  6E13               	movwf	___fldiv@sign^0,c
  3294  0007EE                     l2628:
  3295  0007EE  C014  F01A         	movff	___fldiv@new_exp,___fldiv@bexp
  3296  0007F2  A01A               	btfss	___fldiv@bexp^0,0,c
  3297  0007F4  EFFE  F003         	goto	u1401
  3298  0007F8  EF00  F004         	goto	u1400
  3299  0007FC                     u1401:
  3300  0007FC  EF03  F004         	goto	l2634
  3301  000800                     u1400:
  3302  000800  8E05               	bsf	(___fldiv@b+2)^0,7,c
  3303  000802  EF04  F004         	goto	l2636
  3304  000806                     l2634:
  3305  000806  9E05               	bcf	(___fldiv@b+2)^0,7,c
  3306  000808                     l2636:
  3307  000808  90D8               	bcf	status,0,c
  3308  00080A  301A               	rrcf	___fldiv@bexp^0,w,c
  3309  00080C  6E06               	movwf	(___fldiv@b+3)^0,c
  3310  00080E  EFBA  F002         	goto	l2550
  3311  000812                     l1307:
  3312  000812  0012               	return		;funcret
  3313  000814                     __end_of___fldiv:
  3314                           	callstack 0
  3315                           
  3316 ;; *************** function _ADC_GetConversion *****************
  3317 ;; Defined at:
  3318 ;;		line 108 in file "mcc_generated_files/adc.c"
  3319 ;; Parameters:    Size  Location     Type
  3320 ;;  channel         1    wreg     enum E12396
  3321 ;; Auto vars:     Size  Location     Type
  3322 ;;  channel         1    6[COMRAM] enum E12396
  3323 ;; Return value:  Size  Location     Type
  3324 ;;                  2    2[COMRAM] unsigned short 
  3325 ;; Registers used:
  3326 ;;		wreg, status,2, status,0
  3327 ;; Tracked objects:
  3328 ;;		On entry : 0/0
  3329 ;;		On exit  : 0/0
  3330 ;;		Unchanged: 0/0
  3331 ;; Data sizes:     COMRAM   BANK0   BANK1   BANK2   BANK3   BANK4   BANK5   BANK6   BANK7   BANK8   BANK9  BANK10  BANK1
      +1  BANK12  BANK13  BANK14
  3332 ;;      Params:         2       0       0       0       0       0       0       0       0       0       0       0       
      +0       0       0       0
  3333 ;;      Locals:         1       0       0       0       0       0       0       0       0       0       0       0       
      +0       0       0       0
  3334 ;;      Temps:          2       0       0       0       0       0       0       0       0       0       0       0       
      +0       0       0       0
  3335 ;;      Totals:         5       0       0       0       0       0       0       0       0       0       0       0       
      +0       0       0       0
  3336 ;;Total ram usage:        5 bytes
  3337 ;; Hardware stack levels used: 1
  3338 ;; Hardware stack levels required when called: 3
  3339 ;; This function calls:
  3340 ;;		Nothing
  3341 ;; This function is called by:
  3342 ;;		_ADC_Conv_pinSeven
  3343 ;;		_ADC_Conv_pinNine
  3344 ;; This function uses a non-reentrant model
  3345 ;;
  3346                           
  3347                           	psect	text13
  3348  0016E6                     __ptext13:
  3349                           	callstack 0
  3350  0016E6                     _ADC_GetConversion:
  3351                           	callstack 25
  3352                           
  3353                           ;incstack = 0
  3354                           ;ADC_GetConversion@channel stored from wreg
  3355  0016E6  6E07               	movwf	ADC_GetConversion@channel^0,c
  3356  0016E8                     
  3357                           ;mcc_generated_files/adc.c: 108: adc_result_t ADC_GetConversion(adc_channel_t channel);m
      +                          cc_generated_files/adc.c: 109: {;mcc_generated_files/adc.c: 111:     ADCON0bits.CHS = ch
      +                          annel;
  3358  0016E8  C007  F005         	movff	ADC_GetConversion@channel,??_ADC_GetConversion
  3359  0016EC  4605               	rlncf	??_ADC_GetConversion^0,f,c
  3360  0016EE  4605               	rlncf	??_ADC_GetConversion^0,f,c
  3361  0016F0  50C2               	movf	194,w,c	;volatile
  3362  0016F2  1805               	xorwf	??_ADC_GetConversion^0,w,c
  3363  0016F4  0B83               	andlw	-125
  3364  0016F6  1805               	xorwf	??_ADC_GetConversion^0,w,c
  3365  0016F8  6EC2               	movwf	194,c	;volatile
  3366  0016FA                     
  3367                           ;mcc_generated_files/adc.c: 114:     ADCON0bits.ADON = 1;
  3368  0016FA  80C2               	bsf	194,0,c	;volatile
  3369  0016FC                     
  3370                           ;mcc_generated_files/adc.c: 118:     ADCON0bits.GO_nDONE = 1;
  3371  0016FC  82C2               	bsf	194,1,c	;volatile
  3372  0016FE                     l527:
  3373                           
  3374                           ;mcc_generated_files/adc.c: 121:     while (ADCON0bits.GO_nDONE)
  3375  0016FE  B2C2               	btfsc	194,1,c	;volatile
  3376  001700  EF84  F00B         	goto	u1161
  3377  001704  EF86  F00B         	goto	u1160
  3378  001708                     u1161:
  3379  001708  EF7F  F00B         	goto	l527
  3380  00170C                     u1160:
  3381  00170C                     
  3382                           ;mcc_generated_files/adc.c: 126:     return ((adc_result_t)((ADRESH << 8) + ADRESL));
  3383  00170C  50C4               	movf	196,w,c	;volatile
  3384  00170E  6E06               	movwf	(??_ADC_GetConversion+1)^0,c
  3385  001710  6A05               	clrf	??_ADC_GetConversion^0,c
  3386  001712  50C3               	movf	195,w,c	;volatile
  3387  001714  2405               	addwf	??_ADC_GetConversion^0,w,c
  3388  001716  6E03               	movwf	?_ADC_GetConversion^0,c
  3389  001718  0E00               	movlw	0
  3390  00171A  2006               	addwfc	(??_ADC_GetConversion+1)^0,w,c
  3391  00171C  6E04               	movwf	(?_ADC_GetConversion+1)^0,c
  3392  00171E  0012               	return		;funcret
  3393  001720                     __end_of_ADC_GetConversion:
  3394                           	callstack 0
  3395                           
  3396 ;; *************** function _e_stop_seq *****************
  3397 ;; Defined at:
  3398 ;;		line 295 in file "main.c"
  3399 ;; Parameters:    Size  Location     Type
  3400 ;;		None
  3401 ;; Auto vars:     Size  Location     Type
  3402 ;;		None
  3403 ;; Return value:  Size  Location     Type
  3404 ;;                  1    wreg      void 
  3405 ;; Registers used:
  3406 ;;		wreg, fsr2l, fsr2h, status,2, status,0, cstack
  3407 ;; Tracked objects:
  3408 ;;		On entry : 0/0
  3409 ;;		On exit  : 0/0
  3410 ;;		Unchanged: 0/0
  3411 ;; Data sizes:     COMRAM   BANK0   BANK1   BANK2   BANK3   BANK4   BANK5   BANK6   BANK7   BANK8   BANK9  BANK10  BANK1
      +1  BANK12  BANK13  BANK14
  3412 ;;      Params:         0       0       0       0       0       0       0       0       0       0       0       0       
      +0       0       0       0
  3413 ;;      Locals:         0       0       0       0       0       0       0       0       0       0       0       0       
      +0       0       0       0
  3414 ;;      Temps:          0       0       0       0       0       0       0       0       0       0       0       0       
      +0       0       0       0
  3415 ;;      Totals:         0       0       0       0       0       0       0       0       0       0       0       0       
      +0       0       0       0
  3416 ;;Total ram usage:        0 bytes
  3417 ;; Hardware stack levels used: 1
  3418 ;; Hardware stack levels required when called: 6
  3419 ;; This function calls:
  3420 ;;		_canbus_msg_bps
  3421 ;; This function is called by:
  3422 ;;		_main
  3423 ;; This function uses a non-reentrant model
  3424 ;;
  3425                           
  3426                           	psect	text14
  3427  00187C                     __ptext14:
  3428                           	callstack 0
  3429  00187C                     _e_stop_seq:
  3430                           	callstack 24
  3431  00187C                     
  3432                           ;main.c: 296:         canbus_msg_bps(1);
  3433  00187C  0E00               	movlw	0
  3434  00187E  6E1C               	movwf	(canbus_msg_bps@number+1)^0,c
  3435  001880  0E01               	movlw	1
  3436  001882  6E1B               	movwf	canbus_msg_bps@number^0,c
  3437  001884  ECED  F00B         	call	_canbus_msg_bps	;wreg free
  3438  001888  9689               	bcf	137,3,c	;volatile
  3439  00188A  9489               	bcf	137,2,c	;volatile
  3440  00188C  0012               	return		;funcret
  3441  00188E                     __end_of_e_stop_seq:
  3442                           	callstack 0
  3443                           
  3444 ;; *************** function _canbus_msg_bps *****************
  3445 ;; Defined at:
  3446 ;;		line 105 in file "main.c"
  3447 ;; Parameters:    Size  Location     Type
  3448 ;;  number          2   26[COMRAM] int 
  3449 ;; Auto vars:     Size  Location     Type
  3450 ;;		None
  3451 ;; Return value:  Size  Location     Type
  3452 ;;                  1    wreg      void 
  3453 ;; Registers used:
  3454 ;;		wreg, fsr2l, fsr2h, status,2, status,0, cstack
  3455 ;; Tracked objects:
  3456 ;;		On entry : 0/0
  3457 ;;		On exit  : 0/0
  3458 ;;		Unchanged: 0/0
  3459 ;; Data sizes:     COMRAM   BANK0   BANK1   BANK2   BANK3   BANK4   BANK5   BANK6   BANK7   BANK8   BANK9  BANK10  BANK1
      +1  BANK12  BANK13  BANK14
  3460 ;;      Params:         2       0       0       0       0       0       0       0       0       0       0       0       
      +0       0       0       0
  3461 ;;      Locals:         0       0       0       0       0       0       0       0       0       0       0       0       
      +0       0       0       0
  3462 ;;      Temps:          0       0       0       0       0       0       0       0       0       0       0       0       
      +0       0       0       0
  3463 ;;      Totals:         2       0       0       0       0       0       0       0       0       0       0       0       
      +0       0       0       0
  3464 ;;Total ram usage:        2 bytes
  3465 ;; Hardware stack levels used: 1
  3466 ;; Hardware stack levels required when called: 5
  3467 ;; This function calls:
  3468 ;;		_CAN_transmit
  3469 ;; This function is called by:
  3470 ;;		_e_stop_seq
  3471 ;; This function uses a non-reentrant model
  3472 ;;
  3473                           
  3474                           	psect	text15
  3475  0017DA                     __ptext15:
  3476                           	callstack 0
  3477  0017DA                     _canbus_msg_bps:
  3478                           	callstack 24
  3479  0017DA                     
  3480                           ;main.c: 106:     tx4.frame.idType = 1;
  3481  0017DA  0E01               	movlw	1
  3482  0017DC  0100               	movlb	0	; () banked
  3483  0017DE  6FC2               	movwf	_tx4& (0+255),b
  3484                           
  3485                           ;main.c: 107:     tx4.frame.id = 0x4;
  3486  0017E0  0E04               	movlw	4
  3487  0017E2  6FC3               	movwf	(_tx4+1)& (0+255),b
  3488  0017E4  0E00               	movlw	0
  3489  0017E6  6FC4               	movwf	(_tx4+2)& (0+255),b
  3490  0017E8  0E00               	movlw	0
  3491  0017EA  6FC5               	movwf	(_tx4+3)& (0+255),b
  3492  0017EC  0E00               	movlw	0
  3493  0017EE  6FC6               	movwf	(_tx4+4)& (0+255),b
  3494                           
  3495                           ;main.c: 108:     tx4.frame.dlc = 0x01;
  3496  0017F0  0E01               	movlw	1
  3497  0017F2  6FC7               	movwf	(_tx4+5)& (0+255),b
  3498  0017F4                     
  3499                           ; BSR set to: 0
  3500                           ;main.c: 109:     tx4.frame.data0 = number;
  3501  0017F4  C01B  F0C8         	movff	canbus_msg_bps@number,_tx4+6
  3502  0017F8                     
  3503                           ; BSR set to: 0
  3504                           ;main.c: 110:     CAN_transmit(&tx4);
  3505  0017F8  0EC2               	movlw	low _tx4
  3506  0017FA  6E15               	movwf	CAN_transmit@tempCanMsg^0,c
  3507  0017FC  0E00               	movlw	high _tx4
  3508  0017FE  6E16               	movwf	(CAN_transmit@tempCanMsg+1)^0,c
  3509  001800  EC0A  F004         	call	_CAN_transmit	;wreg free
  3510  001804  0012               	return		;funcret
  3511  001806                     __end_of_canbus_msg_bps:
  3512                           	callstack 0
  3513                           
  3514 ;; *************** function _canbus_shutdown_success *****************
  3515 ;; Defined at:
  3516 ;;		line 132 in file "main.c"
  3517 ;; Parameters:    Size  Location     Type
  3518 ;;  number          2   26[COMRAM] int 
  3519 ;; Auto vars:     Size  Location     Type
  3520 ;;		None
  3521 ;; Return value:  Size  Location     Type
  3522 ;;                  1    wreg      void 
  3523 ;; Registers used:
  3524 ;;		wreg, fsr2l, fsr2h, status,2, status,0, cstack
  3525 ;; Tracked objects:
  3526 ;;		On entry : 0/0
  3527 ;;		On exit  : 0/0
  3528 ;;		Unchanged: 0/0
  3529 ;; Data sizes:     COMRAM   BANK0   BANK1   BANK2   BANK3   BANK4   BANK5   BANK6   BANK7   BANK8   BANK9  BANK10  BANK1
      +1  BANK12  BANK13  BANK14
  3530 ;;      Params:         2       0       0       0       0       0       0       0       0       0       0       0       
      +0       0       0       0
  3531 ;;      Locals:         0       0       0       0       0       0       0       0       0       0       0       0       
      +0       0       0       0
  3532 ;;      Temps:          0       0       0       0       0       0       0       0       0       0       0       0       
      +0       0       0       0
  3533 ;;      Totals:         2       0       0       0       0       0       0       0       0       0       0       0       
      +0       0       0       0
  3534 ;;Total ram usage:        2 bytes
  3535 ;; Hardware stack levels used: 1
  3536 ;; Hardware stack levels required when called: 5
  3537 ;; This function calls:
  3538 ;;		_CAN_transmit
  3539 ;; This function is called by:
  3540 ;;		_main
  3541 ;; This function uses a non-reentrant model
  3542 ;;
  3543                           
  3544                           	psect	text16
  3545  001806                     __ptext16:
  3546                           	callstack 0
  3547  001806                     _canbus_shutdown_success:
  3548                           	callstack 25
  3549  001806                     
  3550                           ;main.c: 133:     tx7.frame.idType = 1;
  3551  001806  0E01               	movlw	1
  3552  001808  0100               	movlb	0	; () banked
  3553  00180A  6F98               	movwf	_tx7& (0+255),b
  3554                           
  3555                           ;main.c: 134:     tx7.frame.id = 0x18;
  3556  00180C  0E18               	movlw	24
  3557  00180E  6F99               	movwf	(_tx7+1)& (0+255),b
  3558  001810  0E00               	movlw	0
  3559  001812  6F9A               	movwf	(_tx7+2)& (0+255),b
  3560  001814  0E00               	movlw	0
  3561  001816  6F9B               	movwf	(_tx7+3)& (0+255),b
  3562  001818  0E00               	movlw	0
  3563  00181A  6F9C               	movwf	(_tx7+4)& (0+255),b
  3564                           
  3565                           ;main.c: 135:     tx7.frame.dlc = 0x01;
  3566  00181C  0E01               	movlw	1
  3567  00181E  6F9D               	movwf	(_tx7+5)& (0+255),b
  3568  001820                     
  3569                           ; BSR set to: 0
  3570                           ;main.c: 136:     tx7.frame.data0 = number;
  3571  001820  C01B  F09E         	movff	canbus_shutdown_success@number,_tx7+6
  3572  001824                     
  3573                           ; BSR set to: 0
  3574                           ;main.c: 137:     CAN_transmit(&tx7);
  3575  001824  0E98               	movlw	low _tx7
  3576  001826  6E15               	movwf	CAN_transmit@tempCanMsg^0,c
  3577  001828  0E00               	movlw	high _tx7
  3578  00182A  6E16               	movwf	(CAN_transmit@tempCanMsg+1)^0,c
  3579  00182C  EC0A  F004         	call	_CAN_transmit	;wreg free
  3580  001830  0012               	return		;funcret
  3581  001832                     __end_of_canbus_shutdown_success:
  3582                           	callstack 0
  3583                           
  3584 ;; *************** function _CAN_transmit *****************
  3585 ;; Defined at:
  3586 ;;		line 243 in file "mcc_generated_files/ecan.c"
  3587 ;; Parameters:    Size  Location     Type
  3588 ;;  tempCanMsg      2   20[COMRAM] PTR struct .
  3589 ;;		 -> tx21(14), tx20(14), tx8(14), tx7(14), 
  3590 ;;		 -> tx6(14), tx5(14), tx4(14), tx3(14), 
  3591 ;;		 -> tx2(14), tx1(14), tx10(14), 
  3592 ;; Auto vars:     Size  Location     Type
  3593 ;;  tempSIDL        1   25[COMRAM] unsigned char 
  3594 ;;  tempSIDH        1   24[COMRAM] unsigned char 
  3595 ;;  tempEIDL        1   23[COMRAM] unsigned char 
  3596 ;;  tempEIDH        1   22[COMRAM] unsigned char 
  3597 ;;  returnValue     1    0        unsigned char 
  3598 ;; Return value:  Size  Location     Type
  3599 ;;                  1    wreg      unsigned char 
  3600 ;; Registers used:
  3601 ;;		wreg, fsr2l, fsr2h, status,2, status,0, cstack
  3602 ;; Tracked objects:
  3603 ;;		On entry : 0/0
  3604 ;;		On exit  : 0/0
  3605 ;;		Unchanged: 0/0
  3606 ;; Data sizes:     COMRAM   BANK0   BANK1   BANK2   BANK3   BANK4   BANK5   BANK6   BANK7   BANK8   BANK9  BANK10  BANK1
      +1  BANK12  BANK13  BANK14
  3607 ;;      Params:         2       0       0       0       0       0       0       0       0       0       0       0       
      +0       0       0       0
  3608 ;;      Locals:         4       0       0       0       0       0       0       0       0       0       0       0       
      +0       0       0       0
  3609 ;;      Temps:          0       0       0       0       0       0       0       0       0       0       0       0       
      +0       0       0       0
  3610 ;;      Totals:         6       0       0       0       0       0       0       0       0       0       0       0       
      +0       0       0       0
  3611 ;;Total ram usage:        6 bytes
  3612 ;; Hardware stack levels used: 1
  3613 ;; Hardware stack levels required when called: 4
  3614 ;; This function calls:
  3615 ;;		_convertCANid2Reg
  3616 ;; This function is called by:
  3617 ;;		_ADC_Conv_pinSeven
  3618 ;;		_ADC_Conv_pinNine
  3619 ;;		_canbus_msg_motor
  3620 ;;		_canbus_msg_startupfail
  3621 ;;		_canbus_msg_bps
  3622 ;;		_canbus_shutdown_success
  3623 ;;		_canbus_motor_rearL_tx
  3624 ;;		_start_up_seq
  3625 ;;		_main
  3626 ;;		_canbus_msg_MPPT
  3627 ;;		_canbus_msg_auxfail
  3628 ;;		_canbus_msg_auxlow
  3629 ;; This function uses a non-reentrant model
  3630 ;;
  3631                           
  3632                           	psect	text17
  3633  000814                     __ptext17:
  3634                           	callstack 0
  3635  000814                     _CAN_transmit:
  3636                           	callstack 24
  3637  000814                     
  3638                           ;mcc_generated_files/ecan.c: 243: uint8_t CAN_transmit(uCAN_MSG *tempCanMsg);mcc_generat
      +                          ed_files/ecan.c: 244: {;mcc_generated_files/ecan.c: 245:     uint8_t tempEIDH = 0;
  3639  000814  0E00               	movlw	0
  3640  000816  6E17               	movwf	CAN_transmit@tempEIDH^0,c
  3641                           
  3642                           ;mcc_generated_files/ecan.c: 246:     uint8_t tempEIDL = 0;
  3643  000818  0E00               	movlw	0
  3644  00081A  6E18               	movwf	CAN_transmit@tempEIDL^0,c
  3645                           
  3646                           ;mcc_generated_files/ecan.c: 247:     uint8_t tempSIDH = 0;
  3647  00081C  0E00               	movlw	0
  3648  00081E  6E19               	movwf	CAN_transmit@tempSIDH^0,c
  3649                           
  3650                           ;mcc_generated_files/ecan.c: 248:     uint8_t tempSIDL = 0;
  3651  000820  0E00               	movlw	0
  3652  000822  6E1A               	movwf	CAN_transmit@tempSIDL^0,c
  3653  000824                     
  3654                           ;mcc_generated_files/ecan.c: 251:     if (TXB0CONbits.TXREQ != 1)
  3655  000824  010F               	movlb	15	; () banked
  3656  000826  B720               	btfsc	32,3,b	;volatile
  3657  000828  EF18  F004         	goto	u1131
  3658  00082C  EF1A  F004         	goto	u1130
  3659  000830                     u1131:
  3660  000830  EF94  F004         	goto	l425
  3661  000834                     u1130:
  3662  000834                     
  3663                           ; BSR set to: 15
  3664                           ;mcc_generated_files/ecan.c: 252:     {;mcc_generated_files/ecan.c: 253:         convert
      +                          CANid2Reg(tempCanMsg->frame.id, tempCanMsg->frame.idType, &tempEIDH, &tempEIDL, &tempSID
      +                          H, &tempSIDL);
  3665  000834  EE20 F001          	lfsr	2,1
  3666  000838  5015               	movf	CAN_transmit@tempCanMsg^0,w,c
  3667  00083A  26D9               	addwf	fsr2l,f,c
  3668  00083C  5016               	movf	(CAN_transmit@tempCanMsg+1)^0,w,c
  3669  00083E  22DA               	addwfc	fsr2h,f,c
  3670  000840  CFDE F003          	movff	postinc2,convertCANid2Reg@tempPassedInID
  3671  000844  CFDE F004          	movff	postinc2,convertCANid2Reg@tempPassedInID+1
  3672  000848  CFDE F005          	movff	postinc2,convertCANid2Reg@tempPassedInID+2
  3673  00084C  CFDE F006          	movff	postinc2,convertCANid2Reg@tempPassedInID+3
  3674  000850  C015  FFD9         	movff	CAN_transmit@tempCanMsg,fsr2l
  3675  000854  C016  FFDA         	movff	CAN_transmit@tempCanMsg+1,fsr2h
  3676  000858  50DF               	movf	indf2,w,c
  3677  00085A  6E07               	movwf	convertCANid2Reg@canIdType^0,c
  3678  00085C  0E17               	movlw	low CAN_transmit@tempEIDH
  3679  00085E  6E08               	movwf	convertCANid2Reg@passedInEIDH^0,c
  3680  000860  0E00               	movlw	high CAN_transmit@tempEIDH
  3681  000862  6E09               	movwf	(convertCANid2Reg@passedInEIDH+1)^0,c
  3682  000864  0E18               	movlw	low CAN_transmit@tempEIDL
  3683  000866  6E0A               	movwf	convertCANid2Reg@passedInEIDL^0,c
  3684  000868  0E00               	movlw	high CAN_transmit@tempEIDL
  3685  00086A  6E0B               	movwf	(convertCANid2Reg@passedInEIDL+1)^0,c
  3686  00086C  0E19               	movlw	low CAN_transmit@tempSIDH
  3687  00086E  6E0C               	movwf	convertCANid2Reg@passedInSIDH^0,c
  3688  000870  0E00               	movlw	high CAN_transmit@tempSIDH
  3689  000872  6E0D               	movwf	(convertCANid2Reg@passedInSIDH+1)^0,c
  3690  000874  0E1A               	movlw	low CAN_transmit@tempSIDL
  3691  000876  6E0E               	movwf	convertCANid2Reg@passedInSIDL^0,c
  3692  000878  0E00               	movlw	high CAN_transmit@tempSIDL
  3693  00087A  6E0F               	movwf	(convertCANid2Reg@passedInSIDL+1)^0,c
  3694  00087C  EC44  F007         	call	_convertCANid2Reg	;wreg free
  3695  000880                     
  3696                           ;mcc_generated_files/ecan.c: 255:         TXB0EIDH = tempEIDH;
  3697  000880  C017  FF23         	movff	CAN_transmit@tempEIDH,3875	;volatile
  3698  000884                     
  3699                           ;mcc_generated_files/ecan.c: 256:         TXB0EIDL = tempEIDL;
  3700  000884  C018  FF24         	movff	CAN_transmit@tempEIDL,3876	;volatile
  3701  000888                     
  3702                           ;mcc_generated_files/ecan.c: 257:         TXB0SIDH = tempSIDH;
  3703  000888  C019  FF21         	movff	CAN_transmit@tempSIDH,3873	;volatile
  3704  00088C                     
  3705                           ;mcc_generated_files/ecan.c: 258:         TXB0SIDL = tempSIDL;
  3706  00088C  C01A  FF22         	movff	CAN_transmit@tempSIDL,3874	;volatile
  3707  000890                     
  3708                           ;mcc_generated_files/ecan.c: 259:         TXB0DLC = tempCanMsg->frame.dlc;
  3709  000890  EE20 F005          	lfsr	2,5
  3710  000894  5015               	movf	CAN_transmit@tempCanMsg^0,w,c
  3711  000896  26D9               	addwf	fsr2l,f,c
  3712  000898  5016               	movf	(CAN_transmit@tempCanMsg+1)^0,w,c
  3713  00089A  22DA               	addwfc	fsr2h,f,c
  3714  00089C  50DF               	movf	indf2,w,c
  3715  00089E  010F               	movlb	15	; () banked
  3716  0008A0  6F25               	movwf	37,b	;volatile
  3717  0008A2                     
  3718                           ; BSR set to: 15
  3719                           ;mcc_generated_files/ecan.c: 260:         TXB0D0 = tempCanMsg->frame.data0;
  3720  0008A2  EE20 F006          	lfsr	2,6
  3721  0008A6  5015               	movf	CAN_transmit@tempCanMsg^0,w,c
  3722  0008A8  26D9               	addwf	fsr2l,f,c
  3723  0008AA  5016               	movf	(CAN_transmit@tempCanMsg+1)^0,w,c
  3724  0008AC  22DA               	addwfc	fsr2h,f,c
  3725  0008AE  50DF               	movf	indf2,w,c
  3726  0008B0  6F26               	movwf	38,b	;volatile
  3727  0008B2                     
  3728                           ; BSR set to: 15
  3729                           ;mcc_generated_files/ecan.c: 261:         TXB0D1 = tempCanMsg->frame.data1;
  3730  0008B2  EE20 F007          	lfsr	2,7
  3731  0008B6  5015               	movf	CAN_transmit@tempCanMsg^0,w,c
  3732  0008B8  26D9               	addwf	fsr2l,f,c
  3733  0008BA  5016               	movf	(CAN_transmit@tempCanMsg+1)^0,w,c
  3734  0008BC  22DA               	addwfc	fsr2h,f,c
  3735  0008BE  50DF               	movf	indf2,w,c
  3736  0008C0  6F27               	movwf	39,b	;volatile
  3737  0008C2                     
  3738                           ; BSR set to: 15
  3739                           ;mcc_generated_files/ecan.c: 262:         TXB0D2 = tempCanMsg->frame.data2;
  3740  0008C2  EE20 F008          	lfsr	2,8
  3741  0008C6  5015               	movf	CAN_transmit@tempCanMsg^0,w,c
  3742  0008C8  26D9               	addwf	fsr2l,f,c
  3743  0008CA  5016               	movf	(CAN_transmit@tempCanMsg+1)^0,w,c
  3744  0008CC  22DA               	addwfc	fsr2h,f,c
  3745  0008CE  50DF               	movf	indf2,w,c
  3746  0008D0  6F28               	movwf	40,b	;volatile
  3747  0008D2                     
  3748                           ; BSR set to: 15
  3749                           ;mcc_generated_files/ecan.c: 263:         TXB0D3 = tempCanMsg->frame.data3;
  3750  0008D2  EE20 F009          	lfsr	2,9
  3751  0008D6  5015               	movf	CAN_transmit@tempCanMsg^0,w,c
  3752  0008D8  26D9               	addwf	fsr2l,f,c
  3753  0008DA  5016               	movf	(CAN_transmit@tempCanMsg+1)^0,w,c
  3754  0008DC  22DA               	addwfc	fsr2h,f,c
  3755  0008DE  50DF               	movf	indf2,w,c
  3756  0008E0  6F29               	movwf	41,b	;volatile
  3757  0008E2                     
  3758                           ; BSR set to: 15
  3759                           ;mcc_generated_files/ecan.c: 264:         TXB0D4 = tempCanMsg->frame.data4;
  3760  0008E2  EE20 F00A          	lfsr	2,10
  3761  0008E6  5015               	movf	CAN_transmit@tempCanMsg^0,w,c
  3762  0008E8  26D9               	addwf	fsr2l,f,c
  3763  0008EA  5016               	movf	(CAN_transmit@tempCanMsg+1)^0,w,c
  3764  0008EC  22DA               	addwfc	fsr2h,f,c
  3765  0008EE  50DF               	movf	indf2,w,c
  3766  0008F0  6F2A               	movwf	42,b	;volatile
  3767  0008F2                     
  3768                           ; BSR set to: 15
  3769                           ;mcc_generated_files/ecan.c: 265:         TXB0D5 = tempCanMsg->frame.data5;
  3770  0008F2  EE20 F00B          	lfsr	2,11
  3771  0008F6  5015               	movf	CAN_transmit@tempCanMsg^0,w,c
  3772  0008F8  26D9               	addwf	fsr2l,f,c
  3773  0008FA  5016               	movf	(CAN_transmit@tempCanMsg+1)^0,w,c
  3774  0008FC  22DA               	addwfc	fsr2h,f,c
  3775  0008FE  50DF               	movf	indf2,w,c
  3776  000900  6F2B               	movwf	43,b	;volatile
  3777  000902                     
  3778                           ; BSR set to: 15
  3779                           ;mcc_generated_files/ecan.c: 266:         TXB0D6 = tempCanMsg->frame.data6;
  3780  000902  EE20 F00C          	lfsr	2,12
  3781  000906  5015               	movf	CAN_transmit@tempCanMsg^0,w,c
  3782  000908  26D9               	addwf	fsr2l,f,c
  3783  00090A  5016               	movf	(CAN_transmit@tempCanMsg+1)^0,w,c
  3784  00090C  22DA               	addwfc	fsr2h,f,c
  3785  00090E  50DF               	movf	indf2,w,c
  3786  000910  6F2C               	movwf	44,b	;volatile
  3787  000912                     
  3788                           ; BSR set to: 15
  3789                           ;mcc_generated_files/ecan.c: 267:         TXB0D7 = tempCanMsg->frame.data7;
  3790  000912  EE20 F00D          	lfsr	2,13
  3791  000916  5015               	movf	CAN_transmit@tempCanMsg^0,w,c
  3792  000918  26D9               	addwf	fsr2l,f,c
  3793  00091A  5016               	movf	(CAN_transmit@tempCanMsg+1)^0,w,c
  3794  00091C  22DA               	addwfc	fsr2h,f,c
  3795  00091E  50DF               	movf	indf2,w,c
  3796  000920  6F2D               	movwf	45,b	;volatile
  3797  000922                     
  3798                           ; BSR set to: 15
  3799                           ;mcc_generated_files/ecan.c: 269:         TXB0CONbits.TXREQ = 1;
  3800  000922  8720               	bsf	32,3,b	;volatile
  3801  000924                     l2418:
  3802                           
  3803                           ; BSR set to: 15
  3804                           ;mcc_generated_files/ecan.c: 272:     }
  3805  000924  EF96  F005         	goto	l430
  3806  000928                     l425:
  3807                           
  3808                           ; BSR set to: 15
  3809  000928  B710               	btfsc	16,3,b	;volatile
  3810  00092A  EF99  F004         	goto	u1141
  3811  00092E  EF9B  F004         	goto	u1140
  3812  000932                     u1141:
  3813  000932  EF15  F005         	goto	l427
  3814  000936                     u1140:
  3815  000936                     
  3816                           ; BSR set to: 15
  3817                           ;mcc_generated_files/ecan.c: 274:     {;mcc_generated_files/ecan.c: 276:         convert
      +                          CANid2Reg(tempCanMsg->frame.id, tempCanMsg->frame.idType, &tempEIDH, &tempEIDL, &tempSID
      +                          H, &tempSIDL);
  3818  000936  EE20 F001          	lfsr	2,1
  3819  00093A  5015               	movf	CAN_transmit@tempCanMsg^0,w,c
  3820  00093C  26D9               	addwf	fsr2l,f,c
  3821  00093E  5016               	movf	(CAN_transmit@tempCanMsg+1)^0,w,c
  3822  000940  22DA               	addwfc	fsr2h,f,c
  3823  000942  CFDE F003          	movff	postinc2,convertCANid2Reg@tempPassedInID
  3824  000946  CFDE F004          	movff	postinc2,convertCANid2Reg@tempPassedInID+1
  3825  00094A  CFDE F005          	movff	postinc2,convertCANid2Reg@tempPassedInID+2
  3826  00094E  CFDE F006          	movff	postinc2,convertCANid2Reg@tempPassedInID+3
  3827  000952  C015  FFD9         	movff	CAN_transmit@tempCanMsg,fsr2l
  3828  000956  C016  FFDA         	movff	CAN_transmit@tempCanMsg+1,fsr2h
  3829  00095A  50DF               	movf	indf2,w,c
  3830  00095C  6E07               	movwf	convertCANid2Reg@canIdType^0,c
  3831  00095E  0E17               	movlw	low CAN_transmit@tempEIDH
  3832  000960  6E08               	movwf	convertCANid2Reg@passedInEIDH^0,c
  3833  000962  0E00               	movlw	high CAN_transmit@tempEIDH
  3834  000964  6E09               	movwf	(convertCANid2Reg@passedInEIDH+1)^0,c
  3835  000966  0E18               	movlw	low CAN_transmit@tempEIDL
  3836  000968  6E0A               	movwf	convertCANid2Reg@passedInEIDL^0,c
  3837  00096A  0E00               	movlw	high CAN_transmit@tempEIDL
  3838  00096C  6E0B               	movwf	(convertCANid2Reg@passedInEIDL+1)^0,c
  3839  00096E  0E19               	movlw	low CAN_transmit@tempSIDH
  3840  000970  6E0C               	movwf	convertCANid2Reg@passedInSIDH^0,c
  3841  000972  0E00               	movlw	high CAN_transmit@tempSIDH
  3842  000974  6E0D               	movwf	(convertCANid2Reg@passedInSIDH+1)^0,c
  3843  000976  0E1A               	movlw	low CAN_transmit@tempSIDL
  3844  000978  6E0E               	movwf	convertCANid2Reg@passedInSIDL^0,c
  3845  00097A  0E00               	movlw	high CAN_transmit@tempSIDL
  3846  00097C  6E0F               	movwf	(convertCANid2Reg@passedInSIDL+1)^0,c
  3847  00097E  EC44  F007         	call	_convertCANid2Reg	;wreg free
  3848  000982                     
  3849                           ;mcc_generated_files/ecan.c: 278:         TXB1EIDH = tempEIDH;
  3850  000982  C017  FF13         	movff	CAN_transmit@tempEIDH,3859	;volatile
  3851  000986                     
  3852                           ;mcc_generated_files/ecan.c: 279:         TXB1EIDL = tempEIDL;
  3853  000986  C018  FF14         	movff	CAN_transmit@tempEIDL,3860	;volatile
  3854  00098A                     
  3855                           ;mcc_generated_files/ecan.c: 280:         TXB1SIDH = tempSIDH;
  3856  00098A  C019  FF11         	movff	CAN_transmit@tempSIDH,3857	;volatile
  3857  00098E                     
  3858                           ;mcc_generated_files/ecan.c: 281:         TXB1SIDL = tempSIDL;
  3859  00098E  C01A  FF12         	movff	CAN_transmit@tempSIDL,3858	;volatile
  3860  000992                     
  3861                           ;mcc_generated_files/ecan.c: 282:         TXB1DLC = tempCanMsg->frame.dlc;
  3862  000992  EE20 F005          	lfsr	2,5
  3863  000996  5015               	movf	CAN_transmit@tempCanMsg^0,w,c
  3864  000998  26D9               	addwf	fsr2l,f,c
  3865  00099A  5016               	movf	(CAN_transmit@tempCanMsg+1)^0,w,c
  3866  00099C  22DA               	addwfc	fsr2h,f,c
  3867  00099E  50DF               	movf	indf2,w,c
  3868  0009A0  010F               	movlb	15	; () banked
  3869  0009A2  6F15               	movwf	21,b	;volatile
  3870  0009A4                     
  3871                           ; BSR set to: 15
  3872                           ;mcc_generated_files/ecan.c: 283:         TXB1D0 = tempCanMsg->frame.data0;
  3873  0009A4  EE20 F006          	lfsr	2,6
  3874  0009A8  5015               	movf	CAN_transmit@tempCanMsg^0,w,c
  3875  0009AA  26D9               	addwf	fsr2l,f,c
  3876  0009AC  5016               	movf	(CAN_transmit@tempCanMsg+1)^0,w,c
  3877  0009AE  22DA               	addwfc	fsr2h,f,c
  3878  0009B0  50DF               	movf	indf2,w,c
  3879  0009B2  6F16               	movwf	22,b	;volatile
  3880  0009B4                     
  3881                           ; BSR set to: 15
  3882                           ;mcc_generated_files/ecan.c: 284:         TXB1D1 = tempCanMsg->frame.data1;
  3883  0009B4  EE20 F007          	lfsr	2,7
  3884  0009B8  5015               	movf	CAN_transmit@tempCanMsg^0,w,c
  3885  0009BA  26D9               	addwf	fsr2l,f,c
  3886  0009BC  5016               	movf	(CAN_transmit@tempCanMsg+1)^0,w,c
  3887  0009BE  22DA               	addwfc	fsr2h,f,c
  3888  0009C0  50DF               	movf	indf2,w,c
  3889  0009C2  6F17               	movwf	23,b	;volatile
  3890  0009C4                     
  3891                           ; BSR set to: 15
  3892                           ;mcc_generated_files/ecan.c: 285:         TXB1D2 = tempCanMsg->frame.data2;
  3893  0009C4  EE20 F008          	lfsr	2,8
  3894  0009C8  5015               	movf	CAN_transmit@tempCanMsg^0,w,c
  3895  0009CA  26D9               	addwf	fsr2l,f,c
  3896  0009CC  5016               	movf	(CAN_transmit@tempCanMsg+1)^0,w,c
  3897  0009CE  22DA               	addwfc	fsr2h,f,c
  3898  0009D0  50DF               	movf	indf2,w,c
  3899  0009D2  6F18               	movwf	24,b	;volatile
  3900  0009D4                     
  3901                           ; BSR set to: 15
  3902                           ;mcc_generated_files/ecan.c: 286:         TXB1D3 = tempCanMsg->frame.data3;
  3903  0009D4  EE20 F009          	lfsr	2,9
  3904  0009D8  5015               	movf	CAN_transmit@tempCanMsg^0,w,c
  3905  0009DA  26D9               	addwf	fsr2l,f,c
  3906  0009DC  5016               	movf	(CAN_transmit@tempCanMsg+1)^0,w,c
  3907  0009DE  22DA               	addwfc	fsr2h,f,c
  3908  0009E0  50DF               	movf	indf2,w,c
  3909  0009E2  6F19               	movwf	25,b	;volatile
  3910  0009E4                     
  3911                           ; BSR set to: 15
  3912                           ;mcc_generated_files/ecan.c: 287:         TXB1D4 = tempCanMsg->frame.data4;
  3913  0009E4  EE20 F00A          	lfsr	2,10
  3914  0009E8  5015               	movf	CAN_transmit@tempCanMsg^0,w,c
  3915  0009EA  26D9               	addwf	fsr2l,f,c
  3916  0009EC  5016               	movf	(CAN_transmit@tempCanMsg+1)^0,w,c
  3917  0009EE  22DA               	addwfc	fsr2h,f,c
  3918  0009F0  50DF               	movf	indf2,w,c
  3919  0009F2  6F1A               	movwf	26,b	;volatile
  3920  0009F4                     
  3921                           ; BSR set to: 15
  3922                           ;mcc_generated_files/ecan.c: 288:         TXB1D5 = tempCanMsg->frame.data5;
  3923  0009F4  EE20 F00B          	lfsr	2,11
  3924  0009F8  5015               	movf	CAN_transmit@tempCanMsg^0,w,c
  3925  0009FA  26D9               	addwf	fsr2l,f,c
  3926  0009FC  5016               	movf	(CAN_transmit@tempCanMsg+1)^0,w,c
  3927  0009FE  22DA               	addwfc	fsr2h,f,c
  3928  000A00  50DF               	movf	indf2,w,c
  3929  000A02  6F1B               	movwf	27,b	;volatile
  3930  000A04                     
  3931                           ; BSR set to: 15
  3932                           ;mcc_generated_files/ecan.c: 289:         TXB1D6 = tempCanMsg->frame.data6;
  3933  000A04  EE20 F00C          	lfsr	2,12
  3934  000A08  5015               	movf	CAN_transmit@tempCanMsg^0,w,c
  3935  000A0A  26D9               	addwf	fsr2l,f,c
  3936  000A0C  5016               	movf	(CAN_transmit@tempCanMsg+1)^0,w,c
  3937  000A0E  22DA               	addwfc	fsr2h,f,c
  3938  000A10  50DF               	movf	indf2,w,c
  3939  000A12  6F1C               	movwf	28,b	;volatile
  3940  000A14                     
  3941                           ; BSR set to: 15
  3942                           ;mcc_generated_files/ecan.c: 290:         TXB1D7 = tempCanMsg->frame.data7;
  3943  000A14  EE20 F00D          	lfsr	2,13
  3944  000A18  5015               	movf	CAN_transmit@tempCanMsg^0,w,c
  3945  000A1A  26D9               	addwf	fsr2l,f,c
  3946  000A1C  5016               	movf	(CAN_transmit@tempCanMsg+1)^0,w,c
  3947  000A1E  22DA               	addwfc	fsr2h,f,c
  3948  000A20  50DF               	movf	indf2,w,c
  3949  000A22  6F1D               	movwf	29,b	;volatile
  3950  000A24                     
  3951                           ; BSR set to: 15
  3952                           ;mcc_generated_files/ecan.c: 292:         TXB1CONbits.TXREQ = 1;
  3953  000A24  8710               	bsf	16,3,b	;volatile
  3954  000A26  EF92  F004         	goto	l2418
  3955  000A2A                     l427:
  3956                           
  3957                           ; BSR set to: 15
  3958  000A2A  B700               	btfsc	0,3,b	;volatile
  3959  000A2C  EF1A  F005         	goto	u1151
  3960  000A30  EF1C  F005         	goto	u1150
  3961  000A34                     u1151:
  3962  000A34  EF96  F005         	goto	l426
  3963  000A38                     u1150:
  3964  000A38                     
  3965                           ; BSR set to: 15
  3966                           ;mcc_generated_files/ecan.c: 296:     {;mcc_generated_files/ecan.c: 298:         convert
      +                          CANid2Reg(tempCanMsg->frame.id, tempCanMsg->frame.idType, &tempEIDH, &tempEIDL, &tempSID
      +                          H, &tempSIDL);
  3967  000A38  EE20 F001          	lfsr	2,1
  3968  000A3C  5015               	movf	CAN_transmit@tempCanMsg^0,w,c
  3969  000A3E  26D9               	addwf	fsr2l,f,c
  3970  000A40  5016               	movf	(CAN_transmit@tempCanMsg+1)^0,w,c
  3971  000A42  22DA               	addwfc	fsr2h,f,c
  3972  000A44  CFDE F003          	movff	postinc2,convertCANid2Reg@tempPassedInID
  3973  000A48  CFDE F004          	movff	postinc2,convertCANid2Reg@tempPassedInID+1
  3974  000A4C  CFDE F005          	movff	postinc2,convertCANid2Reg@tempPassedInID+2
  3975  000A50  CFDE F006          	movff	postinc2,convertCANid2Reg@tempPassedInID+3
  3976  000A54  C015  FFD9         	movff	CAN_transmit@tempCanMsg,fsr2l
  3977  000A58  C016  FFDA         	movff	CAN_transmit@tempCanMsg+1,fsr2h
  3978  000A5C  50DF               	movf	indf2,w,c
  3979  000A5E  6E07               	movwf	convertCANid2Reg@canIdType^0,c
  3980  000A60  0E17               	movlw	low CAN_transmit@tempEIDH
  3981  000A62  6E08               	movwf	convertCANid2Reg@passedInEIDH^0,c
  3982  000A64  0E00               	movlw	high CAN_transmit@tempEIDH
  3983  000A66  6E09               	movwf	(convertCANid2Reg@passedInEIDH+1)^0,c
  3984  000A68  0E18               	movlw	low CAN_transmit@tempEIDL
  3985  000A6A  6E0A               	movwf	convertCANid2Reg@passedInEIDL^0,c
  3986  000A6C  0E00               	movlw	high CAN_transmit@tempEIDL
  3987  000A6E  6E0B               	movwf	(convertCANid2Reg@passedInEIDL+1)^0,c
  3988  000A70  0E19               	movlw	low CAN_transmit@tempSIDH
  3989  000A72  6E0C               	movwf	convertCANid2Reg@passedInSIDH^0,c
  3990  000A74  0E00               	movlw	high CAN_transmit@tempSIDH
  3991  000A76  6E0D               	movwf	(convertCANid2Reg@passedInSIDH+1)^0,c
  3992  000A78  0E1A               	movlw	low CAN_transmit@tempSIDL
  3993  000A7A  6E0E               	movwf	convertCANid2Reg@passedInSIDL^0,c
  3994  000A7C  0E00               	movlw	high CAN_transmit@tempSIDL
  3995  000A7E  6E0F               	movwf	(convertCANid2Reg@passedInSIDL+1)^0,c
  3996  000A80  EC44  F007         	call	_convertCANid2Reg	;wreg free
  3997  000A84                     
  3998                           ;mcc_generated_files/ecan.c: 300:         TXB2EIDH = tempEIDH;
  3999  000A84  C017  FF03         	movff	CAN_transmit@tempEIDH,3843	;volatile
  4000  000A88                     
  4001                           ;mcc_generated_files/ecan.c: 301:         TXB2EIDL = tempEIDL;
  4002  000A88  C018  FF04         	movff	CAN_transmit@tempEIDL,3844	;volatile
  4003  000A8C                     
  4004                           ;mcc_generated_files/ecan.c: 302:         TXB2SIDH = tempSIDH;
  4005  000A8C  C019  FF01         	movff	CAN_transmit@tempSIDH,3841	;volatile
  4006  000A90                     
  4007                           ;mcc_generated_files/ecan.c: 303:         TXB2SIDL = tempSIDL;
  4008  000A90  C01A  FF02         	movff	CAN_transmit@tempSIDL,3842	;volatile
  4009  000A94                     
  4010                           ;mcc_generated_files/ecan.c: 304:         TXB2DLC = tempCanMsg->frame.dlc;
  4011  000A94  EE20 F005          	lfsr	2,5
  4012  000A98  5015               	movf	CAN_transmit@tempCanMsg^0,w,c
  4013  000A9A  26D9               	addwf	fsr2l,f,c
  4014  000A9C  5016               	movf	(CAN_transmit@tempCanMsg+1)^0,w,c
  4015  000A9E  22DA               	addwfc	fsr2h,f,c
  4016  000AA0  50DF               	movf	indf2,w,c
  4017  000AA2  010F               	movlb	15	; () banked
  4018  000AA4  6F05               	movwf	5,b	;volatile
  4019  000AA6                     
  4020                           ; BSR set to: 15
  4021                           ;mcc_generated_files/ecan.c: 305:         TXB2D0 = tempCanMsg->frame.data0;
  4022  000AA6  EE20 F006          	lfsr	2,6
  4023  000AAA  5015               	movf	CAN_transmit@tempCanMsg^0,w,c
  4024  000AAC  26D9               	addwf	fsr2l,f,c
  4025  000AAE  5016               	movf	(CAN_transmit@tempCanMsg+1)^0,w,c
  4026  000AB0  22DA               	addwfc	fsr2h,f,c
  4027  000AB2  50DF               	movf	indf2,w,c
  4028  000AB4  6F06               	movwf	6,b	;volatile
  4029  000AB6                     
  4030                           ; BSR set to: 15
  4031                           ;mcc_generated_files/ecan.c: 306:         TXB2D1 = tempCanMsg->frame.data1;
  4032  000AB6  EE20 F007          	lfsr	2,7
  4033  000ABA  5015               	movf	CAN_transmit@tempCanMsg^0,w,c
  4034  000ABC  26D9               	addwf	fsr2l,f,c
  4035  000ABE  5016               	movf	(CAN_transmit@tempCanMsg+1)^0,w,c
  4036  000AC0  22DA               	addwfc	fsr2h,f,c
  4037  000AC2  50DF               	movf	indf2,w,c
  4038  000AC4  6F07               	movwf	7,b	;volatile
  4039  000AC6                     
  4040                           ; BSR set to: 15
  4041                           ;mcc_generated_files/ecan.c: 307:         TXB2D2 = tempCanMsg->frame.data2;
  4042  000AC6  EE20 F008          	lfsr	2,8
  4043  000ACA  5015               	movf	CAN_transmit@tempCanMsg^0,w,c
  4044  000ACC  26D9               	addwf	fsr2l,f,c
  4045  000ACE  5016               	movf	(CAN_transmit@tempCanMsg+1)^0,w,c
  4046  000AD0  22DA               	addwfc	fsr2h,f,c
  4047  000AD2  50DF               	movf	indf2,w,c
  4048  000AD4  6F08               	movwf	8,b	;volatile
  4049  000AD6                     
  4050                           ; BSR set to: 15
  4051                           ;mcc_generated_files/ecan.c: 308:         TXB2D3 = tempCanMsg->frame.data3;
  4052  000AD6  EE20 F009          	lfsr	2,9
  4053  000ADA  5015               	movf	CAN_transmit@tempCanMsg^0,w,c
  4054  000ADC  26D9               	addwf	fsr2l,f,c
  4055  000ADE  5016               	movf	(CAN_transmit@tempCanMsg+1)^0,w,c
  4056  000AE0  22DA               	addwfc	fsr2h,f,c
  4057  000AE2  50DF               	movf	indf2,w,c
  4058  000AE4  6F09               	movwf	9,b	;volatile
  4059  000AE6                     
  4060                           ; BSR set to: 15
  4061                           ;mcc_generated_files/ecan.c: 309:         TXB2D4 = tempCanMsg->frame.data4;
  4062  000AE6  EE20 F00A          	lfsr	2,10
  4063  000AEA  5015               	movf	CAN_transmit@tempCanMsg^0,w,c
  4064  000AEC  26D9               	addwf	fsr2l,f,c
  4065  000AEE  5016               	movf	(CAN_transmit@tempCanMsg+1)^0,w,c
  4066  000AF0  22DA               	addwfc	fsr2h,f,c
  4067  000AF2  50DF               	movf	indf2,w,c
  4068  000AF4  6F0A               	movwf	10,b	;volatile
  4069  000AF6                     
  4070                           ; BSR set to: 15
  4071                           ;mcc_generated_files/ecan.c: 310:         TXB2D5 = tempCanMsg->frame.data5;
  4072  000AF6  EE20 F00B          	lfsr	2,11
  4073  000AFA  5015               	movf	CAN_transmit@tempCanMsg^0,w,c
  4074  000AFC  26D9               	addwf	fsr2l,f,c
  4075  000AFE  5016               	movf	(CAN_transmit@tempCanMsg+1)^0,w,c
  4076  000B00  22DA               	addwfc	fsr2h,f,c
  4077  000B02  50DF               	movf	indf2,w,c
  4078  000B04  6F0B               	movwf	11,b	;volatile
  4079  000B06                     
  4080                           ; BSR set to: 15
  4081                           ;mcc_generated_files/ecan.c: 311:         TXB2D6 = tempCanMsg->frame.data6;
  4082  000B06  EE20 F00C          	lfsr	2,12
  4083  000B0A  5015               	movf	CAN_transmit@tempCanMsg^0,w,c
  4084  000B0C  26D9               	addwf	fsr2l,f,c
  4085  000B0E  5016               	movf	(CAN_transmit@tempCanMsg+1)^0,w,c
  4086  000B10  22DA               	addwfc	fsr2h,f,c
  4087  000B12  50DF               	movf	indf2,w,c
  4088  000B14  6F0C               	movwf	12,b	;volatile
  4089  000B16                     
  4090                           ; BSR set to: 15
  4091                           ;mcc_generated_files/ecan.c: 312:         TXB2D7 = tempCanMsg->frame.data7;
  4092  000B16  EE20 F00D          	lfsr	2,13
  4093  000B1A  5015               	movf	CAN_transmit@tempCanMsg^0,w,c
  4094  000B1C  26D9               	addwf	fsr2l,f,c
  4095  000B1E  5016               	movf	(CAN_transmit@tempCanMsg+1)^0,w,c
  4096  000B20  22DA               	addwfc	fsr2h,f,c
  4097  000B22  50DF               	movf	indf2,w,c
  4098  000B24  6F0D               	movwf	13,b	;volatile
  4099  000B26                     
  4100                           ; BSR set to: 15
  4101                           ;mcc_generated_files/ecan.c: 314:         TXB2CONbits.TXREQ = 1;
  4102  000B26  8700               	bsf	0,3,b	;volatile
  4103  000B28  EF92  F004         	goto	l2418
  4104  000B2C                     l426:
  4105  000B2C                     l430:
  4106                           
  4107                           ; BSR set to: 15
  4108  000B2C  0012               	return		;funcret
  4109  000B2E                     __end_of_CAN_transmit:
  4110                           	callstack 0
  4111                           
  4112 ;; *************** function _convertCANid2Reg *****************
  4113 ;; Defined at:
  4114 ;;		line 470 in file "mcc_generated_files/ecan.c"
  4115 ;; Parameters:    Size  Location     Type
  4116 ;;  tempPassedIn    4    2[COMRAM] unsigned long 
  4117 ;;  canIdType       1    6[COMRAM] unsigned char 
  4118 ;;  passedInEIDH    2    7[COMRAM] PTR unsigned char 
  4119 ;;		 -> CAN_transmit@tempEIDH(1), 
  4120 ;;  passedInEIDL    2    9[COMRAM] PTR unsigned char 
  4121 ;;		 -> CAN_transmit@tempEIDL(1), 
  4122 ;;  passedInSIDH    2   11[COMRAM] PTR unsigned char 
  4123 ;;		 -> CAN_transmit@tempSIDH(1), 
  4124 ;;  passedInSIDL    2   13[COMRAM] PTR unsigned char 
  4125 ;;		 -> CAN_transmit@tempSIDL(1), 
  4126 ;; Auto vars:     Size  Location     Type
  4127 ;;  wipSIDL         1   19[COMRAM] unsigned char 
  4128 ;; Return value:  Size  Location     Type
  4129 ;;                  1    wreg      void 
  4130 ;; Registers used:
  4131 ;;		wreg, fsr2l, fsr2h, status,2, status,0
  4132 ;; Tracked objects:
  4133 ;;		On entry : 0/0
  4134 ;;		On exit  : 0/0
  4135 ;;		Unchanged: 0/0
  4136 ;; Data sizes:     COMRAM   BANK0   BANK1   BANK2   BANK3   BANK4   BANK5   BANK6   BANK7   BANK8   BANK9  BANK10  BANK1
      +1  BANK12  BANK13  BANK14
  4137 ;;      Params:        13       0       0       0       0       0       0       0       0       0       0       0       
      +0       0       0       0
  4138 ;;      Locals:         1       0       0       0       0       0       0       0       0       0       0       0       
      +0       0       0       0
  4139 ;;      Temps:          4       0       0       0       0       0       0       0       0       0       0       0       
      +0       0       0       0
  4140 ;;      Totals:        18       0       0       0       0       0       0       0       0       0       0       0       
      +0       0       0       0
  4141 ;;Total ram usage:       18 bytes
  4142 ;; Hardware stack levels used: 1
  4143 ;; Hardware stack levels required when called: 3
  4144 ;; This function calls:
  4145 ;;		Nothing
  4146 ;; This function is called by:
  4147 ;;		_CAN_transmit
  4148 ;; This function uses a non-reentrant model
  4149 ;;
  4150                           
  4151                           	psect	text18
  4152  000E88                     __ptext18:
  4153                           	callstack 0
  4154  000E88                     _convertCANid2Reg:
  4155                           	callstack 24
  4156  000E88                     
  4157                           ;mcc_generated_files/ecan.c: 473:     if (canIdType == 2) {
  4158  000E88  0E02               	movlw	2
  4159  000E8A  1807               	xorwf	convertCANid2Reg@canIdType^0,w,c
  4160  000E8C  A4D8               	btfss	status,2,c
  4161  000E8E  EF4B  F007         	goto	u1051
  4162  000E92  EF4D  F007         	goto	u1050
  4163  000E96                     u1051:
  4164  000E96  EFD0  F007         	goto	l2350
  4165  000E9A                     u1050:
  4166  000E9A                     
  4167                           ;mcc_generated_files/ecan.c: 476:         *passedInEIDL = 0xFF & tempPassedInID;
  4168  000E9A  C00A  FFD9         	movff	convertCANid2Reg@passedInEIDL,fsr2l
  4169  000E9E  C00B  FFDA         	movff	convertCANid2Reg@passedInEIDL+1,fsr2h
  4170  000EA2  C003  FFDF         	movff	convertCANid2Reg@tempPassedInID,indf2
  4171  000EA6                     
  4172                           ;mcc_generated_files/ecan.c: 477:         tempPassedInID = tempPassedInID >> 8;
  4173  000EA6  C003  F010         	movff	convertCANid2Reg@tempPassedInID,??_convertCANid2Reg
  4174  000EAA  C004  F011         	movff	convertCANid2Reg@tempPassedInID+1,??_convertCANid2Reg+1
  4175  000EAE  C005  F012         	movff	convertCANid2Reg@tempPassedInID+2,??_convertCANid2Reg+2
  4176  000EB2  C006  F013         	movff	convertCANid2Reg@tempPassedInID+3,??_convertCANid2Reg+3
  4177  000EB6  C011  F010         	movff	??_convertCANid2Reg+1,??_convertCANid2Reg
  4178  000EBA  C012  F011         	movff	??_convertCANid2Reg+2,??_convertCANid2Reg+1
  4179  000EBE  C013  F012         	movff	??_convertCANid2Reg+3,??_convertCANid2Reg+2
  4180  000EC2  6A13               	clrf	(??_convertCANid2Reg+3)^0,c
  4181  000EC4  C010  F003         	movff	??_convertCANid2Reg,convertCANid2Reg@tempPassedInID
  4182  000EC8  C011  F004         	movff	??_convertCANid2Reg+1,convertCANid2Reg@tempPassedInID+1
  4183  000ECC  C012  F005         	movff	??_convertCANid2Reg+2,convertCANid2Reg@tempPassedInID+2
  4184  000ED0  C013  F006         	movff	??_convertCANid2Reg+3,convertCANid2Reg@tempPassedInID+3
  4185  000ED4                     
  4186                           ;mcc_generated_files/ecan.c: 480:         *passedInEIDH = 0xFF & tempPassedInID;
  4187  000ED4  C008  FFD9         	movff	convertCANid2Reg@passedInEIDH,fsr2l
  4188  000ED8  C009  FFDA         	movff	convertCANid2Reg@passedInEIDH+1,fsr2h
  4189  000EDC  C003  FFDF         	movff	convertCANid2Reg@tempPassedInID,indf2
  4190                           
  4191                           ;mcc_generated_files/ecan.c: 481:         tempPassedInID = tempPassedInID >> 8;
  4192  000EE0  C003  F010         	movff	convertCANid2Reg@tempPassedInID,??_convertCANid2Reg
  4193  000EE4  C004  F011         	movff	convertCANid2Reg@tempPassedInID+1,??_convertCANid2Reg+1
  4194  000EE8  C005  F012         	movff	convertCANid2Reg@tempPassedInID+2,??_convertCANid2Reg+2
  4195  000EEC  C006  F013         	movff	convertCANid2Reg@tempPassedInID+3,??_convertCANid2Reg+3
  4196  000EF0  C011  F010         	movff	??_convertCANid2Reg+1,??_convertCANid2Reg
  4197  000EF4  C012  F011         	movff	??_convertCANid2Reg+2,??_convertCANid2Reg+1
  4198  000EF8  C013  F012         	movff	??_convertCANid2Reg+3,??_convertCANid2Reg+2
  4199  000EFC  6A13               	clrf	(??_convertCANid2Reg+3)^0,c
  4200  000EFE  C010  F003         	movff	??_convertCANid2Reg,convertCANid2Reg@tempPassedInID
  4201  000F02  C011  F004         	movff	??_convertCANid2Reg+1,convertCANid2Reg@tempPassedInID+1
  4202  000F06  C012  F005         	movff	??_convertCANid2Reg+2,convertCANid2Reg@tempPassedInID+2
  4203  000F0A  C013  F006         	movff	??_convertCANid2Reg+3,convertCANid2Reg@tempPassedInID+3
  4204  000F0E                     
  4205                           ;mcc_generated_files/ecan.c: 485:         wipSIDL = 0x03 & tempPassedInID;
  4206  000F0E  5003               	movf	convertCANid2Reg@tempPassedInID^0,w,c
  4207  000F10  0B03               	andlw	3
  4208  000F12  6E14               	movwf	convertCANid2Reg@wipSIDL^0,c
  4209  000F14                     
  4210                           ;mcc_generated_files/ecan.c: 486:         tempPassedInID = tempPassedInID << 3;
  4211  000F14  C003  F010         	movff	convertCANid2Reg@tempPassedInID,??_convertCANid2Reg
  4212  000F18  C004  F011         	movff	convertCANid2Reg@tempPassedInID+1,??_convertCANid2Reg+1
  4213  000F1C  C005  F012         	movff	convertCANid2Reg@tempPassedInID+2,??_convertCANid2Reg+2
  4214  000F20  C006  F013         	movff	convertCANid2Reg@tempPassedInID+3,??_convertCANid2Reg+3
  4215  000F24  0E03               	movlw	3
  4216  000F26                     u1065:
  4217  000F26  90D8               	bcf	status,0,c
  4218  000F28  3610               	rlcf	??_convertCANid2Reg^0,f,c
  4219  000F2A  3611               	rlcf	(??_convertCANid2Reg+1)^0,f,c
  4220  000F2C  3612               	rlcf	(??_convertCANid2Reg+2)^0,f,c
  4221  000F2E  3613               	rlcf	(??_convertCANid2Reg+3)^0,f,c
  4222  000F30  2EE8               	decfsz	wreg,f,c
  4223  000F32  EF93  F007         	goto	u1065
  4224  000F36  C010  F003         	movff	??_convertCANid2Reg,convertCANid2Reg@tempPassedInID
  4225  000F3A  C011  F004         	movff	??_convertCANid2Reg+1,convertCANid2Reg@tempPassedInID+1
  4226  000F3E  C012  F005         	movff	??_convertCANid2Reg+2,convertCANid2Reg@tempPassedInID+2
  4227  000F42  C013  F006         	movff	??_convertCANid2Reg+3,convertCANid2Reg@tempPassedInID+3
  4228  000F46                     
  4229                           ;mcc_generated_files/ecan.c: 487:         wipSIDL = (0xE0 & tempPassedInID) + wipSIDL;
  4230  000F46  5003               	movf	convertCANid2Reg@tempPassedInID^0,w,c
  4231  000F48  0BE0               	andlw	224
  4232  000F4A  2414               	addwf	convertCANid2Reg@wipSIDL^0,w,c
  4233  000F4C  6E14               	movwf	convertCANid2Reg@wipSIDL^0,c
  4234  000F4E                     
  4235                           ;mcc_generated_files/ecan.c: 488:         wipSIDL = (uint8_t)(wipSIDL + 0x08);
  4236  000F4E  5014               	movf	convertCANid2Reg@wipSIDL^0,w,c
  4237  000F50  0F08               	addlw	8
  4238  000F52  6E14               	movwf	convertCANid2Reg@wipSIDL^0,c
  4239  000F54                     
  4240                           ;mcc_generated_files/ecan.c: 489:         *passedInSIDL = (uint8_t)(0xEB & wipSIDL);
  4241  000F54  5014               	movf	convertCANid2Reg@wipSIDL^0,w,c
  4242  000F56  0BEB               	andlw	235
  4243  000F58  C00E  FFD9         	movff	convertCANid2Reg@passedInSIDL,fsr2l
  4244  000F5C  C00F  FFDA         	movff	convertCANid2Reg@passedInSIDL+1,fsr2h
  4245  000F60  6EDF               	movwf	indf2,c
  4246  000F62                     l2346:
  4247                           
  4248                           ;mcc_generated_files/ecan.c: 492:         tempPassedInID = tempPassedInID >> 8;
  4249  000F62  C003  F010         	movff	convertCANid2Reg@tempPassedInID,??_convertCANid2Reg
  4250  000F66  C004  F011         	movff	convertCANid2Reg@tempPassedInID+1,??_convertCANid2Reg+1
  4251  000F6A  C005  F012         	movff	convertCANid2Reg@tempPassedInID+2,??_convertCANid2Reg+2
  4252  000F6E  C006  F013         	movff	convertCANid2Reg@tempPassedInID+3,??_convertCANid2Reg+3
  4253  000F72  C011  F010         	movff	??_convertCANid2Reg+1,??_convertCANid2Reg
  4254  000F76  C012  F011         	movff	??_convertCANid2Reg+2,??_convertCANid2Reg+1
  4255  000F7A  C013  F012         	movff	??_convertCANid2Reg+3,??_convertCANid2Reg+2
  4256  000F7E  6A13               	clrf	(??_convertCANid2Reg+3)^0,c
  4257  000F80  C010  F003         	movff	??_convertCANid2Reg,convertCANid2Reg@tempPassedInID
  4258  000F84  C011  F004         	movff	??_convertCANid2Reg+1,convertCANid2Reg@tempPassedInID+1
  4259  000F88  C012  F005         	movff	??_convertCANid2Reg+2,convertCANid2Reg@tempPassedInID+2
  4260  000F8C  C013  F006         	movff	??_convertCANid2Reg+3,convertCANid2Reg@tempPassedInID+3
  4261  000F90                     
  4262                           ;mcc_generated_files/ecan.c: 493:         *passedInSIDH = 0xFF & tempPassedInID;
  4263  000F90  C00C  FFD9         	movff	convertCANid2Reg@passedInSIDH,fsr2l
  4264  000F94  C00D  FFDA         	movff	convertCANid2Reg@passedInSIDH+1,fsr2h
  4265  000F98  C003  FFDF         	movff	convertCANid2Reg@tempPassedInID,indf2
  4266                           
  4267                           ;mcc_generated_files/ecan.c: 494:     } else
  4268  000F9C  EFFD  F007         	goto	l468
  4269  000FA0                     l2350:
  4270                           
  4271                           ;mcc_generated_files/ecan.c: 495:     {;mcc_generated_files/ecan.c: 496:         *passed
      +                          InEIDH = 0;
  4272  000FA0  C008  FFD9         	movff	convertCANid2Reg@passedInEIDH,fsr2l
  4273  000FA4  C009  FFDA         	movff	convertCANid2Reg@passedInEIDH+1,fsr2h
  4274  000FA8  0E00               	movlw	0
  4275  000FAA  6EDF               	movwf	indf2,c
  4276                           
  4277                           ;mcc_generated_files/ecan.c: 497:         *passedInEIDL = 0;
  4278  000FAC  C00A  FFD9         	movff	convertCANid2Reg@passedInEIDL,fsr2l
  4279  000FB0  C00B  FFDA         	movff	convertCANid2Reg@passedInEIDL+1,fsr2h
  4280  000FB4  0E00               	movlw	0
  4281  000FB6  6EDF               	movwf	indf2,c
  4282  000FB8                     
  4283                           ;mcc_generated_files/ecan.c: 498:         tempPassedInID = tempPassedInID << 5;
  4284  000FB8  C003  F010         	movff	convertCANid2Reg@tempPassedInID,??_convertCANid2Reg
  4285  000FBC  C004  F011         	movff	convertCANid2Reg@tempPassedInID+1,??_convertCANid2Reg+1
  4286  000FC0  C005  F012         	movff	convertCANid2Reg@tempPassedInID+2,??_convertCANid2Reg+2
  4287  000FC4  C006  F013         	movff	convertCANid2Reg@tempPassedInID+3,??_convertCANid2Reg+3
  4288  000FC8  0E05               	movlw	5
  4289  000FCA                     u1075:
  4290  000FCA  90D8               	bcf	status,0,c
  4291  000FCC  3610               	rlcf	??_convertCANid2Reg^0,f,c
  4292  000FCE  3611               	rlcf	(??_convertCANid2Reg+1)^0,f,c
  4293  000FD0  3612               	rlcf	(??_convertCANid2Reg+2)^0,f,c
  4294  000FD2  3613               	rlcf	(??_convertCANid2Reg+3)^0,f,c
  4295  000FD4  2EE8               	decfsz	wreg,f,c
  4296  000FD6  EFE5  F007         	goto	u1075
  4297  000FDA  C010  F003         	movff	??_convertCANid2Reg,convertCANid2Reg@tempPassedInID
  4298  000FDE  C011  F004         	movff	??_convertCANid2Reg+1,convertCANid2Reg@tempPassedInID+1
  4299  000FE2  C012  F005         	movff	??_convertCANid2Reg+2,convertCANid2Reg@tempPassedInID+2
  4300  000FE6  C013  F006         	movff	??_convertCANid2Reg+3,convertCANid2Reg@tempPassedInID+3
  4301  000FEA                     
  4302                           ;mcc_generated_files/ecan.c: 499:         *passedInSIDL = 0xFF & tempPassedInID;
  4303  000FEA  C00E  FFD9         	movff	convertCANid2Reg@passedInSIDL,fsr2l
  4304  000FEE  C00F  FFDA         	movff	convertCANid2Reg@passedInSIDL+1,fsr2h
  4305  000FF2  C003  FFDF         	movff	convertCANid2Reg@tempPassedInID,indf2
  4306  000FF6  EFB1  F007         	goto	l2346
  4307  000FFA                     l468:
  4308  000FFA  0012               	return		;funcret
  4309  000FFC                     __end_of_convertCANid2Reg:
  4310                           	callstack 0
  4311                           
  4312 ;; *************** function _SYSTEM_Initialize *****************
  4313 ;; Defined at:
  4314 ;;		line 50 in file "mcc_generated_files/mcc.c"
  4315 ;; Parameters:    Size  Location     Type
  4316 ;;		None
  4317 ;; Auto vars:     Size  Location     Type
  4318 ;;		None
  4319 ;; Return value:  Size  Location     Type
  4320 ;;                  1    wreg      void 
  4321 ;; Registers used:
  4322 ;;		wreg, status,2, status,0, cstack
  4323 ;; Tracked objects:
  4324 ;;		On entry : 0/0
  4325 ;;		On exit  : 0/0
  4326 ;;		Unchanged: 0/0
  4327 ;; Data sizes:     COMRAM   BANK0   BANK1   BANK2   BANK3   BANK4   BANK5   BANK6   BANK7   BANK8   BANK9  BANK10  BANK1
      +1  BANK12  BANK13  BANK14
  4328 ;;      Params:         0       0       0       0       0       0       0       0       0       0       0       0       
      +0       0       0       0
  4329 ;;      Locals:         0       0       0       0       0       0       0       0       0       0       0       0       
      +0       0       0       0
  4330 ;;      Temps:          0       0       0       0       0       0       0       0       0       0       0       0       
      +0       0       0       0
  4331 ;;      Totals:         0       0       0       0       0       0       0       0       0       0       0       0       
      +0       0       0       0
  4332 ;;Total ram usage:        0 bytes
  4333 ;; Hardware stack levels used: 1
  4334 ;; Hardware stack levels required when called: 5
  4335 ;; This function calls:
  4336 ;;		_ADC_Initialize
  4337 ;;		_ECAN_Initialize
  4338 ;;		_INTERRUPT_Initialize
  4339 ;;		_OSCILLATOR_Initialize
  4340 ;;		_PIN_MANAGER_Initialize
  4341 ;; This function is called by:
  4342 ;;		_main
  4343 ;; This function uses a non-reentrant model
  4344 ;;
  4345                           
  4346                           	psect	text19
  4347  001850                     __ptext19:
  4348                           	callstack 0
  4349  001850                     _SYSTEM_Initialize:
  4350                           	callstack 25
  4351  001850                     
  4352                           ;mcc_generated_files/mcc.c: 53:     INTERRUPT_Initialize();
  4353  001850  EC57  F00C         	call	_INTERRUPT_Initialize	;wreg free
  4354  001854                     
  4355                           ;mcc_generated_files/mcc.c: 54:     PIN_MANAGER_Initialize();
  4356  001854  EC90  F00B         	call	_PIN_MANAGER_Initialize	;wreg free
  4357  001858                     
  4358                           ;mcc_generated_files/mcc.c: 55:     OSCILLATOR_Initialize();
  4359  001858  EC47  F00C         	call	_OSCILLATOR_Initialize	;wreg free
  4360  00185C                     
  4361                           ;mcc_generated_files/mcc.c: 56:     ADC_Initialize();
  4362  00185C  EC33  F00C         	call	_ADC_Initialize	;wreg free
  4363  001860                     
  4364                           ;mcc_generated_files/mcc.c: 57:     ECAN_Initialize();
  4365  001860  EC71  F006         	call	_ECAN_Initialize	;wreg free
  4366  001864  0012               	return		;funcret
  4367  001866                     __end_of_SYSTEM_Initialize:
  4368                           	callstack 0
  4369                           
  4370 ;; *************** function _PIN_MANAGER_Initialize *****************
  4371 ;; Defined at:
  4372 ;;		line 55 in file "mcc_generated_files/pin_manager.c"
  4373 ;; Parameters:    Size  Location     Type
  4374 ;;		None
  4375 ;; Auto vars:     Size  Location     Type
  4376 ;;		None
  4377 ;; Return value:  Size  Location     Type
  4378 ;;                  1    wreg      void 
  4379 ;; Registers used:
  4380 ;;		wreg, status,2
  4381 ;; Tracked objects:
  4382 ;;		On entry : 0/0
  4383 ;;		On exit  : 0/0
  4384 ;;		Unchanged: 0/0
  4385 ;; Data sizes:     COMRAM   BANK0   BANK1   BANK2   BANK3   BANK4   BANK5   BANK6   BANK7   BANK8   BANK9  BANK10  BANK1
      +1  BANK12  BANK13  BANK14
  4386 ;;      Params:         0       0       0       0       0       0       0       0       0       0       0       0       
      +0       0       0       0
  4387 ;;      Locals:         0       0       0       0       0       0       0       0       0       0       0       0       
      +0       0       0       0
  4388 ;;      Temps:          0       0       0       0       0       0       0       0       0       0       0       0       
      +0       0       0       0
  4389 ;;      Totals:         0       0       0       0       0       0       0       0       0       0       0       0       
      +0       0       0       0
  4390 ;;Total ram usage:        0 bytes
  4391 ;; Hardware stack levels used: 1
  4392 ;; Hardware stack levels required when called: 3
  4393 ;; This function calls:
  4394 ;;		Nothing
  4395 ;; This function is called by:
  4396 ;;		_SYSTEM_Initialize
  4397 ;; This function uses a non-reentrant model
  4398 ;;
  4399                           
  4400                           	psect	text20
  4401  001720                     __ptext20:
  4402                           	callstack 0
  4403  001720                     _PIN_MANAGER_Initialize:
  4404                           	callstack 26
  4405  001720                     
  4406                           ;mcc_generated_files/pin_manager.c: 60:     LATE = 0x00;
  4407  001720  0E00               	movlw	0
  4408  001722  6E8D               	movwf	141,c	;volatile
  4409                           
  4410                           ;mcc_generated_files/pin_manager.c: 61:     LATD = 0x00;
  4411  001724  0E00               	movlw	0
  4412  001726  6E8C               	movwf	140,c	;volatile
  4413                           
  4414                           ;mcc_generated_files/pin_manager.c: 62:     LATA = 0x00;
  4415  001728  0E00               	movlw	0
  4416  00172A  6E89               	movwf	137,c	;volatile
  4417                           
  4418                           ;mcc_generated_files/pin_manager.c: 63:     LATB = 0x00;
  4419  00172C  0E00               	movlw	0
  4420  00172E  6E8A               	movwf	138,c	;volatile
  4421                           
  4422                           ;mcc_generated_files/pin_manager.c: 64:     LATC = 0x00;
  4423  001730  0E00               	movlw	0
  4424  001732  6E8B               	movwf	139,c	;volatile
  4425                           
  4426                           ;mcc_generated_files/pin_manager.c: 69:     TRISE = 0x07;
  4427  001734  0E07               	movlw	7
  4428  001736  6E96               	movwf	150,c	;volatile
  4429                           
  4430                           ;mcc_generated_files/pin_manager.c: 70:     TRISA = 0xE0;
  4431  001738  0EE0               	movlw	224
  4432  00173A  6E92               	movwf	146,c	;volatile
  4433                           
  4434                           ;mcc_generated_files/pin_manager.c: 71:     TRISB = 0xFB;
  4435  00173C  0EFB               	movlw	251
  4436  00173E  6E93               	movwf	147,c	;volatile
  4437                           
  4438                           ;mcc_generated_files/pin_manager.c: 72:     TRISC = 0x80;
  4439  001740  0E80               	movlw	128
  4440  001742  6E94               	movwf	148,c	;volatile
  4441  001744                     
  4442                           ;mcc_generated_files/pin_manager.c: 73:     TRISD = 0xFF;
  4443  001744  6895               	setf	149,c	;volatile
  4444  001746                     
  4445                           ;mcc_generated_files/pin_manager.c: 78:     ANCON0 = 0xFF;
  4446  001746  010F               	movlb	15	; () banked
  4447  001748  695D               	setf	93,b	;volatile
  4448                           
  4449                           ;mcc_generated_files/pin_manager.c: 79:     ANCON1 = 0x7F;
  4450  00174A  0E7F               	movlw	127
  4451  00174C  6F5C               	movwf	92,b	;volatile
  4452                           
  4453                           ;mcc_generated_files/pin_manager.c: 84:     WPUB = 0x00;
  4454  00174E  0E00               	movlw	0
  4455  001750  6F5B               	movwf	91,b	;volatile
  4456  001752                     
  4457                           ; BSR set to: 15
  4458                           ;mcc_generated_files/pin_manager.c: 85:     INTCON2bits.nRBPU = 1;
  4459  001752  8EF1               	bsf	241,7,c	;volatile
  4460  001754                     
  4461                           ; BSR set to: 15
  4462  001754  0012               	return		;funcret
  4463  001756                     __end_of_PIN_MANAGER_Initialize:
  4464                           	callstack 0
  4465                           
  4466 ;; *************** function _OSCILLATOR_Initialize *****************
  4467 ;; Defined at:
  4468 ;;		line 60 in file "mcc_generated_files/mcc.c"
  4469 ;; Parameters:    Size  Location     Type
  4470 ;;		None
  4471 ;; Auto vars:     Size  Location     Type
  4472 ;;		None
  4473 ;; Return value:  Size  Location     Type
  4474 ;;                  1    wreg      void 
  4475 ;; Registers used:
  4476 ;;		wreg, status,2
  4477 ;; Tracked objects:
  4478 ;;		On entry : 0/0
  4479 ;;		On exit  : 0/0
  4480 ;;		Unchanged: 0/0
  4481 ;; Data sizes:     COMRAM   BANK0   BANK1   BANK2   BANK3   BANK4   BANK5   BANK6   BANK7   BANK8   BANK9  BANK10  BANK1
      +1  BANK12  BANK13  BANK14
  4482 ;;      Params:         0       0       0       0       0       0       0       0       0       0       0       0       
      +0       0       0       0
  4483 ;;      Locals:         0       0       0       0       0       0       0       0       0       0       0       0       
      +0       0       0       0
  4484 ;;      Temps:          0       0       0       0       0       0       0       0       0       0       0       0       
      +0       0       0       0
  4485 ;;      Totals:         0       0       0       0       0       0       0       0       0       0       0       0       
      +0       0       0       0
  4486 ;;Total ram usage:        0 bytes
  4487 ;; Hardware stack levels used: 1
  4488 ;; Hardware stack levels required when called: 3
  4489 ;; This function calls:
  4490 ;;		Nothing
  4491 ;; This function is called by:
  4492 ;;		_SYSTEM_Initialize
  4493 ;; This function uses a non-reentrant model
  4494 ;;
  4495                           
  4496                           	psect	text21
  4497  00188E                     __ptext21:
  4498                           	callstack 0
  4499  00188E                     _OSCILLATOR_Initialize:
  4500                           	callstack 26
  4501  00188E                     
  4502                           ;mcc_generated_files/mcc.c: 63:     OSCCON = 0x60;
  4503  00188E  0E60               	movlw	96
  4504  001890  6ED3               	movwf	211,c	;volatile
  4505                           
  4506                           ;mcc_generated_files/mcc.c: 65:     OSCCON2 = 0x00;
  4507  001892  0E00               	movlw	0
  4508  001894  6ED2               	movwf	210,c	;volatile
  4509                           
  4510                           ;mcc_generated_files/mcc.c: 67:     OSCTUNE = 0x00;
  4511  001896  0E00               	movlw	0
  4512  001898  6E9B               	movwf	155,c	;volatile
  4513                           
  4514                           ;mcc_generated_files/mcc.c: 69:     REFOCON = 0x00;
  4515  00189A  0E00               	movlw	0
  4516  00189C  6E9A               	movwf	154,c	;volatile
  4517  00189E  0012               	return		;funcret
  4518  0018A0                     __end_of_OSCILLATOR_Initialize:
  4519                           	callstack 0
  4520                           
  4521 ;; *************** function _INTERRUPT_Initialize *****************
  4522 ;; Defined at:
  4523 ;;		line 52 in file "mcc_generated_files/interrupt_manager.c"
  4524 ;; Parameters:    Size  Location     Type
  4525 ;;		None
  4526 ;; Auto vars:     Size  Location     Type
  4527 ;;		None
  4528 ;; Return value:  Size  Location     Type
  4529 ;;                  1    wreg      void 
  4530 ;; Registers used:
  4531 ;;		None
  4532 ;; Tracked objects:
  4533 ;;		On entry : 0/0
  4534 ;;		On exit  : 0/0
  4535 ;;		Unchanged: 0/0
  4536 ;; Data sizes:     COMRAM   BANK0   BANK1   BANK2   BANK3   BANK4   BANK5   BANK6   BANK7   BANK8   BANK9  BANK10  BANK1
      +1  BANK12  BANK13  BANK14
  4537 ;;      Params:         0       0       0       0       0       0       0       0       0       0       0       0       
      +0       0       0       0
  4538 ;;      Locals:         0       0       0       0       0       0       0       0       0       0       0       0       
      +0       0       0       0
  4539 ;;      Temps:          0       0       0       0       0       0       0       0       0       0       0       0       
      +0       0       0       0
  4540 ;;      Totals:         0       0       0       0       0       0       0       0       0       0       0       0       
      +0       0       0       0
  4541 ;;Total ram usage:        0 bytes
  4542 ;; Hardware stack levels used: 1
  4543 ;; Hardware stack levels required when called: 3
  4544 ;; This function calls:
  4545 ;;		Nothing
  4546 ;; This function is called by:
  4547 ;;		_SYSTEM_Initialize
  4548 ;; This function uses a non-reentrant model
  4549 ;;
  4550                           
  4551                           	psect	text22
  4552  0018AE                     __ptext22:
  4553                           	callstack 0
  4554  0018AE                     _INTERRUPT_Initialize:
  4555                           	callstack 26
  4556  0018AE                     
  4557                           ;mcc_generated_files/interrupt_manager.c: 55:     RCONbits.IPEN = 0;
  4558  0018AE  9ED0               	bcf	208,7,c	;volatile
  4559  0018B0  0012               	return		;funcret
  4560  0018B2                     __end_of_INTERRUPT_Initialize:
  4561                           	callstack 0
  4562                           
  4563 ;; *************** function _ECAN_Initialize *****************
  4564 ;; Defined at:
  4565 ;;		line 65 in file "mcc_generated_files/ecan.c"
  4566 ;; Parameters:    Size  Location     Type
  4567 ;;		None
  4568 ;; Auto vars:     Size  Location     Type
  4569 ;;		None
  4570 ;; Return value:  Size  Location     Type
  4571 ;;                  1    wreg      void 
  4572 ;; Registers used:
  4573 ;;		wreg, status,2, status,0, cstack
  4574 ;; Tracked objects:
  4575 ;;		On entry : 0/0
  4576 ;;		On exit  : 0/0
  4577 ;;		Unchanged: 0/0
  4578 ;; Data sizes:     COMRAM   BANK0   BANK1   BANK2   BANK3   BANK4   BANK5   BANK6   BANK7   BANK8   BANK9  BANK10  BANK1
      +1  BANK12  BANK13  BANK14
  4579 ;;      Params:         0       0       0       0       0       0       0       0       0       0       0       0       
      +0       0       0       0
  4580 ;;      Locals:         0       0       0       0       0       0       0       0       0       0       0       0       
      +0       0       0       0
  4581 ;;      Temps:          1       0       0       0       0       0       0       0       0       0       0       0       
      +0       0       0       0
  4582 ;;      Totals:         1       0       0       0       0       0       0       0       0       0       0       0       
      +0       0       0       0
  4583 ;;Total ram usage:        1 bytes
  4584 ;; Hardware stack levels used: 1
  4585 ;; Hardware stack levels required when called: 4
  4586 ;; This function calls:
  4587 ;;		_ECAN_SetWakeUpInterruptHandler
  4588 ;; This function is called by:
  4589 ;;		_SYSTEM_Initialize
  4590 ;; This function uses a non-reentrant model
  4591 ;;
  4592                           
  4593                           	psect	text23
  4594  000CE2                     __ptext23:
  4595                           	callstack 0
  4596  000CE2                     _ECAN_Initialize:
  4597                           	callstack 25
  4598  000CE2                     
  4599                           ;mcc_generated_files/ecan.c: 67:     CANCON = 0x80;
  4600  000CE2  0E80               	movlw	128
  4601  000CE4  6E6F               	movwf	111,c	;volatile
  4602  000CE6                     l2836:
  4603  000CE6  506E               	movf	110,w,c	;volatile
  4604  000CE8  0BE0               	andlw	224
  4605  000CEA  0A80               	xorlw	128
  4606  000CEC  A4D8               	btfss	status,2,c
  4607  000CEE  EF7B  F006         	goto	u1701
  4608  000CF2  EF7D  F006         	goto	u1700
  4609  000CF6                     u1701:
  4610  000CF6  EF73  F006         	goto	l2836
  4611  000CFA                     u1700:
  4612  000CFA                     
  4613                           ;mcc_generated_files/ecan.c: 73:     ECANCON = 0x40;
  4614  000CFA  0E40               	movlw	64
  4615  000CFC  6E72               	movwf	114,c	;volatile
  4616                           
  4617                           ;mcc_generated_files/ecan.c: 78:     CIOCON = 0x20;
  4618  000CFE  0E20               	movlw	32
  4619  000D00  6E70               	movwf	112,c	;volatile
  4620                           
  4621                           ;mcc_generated_files/ecan.c: 99:     BSEL0 = 0x00;
  4622  000D02  0E00               	movlw	0
  4623  000D04  010E               	movlb	14	; () banked
  4624  000D06  6F7D               	movwf	125,b	;volatile
  4625  000D08                     
  4626                           ; BSR set to: 14
  4627                           ;mcc_generated_files/ecan.c: 104:     RXM0EIDH = 0xFF;
  4628  000D08  69FA               	setf	250,b	;volatile
  4629  000D0A                     
  4630                           ; BSR set to: 14
  4631                           ;mcc_generated_files/ecan.c: 105:     RXM0EIDL = 0xFF;
  4632  000D0A  69FB               	setf	251,b	;volatile
  4633                           
  4634                           ;mcc_generated_files/ecan.c: 106:     RXM0SIDH = 0x05;
  4635  000D0C  0E05               	movlw	5
  4636  000D0E  6FF8               	movwf	248,b	;volatile
  4637                           
  4638                           ;mcc_generated_files/ecan.c: 107:     RXM0SIDL = 0xC3;
  4639  000D10  0EC3               	movlw	195
  4640  000D12  6FF9               	movwf	249,b	;volatile
  4641  000D14                     
  4642                           ; BSR set to: 14
  4643                           ;mcc_generated_files/ecan.c: 108:     RXM1EIDH = 0xFF;
  4644  000D14  69FE               	setf	254,b	;volatile
  4645  000D16                     
  4646                           ; BSR set to: 14
  4647                           ;mcc_generated_files/ecan.c: 109:     RXM1EIDL = 0xFF;
  4648  000D16  69FF               	setf	255,b	;volatile
  4649  000D18                     
  4650                           ; BSR set to: 14
  4651                           ;mcc_generated_files/ecan.c: 110:     RXM1SIDH = 0xFF;
  4652  000D18  69FC               	setf	252,b	;volatile
  4653                           
  4654                           ;mcc_generated_files/ecan.c: 111:     RXM1SIDL = 0xE3;
  4655  000D1A  0EE3               	movlw	227
  4656  000D1C  6FFD               	movwf	253,b	;volatile
  4657                           
  4658                           ;mcc_generated_files/ecan.c: 116:     RXFCON0 = 0x01;
  4659  000D1E  0E01               	movlw	1
  4660  000D20  6F46               	movwf	70,b	;volatile
  4661                           
  4662                           ;mcc_generated_files/ecan.c: 117:     RXFCON1 = 0x00;
  4663  000D22  0E00               	movlw	0
  4664  000D24  6F47               	movwf	71,b	;volatile
  4665                           
  4666                           ;mcc_generated_files/ecan.c: 121:     MSEL0 = 0x00;
  4667  000D26  0E00               	movlw	0
  4668  000D28  6F79               	movwf	121,b	;volatile
  4669                           
  4670                           ;mcc_generated_files/ecan.c: 122:     MSEL1 = 0x00;
  4671  000D2A  0E00               	movlw	0
  4672  000D2C  6F7A               	movwf	122,b	;volatile
  4673                           
  4674                           ;mcc_generated_files/ecan.c: 123:     MSEL2 = 0x00;
  4675  000D2E  0E00               	movlw	0
  4676  000D30  6F7B               	movwf	123,b	;volatile
  4677                           
  4678                           ;mcc_generated_files/ecan.c: 124:     MSEL3 = 0x00;
  4679  000D32  0E00               	movlw	0
  4680  000D34  6F7C               	movwf	124,b	;volatile
  4681                           
  4682                           ;mcc_generated_files/ecan.c: 129:     RXFBCON0 = 0x00;
  4683  000D36  0E00               	movlw	0
  4684  000D38  6F71               	movwf	113,b	;volatile
  4685                           
  4686                           ;mcc_generated_files/ecan.c: 130:     RXFBCON1 = 0x00;
  4687  000D3A  0E00               	movlw	0
  4688  000D3C  6F72               	movwf	114,b	;volatile
  4689                           
  4690                           ;mcc_generated_files/ecan.c: 131:     RXFBCON2 = 0x00;
  4691  000D3E  0E00               	movlw	0
  4692  000D40  6F73               	movwf	115,b	;volatile
  4693                           
  4694                           ;mcc_generated_files/ecan.c: 132:     RXFBCON3 = 0x00;
  4695  000D42  0E00               	movlw	0
  4696  000D44  6F74               	movwf	116,b	;volatile
  4697                           
  4698                           ;mcc_generated_files/ecan.c: 133:     RXFBCON4 = 0x00;
  4699  000D46  0E00               	movlw	0
  4700  000D48  6F75               	movwf	117,b	;volatile
  4701                           
  4702                           ;mcc_generated_files/ecan.c: 134:     RXFBCON5 = 0x00;
  4703  000D4A  0E00               	movlw	0
  4704  000D4C  6F76               	movwf	118,b	;volatile
  4705                           
  4706                           ;mcc_generated_files/ecan.c: 135:     RXFBCON6 = 0x00;
  4707  000D4E  0E00               	movlw	0
  4708  000D50  6F77               	movwf	119,b	;volatile
  4709                           
  4710                           ;mcc_generated_files/ecan.c: 136:     RXFBCON7 = 0x00;
  4711  000D52  0E00               	movlw	0
  4712  000D54  6F78               	movwf	120,b	;volatile
  4713                           
  4714                           ;mcc_generated_files/ecan.c: 141:     RXF0EIDH = 0x02;
  4715  000D56  0E02               	movlw	2
  4716  000D58  6FE2               	movwf	226,b	;volatile
  4717                           
  4718                           ;mcc_generated_files/ecan.c: 142:     RXF0EIDL = 0x25;
  4719  000D5A  0E25               	movlw	37
  4720  000D5C  6FE3               	movwf	227,b	;volatile
  4721                           
  4722                           ;mcc_generated_files/ecan.c: 143:     RXF0SIDH = 0x44;
  4723  000D5E  0E44               	movlw	68
  4724  000D60  6FE0               	movwf	224,b	;volatile
  4725                           
  4726                           ;mcc_generated_files/ecan.c: 144:     RXF0SIDL = 0xA9;
  4727  000D62  0EA9               	movlw	169
  4728  000D64  6FE1               	movwf	225,b	;volatile
  4729                           
  4730                           ;mcc_generated_files/ecan.c: 145:     RXF1EIDH = 0x00;
  4731  000D66  0E00               	movlw	0
  4732  000D68  6FE6               	movwf	230,b	;volatile
  4733                           
  4734                           ;mcc_generated_files/ecan.c: 146:     RXF1EIDL = 0x00;
  4735  000D6A  0E00               	movlw	0
  4736  000D6C  6FE7               	movwf	231,b	;volatile
  4737                           
  4738                           ;mcc_generated_files/ecan.c: 147:     RXF1SIDH = 0x00;
  4739  000D6E  0E00               	movlw	0
  4740  000D70  6FE4               	movwf	228,b	;volatile
  4741                           
  4742                           ;mcc_generated_files/ecan.c: 148:     RXF1SIDL = 0x00;
  4743  000D72  0E00               	movlw	0
  4744  000D74  6FE5               	movwf	229,b	;volatile
  4745                           
  4746                           ;mcc_generated_files/ecan.c: 149:     RXF2EIDH = 0x00;
  4747  000D76  0E00               	movlw	0
  4748  000D78  6FEA               	movwf	234,b	;volatile
  4749                           
  4750                           ;mcc_generated_files/ecan.c: 150:     RXF2EIDL = 0x00;
  4751  000D7A  0E00               	movlw	0
  4752  000D7C  6FEB               	movwf	235,b	;volatile
  4753                           
  4754                           ;mcc_generated_files/ecan.c: 151:     RXF2SIDH = 0x00;
  4755  000D7E  0E00               	movlw	0
  4756  000D80  6FE8               	movwf	232,b	;volatile
  4757                           
  4758                           ;mcc_generated_files/ecan.c: 152:     RXF2SIDL = 0x00;
  4759  000D82  0E00               	movlw	0
  4760  000D84  6FE9               	movwf	233,b	;volatile
  4761                           
  4762                           ;mcc_generated_files/ecan.c: 153:     RXF3EIDH = 0x00;
  4763  000D86  0E00               	movlw	0
  4764  000D88  6FEE               	movwf	238,b	;volatile
  4765                           
  4766                           ;mcc_generated_files/ecan.c: 154:     RXF3EIDL = 0x00;
  4767  000D8A  0E00               	movlw	0
  4768  000D8C  6FEF               	movwf	239,b	;volatile
  4769                           
  4770                           ;mcc_generated_files/ecan.c: 155:     RXF3SIDH = 0x00;
  4771  000D8E  0E00               	movlw	0
  4772  000D90  6FEC               	movwf	236,b	;volatile
  4773                           
  4774                           ;mcc_generated_files/ecan.c: 156:     RXF3SIDL = 0x00;
  4775  000D92  0E00               	movlw	0
  4776  000D94  6FED               	movwf	237,b	;volatile
  4777                           
  4778                           ;mcc_generated_files/ecan.c: 157:     RXF4EIDH = 0x00;
  4779  000D96  0E00               	movlw	0
  4780  000D98  6FF2               	movwf	242,b	;volatile
  4781                           
  4782                           ;mcc_generated_files/ecan.c: 158:     RXF4EIDL = 0x00;
  4783  000D9A  0E00               	movlw	0
  4784  000D9C  6FF3               	movwf	243,b	;volatile
  4785                           
  4786                           ;mcc_generated_files/ecan.c: 159:     RXF4SIDH = 0x00;
  4787  000D9E  0E00               	movlw	0
  4788  000DA0  6FF0               	movwf	240,b	;volatile
  4789                           
  4790                           ;mcc_generated_files/ecan.c: 160:     RXF4SIDL = 0x00;
  4791  000DA2  0E00               	movlw	0
  4792  000DA4  6FF1               	movwf	241,b	;volatile
  4793                           
  4794                           ;mcc_generated_files/ecan.c: 161:     RXF5EIDH = 0x00;
  4795  000DA6  0E00               	movlw	0
  4796  000DA8  6FF6               	movwf	246,b	;volatile
  4797                           
  4798                           ;mcc_generated_files/ecan.c: 162:     RXF5EIDL = 0x00;
  4799  000DAA  0E00               	movlw	0
  4800  000DAC  6FF7               	movwf	247,b	;volatile
  4801                           
  4802                           ;mcc_generated_files/ecan.c: 163:     RXF5SIDH = 0x00;
  4803  000DAE  0E00               	movlw	0
  4804  000DB0  6FF4               	movwf	244,b	;volatile
  4805                           
  4806                           ;mcc_generated_files/ecan.c: 164:     RXF5SIDL = 0x00;
  4807  000DB2  0E00               	movlw	0
  4808  000DB4  6FF5               	movwf	245,b	;volatile
  4809                           
  4810                           ;mcc_generated_files/ecan.c: 166:     RXF6EIDH = 0x00;
  4811  000DB6  0E00               	movlw	0
  4812  000DB8  6F4A               	movwf	74,b	;volatile
  4813                           
  4814                           ;mcc_generated_files/ecan.c: 167:     RXF6EIDL = 0x00;
  4815  000DBA  0E00               	movlw	0
  4816  000DBC  6F4B               	movwf	75,b	;volatile
  4817                           
  4818                           ;mcc_generated_files/ecan.c: 168:     RXF6SIDH = 0x00;
  4819  000DBE  0E00               	movlw	0
  4820  000DC0  6F48               	movwf	72,b	;volatile
  4821                           
  4822                           ;mcc_generated_files/ecan.c: 169:     RXF6SIDL = 0x00;
  4823  000DC2  0E00               	movlw	0
  4824  000DC4  6F49               	movwf	73,b	;volatile
  4825                           
  4826                           ;mcc_generated_files/ecan.c: 170:     RXF7EIDH = 0x00;
  4827  000DC6  0E00               	movlw	0
  4828  000DC8  6F4E               	movwf	78,b	;volatile
  4829                           
  4830                           ;mcc_generated_files/ecan.c: 171:     RXF7EIDL = 0x00;
  4831  000DCA  0E00               	movlw	0
  4832  000DCC  6F4F               	movwf	79,b	;volatile
  4833                           
  4834                           ;mcc_generated_files/ecan.c: 172:     RXF7SIDH = 0x00;
  4835  000DCE  0E00               	movlw	0
  4836  000DD0  6F4C               	movwf	76,b	;volatile
  4837                           
  4838                           ;mcc_generated_files/ecan.c: 173:     RXF7SIDL = 0x00;
  4839  000DD2  0E00               	movlw	0
  4840  000DD4  6F4D               	movwf	77,b	;volatile
  4841                           
  4842                           ;mcc_generated_files/ecan.c: 174:     RXF8EIDH = 0x00;
  4843  000DD6  0E00               	movlw	0
  4844  000DD8  6F52               	movwf	82,b	;volatile
  4845                           
  4846                           ;mcc_generated_files/ecan.c: 175:     RXF8EIDL = 0x00;
  4847  000DDA  0E00               	movlw	0
  4848  000DDC  6F53               	movwf	83,b	;volatile
  4849                           
  4850                           ;mcc_generated_files/ecan.c: 176:     RXF8SIDH = 0x00;
  4851  000DDE  0E00               	movlw	0
  4852  000DE0  6F50               	movwf	80,b	;volatile
  4853                           
  4854                           ;mcc_generated_files/ecan.c: 177:     RXF8SIDL = 0x00;
  4855  000DE2  0E00               	movlw	0
  4856  000DE4  6F51               	movwf	81,b	;volatile
  4857                           
  4858                           ;mcc_generated_files/ecan.c: 178:     RXF9EIDH = 0x00;
  4859  000DE6  0E00               	movlw	0
  4860  000DE8  6F56               	movwf	86,b	;volatile
  4861                           
  4862                           ;mcc_generated_files/ecan.c: 179:     RXF9EIDL = 0x00;
  4863  000DEA  0E00               	movlw	0
  4864  000DEC  6F57               	movwf	87,b	;volatile
  4865                           
  4866                           ;mcc_generated_files/ecan.c: 180:     RXF9SIDH = 0x00;
  4867  000DEE  0E00               	movlw	0
  4868  000DF0  6F54               	movwf	84,b	;volatile
  4869                           
  4870                           ;mcc_generated_files/ecan.c: 181:     RXF9SIDL = 0x00;
  4871  000DF2  0E00               	movlw	0
  4872  000DF4  6F55               	movwf	85,b	;volatile
  4873                           
  4874                           ;mcc_generated_files/ecan.c: 182:     RXF10EIDH = 0x00;
  4875  000DF6  0E00               	movlw	0
  4876  000DF8  6F5A               	movwf	90,b	;volatile
  4877                           
  4878                           ;mcc_generated_files/ecan.c: 183:     RXF10EIDL = 0x00;
  4879  000DFA  0E00               	movlw	0
  4880  000DFC  6F5B               	movwf	91,b	;volatile
  4881                           
  4882                           ;mcc_generated_files/ecan.c: 184:     RXF10SIDH = 0x00;
  4883  000DFE  0E00               	movlw	0
  4884  000E00  6F58               	movwf	88,b	;volatile
  4885                           
  4886                           ;mcc_generated_files/ecan.c: 185:     RXF10SIDL = 0x00;
  4887  000E02  0E00               	movlw	0
  4888  000E04  6F59               	movwf	89,b	;volatile
  4889                           
  4890                           ;mcc_generated_files/ecan.c: 186:     RXF11EIDH = 0x00;
  4891  000E06  0E00               	movlw	0
  4892  000E08  6F5E               	movwf	94,b	;volatile
  4893                           
  4894                           ;mcc_generated_files/ecan.c: 187:     RXF11EIDL = 0x00;
  4895  000E0A  0E00               	movlw	0
  4896  000E0C  6F5F               	movwf	95,b	;volatile
  4897                           
  4898                           ;mcc_generated_files/ecan.c: 188:     RXF11SIDH = 0x00;
  4899  000E0E  0E00               	movlw	0
  4900  000E10  6F5C               	movwf	92,b	;volatile
  4901                           
  4902                           ;mcc_generated_files/ecan.c: 189:     RXF11SIDL = 0x00;
  4903  000E12  0E00               	movlw	0
  4904  000E14  6F5D               	movwf	93,b	;volatile
  4905                           
  4906                           ;mcc_generated_files/ecan.c: 190:     RXF12EIDH = 0x00;
  4907  000E16  0E00               	movlw	0
  4908  000E18  6F62               	movwf	98,b	;volatile
  4909                           
  4910                           ;mcc_generated_files/ecan.c: 191:     RXF12EIDL = 0x00;
  4911  000E1A  0E00               	movlw	0
  4912  000E1C  6F63               	movwf	99,b	;volatile
  4913                           
  4914                           ;mcc_generated_files/ecan.c: 192:     RXF12SIDH = 0x00;
  4915  000E1E  0E00               	movlw	0
  4916  000E20  6F60               	movwf	96,b	;volatile
  4917                           
  4918                           ;mcc_generated_files/ecan.c: 193:     RXF12SIDL = 0x00;
  4919  000E22  0E00               	movlw	0
  4920  000E24  6F61               	movwf	97,b	;volatile
  4921                           
  4922                           ;mcc_generated_files/ecan.c: 194:     RXF13EIDH = 0x00;
  4923  000E26  0E00               	movlw	0
  4924  000E28  6F66               	movwf	102,b	;volatile
  4925                           
  4926                           ;mcc_generated_files/ecan.c: 195:     RXF13EIDL = 0x00;
  4927  000E2A  0E00               	movlw	0
  4928  000E2C  6F67               	movwf	103,b	;volatile
  4929                           
  4930                           ;mcc_generated_files/ecan.c: 196:     RXF13SIDH = 0x00;
  4931  000E2E  0E00               	movlw	0
  4932  000E30  6F64               	movwf	100,b	;volatile
  4933                           
  4934                           ;mcc_generated_files/ecan.c: 197:     RXF13SIDL = 0x00;
  4935  000E32  0E00               	movlw	0
  4936  000E34  6F65               	movwf	101,b	;volatile
  4937                           
  4938                           ;mcc_generated_files/ecan.c: 198:     RXF14EIDH = 0x00;
  4939  000E36  0E00               	movlw	0
  4940  000E38  6F6A               	movwf	106,b	;volatile
  4941                           
  4942                           ;mcc_generated_files/ecan.c: 199:     RXF14EIDL = 0x00;
  4943  000E3A  0E00               	movlw	0
  4944  000E3C  6F6B               	movwf	107,b	;volatile
  4945                           
  4946                           ;mcc_generated_files/ecan.c: 200:     RXF14SIDH = 0x00;
  4947  000E3E  0E00               	movlw	0
  4948  000E40  6F68               	movwf	104,b	;volatile
  4949                           
  4950                           ;mcc_generated_files/ecan.c: 201:     RXF14SIDL = 0x00;
  4951  000E42  0E00               	movlw	0
  4952  000E44  6F69               	movwf	105,b	;volatile
  4953  000E46                     
  4954                           ; BSR set to: 14
  4955                           ;mcc_generated_files/ecan.c: 202:     RXF15EIDH = 0xFF;
  4956  000E46  696E               	setf	110,b	;volatile
  4957  000E48                     
  4958                           ; BSR set to: 14
  4959                           ;mcc_generated_files/ecan.c: 203:     RXF15EIDL = 0xFF;
  4960  000E48  696F               	setf	111,b	;volatile
  4961  000E4A                     
  4962                           ; BSR set to: 14
  4963                           ;mcc_generated_files/ecan.c: 204:     RXF15SIDH = 0xFF;
  4964  000E4A  696C               	setf	108,b	;volatile
  4965                           
  4966                           ;mcc_generated_files/ecan.c: 205:     RXF15SIDL = 0xE3;
  4967  000E4C  0EE3               	movlw	227
  4968  000E4E  6F6D               	movwf	109,b	;volatile
  4969                           
  4970                           ;mcc_generated_files/ecan.c: 220:     BRGCON1 = 0x03;
  4971  000E50  0E03               	movlw	3
  4972  000E52  6F43               	movwf	67,b	;volatile
  4973                           
  4974                           ;mcc_generated_files/ecan.c: 221:     BRGCON2 = 0xA8;
  4975  000E54  0EA8               	movlw	168
  4976  000E56  6F44               	movwf	68,b	;volatile
  4977                           
  4978                           ;mcc_generated_files/ecan.c: 222:     BRGCON3 = 0x01;
  4979  000E58  0E01               	movlw	1
  4980  000E5A  6F45               	movwf	69,b	;volatile
  4981  000E5C                     
  4982                           ; BSR set to: 14
  4983                           ;mcc_generated_files/ecan.c: 224:     ECAN_SetWakeUpInterruptHandler(WakeUpDefaultInterr
      +                          uptHandler);
  4984  000E5C  0EB2               	movlw	low _WakeUpDefaultInterruptHandler
  4985  000E5E  6E03               	movwf	ECAN_SetWakeUpInterruptHandler@handler^0,c
  4986  000E60  0E18               	movlw	high _WakeUpDefaultInterruptHandler
  4987  000E62  6E04               	movwf	(ECAN_SetWakeUpInterruptHandler@handler+1)^0,c
  4988  000E64  EC50  F00C         	call	_ECAN_SetWakeUpInterruptHandler	;wreg free
  4989  000E68                     
  4990                           ;mcc_generated_files/ecan.c: 225:     PIR5bits.WAKIF = 0;
  4991  000E68  9C77               	bcf	119,6,c	;volatile
  4992  000E6A                     
  4993                           ;mcc_generated_files/ecan.c: 226:     PIE5bits.WAKIE = 1;
  4994  000E6A  8C76               	bsf	118,6,c	;volatile
  4995  000E6C                     
  4996                           ;mcc_generated_files/ecan.c: 228:     CANCON = 0x00;
  4997  000E6C  0E00               	movlw	0
  4998  000E6E  6E6F               	movwf	111,c	;volatile
  4999  000E70                     l2864:
  5000  000E70  CF6E F005          	movff	3950,??_ECAN_Initialize	;volatile
  5001  000E74  0EE0               	movlw	224
  5002  000E76  1605               	andwf	??_ECAN_Initialize^0,f,c
  5003  000E78  A4D8               	btfss	status,2,c
  5004  000E7A  EF41  F007         	goto	u1711
  5005  000E7E  EF43  F007         	goto	u1710
  5006  000E82                     u1711:
  5007  000E82  EF38  F007         	goto	l2864
  5008  000E86                     u1710:
  5009  000E86  0012               	return		;funcret
  5010  000E88                     __end_of_ECAN_Initialize:
  5011                           	callstack 0
  5012                           
  5013 ;; *************** function _ECAN_SetWakeUpInterruptHandler *****************
  5014 ;; Defined at:
  5015 ;;		line 505 in file "mcc_generated_files/ecan.c"
  5016 ;; Parameters:    Size  Location     Type
  5017 ;;  handler         2    2[COMRAM] PTR FTN()void 
  5018 ;;		 -> WakeUpDefaultInterruptHandler(1), 
  5019 ;; Auto vars:     Size  Location     Type
  5020 ;;		None
  5021 ;; Return value:  Size  Location     Type
  5022 ;;                  1    wreg      void 
  5023 ;; Registers used:
  5024 ;;		wreg, status,2, status,0
  5025 ;; Tracked objects:
  5026 ;;		On entry : 0/0
  5027 ;;		On exit  : 0/0
  5028 ;;		Unchanged: 0/0
  5029 ;; Data sizes:     COMRAM   BANK0   BANK1   BANK2   BANK3   BANK4   BANK5   BANK6   BANK7   BANK8   BANK9  BANK10  BANK1
      +1  BANK12  BANK13  BANK14
  5030 ;;      Params:         2       0       0       0       0       0       0       0       0       0       0       0       
      +0       0       0       0
  5031 ;;      Locals:         0       0       0       0       0       0       0       0       0       0       0       0       
      +0       0       0       0
  5032 ;;      Temps:          0       0       0       0       0       0       0       0       0       0       0       0       
      +0       0       0       0
  5033 ;;      Totals:         2       0       0       0       0       0       0       0       0       0       0       0       
      +0       0       0       0
  5034 ;;Total ram usage:        2 bytes
  5035 ;; Hardware stack levels used: 1
  5036 ;; Hardware stack levels required when called: 3
  5037 ;; This function calls:
  5038 ;;		Nothing
  5039 ;; This function is called by:
  5040 ;;		_ECAN_Initialize
  5041 ;; This function uses a non-reentrant model
  5042 ;;
  5043                           
  5044                           	psect	text24
  5045  0018A0                     __ptext24:
  5046                           	callstack 0
  5047  0018A0                     _ECAN_SetWakeUpInterruptHandler:
  5048                           	callstack 25
  5049  0018A0                     
  5050                           ;mcc_generated_files/ecan.c: 505: void ECAN_SetWakeUpInterruptHandler(void (*handler)(vo
      +                          id));mcc_generated_files/ecan.c: 506: {;mcc_generated_files/ecan.c: 507:     WakeUpInter
      +                          ruptHandler = handler;
  5051  0018A0  C003  F047         	movff	ECAN_SetWakeUpInterruptHandler@handler,_WakeUpInterruptHandler
  5052  0018A4  C004  F048         	movff	ECAN_SetWakeUpInterruptHandler@handler+1,_WakeUpInterruptHandler+1
  5053  0018A8  0012               	return		;funcret
  5054  0018AA                     __end_of_ECAN_SetWakeUpInterruptHandler:
  5055                           	callstack 0
  5056                           
  5057 ;; *************** function _ADC_Initialize *****************
  5058 ;; Defined at:
  5059 ;;		line 62 in file "mcc_generated_files/adc.c"
  5060 ;; Parameters:    Size  Location     Type
  5061 ;;		None
  5062 ;; Auto vars:     Size  Location     Type
  5063 ;;		None
  5064 ;; Return value:  Size  Location     Type
  5065 ;;                  1    wreg      void 
  5066 ;; Registers used:
  5067 ;;		wreg, status,2
  5068 ;; Tracked objects:
  5069 ;;		On entry : 0/0
  5070 ;;		On exit  : 0/0
  5071 ;;		Unchanged: 0/0
  5072 ;; Data sizes:     COMRAM   BANK0   BANK1   BANK2   BANK3   BANK4   BANK5   BANK6   BANK7   BANK8   BANK9  BANK10  BANK1
      +1  BANK12  BANK13  BANK14
  5073 ;;      Params:         0       0       0       0       0       0       0       0       0       0       0       0       
      +0       0       0       0
  5074 ;;      Locals:         0       0       0       0       0       0       0       0       0       0       0       0       
      +0       0       0       0
  5075 ;;      Temps:          0       0       0       0       0       0       0       0       0       0       0       0       
      +0       0       0       0
  5076 ;;      Totals:         0       0       0       0       0       0       0       0       0       0       0       0       
      +0       0       0       0
  5077 ;;Total ram usage:        0 bytes
  5078 ;; Hardware stack levels used: 1
  5079 ;; Hardware stack levels required when called: 3
  5080 ;; This function calls:
  5081 ;;		Nothing
  5082 ;; This function is called by:
  5083 ;;		_SYSTEM_Initialize
  5084 ;; This function uses a non-reentrant model
  5085 ;;
  5086                           
  5087                           	psect	text25
  5088  001866                     __ptext25:
  5089                           	callstack 0
  5090  001866                     _ADC_Initialize:
  5091                           	callstack 26
  5092  001866                     
  5093                           ;mcc_generated_files/adc.c: 67:     ADCON0 = 0x01;
  5094  001866  0E01               	movlw	1
  5095  001868  6EC2               	movwf	194,c	;volatile
  5096                           
  5097                           ;mcc_generated_files/adc.c: 70:     ADCON1 = 0x00;
  5098  00186A  0E00               	movlw	0
  5099  00186C  6EC1               	movwf	193,c	;volatile
  5100                           
  5101                           ;mcc_generated_files/adc.c: 73:     ADCON2 = 0x88;
  5102  00186E  0E88               	movlw	136
  5103  001870  6EC0               	movwf	192,c	;volatile
  5104                           
  5105                           ;mcc_generated_files/adc.c: 76:     ADRESH = 0x00;
  5106  001872  0E00               	movlw	0
  5107  001874  6EC4               	movwf	196,c	;volatile
  5108                           
  5109                           ;mcc_generated_files/adc.c: 79:     ADRESL = 0x00;
  5110  001876  0E00               	movlw	0
  5111  001878  6EC3               	movwf	195,c	;volatile
  5112  00187A  0012               	return		;funcret
  5113  00187C                     __end_of_ADC_Initialize:
  5114                           	callstack 0
  5115                           
  5116 ;; *************** function _INTERRUPT_InterruptManager *****************
  5117 ;; Defined at:
  5118 ;;		line 58 in file "mcc_generated_files/interrupt_manager.c"
  5119 ;; Parameters:    Size  Location     Type
  5120 ;;		None
  5121 ;; Auto vars:     Size  Location     Type
  5122 ;;		None
  5123 ;; Return value:  Size  Location     Type
  5124 ;;                  1    wreg      void 
  5125 ;; Registers used:
  5126 ;;		wreg, pcl, pclath, pclatu, tosl, cstack
  5127 ;; Tracked objects:
  5128 ;;		On entry : 0/0
  5129 ;;		On exit  : 0/0
  5130 ;;		Unchanged: 0/0
  5131 ;; Data sizes:     COMRAM   BANK0   BANK1   BANK2   BANK3   BANK4   BANK5   BANK6   BANK7   BANK8   BANK9  BANK10  BANK1
      +1  BANK12  BANK13  BANK14
  5132 ;;      Params:         0       0       0       0       0       0       0       0       0       0       0       0       
      +0       0       0       0
  5133 ;;      Locals:         0       0       0       0       0       0       0       0       0       0       0       0       
      +0       0       0       0
  5134 ;;      Temps:          2       0       0       0       0       0       0       0       0       0       0       0       
      +0       0       0       0
  5135 ;;      Totals:         2       0       0       0       0       0       0       0       0       0       0       0       
      +0       0       0       0
  5136 ;;Total ram usage:        2 bytes
  5137 ;; Hardware stack levels used: 1
  5138 ;; Hardware stack levels required when called: 2
  5139 ;; This function calls:
  5140 ;;		_ECAN_WAKI_ISR
  5141 ;; This function is called by:
  5142 ;;		Interrupt level 2
  5143 ;; This function uses a non-reentrant model
  5144 ;;
  5145                           
  5146                           	psect	intcode
  5147  000008                     __pintcode:
  5148                           	callstack 0
  5149  000008                     _INTERRUPT_InterruptManager:
  5150                           	callstack 24
  5151                           
  5152                           ;incstack = 0
  5153  000008  825B               	bsf	int$flags,1,c	;set compiler interrupt flag (level 2)
  5154  00000A  CFFA F001          	movff	pclath,??_INTERRUPT_InterruptManager
  5155  00000E  CFFB F002          	movff	pclatu,??_INTERRUPT_InterruptManager+1
  5156  000012                     
  5157                           ;mcc_generated_files/interrupt_manager.c: 61:     if(INTCONbits.PEIE == 1)
  5158  000012  ACF2               	btfss	242,6,c	;volatile
  5159  000014  EF0E  F000         	goto	i2u96_41
  5160  000018  EF10  F000         	goto	i2u96_40
  5161  00001C                     i2u96_41:
  5162  00001C  EF20  F000         	goto	i2l496
  5163  000020                     i2u96_40:
  5164  000020                     
  5165                           ;mcc_generated_files/interrupt_manager.c: 62:     {;mcc_generated_files/interrupt_manage
      +                          r.c: 63:         if(PIE5bits.WAKIE == 1 && PIR5bits.WAKIF == 1)
  5166  000020  AC76               	btfss	118,6,c	;volatile
  5167  000022  EF15  F000         	goto	i2u97_41
  5168  000026  EF17  F000         	goto	i2u97_40
  5169  00002A                     i2u97_41:
  5170  00002A  EF20  F000         	goto	i2l496
  5171  00002E                     i2u97_40:
  5172  00002E  AC77               	btfss	119,6,c	;volatile
  5173  000030  EF1C  F000         	goto	i2u98_41
  5174  000034  EF1E  F000         	goto	i2u98_40
  5175  000038                     i2u98_41:
  5176  000038  EF20  F000         	goto	i2l496
  5177  00003C                     i2u98_40:
  5178  00003C                     
  5179                           ;mcc_generated_files/interrupt_manager.c: 64:         {;mcc_generated_files/interrupt_ma
      +                          nager.c: 65:             ECAN_WAKI_ISR();
  5180  00003C  EC19  F00C         	call	_ECAN_WAKI_ISR	;wreg free
  5181  000040                     i2l496:
  5182  000040  C002  FFFB         	movff	??_INTERRUPT_InterruptManager+1,pclatu
  5183  000044  C001  FFFA         	movff	??_INTERRUPT_InterruptManager,pclath
  5184  000048  925B               	bcf	int$flags,1,c	;clear compiler interrupt flag (level 2)
  5185  00004A  0011               	retfie		f
  5186  00004C                     __end_of_INTERRUPT_InterruptManager:
  5187                           	callstack 0
  5188                           
  5189 ;; *************** function _ECAN_WAKI_ISR *****************
  5190 ;; Defined at:
  5191 ;;		line 510 in file "mcc_generated_files/ecan.c"
  5192 ;; Parameters:    Size  Location     Type
  5193 ;;		None
  5194 ;; Auto vars:     Size  Location     Type
  5195 ;;		None
  5196 ;; Return value:  Size  Location     Type
  5197 ;;                  1    wreg      void 
  5198 ;; Registers used:
  5199 ;;		wreg, pcl, pclath, pclatu, tosl, cstack
  5200 ;; Tracked objects:
  5201 ;;		On entry : 0/0
  5202 ;;		On exit  : 0/0
  5203 ;;		Unchanged: 0/0
  5204 ;; Data sizes:     COMRAM   BANK0   BANK1   BANK2   BANK3   BANK4   BANK5   BANK6   BANK7   BANK8   BANK9  BANK10  BANK1
      +1  BANK12  BANK13  BANK14
  5205 ;;      Params:         0       0       0       0       0       0       0       0       0       0       0       0       
      +0       0       0       0
  5206 ;;      Locals:         0       0       0       0       0       0       0       0       0       0       0       0       
      +0       0       0       0
  5207 ;;      Temps:          0       0       0       0       0       0       0       0       0       0       0       0       
      +0       0       0       0
  5208 ;;      Totals:         0       0       0       0       0       0       0       0       0       0       0       0       
      +0       0       0       0
  5209 ;;Total ram usage:        0 bytes
  5210 ;; Hardware stack levels used: 1
  5211 ;; Hardware stack levels required when called: 1
  5212 ;; This function calls:
  5213 ;;		Absolute function
  5214 ;;		_WakeUpDefaultInterruptHandler
  5215 ;; This function is called by:
  5216 ;;		_INTERRUPT_InterruptManager
  5217 ;; This function uses a non-reentrant model
  5218 ;;
  5219                           
  5220                           	psect	text27
  5221  001832                     __ptext27:
  5222                           	callstack 0
  5223  001832                     _ECAN_WAKI_ISR:
  5224                           	callstack 24
  5225  001832                     
  5226                           ;mcc_generated_files/ecan.c: 512:     WakeUpInterruptHandler();
  5227  001832  D802               	call	i2u81_48
  5228  001834  EF26  F00C         	goto	i2u81_49
  5229  001838                     i2u81_48:
  5230  001838  0005               	push	
  5231  00183A  6EFA               	movwf	pclath,c
  5232  00183C  5047               	movf	_WakeUpInterruptHandler^0,w,c
  5233  00183E  6EFD               	movwf	tosl,c
  5234  001840  5048               	movf	(_WakeUpInterruptHandler+1)^0,w,c
  5235  001842  6EFE               	movwf	tosh,c
  5236  001844  50F8               	movf	tblptru,w,c
  5237  001846  6EFF               	movwf	tosu,c
  5238  001848  50FA               	movf	pclath,w,c
  5239  00184A  0012               	return		;indir
  5240  00184C                     i2u81_49:
  5241  00184C                     
  5242                           ;mcc_generated_files/ecan.c: 513:     PIR5bits.WAKIF = 0;
  5243  00184C  9C77               	bcf	119,6,c	;volatile
  5244  00184E  0012               	return		;funcret
  5245  001850                     __end_of_ECAN_WAKI_ISR:
  5246                           	callstack 0
  5247                           
  5248 ;; *************** function _WakeUpDefaultInterruptHandler *****************
  5249 ;; Defined at:
  5250 ;;		line 63 in file "mcc_generated_files/ecan.c"
  5251 ;; Parameters:    Size  Location     Type
  5252 ;;		None
  5253 ;; Auto vars:     Size  Location     Type
  5254 ;;		None
  5255 ;; Return value:  Size  Location     Type
  5256 ;;                  1    wreg      void 
  5257 ;; Registers used:
  5258 ;;		None
  5259 ;; Tracked objects:
  5260 ;;		On entry : 0/0
  5261 ;;		On exit  : 0/0
  5262 ;;		Unchanged: 0/0
  5263 ;; Data sizes:     COMRAM   BANK0   BANK1   BANK2   BANK3   BANK4   BANK5   BANK6   BANK7   BANK8   BANK9  BANK10  BANK1
      +1  BANK12  BANK13  BANK14
  5264 ;;      Params:         0       0       0       0       0       0       0       0       0       0       0       0       
      +0       0       0       0
  5265 ;;      Locals:         0       0       0       0       0       0       0       0       0       0       0       0       
      +0       0       0       0
  5266 ;;      Temps:          0       0       0       0       0       0       0       0       0       0       0       0       
      +0       0       0       0
  5267 ;;      Totals:         0       0       0       0       0       0       0       0       0       0       0       0       
      +0       0       0       0
  5268 ;;Total ram usage:        0 bytes
  5269 ;; Hardware stack levels used: 1
  5270 ;; This function calls:
  5271 ;;		Nothing
  5272 ;; This function is called by:
  5273 ;;		_ECAN_Initialize
  5274 ;;		_ECAN_WAKI_ISR
  5275 ;; This function uses a non-reentrant model
  5276 ;;
  5277                           
  5278                           	psect	text28
  5279  0018B2                     __ptext28:
  5280                           	callstack 0
  5281  0018B2                     _WakeUpDefaultInterruptHandler:
  5282                           	callstack 24
  5283  0018B2  0012               	return		;funcret
  5284  0018B4                     __end_of_WakeUpDefaultInterruptHandler:
  5285                           	callstack 0
  5286  0000                     
  5287                           	psect	text29
  5288  000000                     __ptext29:
  5289                           	callstack 0
  5290  000000                     
  5291                           	psect	rparam
  5292  0000                     
  5293                           	psect	temp
  5294  00005B                     btemp:
  5295                           	callstack 0
  5296  00005B                     	ds	1
  5297  0000                     int$flags	set	btemp
  5298  0000                     wtemp8	set	btemp+1
  5299  0000                     ttemp5	set	btemp+1
  5300  0000                     ttemp6	set	btemp+4
  5301  0000                     ttemp7	set	btemp+8
  5302                           
  5303                           	psect	idloc
  5304                           
  5305                           ;Config register IDLOC0 @ 0x200000
  5306                           ;	unspecified, using default values
  5307  200000                     	org	2097152
  5308  200000  FF                 	db	255
  5309                           
  5310                           ;Config register IDLOC1 @ 0x200001
  5311                           ;	unspecified, using default values
  5312  200001                     	org	2097153
  5313  200001  FF                 	db	255
  5314                           
  5315                           ;Config register IDLOC2 @ 0x200002
  5316                           ;	unspecified, using default values
  5317  200002                     	org	2097154
  5318  200002  FF                 	db	255
  5319                           
  5320                           ;Config register IDLOC3 @ 0x200003
  5321                           ;	unspecified, using default values
  5322  200003                     	org	2097155
  5323  200003  FF                 	db	255
  5324                           
  5325                           ;Config register IDLOC4 @ 0x200004
  5326                           ;	unspecified, using default values
  5327  200004                     	org	2097156
  5328  200004  FF                 	db	255
  5329                           
  5330                           ;Config register IDLOC5 @ 0x200005
  5331                           ;	unspecified, using default values
  5332  200005                     	org	2097157
  5333  200005  FF                 	db	255
  5334                           
  5335                           ;Config register IDLOC6 @ 0x200006
  5336                           ;	unspecified, using default values
  5337  200006                     	org	2097158
  5338  200006  FF                 	db	255
  5339                           
  5340                           ;Config register IDLOC7 @ 0x200007
  5341                           ;	unspecified, using default values
  5342  200007                     	org	2097159
  5343  200007  FF                 	db	255
  5344                           
  5345                           	psect	config
  5346                           
  5347                           ;Config register CONFIG1L @ 0x300000
  5348                           ;	VREG Sleep Enable bit
  5349                           ;	RETEN = OFF, Ultra low-power regulator is Disabled (Controlled by REGSLP bit)
  5350                           ;	LF-INTOSC Low-power Enable bit
  5351                           ;	INTOSCSEL = HIGH, LF-INTOSC in High-power mode during Sleep
  5352                           ;	SOSC Power Selection and mode Configuration bits
  5353                           ;	SOSCSEL = DIG, Digital (SCLKI) mode
  5354                           ;	Extended Instruction Set
  5355                           ;	XINST = OFF, Disabled
  5356  300000                     	org	3145728
  5357  300000  15                 	db	21
  5358                           
  5359                           ;Config register CONFIG1H @ 0x300001
  5360                           ;	Oscillator
  5361                           ;	FOSC = HS2, HS oscillator (High power, 16 MHz - 25 MHz)
  5362                           ;	PLL x4 Enable bit
  5363                           ;	PLLCFG = OFF, Disabled
  5364                           ;	Fail-Safe Clock Monitor
  5365                           ;	FCMEN = OFF, Disabled
  5366                           ;	Internal External Oscillator Switch Over Mode
  5367                           ;	IESO = OFF, Disabled
  5368  300001                     	org	3145729
  5369  300001  02                 	db	2
  5370                           
  5371                           ;Config register CONFIG2L @ 0x300002
  5372                           ;	Power Up Timer
  5373                           ;	PWRTEN = OFF, Disabled
  5374                           ;	Brown Out Detect
  5375                           ;	BOREN = SBORDIS, Enabled in hardware, SBOREN disabled
  5376                           ;	Brown-out Reset Voltage bits
  5377                           ;	BORV = 3, 1.8V
  5378                           ;	BORMV Power level
  5379                           ;	BORPWR = ZPBORMV, ZPBORMV instead of BORMV is selected
  5380  300002                     	org	3145730
  5381  300002  7F                 	db	127
  5382                           
  5383                           ;Config register CONFIG2H @ 0x300003
  5384                           ;	Watchdog Timer
  5385                           ;	WDTEN = OFF, WDT disabled in hardware; SWDTEN bit disabled
  5386                           ;	Watchdog Postscaler
  5387                           ;	WDTPS = 1048576, 1:1048576
  5388  300003                     	org	3145731
  5389  300003  7C                 	db	124
  5390                           
  5391                           ; Padding undefined space
  5392  300004                     	org	3145732
  5393  300004  FF                 	db	255
  5394                           
  5395                           ;Config register CONFIG3H @ 0x300005
  5396                           ;	ECAN Mux bit
  5397                           ;	CANMX = PORTB, ECAN TX and RX pins are located on RB2 and RB3, respectively
  5398                           ;	MSSP address masking
  5399                           ;	MSSPMSK = MSK7, 7 Bit address masking mode
  5400                           ;	Master Clear Enable
  5401                           ;	MCLRE = ON, MCLR Enabled, RE3 Disabled
  5402  300005                     	org	3145733
  5403  300005  89                 	db	137
  5404                           
  5405                           ;Config register CONFIG4L @ 0x300006
  5406                           ;	Stack Overflow Reset
  5407                           ;	STVREN = ON, Enabled
  5408                           ;	Boot Block Size
  5409                           ;	BBSIZ = BB2K, 2K word Boot Block size
  5410  300006                     	org	3145734
  5411  300006  91                 	db	145
  5412                           
  5413                           ; Padding undefined space
  5414  300007                     	org	3145735
  5415  300007  FF                 	db	255
  5416                           
  5417                           ;Config register CONFIG5L @ 0x300008
  5418                           ;	Code Protect 00800-03FFF
  5419                           ;	CP0 = OFF, Disabled
  5420                           ;	Code Protect 04000-07FFF
  5421                           ;	CP1 = OFF, Disabled
  5422                           ;	Code Protect 08000-0BFFF
  5423                           ;	CP2 = OFF, Disabled
  5424                           ;	Code Protect 0C000-0FFFF
  5425                           ;	CP3 = OFF, Disabled
  5426  300008                     	org	3145736
  5427  300008  0F                 	db	15
  5428                           
  5429                           ;Config register CONFIG5H @ 0x300009
  5430                           ;	Code Protect Boot
  5431                           ;	CPB = OFF, Disabled
  5432                           ;	Data EE Read Protect
  5433                           ;	CPD = OFF, Disabled
  5434  300009                     	org	3145737
  5435  300009  C0                 	db	192
  5436                           
  5437                           ;Config register CONFIG6L @ 0x30000A
  5438                           ;	Table Write Protect 00800-03FFF
  5439                           ;	WRT0 = OFF, Disabled
  5440                           ;	Table Write Protect 04000-07FFF
  5441                           ;	WRT1 = OFF, Disabled
  5442                           ;	Table Write Protect 08000-0BFFF
  5443                           ;	WRT2 = OFF, Disabled
  5444                           ;	Table Write Protect 0C000-0FFFF
  5445                           ;	WRT3 = OFF, Disabled
  5446  30000A                     	org	3145738
  5447  30000A  0F                 	db	15
  5448                           
  5449                           ;Config register CONFIG6H @ 0x30000B
  5450                           ;	Config. Write Protect
  5451                           ;	WRTC = OFF, Disabled
  5452                           ;	Table Write Protect Boot
  5453                           ;	WRTB = OFF, Disabled
  5454                           ;	Data EE Write Protect
  5455                           ;	WRTD = OFF, Disabled
  5456  30000B                     	org	3145739
  5457  30000B  E0                 	db	224
  5458                           
  5459                           ;Config register CONFIG7L @ 0x30000C
  5460                           ;	Table Read Protect 00800-03FFF
  5461                           ;	EBTR0 = OFF, Disabled
  5462                           ;	Table Read Protect 04000-07FFF
  5463                           ;	EBTR1 = OFF, Disabled
  5464                           ;	Table Read Protect 08000-0BFFF
  5465                           ;	EBTR2 = OFF, Disabled
  5466                           ;	Table Read Protect 0C000-0FFFF
  5467                           ;	EBTR3 = OFF, Disabled
  5468  30000C                     	org	3145740
  5469  30000C  0F                 	db	15
  5470                           
  5471                           ;Config register CONFIG7H @ 0x30000D
  5472                           ;	Table Read Protect Boot
  5473                           ;	EBTRB = OFF, Disabled
  5474  30000D                     	org	3145741
  5475  30000D  40                 	db	64
  5476                           tosu	equ	0xFFF
  5477                           tosh	equ	0xFFE
  5478                           tosl	equ	0xFFD
  5479                           stkptr	equ	0xFFC
  5480                           pclatu	equ	0xFFB
  5481                           pclath	equ	0xFFA
  5482                           pcl	equ	0xFF9
  5483                           tblptru	equ	0xFF8
  5484                           tblptrh	equ	0xFF7
  5485                           tblptrl	equ	0xFF6
  5486                           tablat	equ	0xFF5
  5487                           prodh	equ	0xFF4
  5488                           prodl	equ	0xFF3
  5489                           indf0	equ	0xFEF
  5490                           postinc0	equ	0xFEE
  5491                           postdec0	equ	0xFED
  5492                           preinc0	equ	0xFEC
  5493                           plusw0	equ	0xFEB
  5494                           fsr0h	equ	0xFEA
  5495                           fsr0l	equ	0xFE9
  5496                           wreg	equ	0xFE8
  5497                           indf1	equ	0xFE7
  5498                           postinc1	equ	0xFE6
  5499                           postdec1	equ	0xFE5
  5500                           preinc1	equ	0xFE4
  5501                           plusw1	equ	0xFE3
  5502                           fsr1h	equ	0xFE2
  5503                           fsr1l	equ	0xFE1
  5504                           bsr	equ	0xFE0
  5505                           indf2	equ	0xFDF
  5506                           postinc2	equ	0xFDE
  5507                           postdec2	equ	0xFDD
  5508                           preinc2	equ	0xFDC
  5509                           plusw2	equ	0xFDB
  5510                           fsr2h	equ	0xFDA
  5511                           fsr2l	equ	0xFD9
  5512                           status	equ	0xFD8

Data Sizes:
    Strings     0
    Constant    0
    Data        4
    BSS         204
    Persistent  0
    Stack       0

Auto Spaces:
    Space          Size  Autos    Used
    COMRAM           94     64      90
    BANK0           160      0     154
    BANK1           256      0      28
    BANK2           256      0       0
    BANK3           256      0       0
    BANK4           256      0       0
    BANK5           256      0       0
    BANK6           256      0       0
    BANK7           256      0       0
    BANK8           256      0       0
    BANK9           256      0       0
    BANK10          256      0       0
    BANK11          256      0       0
    BANK12          256      0       0
    BANK13          256      0       0
    BANK14           65      0       0

Pointer List with Targets:

    ADC_InterruptHandler	PTR FTN()void  size(2) Largest target is 1
		 -> Absolute function(), 

    ECAN_SetWakeUpInterruptHandler@handler	PTR FTN()void  size(2) Largest target is 1
		 -> WakeUpDefaultInterruptHandler(), 

    WakeUpInterruptHandler	PTR FTN()void  size(2) Largest target is 1
		 -> Absolute function(), WakeUpDefaultInterruptHandler(), 

    convertCANid2Reg@passedInSIDH	PTR unsigned char  size(2) Largest target is 1
		 -> CAN_transmit@tempSIDH(COMRAM[1]), 

    convertCANid2Reg@passedInSIDL	PTR unsigned char  size(2) Largest target is 1
		 -> CAN_transmit@tempSIDL(COMRAM[1]), 

    convertCANid2Reg@passedInEIDH	PTR unsigned char  size(2) Largest target is 1
		 -> CAN_transmit@tempEIDH(COMRAM[1]), 

    convertCANid2Reg@passedInEIDL	PTR unsigned char  size(2) Largest target is 1
		 -> CAN_transmit@tempEIDL(COMRAM[1]), 

    CAN_transmit@tempCanMsg	PTR struct . size(2) Largest target is 14
		 -> tx21(BANK0[14]), tx20(BANK0[14]), tx8(BANK0[14]), tx7(BANK0[14]), 
		 -> tx6(BANK0[14]), tx5(BANK0[14]), tx4(BANK0[14]), tx3(BANK0[14]), 
		 -> tx2(BANK0[14]), tx1(BANK0[14]), tx10(COMRAM[14]), 


Critical Paths under _main in COMRAM

    _main->_start_up_seq
    _start_up_seq->_ADC_Conv_pinNine
    _start_up_seq->_ADC_Conv_pinSeven
    _canbus_msg_startupfail->_CAN_transmit
    _canbus_msg_motor->_CAN_transmit
    _canbus_motor_rearL_tx->_CAN_transmit
    _ADC_Conv_pinSeven->___flmul
    _ADC_Conv_pinNine->___flmul
    _highOrlow->___flge
    ___xxtofl->_ADC_GetConversion
    ___flmul->___fldiv
    _e_stop_seq->_canbus_msg_bps
    _canbus_msg_bps->_CAN_transmit
    _canbus_shutdown_success->_CAN_transmit
    _CAN_transmit->_convertCANid2Reg
    _SYSTEM_Initialize->_ECAN_Initialize
    _ECAN_Initialize->_ECAN_SetWakeUpInterruptHandler

Critical Paths under _INTERRUPT_InterruptManager in COMRAM

    None.

Critical Paths under _main in BANK0

    None.

Critical Paths under _INTERRUPT_InterruptManager in BANK0

    None.

Critical Paths under _main in BANK1

    None.

Critical Paths under _INTERRUPT_InterruptManager in BANK1

    None.

Critical Paths under _main in BANK2

    None.

Critical Paths under _INTERRUPT_InterruptManager in BANK2

    None.

Critical Paths under _main in BANK3

    None.

Critical Paths under _INTERRUPT_InterruptManager in BANK3

    None.

Critical Paths under _main in BANK4

    None.

Critical Paths under _INTERRUPT_InterruptManager in BANK4

    None.

Critical Paths under _main in BANK5

    None.

Critical Paths under _INTERRUPT_InterruptManager in BANK5

    None.

Critical Paths under _main in BANK6

    None.

Critical Paths under _INTERRUPT_InterruptManager in BANK6

    None.

Critical Paths under _main in BANK7

    None.

Critical Paths under _INTERRUPT_InterruptManager in BANK7

    None.

Critical Paths under _main in BANK8

    None.

Critical Paths under _INTERRUPT_InterruptManager in BANK8

    None.

Critical Paths under _main in BANK9

    None.

Critical Paths under _INTERRUPT_InterruptManager in BANK9

    None.

Critical Paths under _main in BANK10

    None.

Critical Paths under _INTERRUPT_InterruptManager in BANK10

    None.

Critical Paths under _main in BANK11

    None.

Critical Paths under _INTERRUPT_InterruptManager in BANK11

    None.

Critical Paths under _main in BANK12

    None.

Critical Paths under _INTERRUPT_InterruptManager in BANK12

    None.

Critical Paths under _main in BANK13

    None.

Critical Paths under _INTERRUPT_InterruptManager in BANK13

    None.

Critical Paths under _main in BANK14

    None.

Critical Paths under _INTERRUPT_InterruptManager in BANK14

    None.

Call Graph Tables:

 ---------------------------------------------------------------------------------
 (Depth) Function   	        Calls       Base Space   Used Autos Params    Refs
 ---------------------------------------------------------------------------------
 (0) _main                                                 0     0      0   66040
                   _ADC_Conv_pinNine
                  _ADC_Conv_pinSeven
                       _CAN_transmit
                  _SYSTEM_Initialize
            _canbus_shutdown_success
                         _e_stop_seq
                       _start_up_seq
 ---------------------------------------------------------------------------------
 (1) _start_up_seq                                         2     2      0   35082
                                             62 COMRAM     2     2      0
                   _ADC_Conv_pinNine
                  _ADC_Conv_pinSeven
                       _CAN_transmit
              _canbus_motor_rearL_tx
                   _canbus_msg_motor
             _canbus_msg_startupfail
                           _undo_seq
 ---------------------------------------------------------------------------------
 (2) _undo_seq                                             1     1      0       0
                                              2 COMRAM     1     1      0
 ---------------------------------------------------------------------------------
 (2) _canbus_msg_startupfail                               2     0      2    4222
                                             26 COMRAM     2     0      2
                       _CAN_transmit
 ---------------------------------------------------------------------------------
 (2) _canbus_msg_motor                                     2     0      2    4222
                                             26 COMRAM     2     0      2
                       _CAN_transmit
 ---------------------------------------------------------------------------------
 (2) _canbus_motor_rearL_tx                                2     0      2    4222
                                             26 COMRAM     2     0      2
                       _CAN_transmit
 ---------------------------------------------------------------------------------
 (2) _ADC_Conv_pinSeven                                   10     8      2    9146
                                             52 COMRAM    10     8      2
                  _ADC_GetConversion
                       _CAN_transmit
                            ___fldiv
                            ___flmul
                           ___xxtofl
                          _highOrlow
 ---------------------------------------------------------------------------------
 (2) _ADC_Conv_pinNine                                    10     8      2    9146
                                             52 COMRAM    10     8      2
                  _ADC_GetConversion
                       _CAN_transmit
                            ___fldiv
                            ___flmul
                           ___xxtofl
                          _highOrlow
 ---------------------------------------------------------------------------------
 (3) _highOrlow                                            6     2      4     684
                                             14 COMRAM     6     2      4
                             ___flge
 ---------------------------------------------------------------------------------
 (4) ___flge                                              12     4      8     334
                                              2 COMRAM    12     4      8
 ---------------------------------------------------------------------------------
 (3) ___xxtofl                                            14    10      4     474
                                              7 COMRAM    14    10      4
                  _ADC_GetConversion (ARG)
 ---------------------------------------------------------------------------------
 (3) ___flmul                                             25    17      8    2200
                                             27 COMRAM    25    17      8
                            ___fldiv (ARG)
 ---------------------------------------------------------------------------------
 (3) ___fldiv                                             25    17      8    1551
                                              2 COMRAM    25    17      8
 ---------------------------------------------------------------------------------
 (3) _ADC_GetConversion                                    5     3      2      22
                                              2 COMRAM     5     3      2
 ---------------------------------------------------------------------------------
 (1) _e_stop_seq                                           0     0      0    4222
                     _canbus_msg_bps
 ---------------------------------------------------------------------------------
 (2) _canbus_msg_bps                                       2     0      2    4222
                                             26 COMRAM     2     0      2
                       _CAN_transmit
 ---------------------------------------------------------------------------------
 (1) _canbus_shutdown_success                              2     0      2    4222
                                             26 COMRAM     2     0      2
                       _CAN_transmit
 ---------------------------------------------------------------------------------
 (3) _CAN_transmit                                         7     5      2    4124
                                             20 COMRAM     6     4      2
                   _convertCANid2Reg
 ---------------------------------------------------------------------------------
 (4) _convertCANid2Reg                                    18     5     13    1928
                                              2 COMRAM    18     5     13
 ---------------------------------------------------------------------------------
 (1) _SYSTEM_Initialize                                    0     0      0      98
                     _ADC_Initialize
                    _ECAN_Initialize
               _INTERRUPT_Initialize
              _OSCILLATOR_Initialize
             _PIN_MANAGER_Initialize
 ---------------------------------------------------------------------------------
 (2) _PIN_MANAGER_Initialize                               0     0      0       0
 ---------------------------------------------------------------------------------
 (2) _OSCILLATOR_Initialize                                0     0      0       0
 ---------------------------------------------------------------------------------
 (2) _INTERRUPT_Initialize                                 0     0      0       0
 ---------------------------------------------------------------------------------
 (2) _ECAN_Initialize                                      1     1      0      98
                                              4 COMRAM     1     1      0
     _ECAN_SetWakeUpInterruptHandler
 ---------------------------------------------------------------------------------
 (3) _ECAN_SetWakeUpInterruptHandler                       2     0      2      98
                                              2 COMRAM     2     0      2
 ---------------------------------------------------------------------------------
 (2) _ADC_Initialize                                       0     0      0       0
 ---------------------------------------------------------------------------------
 Estimated maximum stack depth 4
 ---------------------------------------------------------------------------------
 (Depth) Function   	        Calls       Base Space   Used Autos Params    Refs
 ---------------------------------------------------------------------------------
 (5) _INTERRUPT_InterruptManager                           2     2      0       0
                                              0 COMRAM     2     2      0
                      _ECAN_WAKI_ISR
 ---------------------------------------------------------------------------------
 (6) _ECAN_WAKI_ISR                                        0     0      0       0
                   Absolute function *
      _WakeUpDefaultInterruptHandler *
 ---------------------------------------------------------------------------------
 (7) _WakeUpDefaultInterruptHandler                        0     0      0       0
 ---------------------------------------------------------------------------------
 (7) Absolute function(Fake)                               0     0      0       0
 ---------------------------------------------------------------------------------
 Estimated maximum stack depth 7
 ---------------------------------------------------------------------------------

 Call Graph Graphs:

 _main (ROOT)
   _ADC_Conv_pinNine
     _ADC_GetConversion
     _CAN_transmit
       _convertCANid2Reg
     ___fldiv
     ___flmul
       ___fldiv (ARG)
     ___xxtofl
       _ADC_GetConversion (ARG)
     _highOrlow
       ___flge
   _ADC_Conv_pinSeven
     _ADC_GetConversion
     _CAN_transmit
     ___fldiv
     ___flmul
     ___xxtofl
     _highOrlow
   _CAN_transmit
   _SYSTEM_Initialize
     _ADC_Initialize
     _ECAN_Initialize
       _ECAN_SetWakeUpInterruptHandler
     _INTERRUPT_Initialize
     _OSCILLATOR_Initialize
     _PIN_MANAGER_Initialize
   _canbus_shutdown_success
     _CAN_transmit
   _e_stop_seq
     _canbus_msg_bps
       _CAN_transmit
   _start_up_seq
     _ADC_Conv_pinNine
     _ADC_Conv_pinSeven
     _CAN_transmit
     _canbus_motor_rearL_tx
       _CAN_transmit
     _canbus_msg_motor
       _CAN_transmit
     _canbus_msg_startupfail
       _CAN_transmit
     _undo_seq

 _INTERRUPT_InterruptManager (ROOT)
   _ECAN_WAKI_ISR
     Absolute function(Fake) *
     _WakeUpDefaultInterruptHandler *

 Address spaces:
Name               Size   Autos  Total    Cost      Usage
BIGRAM             E40      0       0      54        0.0%
EEDATA             400      0       0       0        0.0%
BITBANK13          100      0       0      53        0.0%
BANK13             100      0       0      22        0.0%
BITBANK12          100      0       0      52        0.0%
BANK12             100      0       0      21        0.0%
BITBANK11          100      0       0      51        0.0%
BANK11             100      0       0      20        0.0%
BITBANK10          100      0       0      50        0.0%
BANK10             100      0       0      19        0.0%
BITBANK9           100      0       0      49        0.0%
BANK9              100      0       0      18        0.0%
BITBANK8           100      0       0      48        0.0%
BANK8              100      0       0      17        0.0%
BITBANK7           100      0       0      47        0.0%
BANK7              100      0       0      16        0.0%
BITBANK6           100      0       0      46        0.0%
BANK6              100      0       0      15        0.0%
BITBANK5           100      0       0      45        0.0%
BANK5              100      0       0      14        0.0%
BITBANK4           100      0       0      12        0.0%
BANK4              100      0       0      13        0.0%
BITBANK3           100      0       0      10        0.0%
BANK3              100      0       0      11        0.0%
BITBANK2           100      0       0       8        0.0%
BANK2              100      0       0       9        0.0%
BITBANK1           100      0       0       6        0.0%
BANK1              100      0      1C       7       10.9%
BITBANK0            A0      0       0       4        0.0%
BANK0               A0      0      9A       5       96.2%
BITBIGSFRlllhll     62      0       0      41        0.0%
BITCOMRAM           5E      0       0       0        0.0%
COMRAM              5E     40      5A       1       95.7%
BITBANK14           41      0       0      23        0.0%
BANK14              41      0       0      24        0.0%
BITBIGSFRhhllhl     24      0       0      29        0.0%
BITBIGSFRlllhhh     1D      0       0      37        0.0%
BITBIGSFRhhlh       1D      0       0      26        0.0%
BITBIGSFRhhh         D      0       0      25        0.0%
BITBIGSFRhhllhl      B      0       0      28        0.0%
BITBIGSFRllhhhh      8      0       0      34        0.0%
BITBIGSFRllhhhh      6      0       0      32        0.0%
BITBIGSFRhll         4      0       0      31        0.0%
BITBIGSFRllhhhl      3      0       0      35        0.0%
BITBIGSFRhhlll       3      0       0      30        0.0%
BITBIGSFRlllhhh      2      0       0      40        0.0%
BITBIGSFRlllhhh      2      0       0      39        0.0%
BITBIGSFRlllhhh      2      0       0      38        0.0%
BITBIGSFRllhll       2      0       0      36        0.0%
BITBIGSFRllllll      2      0       0      43        0.0%
BITBIGSFRllhhhh      1      0       0      33        0.0%
BITBIGSFRhhllhh      1      0       0      27        0.0%
BITBIGSFRllllhl      1      0       0      42        0.0%
BIGSFR               0      0       0     200        0.0%
BITSFR_2             0      0       0     200        0.0%
SFR_2                0      0       0     200        0.0%
BITSFR_1             0      0       0     200        0.0%
SFR_1                0      0       0     200        0.0%
BITSFR               0      0       0     200        0.0%
SFR                  0      0       0     200        0.0%
STACK                0      0       0       2        0.0%
NULL                 0      0       0       0        0.0%
ABS                  0      0     110      44        0.0%
DATA                 0      0     110       3        0.0%
CODE                 0      0       0       0        0.0%


Microchip Technology PIC18 Macro Assembler V2.36 build 20220127204148 
Symbol Table                                                                                   Sat Aug 19 15:22:08 2023

                          ___fldiv@aexp 001B                            ___fldiv@bexp 001A  
                          ___fldiv@sign 0013                                      l33 1754  
                                    l60 189E                                      l57 1864  
                                    _rx 0060                                     l430 0B2C  
                                   l416 0E86                                     l425 0928  
                                   l426 0B2C                                     l610 1804  
                                   l530 171E                                     l515 187A  
                                   l427 0A2A                                     l700 188C  
                                   l604 17AC                                     l622 17D8  
                                   l471 18A8                                     l527 16FE  
                                   l607 1780                                     l632 104A  
                                   l641 10AA                                     l650 110A  
                                   l626 100A                                     l619 1830  
                                   l635 106A                                     l468 0FFA  
                                   l644 10CA                                     l716 163C  
                                   l653 112A                                     l629 102A  
                                   l638 108A                                     l662 14C0  
                                   l487 18B0                                     l647 10EA  
                                   l671 14F4                                     l656 114A  
                                   l664 14C2                                     l593 1280  
                                   l673 14F6                                     l658 115C  
                                   l682 1528                                     l667 14F0  
                                   l588 16E4                                     l684 152A  
                                   l669 14F2                                     l693 15A0  
                                   l598 13A4                                     l678 150C  
                                   l689 1548                                     l990 1462  
                                   l995 14A8   ECAN_SetWakeUpInterruptHandler@handler 0003  
                                   _tx1 00EC                                     _tx2 00DE  
                                   _tx3 00D0                                     _tx4 00C2  
                                   _tx5 00B4                                     _tx6 00A6  
                                   _tx7 0098                                     _tx8 008A  
                                   _tx9 010E                                     tosl 000FFD  
                                   wreg 000FE8                            ___flmul@aexp 002D  
                          ___flmul@bexp 002E                            ___flmul@sign 0028  
                          ___flmul@temp 0033                            ___flmul@prod 002F  
                                  l1320 0730                                    l1312 0636  
                                  l3000 14F8                                    l1321 071E  
                                  l3002 1508                                    l1307 0812  
                                  l3020 155A                                    l3012 152C  
                                  l3004 150A                                    l1309 0672  
                                  l1318 06B8                                    l3030 1580  
                                  l3022 1562                                    l3014 1544  
                                  l3006 151C                                    l1343 0478  
                                  l2400 08A2                                    l3040 188A  
                                  l3024 1568                                    l3016 1546  
                                  l3032 1590                                    l2330 0E9A  
                                  l2410 08F2                                    l2402 08B2  
                                  l1346 030A                                    l3034 1594  
                                  l3026 1578                                    l3018 1558  
                                  l1339 0114                                    l2340 0F46  
                                  l2332 0EA6                                    l2420 0936  
                                  l2412 0902                                    l2404 08C2  
                                  l3036 187C                                    l1356 043A  
                                  l1348 0382                                    l1380 0B84  
                                  l2500 16D4                                    l3028 157C  
                                  l3060 15A6                                    l1349 0370  
                                  l2342 0F4E                                    l2334 0ED4  
                                  l2350 0FA0                                    l2326 0E88  
                                  l2430 0992                                    l2422 0982  
                                  l2414 0912                                    l2406 08D2  
                                  l3038 1888                                    l2510 0494  
                                  l2502 16DC                                    l3070 15D2  
                                  l3062 15AE                                    l1383 0CE0  
                                  l2352 0FB8                                    l2344 0F54  
                                  l2336 0F0E                                    l2328 0E88  
                                  l2440 09E4                                    l2432 09A4  
                                  l2424 0986                                    l2416 0922  
                                  l2408 08E2                                    l2600 06C8  
                                  l2520 04C8                                    l2512 0496  
                                  l2360 13A6                                    l3072 15DE  
                                  l3064 15B4                                    l2354 0FEA  
                                  l2346 0F62                                    l2338 0F14  
                                  l2442 09F4                                    l2434 09B4  
                                  l2426 098A                                    l2418 0924  
                                  l2602 06D6                                    l2530 04FA  
                                  l2514 04A6                                    l2522 04D0  
                                  l2506 047A                                    l1394 0C78  
                                  l2370 1430                                    l2362 13D4  
                                  l3082 161E                                    l3074 15F0  
                                  l3066 15C4                                    l3058 15A2  
                                  l1387 0C1C                                    l2348 0F90  
                                  l2460 0A90                                    l2452 0A38  
                                  l2444 0A04                                    l2436 09C4  
                                  l2428 098E                                    l2612 0740  
                                  l2620 0788                                    l2604 06DA  
                                  l2540 052E                                    l2532 04FC  
                                  l2524 04E0                                    l2516 04B6  
                                  l2508 0486                                    l2700 01BE  
                                  l2372 1442                                    l2364 13E4  
                                  l3084 1634                                    l3076 15F8  
                                  l3068 15C8                                    l2382 18A0  
                                  l2470 0AD6                                    l2462 0A94  
                                  l2454 0A84                                    l2446 0A14  
                                  l2438 09D4                                    l2390 0880  
                                  l2630 07F2                                    l2622 07A2  
                                  l2614 074C                                    l2606 06E8  
                                  l2550 0574                                    l2534 050C  
                                  l2542 0536                                    l2526 04E6  
                                  l2518 04C6                                    l2710 0210  
                                  l2702 01CA                                    l2374 1450  
                                  l2366 1412                                    l3078 160E  
                                  l2480 0B26                                    l2472 0AE6  
                                  l2464 0AA6                                    l2456 0A88  
                                  l2448 0A24                                    l2392 0884  
                                  l2384 0814                                    l2632 0800  
                                  l2624 07B8                                    l2616 075A  
                                  l2608 0716                                    l2560 059C  
                                  l2552 0578                                    l2544 0546  
                                  l2536 051C                                    l2528 04EC  
                                  l2720 028E                                    l2712 0220  
                                  l2704 01DA                                    l2800 0C5A  
                                  l2376 14A0                                    l2368 1422  
                                  l2474 0AF6                                    l2466 0AB6  
                                  l2458 0A8C                                    l2394 0888  
                                  l2386 0824                                    l2490 16FC  
                                  l2634 0806                                    l2626 07D2  
                                  l2618 0784                                    l2570 05EA  
                                  l2546 055C                                    l2538 052C  
                                  l2730 0308                                    l2722 02C4  
                                  l2714 023C                                    l2706 01E6  
                                  l2650 006C                                    l2810 0CB0  
                                  l2802 0C68                                    l2378 14A6  
                                  l2820 1720                                    l2476 0B06  
                                  l2468 0AC6                                    l2396 088C  
                                  l2388 0834                                    l2492 170C  
                                  l2636 0808                                    l2628 07EE  
                                  l2580 0634                                    l2572 05FA  
                                  l2564 05B0                                    l2548 056C  
                                  l2556 058C                                    l2740 0368  
                                  l2732 031A                                    l2724 02D2  
                                  l2716 0248                                    l2708 01F6  
                                  l2660 00B2                                    l2652 007C  
                                  l2644 0050                                    l2812 0CC0  
                                  l2804 0C86                                    l2900 179C  
                                  l2830 188E                                    l2822 1744  
                                  l2478 0B16                                    l2398 0890  
                                  l2910 17DA                                    l2486 16E8  
                                  l2590 0682                                    l2582 0640  
                                  l2574 0602                                    l2566 05CA  
                                  l2558 059C                                    l2750 03D6  
                                  l2734 0328                                    l2726 02F0  
                                  l2718 0264                                    l2670 00DE  
                                  l2662 00B8                                    l2654 008C  
                                  l2646 005C                                    l2814 0CCE  
                                  l2806 0C88                                    l2902 17A0  
                                  l2832 1866                                    l2840 0D08  
                                  l2824 1746                                    l2912 17F4  
                                  l2488 16FA                                    l2592 0698  
                                  l2584 065E                                    l2576 0612  
                                  l2568 05DA                                    l2760 043E  
                                  l2744 0392                                    l2752 03DA  
                                  l2736 032C                                    l2728 02FA  
                                  l2680 0134                                    l2672 00EE  
                                  l2664 00BE                                    l2656 009C  
                                  l2648 006A                                    l2816 0CD0  
                                  l2808 0C8C                                    l2496 1696  
                                  l2920 17CC                                    l2904 1756  
                                  l2850 0E46                                    l2842 0D0A  
                                  l2834 0CE2                                    l2826 1752  
                                  l2914 17F8                                    l2594 069E  
                                  l2586 0660                                    l2578 0626  
                                  l2770 0468                                    l2762 044E  
                                  l2754 03F4                                    l2746 039E  
                                  l2738 033A                                    l2690 0174  
                                  l2674 00FE                                    l2666 00CC  
                                  l2658 00A2                                    l2498 16C8  
                                  l2906 1770                                    l2930 103C  
                                  l2922 0FFC                                    l2860 0E6A  
                                  l2852 0E48                                    l2844 0D14  
                                  l2836 0CE6                                    l2828 18AE  
                                  l2596 06A8                                    l2588 0670  
                                  l2764 045C                                    l2756 0408  
                                  l2748 03AC                                    l2692 0180  
                                  l2684 0148                                    l2676 0104  
                                  l2668 00CE                                    l2780 0B94  
                                  l2916 17AE                                    l2908 1774  
                                  l2940 108C                                    l2932 104C  
                                  l2924 100C                                    l2862 0E6C  
                                  l2854 0E4A                                    l2846 0D16  
                                  l2838 0CFA                                    l2598 06B6  
                                  l2766 045E                                    l2758 0422  
                                  l2694 0198                                    l2686 0154  
                                  l2678 0124                                    l2790 0BD2  
                                  l2782 0BAA                                    l2774 0B30  
                                  l2870 11DE                                    l2918 17C8  
                                  l2950 10DC                                    l2942 109C  
                                  l2934 105C                                    l2926 101C  
                                  l2864 0E70                                    l2856 0E5C  
                                  l2848 0D18                                    l2768 0464  
                                  l2696 01A4                                    l2688 015E  
                                  l2792 0C04                                    l2776 0B40  
                                  l2960 112C                                    l2952 10EC  
                                  l2944 10AC                                    l2936 106C  
                                  l2928 102C                                    l2858 0E68  
                                  l2970 1858                                    l2698 01B0  
                                  l2794 0C06                                    l2786 0BBE  
                                  l2778 0B4E                                    l2890 1360  
                                  l2882 1282                                    l2874 123C  
                                  l2866 115E                                    l2962 113C  
                                  l2954 10FC                                    l2946 10BC  
                                  l2938 107C                                    l2972 185C  
                                  l2796 0C12                                    l2788 0BC6  
                                  l2892 137C                                    l2884 12AA  
                                  l2876 1258                                    l2868 1186  
                                  l2964 114C                                    l2956 110C  
                                  l2948 10CC                                    l2974 1860  
                                  l2966 1850                                    l2990 1820  
                                  l2798 0C4E                                    l2894 1388  
                                  l2886 1302                                    l2878 1264  
                                  l2958 111C                                    l2968 1854  
                                  l2992 1824                                    l2898 1782  
                                  l2994 14AA                                    l2988 1806  
                                  l2996 14C4           ADC_Conv_pinNine@input_voltage 0037  
                                  l2998 14DA                  _canbus_msg_startupfail 1756  
                                  u1100 1430                                    u1101 142C  
                                  u1110 1450                                    u1111 144C  
                                  u1200 04B6                                    u1120 14A0  
                                  u1201 04B2                                    u1121 149C  
                                  u1050 0E9A                                    u1130 0834  
                                  u1210 04FA                                    u1051 0E96  
                                  u1131 0830                                    u1211 04F6  
                                  u1140 0936                                    u1300 0698  
                                  u1220 050C                                    u1141 0932  
                                  u1301 0694                                    u1221 0508  
                                  u1150 0A38                                    u1310 06B6  
                                  u1230 051C                                    u1151 0A34  
                                  u1311 06B2                                    u1231 0518  
                                  u2007 1052                                    u1160 170C  
                                  u1400 0800                                    u1320 06D6  
                                  u1240 055C                                    u1080 13D4  
                                  u1065 0F26                                    u1161 1708  
                                  u1401 07FC                                    u1321 06D2  
                                  u1241 0558                                    u1081 13D0  
                                  u2017 1072                                    u1330 06E8  
                                  u1250 059C                                    u1410 006A  
                                  u1090 1412                                    u1170 16C8  
                                  u1075 0FCA                                    u1331 06E4  
                                  u1251 0598                                    u1411 0066  
                                  u1091 140E                                    u1171 16C4  
                                  u2027 1092                                    u1340 0716  
                                  u1260 0612                                    u1180 0494  
                                  u1500 0308                                    u1420 007C  
                                  u1341 0712                                    u1261 060E  
                                  u1181 0490                                    u1501 0304  
                                  u1421 0078                                    u2037 10B2  
                                  _LATA 000F89                                    u1350 072C  
                                  u1270 0634                                    u1190 04A6  
                                  u1510 0328                                    u1430 008C  
                                  _LATB 000F8A                                    u1351 0728  
                                  u1271 0630                                    u1191 04A2  
                                  u1511 0324                                    u1431 0088  
                                  u2047 10D2                                    _LATC 000F8B  
                                  u1360 0740                                    u1280 065E  
                                  u1520 033A                                    u1440 00CC  
                                  u1600 0B40                                    _LATD 000F8C  
                                  u1361 073C                                    u1281 065A  
                                  u1521 0336                                    u1441 00C8  
                                  u1601 0B3C                                    u2057 10F2  
                                  _LATE 000F8D                                    u1370 075A  
                                  u1290 0682                                    u1530 0368  
                                  u1450 00DE                                    u1610 0B4E  
                                  u1371 0756                                    u1291 067E  
                                  u1531 0364                                    u1451 00DA  
                                  u1611 0B4A                                    u2067 1112  
                                  u1700 0CFA                                    u1380 07A2  
                                  u1540 037E                                    u1460 00EE  
                                  u1620 0BAA                                    u1701 0CF6  
                                  u1381 079E                                    u1541 037A  
                                  u1461 00EA                                    u1621 0BA6  
                                  u2077 1132                                    u1710 0E86  
                                  u1390 07D2                                    u1550 0392  
                                  u1470 0124                                    u1630 0C00  
                                  u1711 0E82                                    u1391 07CE  
                                  u1551 038E                                    u1471 0120  
                                  u1631 0BFC                                    u2087 1152  
                                  u1560 03AC                                    u1480 0134  
                                  u1640 0C4A                                    u1720 1238  
                                  u1800 10CA                                    u1561 03A8  
                                  u1481 0130                                    u1641 0C46  
                                  u1721 1234                                    u1801 10C6  
                                  u1570 03F4                                    u1490 02AE  
                                  u1650 0C68                                    u1730 135C  
                                  u1810 10EA                                    u1571 03F0  
                                  u1651 0C64                                    u1731 1358  
                                  u1811 10E6                                    u1580 0422  
                                  u1660 0C78                                    u1820 110A  
                                  u1740 100A                                    u1900 15F0  
                                  u1581 041E                                    u1661 0C74  
                                  u1821 1106                                    u1741 1006  
                                  u1901 15EC                                    u1590 045C  
                                  u1670 0C86                                    u1830 112A  
                                  u1750 102A                                    u1910 160E  
                                  u1591 0458                                    u1495 02A4  
                                  u1671 0C82                                    u1831 1126  
                                  u1751 1026                                    u1911 160A  
                                  u1680 0CC0                                    u1840 114A  
                                  u1760 104A                                    u1920 1634  
                                  u1681 0CBC                                    u1841 1146  
                                  u1761 1046                                    u1921 1630  
                                  u1690 0CCE                                    u1770 106A  
                                  u1850 14C0                                    u1691 0CCA  
                                  u1771 1066                                    u1851 14BC  
                                  u1780 108A                                    u1860 14F0  
                                  u1781 1086                                    u1861 14EC  
                                  u1790 10AA                                    u1791 10A6  
                                  u1937 14CE                                    u1947 14FE  
                                  u1957 1512                                    u1967 1536  
                                  u1977 154E                                    u1987 1012  
                                  u1997 1032                                    _WPUB 000F5B  
                                  _tx10 0049                                    _tx20 007C  
                                  _tx13 0100                                    _tx21 006E  
                                  _main 15A2            convertCANid2Reg@passedInEIDH 0008  
          convertCANid2Reg@passedInEIDL 000A                  __end_of_canbus_msg_bps 1806  
                                  fsr2h 000FDA                                    indf2 000FDF  
                                  fsr1l 000FE1                                    fsr2l 000FD9  
                                  btemp 005B            convertCANid2Reg@passedInSIDH 000C  
          convertCANid2Reg@passedInSIDL 000E                            _start_up_seq 14AA  
                      _ADC_Conv_pinNine 1282                                    prodh 000FF4  
                                  prodl 000FF3                                    start 004C  
                       ___fldiv@new_exp 0014             canbus_motor_rearL_tx@number 001B  
                          ___param_bank 000000                ADC_Conv_pinSeven@adc_val 003B  
         __end_of_OSCILLATOR_Initialize 18A0                                   ?_main 0001  
                       __end_of___fldiv 0814                         __end_of___flmul 047A  
                                 _BSEL0 000E7D                                   i2l407 18B2  
                                 i2l474 184E                                   i2l496 0040  
                                 _MSEL0 000E79                                   _MSEL1 000E7A  
                                 _MSEL2 000E7B                                   _MSEL3 000E7C  
                                 _TRISA 000F92                                   _TRISB 000F93  
                                 _TRISC 000F94                                   _TRISD 000F95  
                                 _TRISE 000F96                    __end_of_CAN_transmit 0B2E  
                                 pclath 000FFA                                   pclatu 000FFB  
                                 tablat 000FF5                       _ADC_Conv_pinSeven 115E  
                                 ttemp5 005C                                   ttemp6 005F  
                                 ttemp7 0063                                   status 000FD8  
                                 wtemp8 005C                         ?_canbus_msg_bps 001B  
                  CAN_transmit@tempEIDH 0017                    CAN_transmit@tempEIDL 0018  
                  CAN_transmit@tempSIDH 0019                    CAN_transmit@tempSIDL 001A  
                    ?_ADC_Conv_pinSeven 0035                         __initialization 1644  
                          __end_of_main 1644                     ??_ADC_Conv_pinSeven 0037  
           ?_INTERRUPT_InterruptManager 0001                                  ??_main 0041  
                         __activetblptr 000002         ??_WakeUpDefaultInterruptHandler 0001  
                     ??_ECAN_Initialize 0005                                  _ADCON0 000FC2  
                                _ADCON1 000FC1                                  _ADCON2 000FC0  
                canbus_msg_motor@number 001B                                  _CANCON 000F6F  
                                _ADRESH 000FC4                                  _ADRESL 000FC3  
                                _ANCON0 000F5D                                  _ANCON1 000F5C  
                                _CIOCON 000F70               __end_of_ADC_Conv_pinSeven 1282  
                                i2l2050 184C                                  i2l2048 1832  
                                i2l2260 0020                                  i2l2262 002E  
                                i2l2264 003C                                  i2l2258 0012  
                                _OSCCON 000FD3                                  _RXB0D0 000F66  
                                _RXB0D1 000F67                                  _RXB0D2 000F68  
                                _RXB0D3 000F69                                  _RXB1D0 000F36  
                                _RXB0D4 000F6A                                  _RXB1D1 000F37  
                                _RXB0D5 000F6B                                  _RXB1D2 000F38  
                                _RXB0D6 000F6C                                  _RXB1D3 000F39  
                                _RXB0D7 000F6D                                  _RXB1D4 000F3A  
                                _RXB1D5 000F3B                                  _RXB1D6 000F3C  
                                _RXB1D7 000F3D                                  _TXB0D0 000F26  
                                _TXB0D1 000F27                                  _TXB0D2 000F28  
                                _TXB0D3 000F29                                  _TXB1D0 000F16  
                                _TXB0D4 000F2A                                  _TXB1D1 000F17  
                                _TXB0D5 000F2B                                  _TXB1D2 000F18  
                                _TXB0D6 000F2C                                  _TXB1D3 000F19  
                                _TXB0D7 000F2D                                  _TXB2D0 000F06  
                                _TXB1D4 000F1A                                  _TXB2D1 000F07  
                                _TXB1D5 000F1B                                  _TXB2D2 000F08  
                                _TXB1D6 000F1C                                  _TXB2D3 000F09  
                                _TXB1D7 000F1D                                  _TXB2D4 000F0A  
                                _TXB2D5 000F0B                                  _TXB2D6 000F0C  
                                _TXB2D7 000F0D                        __end_of___xxtofl 0CE2  
                       highOrlow@output 0013                                  ___flge 13A6  
                             ??___fldiv 000B                               ??___flmul 0024  
               _canbus_shutdown_success 1806                                  clear_0 166A  
                                clear_1 1676                                  clear_2 1682  
                                isa$std 000001                __end_of_canbus_msg_motor 17AE  
                          __pdataCOMRAM 0057          ADC_Conv_pinSeven@input_voltage 0037  
                                tblptrh 000FF7                                  tblptrl 000FF6  
                                tblptru 000FF8                ADC_GetConversion@channel 0007  
                      __end_of_undo_seq 115E                              ___flge@ff1 0003  
                            ___flge@ff2 0007                            ___xxtofl@arg 0012  
                          ___xxtofl@exp 0011                       _SYSTEM_Initialize 1850  
                          ___xxtofl@val 0008                              __accesstop 0060  
               __end_of__initialization 1688                 ??_canbus_motor_rearL_tx 001D  
                    ?_SYSTEM_Initialize 0001                           ___rparam_used 000001  
                        __pcstackCOMRAM 0001                     ??_SYSTEM_Initialize 0006  
              __end_of_ADC_Conv_pinNine 13A6                 ?_canbus_msg_startupfail 001B  
                         _ECAN_WAKI_ISR 1832               __end_of_SYSTEM_Initialize 1866  
               ADC_Conv_pinNine@adc_val 003B                              __pbssBANK0 0060  
                            __pbssBANK1 0100   __end_of_WakeUpDefaultInterruptHandler 18B4  
         _WakeUpDefaultInterruptHandler 18B2               ??_canbus_shutdown_success 001D  
                               ?___flge 0003                            _CAN_transmit 0814  
                       _STARTUP_SUCCESS 0043                              _e_stop_seq 187C  
                               _ECANCON 000F72                                 _CANSTAT 000F6E  
      ??_ECAN_SetWakeUpInterruptHandler 0005         ?_ECAN_SetWakeUpInterruptHandler 0003  
                               _BRGCON1 000E43                                 _BRGCON2 000E44  
                               _BRGCON3 000E45          __end_of_canbus_msg_startupfail 1782  
                             ?___xxtofl 0008                                 _REFOCON 000F9A  
                               _OSCCON2 000FD2                          ?_ECAN_WAKI_ISR 0001  
                               _RXB0DLC 000F65                                 _RXB1DLC 000F35  
                               _OSCTUNE 000F9B                                 i2u81_48 1838  
                               i2u81_49 184C                                 i2u96_40 0020  
                               i2u96_41 001C                                 i2u97_40 002E  
                               i2u97_41 002A                                 i2u98_40 003C  
                               i2u98_41 0038                                 _TXB0DLC 000F25  
                               _TXB1DLC 000F15                                 _TXB2DLC 000F05  
                               _RXFCON0 000E46                                 _RXFCON1 000E47  
                      ??_canbus_msg_bps 001D           canbus_shutdown_success@number 001B  
                      highOrlow@voltage 000F                    _ADC_InterruptHandler 0045  
                               __Hparam 0000                                 __Lparam 0000  
                     __end_of_highOrlow 16E6                                 ___fldiv 047A  
                               ___flmul 0050                               ?_undo_seq 0001  
                       _ECAN_Initialize 0CE2                                 __pcinit 1644  
                               __ramtop 0F00                                 __ptext0 15A2  
                               __ptext1 14AA                                 __ptext2 0FFC  
                               __ptext3 1756                                 __ptext4 1782  
                               __ptext5 17AE                                 __ptext6 115E  
                               __ptext7 1282                                 __ptext8 1696  
                               __ptext9 13A6                   _OSCILLATOR_Initialize 188E  
                            ??___xxtofl 000C         __end_of_canbus_shutdown_success 1832  
                      _convertCANid2Reg 0E88                ??_PIN_MANAGER_Initialize 0003  
                  end_of_initialization 1688                  _WakeUpInterruptHandler 0047  
                         __Lmediumconst 0000        fp__WakeUpDefaultInterruptHandler 0000  
        ?_WakeUpDefaultInterruptHandler 0001                               _RXF10EIDH 000E5A  
                             _RXF10EIDL 000E5B                               _RXF11EIDH 000E5E  
                             _RXF11EIDL 000E5F                               _RXF12EIDH 000E62  
                             _RXF12EIDL 000E63                               _RXF13EIDH 000E66  
                             _RXF13EIDL 000E67                               _RXF14EIDH 000E6A  
                             _RXF14EIDL 000E6B                               _RXF15EIDH 000E6E  
                             _RXF15EIDL 000E6F                               _RXF10SIDH 000E58  
                             _RXF10SIDL 000E59                               _RXF11SIDH 000E5C  
                             _RXF11SIDL 000E5D                               _RXF12SIDH 000E60  
                             _RXF12SIDL 000E61                                 postdec1 000FE5  
                             _RXF13SIDH 000E64                               _RXF13SIDL 000E65  
                             _RXF14SIDH 000E68                               _RXF14SIDL 000E69  
                             _RXF15SIDH 000E6C                               _RXF15SIDL 000E6D  
                               postinc0 000FEE                                 postinc2 000FDE  
                            ??_undo_seq 0003                               _THRESVOLT 0057  
                           ?_e_stop_seq 0001                               _PORTAbits 000F80  
                             _PORTCbits 000F82                       ?_canbus_msg_motor 001B  
                       ??_ECAN_WAKI_ISR 0001                      ??_canbus_msg_motor 001D  
                         ___xxtofl@sign 0010                  CAN_transmit@tempCanMsg 0015  
                           ___fldiv@grs 0016                             ___fldiv@rem 000F  
                           ___flmul@grs 0029                 __end_of_ECAN_Initialize 0E88  
         __end_of_canbus_motor_rearL_tx 17DA            __end_of_INTERRUPT_Initialize 18B2  
                        __end_of___flge 14AA                           __pidataCOMRAM 18AA  
                        _ADC_Initialize 1866                  ?_OSCILLATOR_Initialize 0001  
                     ?_ADC_Conv_pinNine 0035                     start_initialization 1644  
                    ??_ADC_Conv_pinNine 0037                           ?_start_up_seq 0001  
                              ??___flge 000B                  __end_of_ADC_Initialize 187C  
          canbus_msg_startupfail@number 001B                               ___fldiv@a 0007  
                             ___fldiv@b 0003                               ___flmul@a 0020  
                             ___flmul@b 001C                             __pbssCOMRAM 0041  
__end_of_ECAN_SetWakeUpInterruptHandler 18AA          _ECAN_SetWakeUpInterruptHandler 18A0  
                        ??_start_up_seq 003F                        ?_ECAN_Initialize 0001  
                _PIN_MANAGER_Initialize 1720                __end_of_convertCANid2Reg 0FFC  
                             __pintcode 0008                                ?___fldiv 0003  
                              ?___flmul 001C                         ?_ADC_Initialize 0001  
                             _highOrlow 1696            ??_INTERRUPT_InterruptManager 0001  
                           _COMSTATbits 000F71          convertCANid2Reg@tempPassedInID 0003  
                  _INTERRUPT_Initialize 18AE                ?_canbus_shutdown_success 001B  
                              _LATAbits 000F89                                _LATCbits 000F8B  
                              _PIE5bits 000F76                                _PIR5bits 000F77  
                              _RXB0EIDH 000F63                                _RXB0EIDL 000F64  
                              _RXB1EIDH 000F33                                _RXB1EIDL 000F34  
                              _RCONbits 000FD0                                _RXB0SIDH 000F61  
                              _RXB0SIDL 000F62                                _RXF0EIDH 000EE2  
                              _RXB1SIDH 000F31                                _RXF0EIDL 000EE3  
                              _RXB1SIDL 000F32                                _RXF1EIDH 000EE6  
                              _RXF1EIDL 000EE7                                _RXF2EIDH 000EEA  
                              _RXF2EIDL 000EEB                                _RXF3EIDH 000EEE  
                              _RXF3EIDL 000EEF                                _RXF4EIDH 000EF2  
                              _RXF4EIDL 000EF3                                _RXF5EIDH 000EF6  
                              _RXF5EIDL 000EF7                                _RXF6EIDH 000E4A  
                              _RXF6EIDL 000E4B                                _RXF0SIDH 000EE0  
                              _RXF7EIDH 000E4E                                _RXF0SIDL 000EE1  
                              _RXF7EIDL 000E4F                                _RXF1SIDH 000EE4  
                              _RXF8EIDH 000E52                                _TXB0EIDH 000F23  
                              _TXB0EIDL 000F24                                _RXF1SIDL 000EE5  
                              _RXF8EIDL 000E53                                _RXF2SIDH 000EE8  
                              _RXF9EIDH 000E56                                _TXB1EIDH 000F13  
                              _TXB1EIDL 000F14                                _RXF2SIDL 000EE9  
                              _RXF9EIDL 000E57                                _RXF3SIDH 000EEC  
                              _TXB2EIDH 000F03                                _TXB2EIDL 000F04  
                              _RXF3SIDL 000EED                                _RXF4SIDH 000EF0  
                              _RXF4SIDL 000EF1                                _RXF5SIDH 000EF4  
                              _RXF5SIDL 000EF5                                _RXF6SIDH 000E48  
                              _RXF6SIDL 000E49                                _RXM0EIDH 000EFA  
                              _RXF7SIDH 000E4C                                _RXM0EIDL 000EFB  
                              _RXF7SIDL 000E4D                                _RXM1EIDH 000EFE  
                              _RXF8SIDH 000E50                                _TXB0SIDH 000F21  
                              _RXM1EIDL 000EFF                                _RXF8SIDL 000E51  
                              _TXB0SIDL 000F22                                _RXF9SIDH 000E54  
                              _TXB1SIDH 000F11                                _RXF9SIDL 000E55  
                              _TXB1SIDL 000F12                                _TXB2SIDH 000F01  
                              _TXB2SIDL 000F02                                _RXFBCON0 000E71  
                              _RXFBCON1 000E72                                _RXFBCON2 000E73  
                              _RXFBCON3 000E74                                _RXFBCON4 000E75  
                              _RXFBCON5 000E76                                _RXFBCON6 000E77  
                              _RXFBCON7 000E78                                _RXM0SIDH 000EF8  
                              _RXM0SIDL 000EF9                                _RXM1SIDH 000EFC  
                              _RXM1SIDL 000EFD                            ??_e_stop_seq 001D  
                            ?_highOrlow 000F                              _ADCON0bits 000FC2  
                           _INTCON2bits 000FF1                               copy_data0 1658  
                 ?_INTERRUPT_Initialize 0001                      __end_of_e_stop_seq 188E  
                              __Hrparam 0000                                __Lrparam 0000  
                     _ADC_GetConversion 16E6               convertCANid2Reg@canIdType 0007  
               ??_OSCILLATOR_Initialize 0003                      ?_ADC_GetConversion 0003  
              ??_canbus_msg_startupfail 001D                    __end_of_start_up_seq 15A2  
                   ??_ADC_GetConversion 0005                                ___xxtofl 0B2E  
               convertCANid2Reg@wipSIDL 0014                   __end_of_ECAN_WAKI_ISR 1850  
                              __ptext10 0B2E                                __ptext11 0050  
                              __ptext20 1720                                __ptext12 047A  
                              __ptext21 188E                                __ptext13 16E6  
                              __ptext22 18AE                                __ptext14 187C  
                              __ptext23 0CE2                                __ptext15 17DA  
                              __ptext24 18A0                                __ptext16 1806  
                              __ptext25 1866                                __ptext17 0814  
                              __ptext18 0E88                                __ptext27 1832  
                              __ptext19 1850                                __ptext28 18B2  
                              __ptext29 0000                                _iterator 0041  
             __end_of_ADC_GetConversion 1720                                isa$xinst 000000  
                         ?_CAN_transmit 0015                   _canbus_motor_rearL_tx 17AE  
                              int$flags 005B                                _undo_seq 0FFC  
    __end_of_INTERRUPT_InterruptManager 004C              _INTERRUPT_InterruptManager 0008  
                           ??_highOrlow 0013                             _RXB0CONbits 000F60  
                           _RXB1CONbits 000F30                              _INTCONbits 000FF2  
                ??_INTERRUPT_Initialize 0003                                intlevel2 0000  
                  canbus_msg_bps@number 001B                 ?_PIN_MANAGER_Initialize 0001  
                           _TXB0CONbits 000F20                             _TXB1CONbits 000F10  
                           _TXB2CONbits 000F00                        ??_ADC_Initialize 0003  
                        ??_CAN_transmit 0017                       ?_convertCANid2Reg 0003  
                    ??_convertCANid2Reg 0010          __end_of_PIN_MANAGER_Initialize 1756  
                      _canbus_msg_motor 1782                          _canbus_msg_bps 17DA  
                ?_canbus_motor_rearL_tx 001B  
