

Microchip MPLAB XC8 Assembler V2.36 build 20220127204148 
                                                                                               Thu Oct 05 18:23:41 2023

Microchip MPLAB XC8 C Compiler v2.36 (Free license) build 20220127204148 Og1 
     1                           	processor	18F46K80
     2                           	fnconf	rparam,??,?,0
     3                           	pagewidth 120
     4                           	opt	flic
     5                           	psect	idataCOMRAM,global,class=CODE,delta=1,noexec
     6                           	psect	cinit,global,reloc=2,class=CODE,delta=1
     7                           	psect	bssCOMRAM,global,class=COMRAM,space=1,delta=1,lowdata,noexec
     8                           	psect	dataCOMRAM,global,class=COMRAM,space=1,delta=1,lowdata,noexec
     9                           	psect	bssBANK0,global,class=BANK0,space=1,delta=1,lowdata,noexec
    10                           	psect	bssBANK1,global,class=BANK1,space=1,delta=1,lowdata,noexec
    11                           	psect	cstackBANK0,global,class=BANK0,space=1,delta=1,lowdata,noexec
    12                           	psect	cstackCOMRAM,global,class=COMRAM,space=1,delta=1,lowdata,noexec
    13                           	psect	text0,global,reloc=2,class=CODE,delta=1
    14                           	psect	text1,global,reloc=2,class=CODE,delta=1
    15                           	psect	text2,global,reloc=2,class=CODE,delta=1
    16                           	psect	text3,global,reloc=2,class=CODE,delta=1
    17                           	psect	text4,global,reloc=2,class=CODE,delta=1
    18                           	psect	text5,global,reloc=2,class=CODE,delta=1
    19                           	psect	text6,global,reloc=2,class=CODE,delta=1
    20                           	psect	text7,global,reloc=2,class=CODE,delta=1,group=1
    21                           	psect	text8,global,reloc=2,class=CODE,delta=1,group=1
    22                           	psect	text9,global,reloc=2,class=CODE,delta=1,group=1
    23                           	psect	text10,global,reloc=2,class=CODE,delta=1,group=1
    24                           	psect	text11,global,reloc=2,class=CODE,delta=1,group=1
    25                           	psect	text12,global,reloc=2,class=CODE,delta=1
    26                           	psect	text13,global,reloc=2,class=CODE,delta=1
    27                           	psect	text14,global,reloc=2,class=CODE,delta=1
    28                           	psect	text15,global,reloc=2,class=CODE,delta=1
    29                           	psect	text16,global,reloc=2,class=CODE,delta=1
    30                           	psect	text17,global,reloc=2,class=CODE,delta=1
    31                           	psect	text18,global,reloc=2,class=CODE,delta=1
    32                           	psect	text19,global,reloc=2,class=CODE,delta=1
    33                           	psect	text20,global,reloc=2,class=CODE,delta=1
    34                           	psect	text21,global,reloc=2,class=CODE,delta=1
    35                           	psect	text22,global,reloc=2,class=CODE,delta=1
    36                           	psect	text23,global,reloc=2,class=CODE,delta=1
    37                           	psect	text24,global,reloc=2,class=CODE,delta=1
    38                           	psect	text25,global,reloc=2,class=CODE,delta=1
    39                           	psect	text26,global,reloc=2,class=CODE,delta=1
    40                           	psect	text27,global,reloc=2,class=CODE,delta=1
    41                           	psect	text28,global,reloc=2,class=CODE,delta=1
    42                           	psect	text29,global,reloc=2,class=CODE,delta=1
    43                           	psect	text30,global,reloc=2,class=CODE,delta=1
    44                           	psect	text31,global,reloc=2,class=CODE,delta=1
    45                           	psect	intcode,global,reloc=2,class=CODE,delta=1
    46                           	psect	text33,global,reloc=2,class=CODE,delta=1
    47                           	psect	text34,global,reloc=2,class=CODE,delta=1
    48                           	psect	intsave_regs,global,class=BIGRAM,space=1,delta=1,noexec
    49                           	psect	text35,global,reloc=2,class=CODE,delta=1
    50                           	psect	rparam,global,class=COMRAM,space=1,delta=1,noexec
    51                           	psect	temp,global,ovrld,common,class=COMRAM,space=1,delta=1
    52                           	psect	idloc,global,abs,ovrld,class=IDLOC,space=5,delta=1,noexec
    53                           	psect	config,global,abs,ovrld,class=CONFIG,space=4,delta=1,noexec
    54  0000                     
    55                           ; Version 2.35
    56                           ; Generated 05/05/2021 GMT
    57                           ; 
    58                           ; Copyright © 2021, Microchip Technology Inc. and its subsidiaries ("Microchip")
    59                           ; All rights reserved.
    60                           ; 
    61                           ; This software is developed by Microchip Technology Inc. and its subsidiaries ("Microch
      +                          ip").
    62                           ; 
    63                           ; Redistribution and use in source and binary forms, with or without modification, are
    64                           ; permitted provided that the following conditions are met:
    65                           ; 
    66                           ;     1. Redistributions of source code must retain the above copyright notice, this lis
      +                          t of
    67                           ;        conditions and the following disclaimer.
    68                           ; 
    69                           ;     2. Redistributions in binary form must reproduce the above copyright notice, this 
      +                          list
    70                           ;        of conditions and the following disclaimer in the documentation and/or other
    71                           ;        materials provided with the distribution. Publication is not required when
    72                           ;        this file is used in an embedded application.
    73                           ; 
    74                           ;     3. Microchip's name may not be used to endorse or promote products derived from th
      +                          is
    75                           ;        software without specific prior written permission.
    76                           ; 
    77                           ; THIS SOFTWARE IS PROVIDED BY MICROCHIP "AS IS" AND ANY EXPRESS OR IMPLIED WARRANTIES,
    78                           ; INCLUDING, BUT NOT LIMITED TO, THE IMPLIED WARRANTIES OF MERCHANTABILITY AND FITNESS F
      +                          OR
    79                           ; PURPOSE ARE DISCLAIMED.  IN NO EVENT SHALL MICROCHIP BE LIABLE FOR ANY DIRECT, INDIREC
      +                          T,
    80                           ; INCIDENTAL, SPECIAL, EXEMPLARY, OR CONSEQUENTIAL DAMAGES (INCLUDING BUT NOT LIMITED TO
    81                           ; PROCUREMENT OF SUBSTITUTE GOODS OR SERVICES; LOSS OF USE, DATA OR PROFITS; OR BUSINESS
    82                           ; INTERRUPTION) HOWSOEVER CAUSED AND ON ANY THEORY OF LIABILITY, WHETHER IN CONTRACT, ST
      +                          RICT
    83                           ; LIABILITY, OR TORT (INCLUDING NEGLIGENCE OR OTHERWISE) ARISING IN ANY WAY OUT OF THE U
      +                          SE OF
    84                           ; THIS SOFTWARE, EVEN IF ADVISED OF THE POSSIBILITY OF SUCH DAMAGE.
    85                           ; 
    86                           ; 
    87                           ; Code-generator required, PIC18F46K80 Definitions
    88                           ; 
    89                           ; SFR Addresses
    90  0000                     
    91                           	psect	idataCOMRAM
    92  001CC4                     __pidataCOMRAM:
    93                           	callstack 0
    94                           
    95                           ;initializer for _THRESVOLT
    96  001CC4  3333               	dw	13107
    97  001CC6  4123               	dw	16675
    98  0000                     _ADRESL	set	4035
    99  0000                     _ADRESH	set	4036
   100  0000                     _COMSTATbits	set	3953
   101  0000                     _RXB1SIDH	set	3889
   102  0000                     _RXB1SIDL	set	3890
   103  0000                     _RXB0D7	set	3949
   104  0000                     _RXB0D6	set	3948
   105  0000                     _RXB0D5	set	3947
   106  0000                     _RXB0D4	set	3946
   107  0000                     _RXB0D3	set	3945
   108  0000                     _RXB0D2	set	3944
   109  0000                     _RXB0D1	set	3943
   110  0000                     _RXB0D0	set	3942
   111  0000                     _RXB0DLC	set	3941
   112  0000                     _RXB0SIDH	set	3937
   113  0000                     _RXB0EIDL	set	3940
   114  0000                     _RXB0EIDH	set	3939
   115  0000                     _RXB0SIDL	set	3938
   116  0000                     _TXB2SIDL	set	3842
   117  0000                     _TXB2SIDH	set	3841
   118  0000                     _TXB2EIDH	set	3843
   119  0000                     _TXB2CONbits	set	3840
   120  0000                     _TXB1SIDL	set	3858
   121  0000                     _TXB1SIDH	set	3857
   122  0000                     _TXB1EIDH	set	3859
   123  0000                     _TXB1CONbits	set	3856
   124  0000                     _TXB0SIDL	set	3874
   125  0000                     _TXB0SIDH	set	3873
   126  0000                     _TXB0EIDH	set	3875
   127  0000                     _TXB0CONbits	set	3872
   128  0000                     _BRGCON3	set	3653
   129  0000                     _BRGCON2	set	3652
   130  0000                     _RXF15SIDL	set	3693
   131  0000                     _RXF15SIDH	set	3692
   132  0000                     _RXF15EIDH	set	3694
   133  0000                     _RXF14SIDL	set	3689
   134  0000                     _RXF14SIDH	set	3688
   135  0000                     _RXF14EIDL	set	3691
   136  0000                     _RXF14EIDH	set	3690
   137  0000                     _RXF13SIDL	set	3685
   138  0000                     _RXF13SIDH	set	3684
   139  0000                     _RXF13EIDL	set	3687
   140  0000                     _RXF13EIDH	set	3686
   141  0000                     _RXF12SIDL	set	3681
   142  0000                     _RXF12SIDH	set	3680
   143  0000                     _RXF12EIDL	set	3683
   144  0000                     _RXF12EIDH	set	3682
   145  0000                     _RXF11SIDL	set	3677
   146  0000                     _RXF11SIDH	set	3676
   147  0000                     _RXF11EIDL	set	3679
   148  0000                     _RXF11EIDH	set	3678
   149  0000                     _RXF10SIDL	set	3673
   150  0000                     _RXF10SIDH	set	3672
   151  0000                     _RXF10EIDL	set	3675
   152  0000                     _RXF10EIDH	set	3674
   153  0000                     _RXF9SIDL	set	3669
   154  0000                     _RXF9SIDH	set	3668
   155  0000                     _RXF9EIDL	set	3671
   156  0000                     _RXF9EIDH	set	3670
   157  0000                     _RXF8SIDL	set	3665
   158  0000                     _RXF8SIDH	set	3664
   159  0000                     _RXF8EIDL	set	3667
   160  0000                     _RXF8EIDH	set	3666
   161  0000                     _RXF7SIDL	set	3661
   162  0000                     _RXF7SIDH	set	3660
   163  0000                     _RXF7EIDL	set	3663
   164  0000                     _RXF7EIDH	set	3662
   165  0000                     _RXF6SIDL	set	3657
   166  0000                     _RXF6SIDH	set	3656
   167  0000                     _RXF6EIDL	set	3659
   168  0000                     _RXF6EIDH	set	3658
   169  0000                     _RXF5SIDL	set	3829
   170  0000                     _RXF5SIDH	set	3828
   171  0000                     _RXF5EIDL	set	3831
   172  0000                     _RXF5EIDH	set	3830
   173  0000                     _RXF4SIDL	set	3825
   174  0000                     _RXF4SIDH	set	3824
   175  0000                     _RXF4EIDL	set	3827
   176  0000                     _RXF4EIDH	set	3826
   177  0000                     _RXF3SIDL	set	3821
   178  0000                     _RXF3SIDH	set	3820
   179  0000                     _RXF3EIDL	set	3823
   180  0000                     _RXF3EIDH	set	3822
   181  0000                     _RXF2SIDL	set	3817
   182  0000                     _RXF2SIDH	set	3816
   183  0000                     _RXF2EIDL	set	3819
   184  0000                     _RXF2EIDH	set	3818
   185  0000                     _RXF1SIDL	set	3813
   186  0000                     _RXF1SIDH	set	3812
   187  0000                     _RXF1EIDL	set	3815
   188  0000                     _RXF1EIDH	set	3814
   189  0000                     _RXF0SIDL	set	3809
   190  0000                     _RXF0EIDL	set	3811
   191  0000                     _RXFBCON7	set	3704
   192  0000                     _RXFBCON6	set	3703
   193  0000                     _RXFBCON5	set	3702
   194  0000                     _RXFBCON4	set	3701
   195  0000                     _RXFBCON3	set	3700
   196  0000                     _RXFBCON2	set	3699
   197  0000                     _RXFBCON1	set	3698
   198  0000                     _RXFBCON0	set	3697
   199  0000                     _MSEL3	set	3708
   200  0000                     _MSEL2	set	3707
   201  0000                     _MSEL1	set	3706
   202  0000                     _MSEL0	set	3705
   203  0000                     _RXFCON1	set	3655
   204  0000                     _RXM1SIDL	set	3837
   205  0000                     _RXM1SIDH	set	3836
   206  0000                     _RXM1EIDL	set	3839
   207  0000                     _RXM1EIDH	set	3838
   208  0000                     _RXM0SIDL	set	3833
   209  0000                     _RXM0EIDL	set	3835
   210  0000                     _CIOCON	set	3952
   211  0000                     _ECANCON	set	3954
   212  0000                     _TRISD	set	3989
   213  0000                     _TRISC	set	3988
   214  0000                     _TRISB	set	3987
   215  0000                     _LATC	set	3979
   216  0000                     _LATB	set	3978
   217  0000                     _LATAbits	set	3977
   218  0000                     _LATCbits	set	3979
   219  0000                     _ADCON0bits	set	4034
   220  0000                     _BRGCON1	set	3651
   221  0000                     _RXFCON0	set	3654
   222  0000                     _BSEL0	set	3709
   223  0000                     _WPUB	set	3931
   224  0000                     _ANCON1	set	3932
   225  0000                     _ANCON0	set	3933
   226  0000                     _LATA	set	3977
   227  0000                     _LATD	set	3980
   228  0000                     _LATE	set	3981
   229  0000                     _TRISA	set	3986
   230  0000                     _TRISE	set	3990
   231  0000                     _REFOCON	set	3994
   232  0000                     _OSCTUNE	set	3995
   233  0000                     _OSCCON2	set	4050
   234  0000                     _OSCCON	set	4051
   235  0000                     _INTCON2bits	set	4081
   236  0000                     _RXB0CONbits	set	3936
   237  0000                     _CANSTAT	set	3950
   238  0000                     _CANCON	set	3951
   239  0000                     _INTCONbits	set	4082
   240  0000                     _ADCON2	set	4032
   241  0000                     _ADCON1	set	4033
   242  0000                     _ADCON0	set	4034
   243  0000                     _RCONbits	set	4048
   244  0000                     _PIE5bits	set	3958
   245  0000                     _PIR5bits	set	3959
   246  0000                     _RXF0SIDH	set	3808
   247  0000                     _RXF0EIDH	set	3810
   248  0000                     _RXM0SIDH	set	3832
   249  0000                     _RXM0EIDH	set	3834
   250  0000                     _RXF15EIDL	set	3695
   251  0000                     _RXB1CONbits	set	3888
   252  0000                     _TXB0D7	set	3885
   253  0000                     _TXB0D6	set	3884
   254  0000                     _TXB0D5	set	3883
   255  0000                     _TXB0D4	set	3882
   256  0000                     _TXB0D3	set	3881
   257  0000                     _TXB0D2	set	3880
   258  0000                     _TXB0D1	set	3879
   259  0000                     _TXB0D0	set	3878
   260  0000                     _TXB0DLC	set	3877
   261  0000                     _TXB0EIDL	set	3876
   262  0000                     _TXB1D7	set	3869
   263  0000                     _TXB1D6	set	3868
   264  0000                     _TXB1D5	set	3867
   265  0000                     _TXB1D4	set	3866
   266  0000                     _TXB1D3	set	3865
   267  0000                     _TXB1D2	set	3864
   268  0000                     _TXB1D1	set	3863
   269  0000                     _TXB1D0	set	3862
   270  0000                     _TXB1DLC	set	3861
   271  0000                     _TXB1EIDL	set	3860
   272  0000                     _TXB2D7	set	3853
   273  0000                     _TXB2D6	set	3852
   274  0000                     _TXB2D5	set	3851
   275  0000                     _TXB2D4	set	3850
   276  0000                     _TXB2D3	set	3849
   277  0000                     _TXB2D2	set	3848
   278  0000                     _TXB2D1	set	3847
   279  0000                     _TXB2D0	set	3846
   280  0000                     _TXB2DLC	set	3845
   281  0000                     _TXB2EIDL	set	3844
   282  0000                     _RXB1D7	set	3901
   283  0000                     _RXB1D6	set	3900
   284  0000                     _RXB1D5	set	3899
   285  0000                     _RXB1D4	set	3898
   286  0000                     _RXB1D3	set	3897
   287  0000                     _RXB1D2	set	3896
   288  0000                     _RXB1D1	set	3895
   289  0000                     _RXB1D0	set	3894
   290  0000                     _RXB1DLC	set	3893
   291  0000                     _RXB1EIDL	set	3892
   292  0000                     _RXB1EIDH	set	3891
   293                           
   294                           ; #config settings
   295                           
   296                           	psect	cinit
   297  001A3A                     __pcinit:
   298                           	callstack 0
   299  001A3A                     start_initialization:
   300                           	callstack 0
   301  001A3A                     __initialization:
   302                           	callstack 0
   303                           
   304                           ; Initialize objects allocated to COMRAM (4 bytes)
   305                           ; load TBLPTR registers with __pidataCOMRAM
   306  001A3A  0EC4               	movlw	low __pidataCOMRAM
   307  001A3C  6EF6               	movwf	tblptrl,c
   308  001A3E  0E1C               	movlw	high __pidataCOMRAM
   309  001A40  6EF7               	movwf	tblptrh,c
   310  001A42  0E00               	movlw	low (__pidataCOMRAM shr (0+16))
   311  001A44  6EF8               	movwf	tblptru,c
   312  001A46  EE00  F059         	lfsr	0,__pdataCOMRAM
   313  001A4A  EE10 F004          	lfsr	1,4
   314  001A4E                     copy_data0:
   315  001A4E  0009               	tblrd		*+
   316  001A50  CFF5 FFEE          	movff	tablat,postinc0
   317  001A54  50E5               	movf	postdec1,w,c
   318  001A56  50E1               	movf	fsr1l,w,c
   319  001A58  E1FA               	bnz	copy_data0
   320                           
   321                           ; Clear objects allocated to BANK1 (28 bytes)
   322  001A5A  EE01  F000         	lfsr	0,__pbssBANK1
   323  001A5E  0E1C               	movlw	28
   324  001A60                     clear_0:
   325  001A60  6AEE               	clrf	postinc0,c
   326  001A62  06E8               	decf	wreg,f,c
   327  001A64  E1FD               	bnz	clear_0
   328                           
   329                           ; Clear objects allocated to BANK0 (154 bytes)
   330  001A66  EE00  F060         	lfsr	0,__pbssBANK0
   331  001A6A  0E9A               	movlw	154
   332  001A6C                     clear_1:
   333  001A6C  6AEE               	clrf	postinc0,c
   334  001A6E  06E8               	decf	wreg,f,c
   335  001A70  E1FD               	bnz	clear_1
   336                           
   337                           ; Clear objects allocated to COMRAM (22 bytes)
   338  001A72  EE00  F043         	lfsr	0,__pbssCOMRAM
   339  001A76  0E16               	movlw	22
   340  001A78                     clear_2:
   341  001A78  6AEE               	clrf	postinc0,c
   342  001A7A  06E8               	decf	wreg,f,c
   343  001A7C  E1FD               	bnz	clear_2
   344  001A7E                     end_of_initialization:
   345                           	callstack 0
   346  001A7E                     __end_of__initialization:
   347                           	callstack 0
   348  001A7E  905D               	bcf	int$flags,0,c	;clear compiler interrupt flag (level 1)
   349  001A80  925D               	bcf	int$flags,1,c	;clear compiler interrupt flag (level 2)
   350  001A82  0E00               	movlw	low (__Lmediumconst shr (0+16))
   351  001A84  6EF8               	movwf	tblptru,c
   352  001A86  0100               	movlb	0
   353  001A88  EF0A  F00C         	goto	_main	;jump to C main() function
   354                           
   355                           	psect	bssCOMRAM
   356  000043                     __pbssCOMRAM:
   357                           	callstack 0
   358  000043                     	ds	2
   359  000045                     _STARTUP_SUCCESS:
   360                           	callstack 0
   361  000045                     	ds	2
   362  000047                     _ADC_InterruptHandler:
   363                           	callstack 0
   364  000047                     	ds	2
   365  000049                     _WakeUpInterruptHandler:
   366                           	callstack 0
   367  000049                     	ds	2
   368  00004B                     _tx21:
   369                           	callstack 0
   370  00004B                     	ds	14
   371                           
   372                           	psect	dataCOMRAM
   373  000059                     __pdataCOMRAM:
   374                           	callstack 0
   375  000059                     	ds	4
   376                           
   377                           	psect	bssBANK0
   378  000060                     __pbssBANK0:
   379                           	callstack 0
   380  000060                     _tx2:
   381                           	callstack 0
   382  000060                     	ds	14
   383  00006E                     _tx1:
   384                           	callstack 0
   385  00006E                     	ds	14
   386  00007C                     _tx10:
   387                           	callstack 0
   388  00007C                     	ds	14
   389  00008A                     _tx9:
   390                           	callstack 0
   391  00008A                     	ds	14
   392  000098                     _tx8:
   393                           	callstack 0
   394  000098                     	ds	14
   395  0000A6                     _tx7:
   396                           	callstack 0
   397  0000A6                     	ds	14
   398  0000B4                     _tx6:
   399                           	callstack 0
   400  0000B4                     	ds	14
   401  0000C2                     _tx5:
   402                           	callstack 0
   403  0000C2                     	ds	14
   404  0000D0                     _tx4:
   405                           	callstack 0
   406  0000D0                     	ds	14
   407  0000DE                     _tx3:
   408                           	callstack 0
   409  0000DE                     	ds	14
   410  0000EC                     _rx:
   411                           	callstack 0
   412  0000EC                     	ds	14
   413                           
   414                           	psect	bssBANK1
   415  000100                     __pbssBANK1:
   416                           	callstack 0
   417  000100                     _tx20:
   418                           	callstack 0
   419  000100                     	ds	14
   420  00010E                     _tx13:
   421                           	callstack 0
   422  00010E                     	ds	14
   423                           
   424                           	psect	cstackBANK0
   425  0000FA                     __pcstackBANK0:
   426                           	callstack 0
   427  0000FA                     main@iter:
   428                           	callstack 0
   429                           
   430                           ; 2 bytes @ 0x0
   431  0000FA                     	ds	2
   432                           
   433                           	psect	cstackCOMRAM
   434  000001                     __pcstackCOMRAM:
   435                           	callstack 0
   436  000001                     ??_INTERRUPT_InterruptManager:
   437  000001                     
   438                           ; 1 bytes @ 0x0
   439  000001                     	ds	2
   440  000003                     ?_ADC_GetConversion:
   441                           	callstack 0
   442  000003                     ?_convertReg2ExtendedCANid:
   443                           	callstack 0
   444  000003                     ?_convertReg2StandardCANid:
   445                           	callstack 0
   446  000003                     ?___fldiv:
   447                           	callstack 0
   448  000003                     ?___fltol:
   449                           	callstack 0
   450  000003                     convertReg2ExtendedCANid@tempRXBn_EIDL:
   451                           	callstack 0
   452  000003                     convertReg2StandardCANid@tempRXBn_SIDL:
   453                           	callstack 0
   454  000003                     ECAN_SetWakeUpInterruptHandler@handler:
   455                           	callstack 0
   456  000003                     convertCANid2Reg@tempPassedInID:
   457                           	callstack 0
   458  000003                     ___flge@ff1:
   459                           	callstack 0
   460  000003                     ___fltol@f1:
   461                           	callstack 0
   462  000003                     ___fldiv@b:
   463                           	callstack 0
   464                           
   465                           ; 4 bytes @ 0x2
   466  000003                     	ds	1
   467  000004                     convertReg2ExtendedCANid@tempRXBn_SIDH:
   468                           	callstack 0
   469                           
   470                           ; 1 bytes @ 0x3
   471  000004                     	ds	1
   472  000005                     ??_ECAN_Initialize:
   473  000005                     ??_ADC_GetConversion:
   474  000005                     convertReg2ExtendedCANid@tempRXBn_SIDL:
   475                           	callstack 0
   476                           
   477                           ; 1 bytes @ 0x4
   478  000005                     	ds	1
   479  000006                     
   480                           ; 1 bytes @ 0x5
   481  000006                     	ds	1
   482  000007                     ??_convertReg2ExtendedCANid:
   483  000007                     ??_convertReg2StandardCANid:
   484  000007                     ??___fltol:
   485  000007                     convertCANid2Reg@canIdType:
   486                           	callstack 0
   487  000007                     ADC_GetConversion@channel:
   488                           	callstack 0
   489  000007                     ___flge@ff2:
   490                           	callstack 0
   491  000007                     ___fldiv@a:
   492                           	callstack 0
   493                           
   494                           ; 4 bytes @ 0x6
   495  000007                     	ds	1
   496  000008                     ?___xxtofl:
   497                           	callstack 0
   498  000008                     convertCANid2Reg@passedInEIDH:
   499                           	callstack 0
   500  000008                     ___xxtofl@val:
   501                           	callstack 0
   502                           
   503                           ; 4 bytes @ 0x7
   504  000008                     	ds	1
   505  000009                     convertReg2StandardCANid@tempRXBn_SIDH:
   506                           	callstack 0
   507                           
   508                           ; 1 bytes @ 0x8
   509  000009                     	ds	1
   510  00000A                     convertCANid2Reg@passedInEIDL:
   511                           	callstack 0
   512  00000A                     convertReg2StandardCANid@returnValue:
   513                           	callstack 0
   514                           
   515                           ; 4 bytes @ 0x9
   516  00000A                     	ds	1
   517  00000B                     ??___fldiv:
   518  00000B                     ??___flge:
   519  00000B                     convertReg2ExtendedCANid@tempRXBn_EIDH:
   520                           	callstack 0
   521  00000B                     ___fltol@sign1:
   522                           	callstack 0
   523                           
   524                           ; 1 bytes @ 0xA
   525  00000B                     	ds	1
   526  00000C                     ??___xxtofl:
   527  00000C                     ___fltol@exp1:
   528                           	callstack 0
   529  00000C                     convertCANid2Reg@passedInSIDH:
   530                           	callstack 0
   531  00000C                     convertReg2ExtendedCANid@returnValue:
   532                           	callstack 0
   533                           
   534                           ; 4 bytes @ 0xB
   535  00000C                     	ds	2
   536  00000E                     convertCANid2Reg@passedInSIDL:
   537                           	callstack 0
   538  00000E                     convertReg2StandardCANid@ConvertedID:
   539                           	callstack 0
   540                           
   541                           ; 4 bytes @ 0xD
   542  00000E                     	ds	1
   543  00000F                     ___fldiv@rem:
   544                           	callstack 0
   545                           
   546                           ; 4 bytes @ 0xE
   547  00000F                     	ds	1
   548  000010                     ??_convertCANid2Reg:
   549  000010                     convertReg2ExtendedCANid@CAN_standardLo_ID_lo2bits:
   550                           	callstack 0
   551  000010                     ___xxtofl@sign:
   552                           	callstack 0
   553                           
   554                           ; 1 bytes @ 0xF
   555  000010                     	ds	1
   556  000011                     convertReg2ExtendedCANid@CAN_standardLo_ID_hi3bits:
   557                           	callstack 0
   558  000011                     ___xxtofl@exp:
   559                           	callstack 0
   560                           
   561                           ; 1 bytes @ 0x10
   562  000011                     	ds	1
   563  000012                     convertReg2ExtendedCANid@ConvertedID:
   564                           	callstack 0
   565  000012                     ___xxtofl@arg:
   566                           	callstack 0
   567                           
   568                           ; 4 bytes @ 0x11
   569  000012                     	ds	1
   570  000013                     ___fldiv@sign:
   571                           	callstack 0
   572                           
   573                           ; 1 bytes @ 0x12
   574  000013                     	ds	1
   575  000014                     convertCANid2Reg@wipSIDL:
   576                           	callstack 0
   577  000014                     ___fldiv@new_exp:
   578                           	callstack 0
   579                           
   580                           ; 2 bytes @ 0x13
   581  000014                     	ds	1
   582  000015                     CAN_transmit@tempCanMsg:
   583                           	callstack 0
   584                           
   585                           ; 2 bytes @ 0x14
   586  000015                     	ds	1
   587  000016                     CAN_receive@tempCanMsg:
   588                           	callstack 0
   589  000016                     ___fldiv@grs:
   590                           	callstack 0
   591                           
   592                           ; 4 bytes @ 0x15
   593  000016                     	ds	1
   594  000017                     CAN_transmit@tempEIDH:
   595                           	callstack 0
   596                           
   597                           ; 1 bytes @ 0x16
   598  000017                     	ds	1
   599  000018                     CAN_transmit@tempEIDL:
   600                           	callstack 0
   601  000018                     CAN_receive@returnValue:
   602                           	callstack 0
   603                           
   604                           ; 1 bytes @ 0x17
   605  000018                     	ds	1
   606  000019                     CAN_transmit@tempSIDH:
   607                           	callstack 0
   608                           
   609                           ; 1 bytes @ 0x18
   610  000019                     	ds	1
   611  00001A                     CAN_transmit@tempSIDL:
   612                           	callstack 0
   613  00001A                     ___fldiv@bexp:
   614                           	callstack 0
   615                           
   616                           ; 1 bytes @ 0x19
   617  00001A                     	ds	1
   618  00001B                     ___fldiv@aexp:
   619                           	callstack 0
   620  00001B                     canbus_msg_startupfail@number:
   621                           	callstack 0
   622  00001B                     canbus_msg_bps@number:
   623                           	callstack 0
   624  00001B                     canbus_msg_auxlow@number:
   625                           	callstack 0
   626  00001B                     canbus_shutdown_success@number:
   627                           	callstack 0
   628  00001B                     canbus_msg_startup_success@number:
   629                           	callstack 0
   630  00001B                     canbus_msg_ok@number:
   631                           	callstack 0
   632  00001B                     canbus_latch_shutdown@number:
   633                           	callstack 0
   634                           
   635                           ; 2 bytes @ 0x1A
   636  00001B                     	ds	1
   637  00001C                     ?___flmul:
   638                           	callstack 0
   639  00001C                     ___flmul@b:
   640                           	callstack 0
   641                           
   642                           ; 4 bytes @ 0x1B
   643  00001C                     	ds	1
   644  00001D                     
   645                           ; 1 bytes @ 0x1C
   646  00001D                     	ds	3
   647  000020                     ___flmul@a:
   648                           	callstack 0
   649                           
   650                           ; 4 bytes @ 0x1F
   651  000020                     	ds	4
   652  000024                     ??___flmul:
   653                           
   654                           ; 1 bytes @ 0x23
   655  000024                     	ds	4
   656  000028                     ___flmul@sign:
   657                           	callstack 0
   658                           
   659                           ; 1 bytes @ 0x27
   660  000028                     	ds	1
   661  000029                     ___flmul@aexp:
   662                           	callstack 0
   663                           
   664                           ; 1 bytes @ 0x28
   665  000029                     	ds	1
   666  00002A                     ___flmul@grs:
   667                           	callstack 0
   668                           
   669                           ; 4 bytes @ 0x29
   670  00002A                     	ds	4
   671  00002E                     ___flmul@bexp:
   672                           	callstack 0
   673                           
   674                           ; 1 bytes @ 0x2D
   675  00002E                     	ds	1
   676  00002F                     ___flmul@prod:
   677                           	callstack 0
   678                           
   679                           ; 4 bytes @ 0x2E
   680  00002F                     	ds	4
   681  000033                     ___flmul@temp:
   682                           	callstack 0
   683                           
   684                           ; 2 bytes @ 0x32
   685  000033                     	ds	2
   686  000035                     ?_ADC_Conv_pinSeven:
   687                           	callstack 0
   688  000035                     ?_ADC_Conv_pinNine:
   689                           	callstack 0
   690                           
   691                           ; 2 bytes @ 0x34
   692  000035                     	ds	2
   693  000037                     ADC_Conv_pinSeven@voltage:
   694                           	callstack 0
   695  000037                     ADC_Conv_pinNine@voltage:
   696                           	callstack 0
   697                           
   698                           ; 2 bytes @ 0x36
   699  000037                     	ds	2
   700  000039                     ADC_Conv_pinSeven@input_voltage:
   701                           	callstack 0
   702  000039                     ADC_Conv_pinNine@input_voltage:
   703                           	callstack 0
   704                           
   705                           ; 4 bytes @ 0x38
   706  000039                     	ds	4
   707  00003D                     ADC_Conv_pinSeven@adc_val:
   708                           	callstack 0
   709  00003D                     ADC_Conv_pinNine@adc_val:
   710                           	callstack 0
   711                           
   712                           ; 4 bytes @ 0x3C
   713  00003D                     	ds	4
   714  000041                     ??_start_up_seq:
   715                           
   716                           ; 1 bytes @ 0x40
   717  000041                     	ds	2
   718  000043                     
   719                           ; 1 bytes @ 0x42
   720 ;;
   721 ;;Main: autosize = 0, tempsize = 0, incstack = 0, save=0
   722 ;;
   723 ;; *************** function _main *****************
   724 ;; Defined at:
   725 ;;		line 178 in file "main.c"
   726 ;; Parameters:    Size  Location     Type
   727 ;;		None
   728 ;; Auto vars:     Size  Location     Type
   729 ;;  iter            2    0[BANK0 ] int 
   730 ;; Return value:  Size  Location     Type
   731 ;;                  1    wreg      void 
   732 ;; Registers used:
   733 ;;		wreg, fsr2l, fsr2h, status,2, status,0, prodl, prodh, cstack
   734 ;; Tracked objects:
   735 ;;		On entry : 0/0
   736 ;;		On exit  : 0/0
   737 ;;		Unchanged: 0/0
   738 ;; Data sizes:     COMRAM   BANK0   BANK1   BANK2   BANK3   BANK4   BANK5   BANK6   BANK7   BANK8   BANK9  BANK10  BANK1
      +1  BANK12  BANK13  BANK14
   739 ;;      Params:         0       0       0       0       0       0       0       0       0       0       0       0       
      +0       0       0       0
   740 ;;      Locals:         0       2       0       0       0       0       0       0       0       0       0       0       
      +0       0       0       0
   741 ;;      Temps:          0       0       0       0       0       0       0       0       0       0       0       0       
      +0       0       0       0
   742 ;;      Totals:         0       2       0       0       0       0       0       0       0       0       0       0       
      +0       0       0       0
   743 ;;Total ram usage:        2 bytes
   744 ;; Hardware stack levels required when called: 7
   745 ;; This function calls:
   746 ;;		_ADC_Conv_pinNine
   747 ;;		_ADC_Conv_pinSeven
   748 ;;		_CAN_receive
   749 ;;		_SYSTEM_Initialize
   750 ;;		_aux_battery_LV
   751 ;;		_canbus_msg_ok
   752 ;;		_e_stop_seq
   753 ;;		_shutdown_seq
   754 ;;		_start_up_seq
   755 ;; This function is called by:
   756 ;;		Startup code after reset
   757 ;; This function uses a non-reentrant model
   758 ;;
   759                           
   760                           	psect	text0
   761  001814                     __ptext0:
   762                           	callstack 0
   763  001814                     _main:
   764                           	callstack 24
   765  001814                     
   766                           ;main.c: 180:     SYSTEM_Initialize();
   767  001814  EC27  F00E         	call	_SYSTEM_Initialize	;wreg free
   768  001818                     
   769                           ;main.c: 181:     STARTUP_SUCCESS = 0;
   770  001818  0E00               	movlw	0
   771  00181A  6E46               	movwf	(_STARTUP_SUCCESS+1)^0,c
   772  00181C  0E00               	movlw	0
   773  00181E  6E45               	movwf	_STARTUP_SUCCESS^0,c
   774  001820                     
   775                           ;main.c: 182:     int iter = 0;
   776  001820  0E00               	movlw	0
   777  001822  0100               	movlb	0	; () banked
   778  001824  6FFB               	movwf	(main@iter+1)& (0+255),b
   779  001826  0E00               	movlw	0
   780  001828  6FFA               	movwf	main@iter& (0+255),b
   781  00182A                     l3979:
   782                           
   783                           ; BSR set to: 0
   784                           ;main.c: 184:         if (STARTUP_SUCCESS == 0){
   785  00182A  5045               	movf	_STARTUP_SUCCESS^0,w,c
   786  00182C  1046               	iorwf	(_STARTUP_SUCCESS+1)^0,w,c
   787  00182E  A4D8               	btfss	status,2,c
   788  001830  EF1C  F00C         	goto	u2741
   789  001834  EF1E  F00C         	goto	u2740
   790  001838                     u2741:
   791  001838  EF22  F00C         	goto	l3983
   792  00183C                     u2740:
   793  00183C                     
   794                           ; BSR set to: 0
   795                           ;main.c: 185:                 start_up_seq();
   796  00183C  EC84  F00C         	call	_start_up_seq	;wreg free
   797                           
   798                           ;main.c: 186:         }
   799  001840  EF7D  F00C         	goto	l4005
   800  001844                     l3983:
   801                           
   802                           ; BSR set to: 0
   803                           ;main.c: 188:             if (CAN_receive(&rx)){
   804  001844  0EEC               	movlw	low _rx
   805  001846  6E16               	movwf	CAN_receive@tempCanMsg^0,c
   806  001848  0E00               	movlw	high _rx
   807  00184A  6E17               	movwf	(CAN_receive@tempCanMsg+1)^0,c
   808  00184C  EC97  F005         	call	_CAN_receive	;wreg free
   809  001850  0900               	iorlw	0
   810  001852  B4D8               	btfsc	status,2,c
   811  001854  EF2E  F00C         	goto	u2751
   812  001858  EF30  F00C         	goto	u2750
   813  00185C                     u2751:
   814  00185C  EF49  F00C         	goto	l3991
   815  001860                     u2750:
   816  001860                     
   817                           ;main.c: 189:                 if (rx.frame.idType == 1){
   818  001860  0100               	movlb	0	; () banked
   819  001862  05EC               	decf	_rx& (0+255),w,b
   820  001864  A4D8               	btfss	status,2,c
   821  001866  EF37  F00C         	goto	u2761
   822  00186A  EF39  F00C         	goto	u2760
   823  00186E                     u2761:
   824  00186E  EF49  F00C         	goto	l3991
   825  001872                     u2760:
   826  001872                     
   827                           ; BSR set to: 0
   828                           ;main.c: 190:                     if (rx.frame.id == 0x255){
   829  001872  0E55               	movlw	85
   830  001874  19ED               	xorwf	(_rx+1)& (0+255),w,b
   831  001876  E109               	bnz	u2771
   832  001878  0E02               	movlw	2
   833  00187A  19EE               	xorwf	(_rx+2)& (0+255),w,b
   834  00187C  11EF               	iorwf	(_rx+3)& (0+255),w,b
   835  00187E  11F0               	iorwf	(_rx+4)& (0+255),w,b
   836  001880  A4D8               	btfss	status,2,c
   837  001882  EF45  F00C         	goto	u2771
   838  001886  EF47  F00C         	goto	u2770
   839  00188A                     u2771:
   840  00188A  EF49  F00C         	goto	l3991
   841  00188E                     u2770:
   842  00188E                     
   843                           ; BSR set to: 0
   844                           ;main.c: 191:                         shutdown_seq();
   845  00188E  EC4F  F00E         	call	_shutdown_seq	;wreg free
   846  001892                     l3991:
   847                           
   848                           ;main.c: 195:             if (ADC_Conv_pinSeven() == 0){
   849  001892  EC28  F009         	call	_ADC_Conv_pinSeven	;wreg free
   850  001896  5035               	movf	?_ADC_Conv_pinSeven^0,w,c
   851  001898  1036               	iorwf	(?_ADC_Conv_pinSeven+1)^0,w,c
   852  00189A  A4D8               	btfss	status,2,c
   853  00189C  EF52  F00C         	goto	u2781
   854  0018A0  EF54  F00C         	goto	u2780
   855  0018A4                     u2781:
   856  0018A4  EF56  F00C         	goto	l3995
   857  0018A8                     u2780:
   858  0018A8                     
   859                           ;main.c: 196:                 aux_battery_LV();
   860  0018A8  EC56  F00E         	call	_aux_battery_LV	;wreg free
   861  0018AC                     l3995:
   862                           
   863                           ;main.c: 198:             if (ADC_Conv_pinNine() == 0){
   864  0018AC  ECC8  F009         	call	_ADC_Conv_pinNine	;wreg free
   865  0018B0  5035               	movf	?_ADC_Conv_pinNine^0,w,c
   866  0018B2  1036               	iorwf	(?_ADC_Conv_pinNine+1)^0,w,c
   867  0018B4  A4D8               	btfss	status,2,c
   868  0018B6  EF5F  F00C         	goto	u2791
   869  0018BA  EF61  F00C         	goto	u2790
   870  0018BE                     u2791:
   871  0018BE  EF63  F00C         	goto	l3999
   872  0018C2                     u2790:
   873  0018C2                     
   874                           ;main.c: 199:                 e_stop_seq();
   875  0018C2  EC3D  F00E         	call	_e_stop_seq	;wreg free
   876  0018C6                     l3999:
   877                           
   878                           ;main.c: 201:             if (iter >= 1000){
   879  0018C6  0100               	movlb	0	; () banked
   880  0018C8  BFFB               	btfsc	(main@iter+1)& (0+255),7,b
   881  0018CA  EF70  F00C         	goto	u2801
   882  0018CE  0EE8               	movlw	232
   883  0018D0  5DFA               	subwf	main@iter& (0+255),w,b
   884  0018D2  0E03               	movlw	3
   885  0018D4  59FB               	subwfb	(main@iter+1)& (0+255),w,b
   886  0018D6  A0D8               	btfss	status,0,c
   887  0018D8  EF70  F00C         	goto	u2801
   888  0018DC  EF72  F00C         	goto	u2800
   889  0018E0                     u2801:
   890  0018E0  EF7D  F00C         	goto	l4005
   891  0018E4                     u2800:
   892  0018E4                     
   893                           ; BSR set to: 0
   894                           ;main.c: 202:                 canbus_msg_ok(1);
   895  0018E4  0E00               	movlw	0
   896  0018E6  6E1C               	movwf	(canbus_msg_ok@number+1)^0,c
   897  0018E8  0E01               	movlw	1
   898  0018EA  6E1B               	movwf	canbus_msg_ok@number^0,c
   899  0018EC  ECEC  F00D         	call	_canbus_msg_ok	;wreg free
   900  0018F0                     
   901                           ;main.c: 203:                 iter = 0;
   902  0018F0  0E00               	movlw	0
   903  0018F2  0100               	movlb	0	; () banked
   904  0018F4  6FFB               	movwf	(main@iter+1)& (0+255),b
   905  0018F6  0E00               	movlw	0
   906  0018F8  6FFA               	movwf	main@iter& (0+255),b
   907  0018FA                     l4005:
   908                           
   909                           ;main.c: 207:         iter += 1;
   910  0018FA  0100               	movlb	0	; () banked
   911  0018FC  4BFA               	infsnz	main@iter& (0+255),f,b
   912  0018FE  2BFB               	incf	(main@iter+1)& (0+255),f,b
   913  001900  EF15  F00C         	goto	l3979
   914  001904  EF26  F000         	goto	start
   915  001908                     __end_of_main:
   916                           	callstack 0
   917                           
   918 ;; *************** function _start_up_seq *****************
   919 ;; Defined at:
   920 ;;		line 130 in file "main.c"
   921 ;; Parameters:    Size  Location     Type
   922 ;;		None
   923 ;; Auto vars:     Size  Location     Type
   924 ;;		None
   925 ;; Return value:  Size  Location     Type
   926 ;;                  1    wreg      void 
   927 ;; Registers used:
   928 ;;		wreg, fsr2l, fsr2h, status,2, status,0, prodl, prodh, cstack
   929 ;; Tracked objects:
   930 ;;		On entry : 0/0
   931 ;;		On exit  : 0/0
   932 ;;		Unchanged: 0/0
   933 ;; Data sizes:     COMRAM   BANK0   BANK1   BANK2   BANK3   BANK4   BANK5   BANK6   BANK7   BANK8   BANK9  BANK10  BANK1
      +1  BANK12  BANK13  BANK14
   934 ;;      Params:         0       0       0       0       0       0       0       0       0       0       0       0       
      +0       0       0       0
   935 ;;      Locals:         0       0       0       0       0       0       0       0       0       0       0       0       
      +0       0       0       0
   936 ;;      Temps:          2       0       0       0       0       0       0       0       0       0       0       0       
      +0       0       0       0
   937 ;;      Totals:         2       0       0       0       0       0       0       0       0       0       0       0       
      +0       0       0       0
   938 ;;Total ram usage:        2 bytes
   939 ;; Hardware stack levels used: 1
   940 ;; Hardware stack levels required when called: 6
   941 ;; This function calls:
   942 ;;		_ADC_Conv_pinNine
   943 ;;		_ADC_Conv_pinSeven
   944 ;;		_canbus_latch_shutdown
   945 ;;		_canbus_msg_auxlow
   946 ;;		_canbus_msg_startup_success
   947 ;;		_canbus_msg_startupfail
   948 ;; This function is called by:
   949 ;;		_main
   950 ;; This function uses a non-reentrant model
   951 ;;
   952                           
   953                           	psect	text1
   954  001908                     __ptext1:
   955                           	callstack 0
   956  001908                     _start_up_seq:
   957                           	callstack 24
   958  001908                     
   959                           ;main.c: 132:     if (ADC_Conv_pinSeven() == 1){
   960  001908  EC28  F009         	call	_ADC_Conv_pinSeven	;wreg free
   961  00190C  0435               	decf	?_ADC_Conv_pinSeven^0,w,c
   962  00190E  1036               	iorwf	(?_ADC_Conv_pinSeven+1)^0,w,c
   963  001910  A4D8               	btfss	status,2,c
   964  001912  EF8D  F00C         	goto	u2721
   965  001916  EF8F  F00C         	goto	u2720
   966  00191A                     u2721:
   967  00191A  EFC9  F00C         	goto	l3951
   968  00191E                     u2720:
   969  00191E  828B               	bsf	139,1,c	;volatile
   970  001920  848B               	bsf	139,2,c	;volatile
   971  001922                     
   972                           ;main.c: 135:         _delay((unsigned long)((1000)*(20000000/4000.0)));
   973  001922  0E1A               	movlw	26
   974  001924  6E42               	movwf	(??_start_up_seq+1)^0,c
   975  001926  0E5E               	movlw	94
   976  001928  6E41               	movwf	??_start_up_seq^0,c
   977  00192A  0E6E               	movlw	110
   978  00192C                     u2817:
   979  00192C  2EE8               	decfsz	wreg,f,c
   980  00192E  D7FE               	bra	u2817
   981  001930  2E41               	decfsz	??_start_up_seq^0,f,c
   982  001932  D7FC               	bra	u2817
   983  001934  2E42               	decfsz	(??_start_up_seq+1)^0,f,c
   984  001936  D7FA               	bra	u2817
   985  001938  D000               	nop2	
   986  00193A  808B               	bsf	139,0,c	;volatile
   987  00193C  948B               	bcf	139,2,c	;volatile
   988  00193E  8C8B               	bsf	139,6,c	;volatile
   989  001940                     
   990                           ;main.c: 141:         if (ADC_Conv_pinNine() == 1){
   991  001940  ECC8  F009         	call	_ADC_Conv_pinNine	;wreg free
   992  001944  0435               	decf	?_ADC_Conv_pinNine^0,w,c
   993  001946  1036               	iorwf	(?_ADC_Conv_pinNine+1)^0,w,c
   994  001948  A4D8               	btfss	status,2,c
   995  00194A  EFA9  F00C         	goto	u2731
   996  00194E  EFAB  F00C         	goto	u2730
   997  001952                     u2731:
   998  001952  EFB9  F00C         	goto	l635
   999  001956                     u2730:
  1000  001956  8489               	bsf	137,2,c	;volatile
  1001  001958  8689               	bsf	137,3,c	;volatile
  1002  00195A                     
  1003                           ;main.c: 144:             STARTUP_SUCCESS = 1;
  1004  00195A  0E00               	movlw	0
  1005  00195C  6E46               	movwf	(_STARTUP_SUCCESS+1)^0,c
  1006  00195E  0E01               	movlw	1
  1007  001960  6E45               	movwf	_STARTUP_SUCCESS^0,c
  1008  001962                     
  1009                           ;main.c: 145:             canbus_msg_startup_success(1);
  1010  001962  0E00               	movlw	0
  1011  001964  6E1C               	movwf	(canbus_msg_startup_success@number+1)^0,c
  1012  001966  0E01               	movlw	1
  1013  001968  6E1B               	movwf	canbus_msg_startup_success@number^0,c
  1014  00196A  EC94  F00D         	call	_canbus_msg_startup_success	;wreg free
  1015                           
  1016                           ;main.c: 146:         }
  1017  00196E  EFE0  F00C         	goto	l640
  1018  001972                     l635:
  1019  001972  908B               	bcf	139,0,c	;volatile
  1020  001974  928B               	bcf	139,1,c	;volatile
  1021  001976                     
  1022                           ;main.c: 151:             canbus_msg_startupfail(1);
  1023  001976  0E00               	movlw	0
  1024  001978  6E1C               	movwf	(canbus_msg_startupfail@number+1)^0,c
  1025  00197A  0E01               	movlw	1
  1026  00197C  6E1B               	movwf	canbus_msg_startupfail@number^0,c
  1027  00197E  EC7E  F00D         	call	_canbus_msg_startupfail	;wreg free
  1028                           
  1029                           ;main.c: 152:             canbus_latch_shutdown(1);
  1030  001982  0E00               	movlw	0
  1031  001984  6E1C               	movwf	(canbus_latch_shutdown@number+1)^0,c
  1032  001986  0E01               	movlw	1
  1033  001988  6E1B               	movwf	canbus_latch_shutdown@number^0,c
  1034  00198A  ECAA  F00D         	call	_canbus_latch_shutdown	;wreg free
  1035  00198E  EFE0  F00C         	goto	l640
  1036  001992                     l3951:
  1037                           
  1038                           ;main.c: 157:         _delay((unsigned long)((5000)*(20000000/4000.0)));
  1039  001992  0E7F               	movlw	127
  1040  001994  6E42               	movwf	(??_start_up_seq+1)^0,c
  1041  001996  0ED4               	movlw	212
  1042  001998  6E41               	movwf	??_start_up_seq^0,c
  1043  00199A  0E32               	movlw	50
  1044  00199C                     u2827:
  1045  00199C  2EE8               	decfsz	wreg,f,c
  1046  00199E  D7FE               	bra	u2827
  1047  0019A0  2E41               	decfsz	??_start_up_seq^0,f,c
  1048  0019A2  D7FC               	bra	u2827
  1049  0019A4  2E42               	decfsz	(??_start_up_seq+1)^0,f,c
  1050  0019A6  D7FA               	bra	u2827
  1051  0019A8                     
  1052                           ;main.c: 159:         canbus_msg_auxlow(1);
  1053  0019A8  0E00               	movlw	0
  1054  0019AA  6E1C               	movwf	(canbus_msg_auxlow@number+1)^0,c
  1055  0019AC  0E01               	movlw	1
  1056  0019AE  6E1B               	movwf	canbus_msg_auxlow@number^0,c
  1057  0019B0  EC02  F00E         	call	_canbus_msg_auxlow	;wreg free
  1058  0019B4                     
  1059                           ;main.c: 160:         canbus_latch_shutdown(1);
  1060  0019B4  0E00               	movlw	0
  1061  0019B6  6E1C               	movwf	(canbus_latch_shutdown@number+1)^0,c
  1062  0019B8  0E01               	movlw	1
  1063  0019BA  6E1B               	movwf	canbus_latch_shutdown@number^0,c
  1064  0019BC  ECAA  F00D         	call	_canbus_latch_shutdown	;wreg free
  1065  0019C0                     l640:
  1066  0019C0  0012               	return		;funcret
  1067  0019C2                     __end_of_start_up_seq:
  1068                           	callstack 0
  1069                           
  1070 ;; *************** function _canbus_msg_startupfail *****************
  1071 ;; Defined at:
  1072 ;;		line 62 in file "main.c"
  1073 ;; Parameters:    Size  Location     Type
  1074 ;;  number          2   26[COMRAM] int 
  1075 ;; Auto vars:     Size  Location     Type
  1076 ;;		None
  1077 ;; Return value:  Size  Location     Type
  1078 ;;                  1    wreg      void 
  1079 ;; Registers used:
  1080 ;;		wreg, fsr2l, fsr2h, status,2, status,0, cstack
  1081 ;; Tracked objects:
  1082 ;;		On entry : 0/0
  1083 ;;		On exit  : 0/0
  1084 ;;		Unchanged: 0/0
  1085 ;; Data sizes:     COMRAM   BANK0   BANK1   BANK2   BANK3   BANK4   BANK5   BANK6   BANK7   BANK8   BANK9  BANK10  BANK1
      +1  BANK12  BANK13  BANK14
  1086 ;;      Params:         2       0       0       0       0       0       0       0       0       0       0       0       
      +0       0       0       0
  1087 ;;      Locals:         0       0       0       0       0       0       0       0       0       0       0       0       
      +0       0       0       0
  1088 ;;      Temps:          0       0       0       0       0       0       0       0       0       0       0       0       
      +0       0       0       0
  1089 ;;      Totals:         2       0       0       0       0       0       0       0       0       0       0       0       
      +0       0       0       0
  1090 ;;Total ram usage:        2 bytes
  1091 ;; Hardware stack levels used: 1
  1092 ;; Hardware stack levels required when called: 5
  1093 ;; This function calls:
  1094 ;;		_CAN_transmit
  1095 ;; This function is called by:
  1096 ;;		_start_up_seq
  1097 ;; This function uses a non-reentrant model
  1098 ;;
  1099                           
  1100                           	psect	text2
  1101  001AFC                     __ptext2:
  1102                           	callstack 0
  1103  001AFC                     _canbus_msg_startupfail:
  1104                           	callstack 24
  1105  001AFC                     
  1106                           ;main.c: 63:     tx3.frame.idType = 1;
  1107  001AFC  0E01               	movlw	1
  1108  001AFE  0100               	movlb	0	; () banked
  1109  001B00  6FDE               	movwf	_tx3& (0+255),b
  1110                           
  1111                           ;main.c: 64:     tx3.frame.id = 0x3;
  1112  001B02  0E03               	movlw	3
  1113  001B04  6FDF               	movwf	(_tx3+1)& (0+255),b
  1114  001B06  0E00               	movlw	0
  1115  001B08  6FE0               	movwf	(_tx3+2)& (0+255),b
  1116  001B0A  0E00               	movlw	0
  1117  001B0C  6FE1               	movwf	(_tx3+3)& (0+255),b
  1118  001B0E  0E00               	movlw	0
  1119  001B10  6FE2               	movwf	(_tx3+4)& (0+255),b
  1120                           
  1121                           ;main.c: 65:     tx3.frame.dlc = 0x01;
  1122  001B12  0E01               	movlw	1
  1123  001B14  6FE3               	movwf	(_tx3+5)& (0+255),b
  1124  001B16                     
  1125                           ; BSR set to: 0
  1126                           ;main.c: 66:     tx3.frame.data0 = number;
  1127  001B16  C01B  F0E4         	movff	canbus_msg_startupfail@number,_tx3+6
  1128  001B1A                     
  1129                           ; BSR set to: 0
  1130                           ;main.c: 67:     CAN_transmit(&tx3);
  1131  001B1A  0EDE               	movlw	low _tx3
  1132  001B1C  6E15               	movwf	CAN_transmit@tempCanMsg^0,c
  1133  001B1E  0E00               	movlw	high _tx3
  1134  001B20  6E16               	movwf	(CAN_transmit@tempCanMsg+1)^0,c
  1135  001B22  EC0A  F004         	call	_CAN_transmit	;wreg free
  1136  001B26  0012               	return		;funcret
  1137  001B28                     __end_of_canbus_msg_startupfail:
  1138                           	callstack 0
  1139                           
  1140 ;; *************** function _canbus_msg_startup_success *****************
  1141 ;; Defined at:
  1142 ;;		line 106 in file "main.c"
  1143 ;; Parameters:    Size  Location     Type
  1144 ;;  number          2   26[COMRAM] int 
  1145 ;; Auto vars:     Size  Location     Type
  1146 ;;		None
  1147 ;; Return value:  Size  Location     Type
  1148 ;;                  1    wreg      void 
  1149 ;; Registers used:
  1150 ;;		wreg, fsr2l, fsr2h, status,2, status,0, cstack
  1151 ;; Tracked objects:
  1152 ;;		On entry : 0/0
  1153 ;;		On exit  : 0/0
  1154 ;;		Unchanged: 0/0
  1155 ;; Data sizes:     COMRAM   BANK0   BANK1   BANK2   BANK3   BANK4   BANK5   BANK6   BANK7   BANK8   BANK9  BANK10  BANK1
      +1  BANK12  BANK13  BANK14
  1156 ;;      Params:         2       0       0       0       0       0       0       0       0       0       0       0       
      +0       0       0       0
  1157 ;;      Locals:         0       0       0       0       0       0       0       0       0       0       0       0       
      +0       0       0       0
  1158 ;;      Temps:          0       0       0       0       0       0       0       0       0       0       0       0       
      +0       0       0       0
  1159 ;;      Totals:         2       0       0       0       0       0       0       0       0       0       0       0       
      +0       0       0       0
  1160 ;;Total ram usage:        2 bytes
  1161 ;; Hardware stack levels used: 1
  1162 ;; Hardware stack levels required when called: 5
  1163 ;; This function calls:
  1164 ;;		_CAN_transmit
  1165 ;; This function is called by:
  1166 ;;		_start_up_seq
  1167 ;; This function uses a non-reentrant model
  1168 ;;
  1169                           
  1170                           	psect	text3
  1171  001B28                     __ptext3:
  1172                           	callstack 0
  1173  001B28                     _canbus_msg_startup_success:
  1174                           	callstack 24
  1175  001B28                     
  1176                           ;main.c: 107:     tx9.frame.idType = 1;
  1177  001B28  0E01               	movlw	1
  1178  001B2A  0100               	movlb	0	; () banked
  1179  001B2C  6F8A               	movwf	_tx9& (0+255),b
  1180                           
  1181                           ;main.c: 108:     tx9.frame.id = 0x22;
  1182  001B2E  0E22               	movlw	34
  1183  001B30  6F8B               	movwf	(_tx9+1)& (0+255),b
  1184  001B32  0E00               	movlw	0
  1185  001B34  6F8C               	movwf	(_tx9+2)& (0+255),b
  1186  001B36  0E00               	movlw	0
  1187  001B38  6F8D               	movwf	(_tx9+3)& (0+255),b
  1188  001B3A  0E00               	movlw	0
  1189  001B3C  6F8E               	movwf	(_tx9+4)& (0+255),b
  1190                           
  1191                           ;main.c: 109:     tx9.frame.dlc = 0x01;
  1192  001B3E  0E01               	movlw	1
  1193  001B40  6F8F               	movwf	(_tx9+5)& (0+255),b
  1194  001B42                     
  1195                           ; BSR set to: 0
  1196                           ;main.c: 110:     tx9.frame.data0 = number;
  1197  001B42  C01B  F090         	movff	canbus_msg_startup_success@number,_tx9+6
  1198  001B46                     
  1199                           ; BSR set to: 0
  1200                           ;main.c: 111:     CAN_transmit(&tx9);
  1201  001B46  0E8A               	movlw	low _tx9
  1202  001B48  6E15               	movwf	CAN_transmit@tempCanMsg^0,c
  1203  001B4A  0E00               	movlw	high _tx9
  1204  001B4C  6E16               	movwf	(CAN_transmit@tempCanMsg+1)^0,c
  1205  001B4E  EC0A  F004         	call	_CAN_transmit	;wreg free
  1206  001B52  0012               	return		;funcret
  1207  001B54                     __end_of_canbus_msg_startup_success:
  1208                           	callstack 0
  1209                           
  1210 ;; *************** function _canbus_latch_shutdown *****************
  1211 ;; Defined at:
  1212 ;;		line 122 in file "main.c"
  1213 ;; Parameters:    Size  Location     Type
  1214 ;;  number          2   26[COMRAM] int 
  1215 ;; Auto vars:     Size  Location     Type
  1216 ;;		None
  1217 ;; Return value:  Size  Location     Type
  1218 ;;                  1    wreg      void 
  1219 ;; Registers used:
  1220 ;;		wreg, fsr2l, fsr2h, status,2, status,0, cstack
  1221 ;; Tracked objects:
  1222 ;;		On entry : 0/0
  1223 ;;		On exit  : 0/0
  1224 ;;		Unchanged: 0/0
  1225 ;; Data sizes:     COMRAM   BANK0   BANK1   BANK2   BANK3   BANK4   BANK5   BANK6   BANK7   BANK8   BANK9  BANK10  BANK1
      +1  BANK12  BANK13  BANK14
  1226 ;;      Params:         2       0       0       0       0       0       0       0       0       0       0       0       
      +0       0       0       0
  1227 ;;      Locals:         0       0       0       0       0       0       0       0       0       0       0       0       
      +0       0       0       0
  1228 ;;      Temps:          0       0       0       0       0       0       0       0       0       0       0       0       
      +0       0       0       0
  1229 ;;      Totals:         2       0       0       0       0       0       0       0       0       0       0       0       
      +0       0       0       0
  1230 ;;Total ram usage:        2 bytes
  1231 ;; Hardware stack levels used: 1
  1232 ;; Hardware stack levels required when called: 5
  1233 ;; This function calls:
  1234 ;;		_CAN_transmit
  1235 ;; This function is called by:
  1236 ;;		_start_up_seq
  1237 ;; This function uses a non-reentrant model
  1238 ;;
  1239                           
  1240                           	psect	text4
  1241  001B54                     __ptext4:
  1242                           	callstack 0
  1243  001B54                     _canbus_latch_shutdown:
  1244                           	callstack 24
  1245  001B54                     
  1246                           ;main.c: 123:     tx8.frame.idType = 1;
  1247  001B54  0E01               	movlw	1
  1248  001B56  0100               	movlb	0	; () banked
  1249  001B58  6F98               	movwf	_tx8& (0+255),b
  1250                           
  1251                           ;main.c: 124:     tx8.frame.id = 0x17;
  1252  001B5A  0E17               	movlw	23
  1253  001B5C  6F99               	movwf	(_tx8+1)& (0+255),b
  1254  001B5E  0E00               	movlw	0
  1255  001B60  6F9A               	movwf	(_tx8+2)& (0+255),b
  1256  001B62  0E00               	movlw	0
  1257  001B64  6F9B               	movwf	(_tx8+3)& (0+255),b
  1258  001B66  0E00               	movlw	0
  1259  001B68  6F9C               	movwf	(_tx8+4)& (0+255),b
  1260                           
  1261                           ;main.c: 125:     tx8.frame.dlc = 0x01;
  1262  001B6A  0E01               	movlw	1
  1263  001B6C  6F9D               	movwf	(_tx8+5)& (0+255),b
  1264  001B6E                     
  1265                           ; BSR set to: 0
  1266                           ;main.c: 126:     tx8.frame.data0 = number;
  1267  001B6E  C01B  F09E         	movff	canbus_latch_shutdown@number,_tx8+6
  1268  001B72                     
  1269                           ; BSR set to: 0
  1270                           ;main.c: 127:     CAN_transmit(&tx8);
  1271  001B72  0E98               	movlw	low _tx8
  1272  001B74  6E15               	movwf	CAN_transmit@tempCanMsg^0,c
  1273  001B76  0E00               	movlw	high _tx8
  1274  001B78  6E16               	movwf	(CAN_transmit@tempCanMsg+1)^0,c
  1275  001B7A  EC0A  F004         	call	_CAN_transmit	;wreg free
  1276  001B7E  0012               	return		;funcret
  1277  001B80                     __end_of_canbus_latch_shutdown:
  1278                           	callstack 0
  1279                           
  1280 ;; *************** function _ADC_Conv_pinSeven *****************
  1281 ;; Defined at:
  1282 ;;		line 24 in file "main.c"
  1283 ;; Parameters:    Size  Location     Type
  1284 ;;		None
  1285 ;; Auto vars:     Size  Location     Type
  1286 ;;  adc_val         4   60[COMRAM] float 
  1287 ;;  input_voltag    4   56[COMRAM] float 
  1288 ;;  voltage         2   54[COMRAM] int 
  1289 ;; Return value:  Size  Location     Type
  1290 ;;                  2   52[COMRAM] int 
  1291 ;; Registers used:
  1292 ;;		wreg, fsr2l, fsr2h, status,2, status,0, prodl, prodh, cstack
  1293 ;; Tracked objects:
  1294 ;;		On entry : 0/0
  1295 ;;		On exit  : 0/0
  1296 ;;		Unchanged: 0/0
  1297 ;; Data sizes:     COMRAM   BANK0   BANK1   BANK2   BANK3   BANK4   BANK5   BANK6   BANK7   BANK8   BANK9  BANK10  BANK1
      +1  BANK12  BANK13  BANK14
  1298 ;;      Params:         2       0       0       0       0       0       0       0       0       0       0       0       
      +0       0       0       0
  1299 ;;      Locals:        10       0       0       0       0       0       0       0       0       0       0       0       
      +0       0       0       0
  1300 ;;      Temps:          0       0       0       0       0       0       0       0       0       0       0       0       
      +0       0       0       0
  1301 ;;      Totals:        12       0       0       0       0       0       0       0       0       0       0       0       
      +0       0       0       0
  1302 ;;Total ram usage:       12 bytes
  1303 ;; Hardware stack levels used: 1
  1304 ;; Hardware stack levels required when called: 5
  1305 ;; This function calls:
  1306 ;;		_ADC_GetConversion
  1307 ;;		_CAN_transmit
  1308 ;;		___fldiv
  1309 ;;		___flge
  1310 ;;		___flmul
  1311 ;;		___fltol
  1312 ;;		___xxtofl
  1313 ;; This function is called by:
  1314 ;;		_start_up_seq
  1315 ;;		_main
  1316 ;; This function uses a non-reentrant model
  1317 ;;
  1318                           
  1319                           	psect	text5
  1320  001250                     __ptext5:
  1321                           	callstack 0
  1322  001250                     _ADC_Conv_pinSeven:
  1323                           	callstack 24
  1324  001250                     
  1325                           ;main.c: 25:     float adc_val = ADC_GetConversion(channel_AN4);
  1326  001250  0E04               	movlw	4
  1327  001252  EC46  F00D         	call	_ADC_GetConversion
  1328  001256  C003  F008         	movff	?_ADC_GetConversion,___xxtofl@val
  1329  00125A  C004  F009         	movff	?_ADC_GetConversion+1,___xxtofl@val+1
  1330  00125E  6A0A               	clrf	(___xxtofl@val+2)^0,c
  1331  001260  6A0B               	clrf	(___xxtofl@val+3)^0,c
  1332  001262  0E00               	movlw	0
  1333  001264  ECC1  F006         	call	___xxtofl
  1334  001268  C008  F03D         	movff	?___xxtofl,ADC_Conv_pinSeven@adc_val
  1335  00126C  C009  F03E         	movff	?___xxtofl+1,ADC_Conv_pinSeven@adc_val+1
  1336  001270  C00A  F03F         	movff	?___xxtofl+2,ADC_Conv_pinSeven@adc_val+2
  1337  001274  C00B  F040         	movff	?___xxtofl+3,ADC_Conv_pinSeven@adc_val+3
  1338  001278                     
  1339                           ;main.c: 26:     adc_val = (adc_val / 1023.0)*4.0;
  1340  001278  0E00               	movlw	0
  1341  00127A  6E07               	movwf	___fldiv@a^0,c
  1342  00127C  0EC0               	movlw	192
  1343  00127E  6E08               	movwf	(___fldiv@a+1)^0,c
  1344  001280  0E7F               	movlw	127
  1345  001282  6E09               	movwf	(___fldiv@a+2)^0,c
  1346  001284  0E44               	movlw	68
  1347  001286  6E0A               	movwf	(___fldiv@a+3)^0,c
  1348  001288  C03D  F003         	movff	ADC_Conv_pinSeven@adc_val,___fldiv@b
  1349  00128C  C03E  F004         	movff	ADC_Conv_pinSeven@adc_val+1,___fldiv@b+1
  1350  001290  C03F  F005         	movff	ADC_Conv_pinSeven@adc_val+2,___fldiv@b+2
  1351  001294  C040  F006         	movff	ADC_Conv_pinSeven@adc_val+3,___fldiv@b+3
  1352  001298  EC3D  F002         	call	___fldiv	;wreg free
  1353  00129C  C003  F01C         	movff	?___fldiv,___flmul@b
  1354  0012A0  C004  F01D         	movff	?___fldiv+1,___flmul@b+1
  1355  0012A4  C005  F01E         	movff	?___fldiv+2,___flmul@b+2
  1356  0012A8  C006  F01F         	movff	?___fldiv+3,___flmul@b+3
  1357  0012AC  0E00               	movlw	0
  1358  0012AE  6E20               	movwf	___flmul@a^0,c
  1359  0012B0  0E00               	movlw	0
  1360  0012B2  6E21               	movwf	(___flmul@a+1)^0,c
  1361  0012B4  0E80               	movlw	128
  1362  0012B6  6E22               	movwf	(___flmul@a+2)^0,c
  1363  0012B8  0E40               	movlw	64
  1364  0012BA  6E23               	movwf	(___flmul@a+3)^0,c
  1365  0012BC  EC28  F000         	call	___flmul	;wreg free
  1366  0012C0  C01C  F03D         	movff	?___flmul,ADC_Conv_pinSeven@adc_val
  1367  0012C4  C01D  F03E         	movff	?___flmul+1,ADC_Conv_pinSeven@adc_val+1
  1368  0012C8  C01E  F03F         	movff	?___flmul+2,ADC_Conv_pinSeven@adc_val+2
  1369  0012CC  C01F  F040         	movff	?___flmul+3,ADC_Conv_pinSeven@adc_val+3
  1370  0012D0                     
  1371                           ;main.c: 27:     float input_voltage = adc_val*3.0;
  1372  0012D0  C03D  F01C         	movff	ADC_Conv_pinSeven@adc_val,___flmul@b
  1373  0012D4  C03E  F01D         	movff	ADC_Conv_pinSeven@adc_val+1,___flmul@b+1
  1374  0012D8  C03F  F01E         	movff	ADC_Conv_pinSeven@adc_val+2,___flmul@b+2
  1375  0012DC  C040  F01F         	movff	ADC_Conv_pinSeven@adc_val+3,___flmul@b+3
  1376  0012E0  0E00               	movlw	0
  1377  0012E2  6E20               	movwf	___flmul@a^0,c
  1378  0012E4  0E00               	movlw	0
  1379  0012E6  6E21               	movwf	(___flmul@a+1)^0,c
  1380  0012E8  0E40               	movlw	64
  1381  0012EA  6E22               	movwf	(___flmul@a+2)^0,c
  1382  0012EC  0E40               	movlw	64
  1383  0012EE  6E23               	movwf	(___flmul@a+3)^0,c
  1384  0012F0  EC28  F000         	call	___flmul	;wreg free
  1385  0012F4  C01C  F039         	movff	?___flmul,ADC_Conv_pinSeven@input_voltage
  1386  0012F8  C01D  F03A         	movff	?___flmul+1,ADC_Conv_pinSeven@input_voltage+1
  1387  0012FC  C01E  F03B         	movff	?___flmul+2,ADC_Conv_pinSeven@input_voltage+2
  1388  001300  C01F  F03C         	movff	?___flmul+3,ADC_Conv_pinSeven@input_voltage+3
  1389                           
  1390                           ;main.c: 28:     int voltage = (int)input_voltage;
  1391  001304  C039  F003         	movff	ADC_Conv_pinSeven@input_voltage,___fltol@f1
  1392  001308  C03A  F004         	movff	ADC_Conv_pinSeven@input_voltage+1,___fltol@f1+1
  1393  00130C  C03B  F005         	movff	ADC_Conv_pinSeven@input_voltage+2,___fltol@f1+2
  1394  001310  C03C  F006         	movff	ADC_Conv_pinSeven@input_voltage+3,___fltol@f1+3
  1395  001314  EC05  F00B         	call	___fltol	;wreg free
  1396  001318  C003  F037         	movff	?___fltol,ADC_Conv_pinSeven@voltage
  1397  00131C  C004  F038         	movff	?___fltol+1,ADC_Conv_pinSeven@voltage+1
  1398  001320                     
  1399                           ;main.c: 29:     tx21.frame.id = 0x1;
  1400  001320  0E01               	movlw	1
  1401  001322  6E4C               	movwf	(_tx21+1)^0,c
  1402  001324  0E00               	movlw	0
  1403  001326  6E4D               	movwf	(_tx21+2)^0,c
  1404  001328  0E00               	movlw	0
  1405  00132A  6E4E               	movwf	(_tx21+3)^0,c
  1406  00132C  0E00               	movlw	0
  1407  00132E  6E4F               	movwf	(_tx21+4)^0,c
  1408  001330                     
  1409                           ;main.c: 30:     tx21.frame.idType = 0x1;
  1410  001330  0E01               	movlw	1
  1411  001332  6E4B               	movwf	_tx21^0,c
  1412  001334                     
  1413                           ;main.c: 31:     tx21.frame.dlc = 0x1;
  1414  001334  0E01               	movlw	1
  1415  001336  6E50               	movwf	(_tx21+5)^0,c
  1416  001338                     
  1417                           ;main.c: 32:     tx21.frame.data0 = voltage;
  1418  001338  C037  F051         	movff	ADC_Conv_pinSeven@voltage,_tx21+6
  1419  00133C                     
  1420                           ;main.c: 33:     CAN_transmit(&tx21);
  1421  00133C  0E4B               	movlw	low _tx21
  1422  00133E  6E15               	movwf	CAN_transmit@tempCanMsg^0,c
  1423  001340  0E00               	movlw	high _tx21
  1424  001342  6E16               	movwf	(CAN_transmit@tempCanMsg+1)^0,c
  1425  001344  EC0A  F004         	call	_CAN_transmit	;wreg free
  1426  001348                     
  1427                           ;main.c: 35:     if (input_voltage >= 10.2){
  1428  001348  C039  F003         	movff	ADC_Conv_pinSeven@input_voltage,___flge@ff1
  1429  00134C  C03A  F004         	movff	ADC_Conv_pinSeven@input_voltage+1,___flge@ff1+1
  1430  001350  C03B  F005         	movff	ADC_Conv_pinSeven@input_voltage+2,___flge@ff1+2
  1431  001354  C03C  F006         	movff	ADC_Conv_pinSeven@input_voltage+3,___flge@ff1+3
  1432  001358  0E33               	movlw	51
  1433  00135A  6E07               	movwf	___flge@ff2^0,c
  1434  00135C  0E33               	movlw	51
  1435  00135E  6E08               	movwf	(___flge@ff2+1)^0,c
  1436  001360  0E23               	movlw	35
  1437  001362  6E09               	movwf	(___flge@ff2+2)^0,c
  1438  001364  0E41               	movlw	65
  1439  001366  6E0A               	movwf	(___flge@ff2+3)^0,c
  1440  001368  EC88  F00B         	call	___flge	;wreg free
  1441  00136C  A0D8               	btfss	status,0,c
  1442  00136E  EFBB  F009         	goto	u2661
  1443  001372  EFBD  F009         	goto	u2660
  1444  001376                     u2661:
  1445  001376  EFC3  F009         	goto	l3777
  1446  00137A                     u2660:
  1447  00137A                     
  1448                           ;main.c: 36:         return 1;
  1449  00137A  0E00               	movlw	0
  1450  00137C  6E36               	movwf	(?_ADC_Conv_pinSeven+1)^0,c
  1451  00137E  0E01               	movlw	1
  1452  001380  6E35               	movwf	?_ADC_Conv_pinSeven^0,c
  1453  001382  EFC7  F009         	goto	l585
  1454  001386                     l3777:
  1455                           
  1456                           ;main.c: 39:         return 0;
  1457  001386  0E00               	movlw	0
  1458  001388  6E36               	movwf	(?_ADC_Conv_pinSeven+1)^0,c
  1459  00138A  0E00               	movlw	0
  1460  00138C  6E35               	movwf	?_ADC_Conv_pinSeven^0,c
  1461  00138E                     l585:
  1462  00138E  0012               	return		;funcret
  1463  001390                     __end_of_ADC_Conv_pinSeven:
  1464                           	callstack 0
  1465                           
  1466 ;; *************** function _ADC_Conv_pinNine *****************
  1467 ;; Defined at:
  1468 ;;		line 43 in file "main.c"
  1469 ;; Parameters:    Size  Location     Type
  1470 ;;		None
  1471 ;; Auto vars:     Size  Location     Type
  1472 ;;  adc_val         4   60[COMRAM] float 
  1473 ;;  input_voltag    4   56[COMRAM] float 
  1474 ;;  voltage         2   54[COMRAM] int 
  1475 ;; Return value:  Size  Location     Type
  1476 ;;                  2   52[COMRAM] int 
  1477 ;; Registers used:
  1478 ;;		wreg, fsr2l, fsr2h, status,2, status,0, prodl, prodh, cstack
  1479 ;; Tracked objects:
  1480 ;;		On entry : 0/0
  1481 ;;		On exit  : 0/0
  1482 ;;		Unchanged: 0/0
  1483 ;; Data sizes:     COMRAM   BANK0   BANK1   BANK2   BANK3   BANK4   BANK5   BANK6   BANK7   BANK8   BANK9  BANK10  BANK1
      +1  BANK12  BANK13  BANK14
  1484 ;;      Params:         2       0       0       0       0       0       0       0       0       0       0       0       
      +0       0       0       0
  1485 ;;      Locals:        10       0       0       0       0       0       0       0       0       0       0       0       
      +0       0       0       0
  1486 ;;      Temps:          0       0       0       0       0       0       0       0       0       0       0       0       
      +0       0       0       0
  1487 ;;      Totals:        12       0       0       0       0       0       0       0       0       0       0       0       
      +0       0       0       0
  1488 ;;Total ram usage:       12 bytes
  1489 ;; Hardware stack levels used: 1
  1490 ;; Hardware stack levels required when called: 5
  1491 ;; This function calls:
  1492 ;;		_ADC_GetConversion
  1493 ;;		_CAN_transmit
  1494 ;;		___fldiv
  1495 ;;		___flge
  1496 ;;		___flmul
  1497 ;;		___fltol
  1498 ;;		___xxtofl
  1499 ;; This function is called by:
  1500 ;;		_start_up_seq
  1501 ;;		_main
  1502 ;; This function uses a non-reentrant model
  1503 ;;
  1504                           
  1505                           	psect	text6
  1506  001390                     __ptext6:
  1507                           	callstack 0
  1508  001390                     _ADC_Conv_pinNine:
  1509                           	callstack 24
  1510  001390                     
  1511                           ;main.c: 44:     float adc_val = ADC_GetConversion(channel_AN6);
  1512  001390  0E06               	movlw	6
  1513  001392  EC46  F00D         	call	_ADC_GetConversion
  1514  001396  C003  F008         	movff	?_ADC_GetConversion,___xxtofl@val
  1515  00139A  C004  F009         	movff	?_ADC_GetConversion+1,___xxtofl@val+1
  1516  00139E  6A0A               	clrf	(___xxtofl@val+2)^0,c
  1517  0013A0  6A0B               	clrf	(___xxtofl@val+3)^0,c
  1518  0013A2  0E00               	movlw	0
  1519  0013A4  ECC1  F006         	call	___xxtofl
  1520  0013A8  C008  F03D         	movff	?___xxtofl,ADC_Conv_pinNine@adc_val
  1521  0013AC  C009  F03E         	movff	?___xxtofl+1,ADC_Conv_pinNine@adc_val+1
  1522  0013B0  C00A  F03F         	movff	?___xxtofl+2,ADC_Conv_pinNine@adc_val+2
  1523  0013B4  C00B  F040         	movff	?___xxtofl+3,ADC_Conv_pinNine@adc_val+3
  1524  0013B8                     
  1525                           ;main.c: 45:     adc_val = (adc_val / 1023.0)*4.0;
  1526  0013B8  0E00               	movlw	0
  1527  0013BA  6E07               	movwf	___fldiv@a^0,c
  1528  0013BC  0EC0               	movlw	192
  1529  0013BE  6E08               	movwf	(___fldiv@a+1)^0,c
  1530  0013C0  0E7F               	movlw	127
  1531  0013C2  6E09               	movwf	(___fldiv@a+2)^0,c
  1532  0013C4  0E44               	movlw	68
  1533  0013C6  6E0A               	movwf	(___fldiv@a+3)^0,c
  1534  0013C8  C03D  F003         	movff	ADC_Conv_pinNine@adc_val,___fldiv@b
  1535  0013CC  C03E  F004         	movff	ADC_Conv_pinNine@adc_val+1,___fldiv@b+1
  1536  0013D0  C03F  F005         	movff	ADC_Conv_pinNine@adc_val+2,___fldiv@b+2
  1537  0013D4  C040  F006         	movff	ADC_Conv_pinNine@adc_val+3,___fldiv@b+3
  1538  0013D8  EC3D  F002         	call	___fldiv	;wreg free
  1539  0013DC  C003  F01C         	movff	?___fldiv,___flmul@b
  1540  0013E0  C004  F01D         	movff	?___fldiv+1,___flmul@b+1
  1541  0013E4  C005  F01E         	movff	?___fldiv+2,___flmul@b+2
  1542  0013E8  C006  F01F         	movff	?___fldiv+3,___flmul@b+3
  1543  0013EC  0E00               	movlw	0
  1544  0013EE  6E20               	movwf	___flmul@a^0,c
  1545  0013F0  0E00               	movlw	0
  1546  0013F2  6E21               	movwf	(___flmul@a+1)^0,c
  1547  0013F4  0E80               	movlw	128
  1548  0013F6  6E22               	movwf	(___flmul@a+2)^0,c
  1549  0013F8  0E40               	movlw	64
  1550  0013FA  6E23               	movwf	(___flmul@a+3)^0,c
  1551  0013FC  EC28  F000         	call	___flmul	;wreg free
  1552  001400  C01C  F03D         	movff	?___flmul,ADC_Conv_pinNine@adc_val
  1553  001404  C01D  F03E         	movff	?___flmul+1,ADC_Conv_pinNine@adc_val+1
  1554  001408  C01E  F03F         	movff	?___flmul+2,ADC_Conv_pinNine@adc_val+2
  1555  00140C  C01F  F040         	movff	?___flmul+3,ADC_Conv_pinNine@adc_val+3
  1556  001410                     
  1557                           ;main.c: 46:     float input_voltage = adc_val*3.0;
  1558  001410  C03D  F01C         	movff	ADC_Conv_pinNine@adc_val,___flmul@b
  1559  001414  C03E  F01D         	movff	ADC_Conv_pinNine@adc_val+1,___flmul@b+1
  1560  001418  C03F  F01E         	movff	ADC_Conv_pinNine@adc_val+2,___flmul@b+2
  1561  00141C  C040  F01F         	movff	ADC_Conv_pinNine@adc_val+3,___flmul@b+3
  1562  001420  0E00               	movlw	0
  1563  001422  6E20               	movwf	___flmul@a^0,c
  1564  001424  0E00               	movlw	0
  1565  001426  6E21               	movwf	(___flmul@a+1)^0,c
  1566  001428  0E40               	movlw	64
  1567  00142A  6E22               	movwf	(___flmul@a+2)^0,c
  1568  00142C  0E40               	movlw	64
  1569  00142E  6E23               	movwf	(___flmul@a+3)^0,c
  1570  001430  EC28  F000         	call	___flmul	;wreg free
  1571  001434  C01C  F039         	movff	?___flmul,ADC_Conv_pinNine@input_voltage
  1572  001438  C01D  F03A         	movff	?___flmul+1,ADC_Conv_pinNine@input_voltage+1
  1573  00143C  C01E  F03B         	movff	?___flmul+2,ADC_Conv_pinNine@input_voltage+2
  1574  001440  C01F  F03C         	movff	?___flmul+3,ADC_Conv_pinNine@input_voltage+3
  1575                           
  1576                           ;main.c: 47:     int voltage = (int)input_voltage;
  1577  001444  C039  F003         	movff	ADC_Conv_pinNine@input_voltage,___fltol@f1
  1578  001448  C03A  F004         	movff	ADC_Conv_pinNine@input_voltage+1,___fltol@f1+1
  1579  00144C  C03B  F005         	movff	ADC_Conv_pinNine@input_voltage+2,___fltol@f1+2
  1580  001450  C03C  F006         	movff	ADC_Conv_pinNine@input_voltage+3,___fltol@f1+3
  1581  001454  EC05  F00B         	call	___fltol	;wreg free
  1582  001458  C003  F037         	movff	?___fltol,ADC_Conv_pinNine@voltage
  1583  00145C  C004  F038         	movff	?___fltol+1,ADC_Conv_pinNine@voltage+1
  1584  001460                     
  1585                           ;main.c: 48:     tx21.frame.id = 0x1;
  1586  001460  0E01               	movlw	1
  1587  001462  6E4C               	movwf	(_tx21+1)^0,c
  1588  001464  0E00               	movlw	0
  1589  001466  6E4D               	movwf	(_tx21+2)^0,c
  1590  001468  0E00               	movlw	0
  1591  00146A  6E4E               	movwf	(_tx21+3)^0,c
  1592  00146C  0E00               	movlw	0
  1593  00146E  6E4F               	movwf	(_tx21+4)^0,c
  1594  001470                     
  1595                           ;main.c: 49:     tx21.frame.idType = 0x1;
  1596  001470  0E01               	movlw	1
  1597  001472  6E4B               	movwf	_tx21^0,c
  1598  001474                     
  1599                           ;main.c: 50:     tx21.frame.dlc = 0x1;
  1600  001474  0E01               	movlw	1
  1601  001476  6E50               	movwf	(_tx21+5)^0,c
  1602  001478                     
  1603                           ;main.c: 51:     tx21.frame.data0 = voltage;
  1604  001478  C037  F051         	movff	ADC_Conv_pinNine@voltage,_tx21+6
  1605  00147C                     
  1606                           ;main.c: 52:     CAN_transmit(&tx21);
  1607  00147C  0E4B               	movlw	low _tx21
  1608  00147E  6E15               	movwf	CAN_transmit@tempCanMsg^0,c
  1609  001480  0E00               	movlw	high _tx21
  1610  001482  6E16               	movwf	(CAN_transmit@tempCanMsg+1)^0,c
  1611  001484  EC0A  F004         	call	_CAN_transmit	;wreg free
  1612  001488                     
  1613                           ;main.c: 53:     if (input_voltage >= 12){
  1614  001488  C039  F003         	movff	ADC_Conv_pinNine@input_voltage,___flge@ff1
  1615  00148C  C03A  F004         	movff	ADC_Conv_pinNine@input_voltage+1,___flge@ff1+1
  1616  001490  C03B  F005         	movff	ADC_Conv_pinNine@input_voltage+2,___flge@ff1+2
  1617  001494  C03C  F006         	movff	ADC_Conv_pinNine@input_voltage+3,___flge@ff1+3
  1618  001498  0E00               	movlw	0
  1619  00149A  6E07               	movwf	___flge@ff2^0,c
  1620  00149C  0E00               	movlw	0
  1621  00149E  6E08               	movwf	(___flge@ff2+1)^0,c
  1622  0014A0  0E40               	movlw	64
  1623  0014A2  6E09               	movwf	(___flge@ff2+2)^0,c
  1624  0014A4  0E41               	movlw	65
  1625  0014A6  6E0A               	movwf	(___flge@ff2+3)^0,c
  1626  0014A8  EC88  F00B         	call	___flge	;wreg free
  1627  0014AC  A0D8               	btfss	status,0,c
  1628  0014AE  EF5B  F00A         	goto	u2671
  1629  0014B2  EF5D  F00A         	goto	u2670
  1630  0014B6                     u2671:
  1631  0014B6  EF63  F00A         	goto	l3805
  1632  0014BA                     u2670:
  1633  0014BA                     
  1634                           ;main.c: 54:         return 1;
  1635  0014BA  0E00               	movlw	0
  1636  0014BC  6E36               	movwf	(?_ADC_Conv_pinNine+1)^0,c
  1637  0014BE  0E01               	movlw	1
  1638  0014C0  6E35               	movwf	?_ADC_Conv_pinNine^0,c
  1639  0014C2  EF67  F00A         	goto	l590
  1640  0014C6                     l3805:
  1641                           
  1642                           ;main.c: 57:         return 0;
  1643  0014C6  0E00               	movlw	0
  1644  0014C8  6E36               	movwf	(?_ADC_Conv_pinNine+1)^0,c
  1645  0014CA  0E00               	movlw	0
  1646  0014CC  6E35               	movwf	?_ADC_Conv_pinNine^0,c
  1647  0014CE                     l590:
  1648  0014CE  0012               	return		;funcret
  1649  0014D0                     __end_of_ADC_Conv_pinNine:
  1650                           	callstack 0
  1651                           
  1652 ;; *************** function ___xxtofl *****************
  1653 ;; Defined at:
  1654 ;;		line 10 in file "C:\Program Files\Microchip\xc8\v2.36\pic\sources\c99\common\xxtofl.c"
  1655 ;; Parameters:    Size  Location     Type
  1656 ;;  sign            1    wreg     unsigned char 
  1657 ;;  val             4    7[COMRAM] long 
  1658 ;; Auto vars:     Size  Location     Type
  1659 ;;  sign            1   15[COMRAM] unsigned char 
  1660 ;;  arg             4   17[COMRAM] unsigned long 
  1661 ;;  exp             1   16[COMRAM] unsigned char 
  1662 ;; Return value:  Size  Location     Type
  1663 ;;                  4    7[COMRAM] unsigned char 
  1664 ;; Registers used:
  1665 ;;		wreg, status,2, status,0
  1666 ;; Tracked objects:
  1667 ;;		On entry : 0/0
  1668 ;;		On exit  : 0/0
  1669 ;;		Unchanged: 0/0
  1670 ;; Data sizes:     COMRAM   BANK0   BANK1   BANK2   BANK3   BANK4   BANK5   BANK6   BANK7   BANK8   BANK9  BANK10  BANK1
      +1  BANK12  BANK13  BANK14
  1671 ;;      Params:         4       0       0       0       0       0       0       0       0       0       0       0       
      +0       0       0       0
  1672 ;;      Locals:         6       0       0       0       0       0       0       0       0       0       0       0       
      +0       0       0       0
  1673 ;;      Temps:          4       0       0       0       0       0       0       0       0       0       0       0       
      +0       0       0       0
  1674 ;;      Totals:        14       0       0       0       0       0       0       0       0       0       0       0       
      +0       0       0       0
  1675 ;;Total ram usage:       14 bytes
  1676 ;; Hardware stack levels used: 1
  1677 ;; Hardware stack levels required when called: 3
  1678 ;; This function calls:
  1679 ;;		Nothing
  1680 ;; This function is called by:
  1681 ;;		_ADC_Conv_pinSeven
  1682 ;;		_ADC_Conv_pinNine
  1683 ;; This function uses a non-reentrant model
  1684 ;;
  1685                           
  1686                           	psect	text7
  1687  000D82                     __ptext7:
  1688                           	callstack 0
  1689  000D82                     ___xxtofl:
  1690                           	callstack 25
  1691                           
  1692                           ;incstack = 0
  1693                           ;___xxtofl@sign stored from wreg
  1694  000D82  6E10               	movwf	___xxtofl@sign^0,c
  1695  000D84  5010               	movf	___xxtofl@sign^0,w,c
  1696  000D86  B4D8               	btfsc	status,2,c
  1697  000D88  EFC8  F006         	goto	u2521
  1698  000D8C  EFCA  F006         	goto	u2520
  1699  000D90                     u2521:
  1700  000D90  EFEC  F006         	goto	l1327
  1701  000D94                     u2520:
  1702  000D94  BE0B               	btfsc	(___xxtofl@val+3)^0,7,c
  1703  000D96  EFD1  F006         	goto	u2530
  1704  000D9A  EFCF  F006         	goto	u2531
  1705  000D9E                     u2531:
  1706  000D9E  EFEC  F006         	goto	l1327
  1707  000DA2                     u2530:
  1708  000DA2  C008  F00C         	movff	___xxtofl@val,??___xxtofl
  1709  000DA6  C009  F00D         	movff	___xxtofl@val+1,??___xxtofl+1
  1710  000DAA  C00A  F00E         	movff	___xxtofl@val+2,??___xxtofl+2
  1711  000DAE  C00B  F00F         	movff	___xxtofl@val+3,??___xxtofl+3
  1712  000DB2  1E0C               	comf	??___xxtofl^0,f,c
  1713  000DB4  1E0D               	comf	(??___xxtofl+1)^0,f,c
  1714  000DB6  1E0E               	comf	(??___xxtofl+2)^0,f,c
  1715  000DB8  1E0F               	comf	(??___xxtofl+3)^0,f,c
  1716  000DBA  2A0C               	incf	??___xxtofl^0,f,c
  1717  000DBC  0E00               	movlw	0
  1718  000DBE  220D               	addwfc	(??___xxtofl+1)^0,f,c
  1719  000DC0  220E               	addwfc	(??___xxtofl+2)^0,f,c
  1720  000DC2  220F               	addwfc	(??___xxtofl+3)^0,f,c
  1721  000DC4  C00C  F012         	movff	??___xxtofl,___xxtofl@arg
  1722  000DC8  C00D  F013         	movff	??___xxtofl+1,___xxtofl@arg+1
  1723  000DCC  C00E  F014         	movff	??___xxtofl+2,___xxtofl@arg+2
  1724  000DD0  C00F  F015         	movff	??___xxtofl+3,___xxtofl@arg+3
  1725  000DD4  EFF4  F006         	goto	l3631
  1726  000DD8                     l1327:
  1727  000DD8  C008  F012         	movff	___xxtofl@val,___xxtofl@arg
  1728  000DDC  C009  F013         	movff	___xxtofl@val+1,___xxtofl@arg+1
  1729  000DE0  C00A  F014         	movff	___xxtofl@val+2,___xxtofl@arg+2
  1730  000DE4  C00B  F015         	movff	___xxtofl@val+3,___xxtofl@arg+3
  1731  000DE8                     l3631:
  1732  000DE8  5008               	movf	___xxtofl@val^0,w,c
  1733  000DEA  1009               	iorwf	(___xxtofl@val+1)^0,w,c
  1734  000DEC  100A               	iorwf	(___xxtofl@val+2)^0,w,c
  1735  000DEE  100B               	iorwf	(___xxtofl@val+3)^0,w,c
  1736  000DF0  A4D8               	btfss	status,2,c
  1737  000DF2  EFFD  F006         	goto	u2541
  1738  000DF6  EFFF  F006         	goto	u2540
  1739  000DFA                     u2541:
  1740  000DFA  EF09  F007         	goto	l3637
  1741  000DFE                     u2540:
  1742  000DFE  0E00               	movlw	0
  1743  000E00  6E08               	movwf	?___xxtofl^0,c
  1744  000E02  0E00               	movlw	0
  1745  000E04  6E09               	movwf	(?___xxtofl+1)^0,c
  1746  000E06  0E00               	movlw	0
  1747  000E08  6E0A               	movwf	(?___xxtofl+2)^0,c
  1748  000E0A  0E00               	movlw	0
  1749  000E0C  6E0B               	movwf	(?___xxtofl+3)^0,c
  1750  000E0E  EF9A  F007         	goto	l1330
  1751  000E12                     l3637:
  1752  000E12  0E96               	movlw	150
  1753  000E14  6E11               	movwf	___xxtofl@exp^0,c
  1754  000E16  EF13  F007         	goto	l3641
  1755  000E1A                     l3639:
  1756  000E1A  2A11               	incf	___xxtofl@exp^0,f,c
  1757  000E1C  90D8               	bcf	status,0,c
  1758  000E1E  3215               	rrcf	(___xxtofl@arg+3)^0,f,c
  1759  000E20  3214               	rrcf	(___xxtofl@arg+2)^0,f,c
  1760  000E22  3213               	rrcf	(___xxtofl@arg+1)^0,f,c
  1761  000E24  3212               	rrcf	___xxtofl@arg^0,f,c
  1762  000E26                     l3641:
  1763  000E26  0E00               	movlw	0
  1764  000E28  1412               	andwf	___xxtofl@arg^0,w,c
  1765  000E2A  6E0C               	movwf	??___xxtofl^0,c
  1766  000E2C  0E00               	movlw	0
  1767  000E2E  1413               	andwf	(___xxtofl@arg+1)^0,w,c
  1768  000E30  6E0D               	movwf	(??___xxtofl+1)^0,c
  1769  000E32  0E00               	movlw	0
  1770  000E34  1414               	andwf	(___xxtofl@arg+2)^0,w,c
  1771  000E36  6E0E               	movwf	(??___xxtofl+2)^0,c
  1772  000E38  0EFE               	movlw	254
  1773  000E3A  1415               	andwf	(___xxtofl@arg+3)^0,w,c
  1774  000E3C  6E0F               	movwf	(??___xxtofl+3)^0,c
  1775  000E3E  500C               	movf	??___xxtofl^0,w,c
  1776  000E40  100D               	iorwf	(??___xxtofl+1)^0,w,c
  1777  000E42  100E               	iorwf	(??___xxtofl+2)^0,w,c
  1778  000E44  100F               	iorwf	(??___xxtofl+3)^0,w,c
  1779  000E46  A4D8               	btfss	status,2,c
  1780  000E48  EF28  F007         	goto	u2551
  1781  000E4C  EF2A  F007         	goto	u2550
  1782  000E50                     u2551:
  1783  000E50  EF0D  F007         	goto	l3639
  1784  000E54                     u2550:
  1785  000E54  EF38  F007         	goto	l1334
  1786  000E58                     l3643:
  1787  000E58  2A11               	incf	___xxtofl@exp^0,f,c
  1788  000E5A  0E01               	movlw	1
  1789  000E5C  2612               	addwf	___xxtofl@arg^0,f,c
  1790  000E5E  0E00               	movlw	0
  1791  000E60  2213               	addwfc	(___xxtofl@arg+1)^0,f,c
  1792  000E62  2214               	addwfc	(___xxtofl@arg+2)^0,f,c
  1793  000E64  2215               	addwfc	(___xxtofl@arg+3)^0,f,c
  1794  000E66  90D8               	bcf	status,0,c
  1795  000E68  3215               	rrcf	(___xxtofl@arg+3)^0,f,c
  1796  000E6A  3214               	rrcf	(___xxtofl@arg+2)^0,f,c
  1797  000E6C  3213               	rrcf	(___xxtofl@arg+1)^0,f,c
  1798  000E6E  3212               	rrcf	___xxtofl@arg^0,f,c
  1799  000E70                     l1334:
  1800  000E70  0E00               	movlw	0
  1801  000E72  1412               	andwf	___xxtofl@arg^0,w,c
  1802  000E74  6E0C               	movwf	??___xxtofl^0,c
  1803  000E76  0E00               	movlw	0
  1804  000E78  1413               	andwf	(___xxtofl@arg+1)^0,w,c
  1805  000E7A  6E0D               	movwf	(??___xxtofl+1)^0,c
  1806  000E7C  0E00               	movlw	0
  1807  000E7E  1414               	andwf	(___xxtofl@arg+2)^0,w,c
  1808  000E80  6E0E               	movwf	(??___xxtofl+2)^0,c
  1809  000E82  0EFF               	movlw	255
  1810  000E84  1415               	andwf	(___xxtofl@arg+3)^0,w,c
  1811  000E86  6E0F               	movwf	(??___xxtofl+3)^0,c
  1812  000E88  500C               	movf	??___xxtofl^0,w,c
  1813  000E8A  100D               	iorwf	(??___xxtofl+1)^0,w,c
  1814  000E8C  100E               	iorwf	(??___xxtofl+2)^0,w,c
  1815  000E8E  100F               	iorwf	(??___xxtofl+3)^0,w,c
  1816  000E90  A4D8               	btfss	status,2,c
  1817  000E92  EF4D  F007         	goto	u2561
  1818  000E96  EF4F  F007         	goto	u2560
  1819  000E9A                     u2561:
  1820  000E9A  EF2C  F007         	goto	l3643
  1821  000E9E                     u2560:
  1822  000E9E  EF57  F007         	goto	l3651
  1823  000EA2                     l3649:
  1824  000EA2  0611               	decf	___xxtofl@exp^0,f,c
  1825  000EA4  90D8               	bcf	status,0,c
  1826  000EA6  3612               	rlcf	___xxtofl@arg^0,f,c
  1827  000EA8  3613               	rlcf	(___xxtofl@arg+1)^0,f,c
  1828  000EAA  3614               	rlcf	(___xxtofl@arg+2)^0,f,c
  1829  000EAC  3615               	rlcf	(___xxtofl@arg+3)^0,f,c
  1830  000EAE                     l3651:
  1831  000EAE  BE14               	btfsc	(___xxtofl@arg+2)^0,7,c
  1832  000EB0  EF5C  F007         	goto	u2571
  1833  000EB4  EF5E  F007         	goto	u2570
  1834  000EB8                     u2571:
  1835  000EB8  EF66  F007         	goto	l1341
  1836  000EBC                     u2570:
  1837  000EBC  0E02               	movlw	2
  1838  000EBE  6011               	cpfslt	___xxtofl@exp^0,c
  1839  000EC0  EF64  F007         	goto	u2581
  1840  000EC4  EF66  F007         	goto	u2580
  1841  000EC8                     u2581:
  1842  000EC8  EF51  F007         	goto	l3649
  1843  000ECC                     u2580:
  1844  000ECC                     l1341:
  1845  000ECC  B011               	btfsc	___xxtofl@exp^0,0,c
  1846  000ECE  EF6B  F007         	goto	u2591
  1847  000ED2  EF6D  F007         	goto	u2590
  1848  000ED6                     u2591:
  1849  000ED6  EF6E  F007         	goto	l3657
  1850  000EDA                     u2590:
  1851  000EDA  9E14               	bcf	(___xxtofl@arg+2)^0,7,c
  1852  000EDC                     l3657:
  1853  000EDC  90D8               	bcf	status,0,c
  1854  000EDE  3211               	rrcf	___xxtofl@exp^0,f,c
  1855  000EE0  C011  F00C         	movff	___xxtofl@exp,??___xxtofl
  1856  000EE4  6A0D               	clrf	(??___xxtofl+1)^0,c
  1857  000EE6  6A0E               	clrf	(??___xxtofl+2)^0,c
  1858  000EE8  6A0F               	clrf	(??___xxtofl+3)^0,c
  1859  000EEA  C00C  F00F         	movff	??___xxtofl,??___xxtofl+3
  1860  000EEE  6A0E               	clrf	(??___xxtofl+2)^0,c
  1861  000EF0  6A0D               	clrf	(??___xxtofl+1)^0,c
  1862  000EF2  6A0C               	clrf	??___xxtofl^0,c
  1863  000EF4  500C               	movf	??___xxtofl^0,w,c
  1864  000EF6  1212               	iorwf	___xxtofl@arg^0,f,c
  1865  000EF8  500D               	movf	(??___xxtofl+1)^0,w,c
  1866  000EFA  1213               	iorwf	(___xxtofl@arg+1)^0,f,c
  1867  000EFC  500E               	movf	(??___xxtofl+2)^0,w,c
  1868  000EFE  1214               	iorwf	(___xxtofl@arg+2)^0,f,c
  1869  000F00  500F               	movf	(??___xxtofl+3)^0,w,c
  1870  000F02  1215               	iorwf	(___xxtofl@arg+3)^0,f,c
  1871  000F04  5010               	movf	___xxtofl@sign^0,w,c
  1872  000F06  B4D8               	btfsc	status,2,c
  1873  000F08  EF88  F007         	goto	u2601
  1874  000F0C  EF8A  F007         	goto	u2600
  1875  000F10                     u2601:
  1876  000F10  EF92  F007         	goto	l3667
  1877  000F14                     u2600:
  1878  000F14  BE0B               	btfsc	(___xxtofl@val+3)^0,7,c
  1879  000F16  EF91  F007         	goto	u2610
  1880  000F1A  EF8F  F007         	goto	u2611
  1881  000F1E                     u2611:
  1882  000F1E  EF92  F007         	goto	l3667
  1883  000F22                     u2610:
  1884  000F22  8E15               	bsf	(___xxtofl@arg+3)^0,7,c
  1885  000F24                     l3667:
  1886  000F24  C012  F008         	movff	___xxtofl@arg,?___xxtofl
  1887  000F28  C013  F009         	movff	___xxtofl@arg+1,?___xxtofl+1
  1888  000F2C  C014  F00A         	movff	___xxtofl@arg+2,?___xxtofl+2
  1889  000F30  C015  F00B         	movff	___xxtofl@arg+3,?___xxtofl+3
  1890  000F34                     l1330:
  1891  000F34  0012               	return		;funcret
  1892  000F36                     __end_of___xxtofl:
  1893                           	callstack 0
  1894                           
  1895 ;; *************** function ___fltol *****************
  1896 ;; Defined at:
  1897 ;;		line 43 in file "C:\Program Files\Microchip\xc8\v2.36\pic\sources\c99\common\fltol.c"
  1898 ;; Parameters:    Size  Location     Type
  1899 ;;  f1              4    2[COMRAM] unsigned char 
  1900 ;; Auto vars:     Size  Location     Type
  1901 ;;  exp1            1   11[COMRAM] unsigned char 
  1902 ;;  sign1           1   10[COMRAM] unsigned char 
  1903 ;; Return value:  Size  Location     Type
  1904 ;;                  4    2[COMRAM] long 
  1905 ;; Registers used:
  1906 ;;		wreg, status,2, status,0
  1907 ;; Tracked objects:
  1908 ;;		On entry : 0/0
  1909 ;;		On exit  : 0/0
  1910 ;;		Unchanged: 0/0
  1911 ;; Data sizes:     COMRAM   BANK0   BANK1   BANK2   BANK3   BANK4   BANK5   BANK6   BANK7   BANK8   BANK9  BANK10  BANK1
      +1  BANK12  BANK13  BANK14
  1912 ;;      Params:         4       0       0       0       0       0       0       0       0       0       0       0       
      +0       0       0       0
  1913 ;;      Locals:         2       0       0       0       0       0       0       0       0       0       0       0       
      +0       0       0       0
  1914 ;;      Temps:          4       0       0       0       0       0       0       0       0       0       0       0       
      +0       0       0       0
  1915 ;;      Totals:        10       0       0       0       0       0       0       0       0       0       0       0       
      +0       0       0       0
  1916 ;;Total ram usage:       10 bytes
  1917 ;; Hardware stack levels used: 1
  1918 ;; Hardware stack levels required when called: 3
  1919 ;; This function calls:
  1920 ;;		Nothing
  1921 ;; This function is called by:
  1922 ;;		_ADC_Conv_pinSeven
  1923 ;;		_ADC_Conv_pinNine
  1924 ;; This function uses a non-reentrant model
  1925 ;;
  1926                           
  1927                           	psect	text8
  1928  00160A                     __ptext8:
  1929                           	callstack 0
  1930  00160A                     ___fltol:
  1931                           	callstack 25
  1932  00160A  3405               	rlcf	(___fltol@f1+2)^0,w,c
  1933  00160C  3406               	rlcf	(___fltol@f1+3)^0,w,c
  1934  00160E  6E0C               	movwf	___fltol@exp1^0,c
  1935  001610  500C               	movf	___fltol@exp1^0,w,c
  1936  001612  A4D8               	btfss	status,2,c
  1937  001614  EF0E  F00B         	goto	u2451
  1938  001618  EF10  F00B         	goto	u2450
  1939  00161C                     u2451:
  1940  00161C  EF1A  F00B         	goto	l3587
  1941  001620                     u2450:
  1942  001620                     l3583:
  1943  001620  0E00               	movlw	0
  1944  001622  6E03               	movwf	?___fltol^0,c
  1945  001624  0E00               	movlw	0
  1946  001626  6E04               	movwf	(?___fltol+1)^0,c
  1947  001628  0E00               	movlw	0
  1948  00162A  6E05               	movwf	(?___fltol+2)^0,c
  1949  00162C  0E00               	movlw	0
  1950  00162E  6E06               	movwf	(?___fltol+3)^0,c
  1951  001630  EF87  F00B         	goto	l969
  1952  001634                     l3587:
  1953  001634  C003  F007         	movff	___fltol@f1,??___fltol
  1954  001638  C004  F008         	movff	___fltol@f1+1,??___fltol+1
  1955  00163C  C005  F009         	movff	___fltol@f1+2,??___fltol+2
  1956  001640  C006  F00A         	movff	___fltol@f1+3,??___fltol+3
  1957  001644  0E20               	movlw	32
  1958  001646  EF2A  F00B         	goto	u2460
  1959  00164A                     u2465:
  1960  00164A  90D8               	bcf	status,0,c
  1961  00164C  320A               	rrcf	(??___fltol+3)^0,f,c
  1962  00164E  3209               	rrcf	(??___fltol+2)^0,f,c
  1963  001650  3208               	rrcf	(??___fltol+1)^0,f,c
  1964  001652  3207               	rrcf	??___fltol^0,f,c
  1965  001654                     u2460:
  1966  001654  2EE8               	decfsz	wreg,f,c
  1967  001656  EF25  F00B         	goto	u2465
  1968  00165A  5007               	movf	??___fltol^0,w,c
  1969  00165C  6E0B               	movwf	___fltol@sign1^0,c
  1970  00165E  8E05               	bsf	(___fltol@f1+2)^0,7,c
  1971  001660  0EFF               	movlw	255
  1972  001662  1603               	andwf	___fltol@f1^0,f,c
  1973  001664  0EFF               	movlw	255
  1974  001666  1604               	andwf	(___fltol@f1+1)^0,f,c
  1975  001668  0EFF               	movlw	255
  1976  00166A  1605               	andwf	(___fltol@f1+2)^0,f,c
  1977  00166C  0E00               	movlw	0
  1978  00166E  1606               	andwf	(___fltol@f1+3)^0,f,c
  1979  001670  0E96               	movlw	150
  1980  001672  5E0C               	subwf	___fltol@exp1^0,f,c
  1981  001674  BE0C               	btfsc	___fltol@exp1^0,7,c
  1982  001676  EF41  F00B         	goto	u2470
  1983  00167A  EF3F  F00B         	goto	u2471
  1984  00167E                     u2471:
  1985  00167E  EF57  F00B         	goto	l3607
  1986  001682                     u2470:
  1987  001682  500C               	movf	___fltol@exp1^0,w,c
  1988  001684  0A80               	xorlw	128
  1989  001686  0F97               	addlw	151
  1990  001688  B0D8               	btfsc	status,0,c
  1991  00168A  EF49  F00B         	goto	u2481
  1992  00168E  EF4B  F00B         	goto	u2480
  1993  001692                     u2481:
  1994  001692  EF4D  F00B         	goto	l3603
  1995  001696                     u2480:
  1996  001696  EF10  F00B         	goto	l3583
  1997  00169A                     l3603:
  1998  00169A  90D8               	bcf	status,0,c
  1999  00169C  3206               	rrcf	(___fltol@f1+3)^0,f,c
  2000  00169E  3205               	rrcf	(___fltol@f1+2)^0,f,c
  2001  0016A0  3204               	rrcf	(___fltol@f1+1)^0,f,c
  2002  0016A2  3203               	rrcf	___fltol@f1^0,f,c
  2003  0016A4  3E0C               	incfsz	___fltol@exp1^0,f,c
  2004  0016A6  EF4D  F00B         	goto	l3603
  2005  0016AA  EF6F  F00B         	goto	l3617
  2006  0016AE                     l3607:
  2007  0016AE  0E1F               	movlw	31
  2008  0016B0  640C               	cpfsgt	___fltol@exp1^0,c
  2009  0016B2  EF5D  F00B         	goto	u2491
  2010  0016B6  EF5F  F00B         	goto	u2490
  2011  0016BA                     u2491:
  2012  0016BA  EF67  F00B         	goto	l3615
  2013  0016BE                     u2490:
  2014  0016BE  EF10  F00B         	goto	l3583
  2015  0016C2                     l3613:
  2016  0016C2  90D8               	bcf	status,0,c
  2017  0016C4  3603               	rlcf	___fltol@f1^0,f,c
  2018  0016C6  3604               	rlcf	(___fltol@f1+1)^0,f,c
  2019  0016C8  3605               	rlcf	(___fltol@f1+2)^0,f,c
  2020  0016CA  3606               	rlcf	(___fltol@f1+3)^0,f,c
  2021  0016CC  060C               	decf	___fltol@exp1^0,f,c
  2022  0016CE                     l3615:
  2023  0016CE  500C               	movf	___fltol@exp1^0,w,c
  2024  0016D0  A4D8               	btfss	status,2,c
  2025  0016D2  EF6D  F00B         	goto	u2501
  2026  0016D6  EF6F  F00B         	goto	u2500
  2027  0016DA                     u2501:
  2028  0016DA  EF61  F00B         	goto	l3613
  2029  0016DE                     u2500:
  2030  0016DE                     l3617:
  2031  0016DE  500B               	movf	___fltol@sign1^0,w,c
  2032  0016E0  B4D8               	btfsc	status,2,c
  2033  0016E2  EF75  F00B         	goto	u2511
  2034  0016E6  EF77  F00B         	goto	u2510
  2035  0016EA                     u2511:
  2036  0016EA  EF7F  F00B         	goto	l3621
  2037  0016EE                     u2510:
  2038  0016EE  1E06               	comf	(___fltol@f1+3)^0,f,c
  2039  0016F0  1E05               	comf	(___fltol@f1+2)^0,f,c
  2040  0016F2  1E04               	comf	(___fltol@f1+1)^0,f,c
  2041  0016F4  6C03               	negf	___fltol@f1^0,c
  2042  0016F6  0E00               	movlw	0
  2043  0016F8  2204               	addwfc	(___fltol@f1+1)^0,f,c
  2044  0016FA  2205               	addwfc	(___fltol@f1+2)^0,f,c
  2045  0016FC  2206               	addwfc	(___fltol@f1+3)^0,f,c
  2046  0016FE                     l3621:
  2047  0016FE  C003  F003         	movff	___fltol@f1,?___fltol
  2048  001702  C004  F004         	movff	___fltol@f1+1,?___fltol+1
  2049  001706  C005  F005         	movff	___fltol@f1+2,?___fltol+2
  2050  00170A  C006  F006         	movff	___fltol@f1+3,?___fltol+3
  2051  00170E                     l969:
  2052  00170E  0012               	return		;funcret
  2053  001710                     __end_of___fltol:
  2054                           	callstack 0
  2055                           
  2056 ;; *************** function ___flmul *****************
  2057 ;; Defined at:
  2058 ;;		line 8 in file "C:\Program Files\Microchip\xc8\v2.36\pic\sources\c99\common\sprcmul.c"
  2059 ;; Parameters:    Size  Location     Type
  2060 ;;  b               4   27[COMRAM] long 
  2061 ;;  a               4   31[COMRAM] long 
  2062 ;; Auto vars:     Size  Location     Type
  2063 ;;  prod            4   46[COMRAM] struct .
  2064 ;;  grs             4   41[COMRAM] unsigned long 
  2065 ;;  temp            2   50[COMRAM] struct .
  2066 ;;  bexp            1   45[COMRAM] unsigned char 
  2067 ;;  aexp            1   40[COMRAM] unsigned char 
  2068 ;;  sign            1   39[COMRAM] unsigned char 
  2069 ;; Return value:  Size  Location     Type
  2070 ;;                  4   27[COMRAM] unsigned char 
  2071 ;; Registers used:
  2072 ;;		wreg, status,2, status,0, prodl, prodh
  2073 ;; Tracked objects:
  2074 ;;		On entry : 0/0
  2075 ;;		On exit  : 0/0
  2076 ;;		Unchanged: 0/0
  2077 ;; Data sizes:     COMRAM   BANK0   BANK1   BANK2   BANK3   BANK4   BANK5   BANK6   BANK7   BANK8   BANK9  BANK10  BANK1
      +1  BANK12  BANK13  BANK14
  2078 ;;      Params:         8       0       0       0       0       0       0       0       0       0       0       0       
      +0       0       0       0
  2079 ;;      Locals:        13       0       0       0       0       0       0       0       0       0       0       0       
      +0       0       0       0
  2080 ;;      Temps:          4       0       0       0       0       0       0       0       0       0       0       0       
      +0       0       0       0
  2081 ;;      Totals:        25       0       0       0       0       0       0       0       0       0       0       0       
      +0       0       0       0
  2082 ;;Total ram usage:       25 bytes
  2083 ;; Hardware stack levels used: 1
  2084 ;; Hardware stack levels required when called: 3
  2085 ;; This function calls:
  2086 ;;		Nothing
  2087 ;; This function is called by:
  2088 ;;		_ADC_Conv_pinSeven
  2089 ;;		_ADC_Conv_pinNine
  2090 ;; This function uses a non-reentrant model
  2091 ;;
  2092                           
  2093                           	psect	text9
  2094  000050                     __ptext9:
  2095                           	callstack 0
  2096  000050                     ___flmul:
  2097                           	callstack 25
  2098  000050  501F               	movf	(___flmul@b+3)^0,w,c
  2099  000052  0B80               	andlw	128
  2100  000054  6E28               	movwf	___flmul@sign^0,c
  2101  000056  501F               	movf	(___flmul@b+3)^0,w,c
  2102  000058  241F               	addwf	(___flmul@b+3)^0,w,c
  2103  00005A  6E2E               	movwf	___flmul@bexp^0,c
  2104  00005C  AE1E               	btfss	(___flmul@b+2)^0,7,c
  2105  00005E  EF33  F000         	goto	u2211
  2106  000062  EF35  F000         	goto	u2210
  2107  000066                     u2211:
  2108  000066  EF36  F000         	goto	l3435
  2109  00006A                     u2210:
  2110  00006A  802E               	bsf	___flmul@bexp^0,0,c
  2111  00006C                     l3435:
  2112  00006C  502E               	movf	___flmul@bexp^0,w,c
  2113  00006E  B4D8               	btfsc	status,2,c
  2114  000070  EF3C  F000         	goto	u2221
  2115  000074  EF3E  F000         	goto	u2220
  2116  000078                     u2221:
  2117  000078  EF51  F000         	goto	l3443
  2118  00007C                     u2220:
  2119  00007C  282E               	incf	___flmul@bexp^0,w,c
  2120  00007E  A4D8               	btfss	status,2,c
  2121  000080  EF44  F000         	goto	u2231
  2122  000084  EF46  F000         	goto	u2230
  2123  000088                     u2231:
  2124  000088  EF4E  F000         	goto	l3441
  2125  00008C                     u2230:
  2126  00008C  0E00               	movlw	0
  2127  00008E  6E1C               	movwf	___flmul@b^0,c
  2128  000090  0E00               	movlw	0
  2129  000092  6E1D               	movwf	(___flmul@b+1)^0,c
  2130  000094  0E00               	movlw	0
  2131  000096  6E1E               	movwf	(___flmul@b+2)^0,c
  2132  000098  0E00               	movlw	0
  2133  00009A  6E1F               	movwf	(___flmul@b+3)^0,c
  2134  00009C                     l3441:
  2135  00009C  8E1E               	bsf	(___flmul@b+2)^0,7,c
  2136  00009E  EF59  F000         	goto	l3445
  2137  0000A2                     l3443:
  2138  0000A2  0E00               	movlw	0
  2139  0000A4  6E1C               	movwf	___flmul@b^0,c
  2140  0000A6  0E00               	movlw	0
  2141  0000A8  6E1D               	movwf	(___flmul@b+1)^0,c
  2142  0000AA  0E00               	movlw	0
  2143  0000AC  6E1E               	movwf	(___flmul@b+2)^0,c
  2144  0000AE  0E00               	movlw	0
  2145  0000B0  6E1F               	movwf	(___flmul@b+3)^0,c
  2146  0000B2                     l3445:
  2147  0000B2  5023               	movf	(___flmul@a+3)^0,w,c
  2148  0000B4  0B80               	andlw	128
  2149  0000B6  1A28               	xorwf	___flmul@sign^0,f,c
  2150  0000B8  5023               	movf	(___flmul@a+3)^0,w,c
  2151  0000BA  2423               	addwf	(___flmul@a+3)^0,w,c
  2152  0000BC  6E29               	movwf	___flmul@aexp^0,c
  2153  0000BE  AE22               	btfss	(___flmul@a+2)^0,7,c
  2154  0000C0  EF64  F000         	goto	u2241
  2155  0000C4  EF66  F000         	goto	u2240
  2156  0000C8                     u2241:
  2157  0000C8  EF67  F000         	goto	l3453
  2158  0000CC                     u2240:
  2159  0000CC  8029               	bsf	___flmul@aexp^0,0,c
  2160  0000CE                     l3453:
  2161  0000CE  5029               	movf	___flmul@aexp^0,w,c
  2162  0000D0  B4D8               	btfsc	status,2,c
  2163  0000D2  EF6D  F000         	goto	u2251
  2164  0000D6  EF6F  F000         	goto	u2250
  2165  0000DA                     u2251:
  2166  0000DA  EF82  F000         	goto	l3461
  2167  0000DE                     u2250:
  2168  0000DE  2829               	incf	___flmul@aexp^0,w,c
  2169  0000E0  A4D8               	btfss	status,2,c
  2170  0000E2  EF75  F000         	goto	u2261
  2171  0000E6  EF77  F000         	goto	u2260
  2172  0000EA                     u2261:
  2173  0000EA  EF7F  F000         	goto	l3459
  2174  0000EE                     u2260:
  2175  0000EE  0E00               	movlw	0
  2176  0000F0  6E20               	movwf	___flmul@a^0,c
  2177  0000F2  0E00               	movlw	0
  2178  0000F4  6E21               	movwf	(___flmul@a+1)^0,c
  2179  0000F6  0E00               	movlw	0
  2180  0000F8  6E22               	movwf	(___flmul@a+2)^0,c
  2181  0000FA  0E00               	movlw	0
  2182  0000FC  6E23               	movwf	(___flmul@a+3)^0,c
  2183  0000FE                     l3459:
  2184  0000FE  8E22               	bsf	(___flmul@a+2)^0,7,c
  2185  000100  EF8A  F000         	goto	l1286
  2186  000104                     l3461:
  2187  000104  0E00               	movlw	0
  2188  000106  6E20               	movwf	___flmul@a^0,c
  2189  000108  0E00               	movlw	0
  2190  00010A  6E21               	movwf	(___flmul@a+1)^0,c
  2191  00010C  0E00               	movlw	0
  2192  00010E  6E22               	movwf	(___flmul@a+2)^0,c
  2193  000110  0E00               	movlw	0
  2194  000112  6E23               	movwf	(___flmul@a+3)^0,c
  2195  000114                     l1286:
  2196  000114  5029               	movf	___flmul@aexp^0,w,c
  2197  000116  B4D8               	btfsc	status,2,c
  2198  000118  EF90  F000         	goto	u2271
  2199  00011C  EF92  F000         	goto	u2270
  2200  000120                     u2271:
  2201  000120  EF9A  F000         	goto	l3465
  2202  000124                     u2270:
  2203  000124  502E               	movf	___flmul@bexp^0,w,c
  2204  000126  A4D8               	btfss	status,2,c
  2205  000128  EF98  F000         	goto	u2281
  2206  00012C  EF9A  F000         	goto	u2280
  2207  000130                     u2281:
  2208  000130  EFA4  F000         	goto	l3469
  2209  000134                     u2280:
  2210  000134                     l3465:
  2211  000134  0E00               	movlw	0
  2212  000136  6E1C               	movwf	?___flmul^0,c
  2213  000138  0E00               	movlw	0
  2214  00013A  6E1D               	movwf	(?___flmul+1)^0,c
  2215  00013C  0E00               	movlw	0
  2216  00013E  6E1E               	movwf	(?___flmul+2)^0,c
  2217  000140  0E00               	movlw	0
  2218  000142  6E1F               	movwf	(?___flmul+3)^0,c
  2219  000144  EF3C  F002         	goto	l1290
  2220  000148                     l3469:
  2221  000148  5022               	movf	(___flmul@a+2)^0,w,c
  2222  00014A  021C               	mulwf	___flmul@b^0,c
  2223  00014C  CFF3 F033          	movff	prodl,___flmul@temp
  2224  000150  CFF4 F034          	movff	prodh,___flmul@temp+1
  2225  000154  5033               	movf	___flmul@temp^0,w,c
  2226  000156  6E2A               	movwf	___flmul@grs^0,c
  2227  000158  6A2B               	clrf	(___flmul@grs+1)^0,c
  2228  00015A  6A2C               	clrf	(___flmul@grs+2)^0,c
  2229  00015C  6A2D               	clrf	(___flmul@grs+3)^0,c
  2230  00015E  5034               	movf	(___flmul@temp+1)^0,w,c
  2231  000160  6E2F               	movwf	___flmul@prod^0,c
  2232  000162  6A30               	clrf	(___flmul@prod+1)^0,c
  2233  000164  6A31               	clrf	(___flmul@prod+2)^0,c
  2234  000166  6A32               	clrf	(___flmul@prod+3)^0,c
  2235  000168  5021               	movf	(___flmul@a+1)^0,w,c
  2236  00016A  021D               	mulwf	(___flmul@b+1)^0,c
  2237  00016C  CFF3 F033          	movff	prodl,___flmul@temp
  2238  000170  CFF4 F034          	movff	prodh,___flmul@temp+1
  2239  000174  5033               	movf	___flmul@temp^0,w,c
  2240  000176  262A               	addwf	___flmul@grs^0,f,c
  2241  000178  0E00               	movlw	0
  2242  00017A  222B               	addwfc	(___flmul@grs+1)^0,f,c
  2243  00017C  222C               	addwfc	(___flmul@grs+2)^0,f,c
  2244  00017E  222D               	addwfc	(___flmul@grs+3)^0,f,c
  2245  000180  5034               	movf	(___flmul@temp+1)^0,w,c
  2246  000182  262F               	addwf	___flmul@prod^0,f,c
  2247  000184  0E00               	movlw	0
  2248  000186  2230               	addwfc	(___flmul@prod+1)^0,f,c
  2249  000188  2231               	addwfc	(___flmul@prod+2)^0,f,c
  2250  00018A  2232               	addwfc	(___flmul@prod+3)^0,f,c
  2251  00018C  5020               	movf	___flmul@a^0,w,c
  2252  00018E  021E               	mulwf	(___flmul@b+2)^0,c
  2253  000190  CFF3 F033          	movff	prodl,___flmul@temp
  2254  000194  CFF4 F034          	movff	prodh,___flmul@temp+1
  2255  000198  5033               	movf	___flmul@temp^0,w,c
  2256  00019A  262A               	addwf	___flmul@grs^0,f,c
  2257  00019C  0E00               	movlw	0
  2258  00019E  222B               	addwfc	(___flmul@grs+1)^0,f,c
  2259  0001A0  222C               	addwfc	(___flmul@grs+2)^0,f,c
  2260  0001A2  222D               	addwfc	(___flmul@grs+3)^0,f,c
  2261  0001A4  5034               	movf	(___flmul@temp+1)^0,w,c
  2262  0001A6  262F               	addwf	___flmul@prod^0,f,c
  2263  0001A8  0E00               	movlw	0
  2264  0001AA  2230               	addwfc	(___flmul@prod+1)^0,f,c
  2265  0001AC  2231               	addwfc	(___flmul@prod+2)^0,f,c
  2266  0001AE  2232               	addwfc	(___flmul@prod+3)^0,f,c
  2267  0001B0  C02C  F02D         	movff	___flmul@grs+2,___flmul@grs+3
  2268  0001B4  C02B  F02C         	movff	___flmul@grs+1,___flmul@grs+2
  2269  0001B8  C02A  F02B         	movff	___flmul@grs,___flmul@grs+1
  2270  0001BC  6A2A               	clrf	___flmul@grs^0,c
  2271  0001BE  5020               	movf	___flmul@a^0,w,c
  2272  0001C0  021D               	mulwf	(___flmul@b+1)^0,c
  2273  0001C2  CFF3 F033          	movff	prodl,___flmul@temp
  2274  0001C6  CFF4 F034          	movff	prodh,___flmul@temp+1
  2275  0001CA  5033               	movf	___flmul@temp^0,w,c
  2276  0001CC  262A               	addwf	___flmul@grs^0,f,c
  2277  0001CE  5034               	movf	(___flmul@temp+1)^0,w,c
  2278  0001D0  222B               	addwfc	(___flmul@grs+1)^0,f,c
  2279  0001D2  0E00               	movlw	0
  2280  0001D4  222C               	addwfc	(___flmul@grs+2)^0,f,c
  2281  0001D6  0E00               	movlw	0
  2282  0001D8  222D               	addwfc	(___flmul@grs+3)^0,f,c
  2283  0001DA  5021               	movf	(___flmul@a+1)^0,w,c
  2284  0001DC  021C               	mulwf	___flmul@b^0,c
  2285  0001DE  CFF3 F033          	movff	prodl,___flmul@temp
  2286  0001E2  CFF4 F034          	movff	prodh,___flmul@temp+1
  2287  0001E6  5033               	movf	___flmul@temp^0,w,c
  2288  0001E8  262A               	addwf	___flmul@grs^0,f,c
  2289  0001EA  5034               	movf	(___flmul@temp+1)^0,w,c
  2290  0001EC  222B               	addwfc	(___flmul@grs+1)^0,f,c
  2291  0001EE  0E00               	movlw	0
  2292  0001F0  222C               	addwfc	(___flmul@grs+2)^0,f,c
  2293  0001F2  0E00               	movlw	0
  2294  0001F4  222D               	addwfc	(___flmul@grs+3)^0,f,c
  2295  0001F6  C02C  F02D         	movff	___flmul@grs+2,___flmul@grs+3
  2296  0001FA  C02B  F02C         	movff	___flmul@grs+1,___flmul@grs+2
  2297  0001FE  C02A  F02B         	movff	___flmul@grs,___flmul@grs+1
  2298  000202  6A2A               	clrf	___flmul@grs^0,c
  2299  000204  5020               	movf	___flmul@a^0,w,c
  2300  000206  021C               	mulwf	___flmul@b^0,c
  2301  000208  CFF3 F033          	movff	prodl,___flmul@temp
  2302  00020C  CFF4 F034          	movff	prodh,___flmul@temp+1
  2303  000210  5033               	movf	___flmul@temp^0,w,c
  2304  000212  262A               	addwf	___flmul@grs^0,f,c
  2305  000214  5034               	movf	(___flmul@temp+1)^0,w,c
  2306  000216  222B               	addwfc	(___flmul@grs+1)^0,f,c
  2307  000218  0E00               	movlw	0
  2308  00021A  222C               	addwfc	(___flmul@grs+2)^0,f,c
  2309  00021C  0E00               	movlw	0
  2310  00021E  222D               	addwfc	(___flmul@grs+3)^0,f,c
  2311  000220  5022               	movf	(___flmul@a+2)^0,w,c
  2312  000222  021D               	mulwf	(___flmul@b+1)^0,c
  2313  000224  CFF3 F033          	movff	prodl,___flmul@temp
  2314  000228  CFF4 F034          	movff	prodh,___flmul@temp+1
  2315  00022C  5033               	movf	___flmul@temp^0,w,c
  2316  00022E  262F               	addwf	___flmul@prod^0,f,c
  2317  000230  5034               	movf	(___flmul@temp+1)^0,w,c
  2318  000232  2230               	addwfc	(___flmul@prod+1)^0,f,c
  2319  000234  0E00               	movlw	0
  2320  000236  2231               	addwfc	(___flmul@prod+2)^0,f,c
  2321  000238  0E00               	movlw	0
  2322  00023A  2232               	addwfc	(___flmul@prod+3)^0,f,c
  2323  00023C  5021               	movf	(___flmul@a+1)^0,w,c
  2324  00023E  021E               	mulwf	(___flmul@b+2)^0,c
  2325  000240  CFF3 F033          	movff	prodl,___flmul@temp
  2326  000244  CFF4 F034          	movff	prodh,___flmul@temp+1
  2327  000248  5033               	movf	___flmul@temp^0,w,c
  2328  00024A  262F               	addwf	___flmul@prod^0,f,c
  2329  00024C  5034               	movf	(___flmul@temp+1)^0,w,c
  2330  00024E  2230               	addwfc	(___flmul@prod+1)^0,f,c
  2331  000250  0E00               	movlw	0
  2332  000252  2231               	addwfc	(___flmul@prod+2)^0,f,c
  2333  000254  0E00               	movlw	0
  2334  000256  2232               	addwfc	(___flmul@prod+3)^0,f,c
  2335  000258  5022               	movf	(___flmul@a+2)^0,w,c
  2336  00025A  021E               	mulwf	(___flmul@b+2)^0,c
  2337  00025C  CFF3 F033          	movff	prodl,___flmul@temp
  2338  000260  CFF4 F034          	movff	prodh,___flmul@temp+1
  2339  000264  5033               	movf	___flmul@temp^0,w,c
  2340  000266  6E24               	movwf	??___flmul^0,c
  2341  000268  5034               	movf	(___flmul@temp+1)^0,w,c
  2342  00026A  6E25               	movwf	(??___flmul+1)^0,c
  2343  00026C  6A26               	clrf	(??___flmul+2)^0,c
  2344  00026E  6A27               	clrf	(??___flmul+3)^0,c
  2345  000270  C026  F027         	movff	??___flmul+2,??___flmul+3
  2346  000274  C025  F026         	movff	??___flmul+1,??___flmul+2
  2347  000278  C024  F025         	movff	??___flmul,??___flmul+1
  2348  00027C  6A24               	clrf	??___flmul^0,c
  2349  00027E  5024               	movf	??___flmul^0,w,c
  2350  000280  262F               	addwf	___flmul@prod^0,f,c
  2351  000282  5025               	movf	(??___flmul+1)^0,w,c
  2352  000284  2230               	addwfc	(___flmul@prod+1)^0,f,c
  2353  000286  5026               	movf	(??___flmul+2)^0,w,c
  2354  000288  2231               	addwfc	(___flmul@prod+2)^0,f,c
  2355  00028A  5027               	movf	(??___flmul+3)^0,w,c
  2356  00028C  2232               	addwfc	(___flmul@prod+3)^0,f,c
  2357  00028E  C02A  F024         	movff	___flmul@grs,??___flmul
  2358  000292  C02B  F025         	movff	___flmul@grs+1,??___flmul+1
  2359  000296  C02C  F026         	movff	___flmul@grs+2,??___flmul+2
  2360  00029A  C02D  F027         	movff	___flmul@grs+3,??___flmul+3
  2361  00029E  0E19               	movlw	25
  2362  0002A0  EF57  F001         	goto	u2290
  2363  0002A4                     u2295:
  2364  0002A4  90D8               	bcf	status,0,c
  2365  0002A6  3227               	rrcf	(??___flmul+3)^0,f,c
  2366  0002A8  3226               	rrcf	(??___flmul+2)^0,f,c
  2367  0002AA  3225               	rrcf	(??___flmul+1)^0,f,c
  2368  0002AC  3224               	rrcf	??___flmul^0,f,c
  2369  0002AE                     u2290:
  2370  0002AE  2EE8               	decfsz	wreg,f,c
  2371  0002B0  EF52  F001         	goto	u2295
  2372  0002B4  5024               	movf	??___flmul^0,w,c
  2373  0002B6  262F               	addwf	___flmul@prod^0,f,c
  2374  0002B8  5025               	movf	(??___flmul+1)^0,w,c
  2375  0002BA  2230               	addwfc	(___flmul@prod+1)^0,f,c
  2376  0002BC  5026               	movf	(??___flmul+2)^0,w,c
  2377  0002BE  2231               	addwfc	(___flmul@prod+2)^0,f,c
  2378  0002C0  5027               	movf	(??___flmul+3)^0,w,c
  2379  0002C2  2232               	addwfc	(___flmul@prod+3)^0,f,c
  2380  0002C4  C02C  F02D         	movff	___flmul@grs+2,___flmul@grs+3
  2381  0002C8  C02B  F02C         	movff	___flmul@grs+1,___flmul@grs+2
  2382  0002CC  C02A  F02B         	movff	___flmul@grs,___flmul@grs+1
  2383  0002D0  6A2A               	clrf	___flmul@grs^0,c
  2384  0002D2  5029               	movf	___flmul@aexp^0,w,c
  2385  0002D4  C02E  F024         	movff	___flmul@bexp,??___flmul
  2386  0002D8  6A25               	clrf	(??___flmul+1)^0,c
  2387  0002DA  2624               	addwf	??___flmul^0,f,c
  2388  0002DC  0E00               	movlw	0
  2389  0002DE  2225               	addwfc	(??___flmul+1)^0,f,c
  2390  0002E0  0E82               	movlw	130
  2391  0002E2  2424               	addwf	??___flmul^0,w,c
  2392  0002E4  6E33               	movwf	___flmul@temp^0,c
  2393  0002E6  0EFF               	movlw	255
  2394  0002E8  2025               	addwfc	(??___flmul+1)^0,w,c
  2395  0002EA  6E34               	movwf	(___flmul@temp+1)^0,c
  2396  0002EC  EF8D  F001         	goto	l3517
  2397  0002F0                     l3511:
  2398  0002F0  90D8               	bcf	status,0,c
  2399  0002F2  362F               	rlcf	___flmul@prod^0,f,c
  2400  0002F4  3630               	rlcf	(___flmul@prod+1)^0,f,c
  2401  0002F6  3631               	rlcf	(___flmul@prod+2)^0,f,c
  2402  0002F8  3632               	rlcf	(___flmul@prod+3)^0,f,c
  2403  0002FA  AE2D               	btfss	(___flmul@grs+3)^0,7,c
  2404  0002FC  EF82  F001         	goto	u2301
  2405  000300  EF84  F001         	goto	u2300
  2406  000304                     u2301:
  2407  000304  EF85  F001         	goto	l1293
  2408  000308                     u2300:
  2409  000308  802F               	bsf	___flmul@prod^0,0,c
  2410  00030A                     l1293:
  2411  00030A  90D8               	bcf	status,0,c
  2412  00030C  362A               	rlcf	___flmul@grs^0,f,c
  2413  00030E  362B               	rlcf	(___flmul@grs+1)^0,f,c
  2414  000310  362C               	rlcf	(___flmul@grs+2)^0,f,c
  2415  000312  362D               	rlcf	(___flmul@grs+3)^0,f,c
  2416  000314  0633               	decf	___flmul@temp^0,f,c
  2417  000316  A0D8               	btfss	status,0,c
  2418  000318  0634               	decf	(___flmul@temp+1)^0,f,c
  2419  00031A                     l3517:
  2420  00031A  AE31               	btfss	(___flmul@prod+2)^0,7,c
  2421  00031C  EF92  F001         	goto	u2311
  2422  000320  EF94  F001         	goto	u2310
  2423  000324                     u2311:
  2424  000324  EF78  F001         	goto	l3511
  2425  000328                     u2310:
  2426  000328  0E00               	movlw	0
  2427  00032A  6E29               	movwf	___flmul@aexp^0,c
  2428  00032C  AE2D               	btfss	(___flmul@grs+3)^0,7,c
  2429  00032E  EF9B  F001         	goto	u2321
  2430  000332  EF9D  F001         	goto	u2320
  2431  000336                     u2321:
  2432  000336  EFC1  F001         	goto	l1295
  2433  00033A                     u2320:
  2434  00033A  0EFF               	movlw	255
  2435  00033C  142A               	andwf	___flmul@grs^0,w,c
  2436  00033E  6E24               	movwf	??___flmul^0,c
  2437  000340  0EFF               	movlw	255
  2438  000342  142B               	andwf	(___flmul@grs+1)^0,w,c
  2439  000344  6E25               	movwf	(??___flmul+1)^0,c
  2440  000346  0EFF               	movlw	255
  2441  000348  142C               	andwf	(___flmul@grs+2)^0,w,c
  2442  00034A  6E26               	movwf	(??___flmul+2)^0,c
  2443  00034C  0E7F               	movlw	127
  2444  00034E  142D               	andwf	(___flmul@grs+3)^0,w,c
  2445  000350  6E27               	movwf	(??___flmul+3)^0,c
  2446  000352  5024               	movf	??___flmul^0,w,c
  2447  000354  1025               	iorwf	(??___flmul+1)^0,w,c
  2448  000356  1026               	iorwf	(??___flmul+2)^0,w,c
  2449  000358  1027               	iorwf	(??___flmul+3)^0,w,c
  2450  00035A  B4D8               	btfsc	status,2,c
  2451  00035C  EFB2  F001         	goto	u2331
  2452  000360  EFB4  F001         	goto	u2330
  2453  000364                     u2331:
  2454  000364  EFB8  F001         	goto	l1296
  2455  000368                     u2330:
  2456  000368                     l3525:
  2457  000368  0E01               	movlw	1
  2458  00036A  6E29               	movwf	___flmul@aexp^0,c
  2459  00036C  EFC1  F001         	goto	l1295
  2460  000370                     l1296:
  2461  000370  A02F               	btfss	___flmul@prod^0,0,c
  2462  000372  EFBD  F001         	goto	u2341
  2463  000376  EFBF  F001         	goto	u2340
  2464  00037A                     u2341:
  2465  00037A  EFC1  F001         	goto	l1295
  2466  00037E                     u2340:
  2467  00037E  EFB4  F001         	goto	l3525
  2468  000382                     l1295:
  2469  000382  5029               	movf	___flmul@aexp^0,w,c
  2470  000384  B4D8               	btfsc	status,2,c
  2471  000386  EFC7  F001         	goto	u2351
  2472  00038A  EFC9  F001         	goto	u2350
  2473  00038E                     u2351:
  2474  00038E  EFED  F001         	goto	l3537
  2475  000392                     u2350:
  2476  000392  0E01               	movlw	1
  2477  000394  262F               	addwf	___flmul@prod^0,f,c
  2478  000396  0E00               	movlw	0
  2479  000398  2230               	addwfc	(___flmul@prod+1)^0,f,c
  2480  00039A  2231               	addwfc	(___flmul@prod+2)^0,f,c
  2481  00039C  2232               	addwfc	(___flmul@prod+3)^0,f,c
  2482  00039E  A032               	btfss	(___flmul@prod+3)^0,0,c
  2483  0003A0  EFD4  F001         	goto	u2361
  2484  0003A4  EFD6  F001         	goto	u2360
  2485  0003A8                     u2361:
  2486  0003A8  EFED  F001         	goto	l3537
  2487  0003AC                     u2360:
  2488  0003AC  C02F  F024         	movff	___flmul@prod,??___flmul
  2489  0003B0  C030  F025         	movff	___flmul@prod+1,??___flmul+1
  2490  0003B4  C031  F026         	movff	___flmul@prod+2,??___flmul+2
  2491  0003B8  C032  F027         	movff	___flmul@prod+3,??___flmul+3
  2492  0003BC  3427               	rlcf	(??___flmul+3)^0,w,c
  2493  0003BE  3227               	rrcf	(??___flmul+3)^0,f,c
  2494  0003C0  3226               	rrcf	(??___flmul+2)^0,f,c
  2495  0003C2  3225               	rrcf	(??___flmul+1)^0,f,c
  2496  0003C4  3224               	rrcf	??___flmul^0,f,c
  2497  0003C6  C024  F02F         	movff	??___flmul,___flmul@prod
  2498  0003CA  C025  F030         	movff	??___flmul+1,___flmul@prod+1
  2499  0003CE  C026  F031         	movff	??___flmul+2,___flmul@prod+2
  2500  0003D2  C027  F032         	movff	??___flmul+3,___flmul@prod+3
  2501  0003D6  4A33               	infsnz	___flmul@temp^0,f,c
  2502  0003D8  2A34               	incf	(___flmul@temp+1)^0,f,c
  2503  0003DA                     l3537:
  2504  0003DA  BE34               	btfsc	(___flmul@temp+1)^0,7,c
  2505  0003DC  EFF8  F001         	goto	u2371
  2506  0003E0  5034               	movf	(___flmul@temp+1)^0,w,c
  2507  0003E2  E108               	bnz	u2370
  2508  0003E4  2833               	incf	___flmul@temp^0,w,c
  2509  0003E6  A0D8               	btfss	status,0,c
  2510  0003E8  EFF8  F001         	goto	u2371
  2511  0003EC  EFFA  F001         	goto	u2370
  2512  0003F0                     u2371:
  2513  0003F0  EF04  F002         	goto	l3541
  2514  0003F4                     u2370:
  2515  0003F4  0E00               	movlw	0
  2516  0003F6  6E2F               	movwf	___flmul@prod^0,c
  2517  0003F8  0E00               	movlw	0
  2518  0003FA  6E30               	movwf	(___flmul@prod+1)^0,c
  2519  0003FC  0E80               	movlw	128
  2520  0003FE  6E31               	movwf	(___flmul@prod+2)^0,c
  2521  000400  0E7F               	movlw	127
  2522  000402  6E32               	movwf	(___flmul@prod+3)^0,c
  2523  000404  EF32  F002         	goto	l3553
  2524  000408                     l3541:
  2525  000408  BE34               	btfsc	(___flmul@temp+1)^0,7,c
  2526  00040A  EF11  F002         	goto	u2380
  2527  00040E  5034               	movf	(___flmul@temp+1)^0,w,c
  2528  000410  E106               	bnz	u2381
  2529  000412  0433               	decf	___flmul@temp^0,w,c
  2530  000414  B0D8               	btfsc	status,0,c
  2531  000416  EF0F  F002         	goto	u2381
  2532  00041A  EF11  F002         	goto	u2380
  2533  00041E                     u2381:
  2534  00041E  EF1D  F002         	goto	l1303
  2535  000422                     u2380:
  2536  000422  0E00               	movlw	0
  2537  000424  6E2F               	movwf	___flmul@prod^0,c
  2538  000426  0E00               	movlw	0
  2539  000428  6E30               	movwf	(___flmul@prod+1)^0,c
  2540  00042A  0E00               	movlw	0
  2541  00042C  6E31               	movwf	(___flmul@prod+2)^0,c
  2542  00042E  0E00               	movlw	0
  2543  000430  6E32               	movwf	(___flmul@prod+3)^0,c
  2544  000432  0E00               	movlw	0
  2545  000434  6E28               	movwf	___flmul@sign^0,c
  2546  000436  EF32  F002         	goto	l3553
  2547  00043A                     l1303:
  2548  00043A  C033  F02E         	movff	___flmul@temp,___flmul@bexp
  2549  00043E  0EFF               	movlw	255
  2550  000440  162F               	andwf	___flmul@prod^0,f,c
  2551  000442  0EFF               	movlw	255
  2552  000444  1630               	andwf	(___flmul@prod+1)^0,f,c
  2553  000446  0E7F               	movlw	127
  2554  000448  1631               	andwf	(___flmul@prod+2)^0,f,c
  2555  00044A  0E00               	movlw	0
  2556  00044C  1632               	andwf	(___flmul@prod+3)^0,f,c
  2557  00044E  A02E               	btfss	___flmul@bexp^0,0,c
  2558  000450  EF2C  F002         	goto	u2391
  2559  000454  EF2E  F002         	goto	u2390
  2560  000458                     u2391:
  2561  000458  EF2F  F002         	goto	l3551
  2562  00045C                     u2390:
  2563  00045C  8E31               	bsf	(___flmul@prod+2)^0,7,c
  2564  00045E                     l3551:
  2565  00045E  90D8               	bcf	status,0,c
  2566  000460  302E               	rrcf	___flmul@bexp^0,w,c
  2567  000462  6E32               	movwf	(___flmul@prod+3)^0,c
  2568  000464                     l3553:
  2569  000464  5028               	movf	___flmul@sign^0,w,c
  2570  000466  1232               	iorwf	(___flmul@prod+3)^0,f,c
  2571  000468  C02F  F01C         	movff	___flmul@prod,?___flmul
  2572  00046C  C030  F01D         	movff	___flmul@prod+1,?___flmul+1
  2573  000470  C031  F01E         	movff	___flmul@prod+2,?___flmul+2
  2574  000474  C032  F01F         	movff	___flmul@prod+3,?___flmul+3
  2575  000478                     l1290:
  2576  000478  0012               	return		;funcret
  2577  00047A                     __end_of___flmul:
  2578                           	callstack 0
  2579                           
  2580 ;; *************** function ___flge *****************
  2581 ;; Defined at:
  2582 ;;		line 4 in file "C:\Program Files\Microchip\xc8\v2.36\pic\sources\c99\common\flge.c"
  2583 ;; Parameters:    Size  Location     Type
  2584 ;;  ff1             4    2[COMRAM] unsigned char 
  2585 ;;  ff2             4    6[COMRAM] unsigned char 
  2586 ;; Auto vars:     Size  Location     Type
  2587 ;;		None
  2588 ;; Return value:  Size  Location     Type
  2589 ;;		None               void
  2590 ;; Registers used:
  2591 ;;		wreg, status,2, status,0
  2592 ;; Tracked objects:
  2593 ;;		On entry : 0/0
  2594 ;;		On exit  : 0/0
  2595 ;;		Unchanged: 0/0
  2596 ;; Data sizes:     COMRAM   BANK0   BANK1   BANK2   BANK3   BANK4   BANK5   BANK6   BANK7   BANK8   BANK9  BANK10  BANK1
      +1  BANK12  BANK13  BANK14
  2597 ;;      Params:         8       0       0       0       0       0       0       0       0       0       0       0       
      +0       0       0       0
  2598 ;;      Locals:         0       0       0       0       0       0       0       0       0       0       0       0       
      +0       0       0       0
  2599 ;;      Temps:          4       0       0       0       0       0       0       0       0       0       0       0       
      +0       0       0       0
  2600 ;;      Totals:        12       0       0       0       0       0       0       0       0       0       0       0       
      +0       0       0       0
  2601 ;;Total ram usage:       12 bytes
  2602 ;; Hardware stack levels used: 1
  2603 ;; Hardware stack levels required when called: 3
  2604 ;; This function calls:
  2605 ;;		Nothing
  2606 ;; This function is called by:
  2607 ;;		_ADC_Conv_pinSeven
  2608 ;;		_ADC_Conv_pinNine
  2609 ;; This function uses a non-reentrant model
  2610 ;;
  2611                           
  2612                           	psect	text10
  2613  001710                     __ptext10:
  2614                           	callstack 0
  2615  001710                     ___flge:
  2616                           	callstack 25
  2617  001710  0E00               	movlw	0
  2618  001712  1403               	andwf	___flge@ff1^0,w,c
  2619  001714  6E0B               	movwf	??___flge^0,c
  2620  001716  0E00               	movlw	0
  2621  001718  1404               	andwf	(___flge@ff1+1)^0,w,c
  2622  00171A  6E0C               	movwf	(??___flge+1)^0,c
  2623  00171C  0E80               	movlw	128
  2624  00171E  1405               	andwf	(___flge@ff1+2)^0,w,c
  2625  001720  6E0D               	movwf	(??___flge+2)^0,c
  2626  001722  0E7F               	movlw	127
  2627  001724  1406               	andwf	(___flge@ff1+3)^0,w,c
  2628  001726  6E0E               	movwf	(??___flge+3)^0,c
  2629  001728  500B               	movf	??___flge^0,w,c
  2630  00172A  100C               	iorwf	(??___flge+1)^0,w,c
  2631  00172C  100D               	iorwf	(??___flge+2)^0,w,c
  2632  00172E  100E               	iorwf	(??___flge+3)^0,w,c
  2633  001730  A4D8               	btfss	status,2,c
  2634  001732  EF9D  F00B         	goto	u2401
  2635  001736  EF9F  F00B         	goto	u2400
  2636  00173A                     u2401:
  2637  00173A  EFA7  F00B         	goto	l3563
  2638  00173E                     u2400:
  2639  00173E  0E00               	movlw	0
  2640  001740  6E03               	movwf	___flge@ff1^0,c
  2641  001742  0E00               	movlw	0
  2642  001744  6E04               	movwf	(___flge@ff1+1)^0,c
  2643  001746  0E00               	movlw	0
  2644  001748  6E05               	movwf	(___flge@ff1+2)^0,c
  2645  00174A  0E00               	movlw	0
  2646  00174C  6E06               	movwf	(___flge@ff1+3)^0,c
  2647  00174E                     l3563:
  2648  00174E  0E00               	movlw	0
  2649  001750  1407               	andwf	___flge@ff2^0,w,c
  2650  001752  6E0B               	movwf	??___flge^0,c
  2651  001754  0E00               	movlw	0
  2652  001756  1408               	andwf	(___flge@ff2+1)^0,w,c
  2653  001758  6E0C               	movwf	(??___flge+1)^0,c
  2654  00175A  0E80               	movlw	128
  2655  00175C  1409               	andwf	(___flge@ff2+2)^0,w,c
  2656  00175E  6E0D               	movwf	(??___flge+2)^0,c
  2657  001760  0E7F               	movlw	127
  2658  001762  140A               	andwf	(___flge@ff2+3)^0,w,c
  2659  001764  6E0E               	movwf	(??___flge+3)^0,c
  2660  001766  500B               	movf	??___flge^0,w,c
  2661  001768  100C               	iorwf	(??___flge+1)^0,w,c
  2662  00176A  100D               	iorwf	(??___flge+2)^0,w,c
  2663  00176C  100E               	iorwf	(??___flge+3)^0,w,c
  2664  00176E  A4D8               	btfss	status,2,c
  2665  001770  EFBC  F00B         	goto	u2411
  2666  001774  EFBE  F00B         	goto	u2410
  2667  001778                     u2411:
  2668  001778  EFC6  F00B         	goto	l3567
  2669  00177C                     u2410:
  2670  00177C  0E00               	movlw	0
  2671  00177E  6E07               	movwf	___flge@ff2^0,c
  2672  001780  0E00               	movlw	0
  2673  001782  6E08               	movwf	(___flge@ff2+1)^0,c
  2674  001784  0E00               	movlw	0
  2675  001786  6E09               	movwf	(___flge@ff2+2)^0,c
  2676  001788  0E00               	movlw	0
  2677  00178A  6E0A               	movwf	(___flge@ff2+3)^0,c
  2678  00178C                     l3567:
  2679  00178C  AE06               	btfss	(___flge@ff1+3)^0,7,c
  2680  00178E  EFCB  F00B         	goto	u2421
  2681  001792  EFCD  F00B         	goto	u2420
  2682  001796                     u2421:
  2683  001796  EFD6  F00B         	goto	l3571
  2684  00179A                     u2420:
  2685  00179A  6C03               	negf	___flge@ff1^0,c
  2686  00179C  1E04               	comf	(___flge@ff1+1)^0,f,c
  2687  00179E  B0D8               	btfsc	status,0,c
  2688  0017A0  2A04               	incf	(___flge@ff1+1)^0,f,c
  2689  0017A2  1E05               	comf	(___flge@ff1+2)^0,f,c
  2690  0017A4  B0D8               	btfsc	status,0,c
  2691  0017A6  2A05               	incf	(___flge@ff1+2)^0,f,c
  2692  0017A8  0E80               	movlw	128
  2693  0017AA  5606               	subfwb	(___flge@ff1+3)^0,f,c
  2694  0017AC                     l3571:
  2695  0017AC  AE0A               	btfss	(___flge@ff2+3)^0,7,c
  2696  0017AE  EFDB  F00B         	goto	u2431
  2697  0017B2  EFDD  F00B         	goto	u2430
  2698  0017B6                     u2431:
  2699  0017B6  EFE6  F00B         	goto	l937
  2700  0017BA                     u2430:
  2701  0017BA  6C07               	negf	___flge@ff2^0,c
  2702  0017BC  1E08               	comf	(___flge@ff2+1)^0,f,c
  2703  0017BE  B0D8               	btfsc	status,0,c
  2704  0017C0  2A08               	incf	(___flge@ff2+1)^0,f,c
  2705  0017C2  1E09               	comf	(___flge@ff2+2)^0,f,c
  2706  0017C4  B0D8               	btfsc	status,0,c
  2707  0017C6  2A09               	incf	(___flge@ff2+2)^0,f,c
  2708  0017C8  0E80               	movlw	128
  2709  0017CA  560A               	subfwb	(___flge@ff2+3)^0,f,c
  2710  0017CC                     l937:
  2711  0017CC  0E00               	movlw	0
  2712  0017CE  1A03               	xorwf	___flge@ff1^0,f,c
  2713  0017D0  0E00               	movlw	0
  2714  0017D2  1A04               	xorwf	(___flge@ff1+1)^0,f,c
  2715  0017D4  0E00               	movlw	0
  2716  0017D6  1A05               	xorwf	(___flge@ff1+2)^0,f,c
  2717  0017D8  0E80               	movlw	128
  2718  0017DA  1A06               	xorwf	(___flge@ff1+3)^0,f,c
  2719  0017DC  0E00               	movlw	0
  2720  0017DE  1A07               	xorwf	___flge@ff2^0,f,c
  2721  0017E0  0E00               	movlw	0
  2722  0017E2  1A08               	xorwf	(___flge@ff2+1)^0,f,c
  2723  0017E4  0E00               	movlw	0
  2724  0017E6  1A09               	xorwf	(___flge@ff2+2)^0,f,c
  2725  0017E8  0E80               	movlw	128
  2726  0017EA  1A0A               	xorwf	(___flge@ff2+3)^0,f,c
  2727  0017EC  5007               	movf	___flge@ff2^0,w,c
  2728  0017EE  5C03               	subwf	___flge@ff1^0,w,c
  2729  0017F0  5008               	movf	(___flge@ff2+1)^0,w,c
  2730  0017F2  5804               	subwfb	(___flge@ff1+1)^0,w,c
  2731  0017F4  5009               	movf	(___flge@ff2+2)^0,w,c
  2732  0017F6  5805               	subwfb	(___flge@ff1+2)^0,w,c
  2733  0017F8  500A               	movf	(___flge@ff2+3)^0,w,c
  2734  0017FA  5806               	subwfb	(___flge@ff1+3)^0,w,c
  2735  0017FC  B0D8               	btfsc	status,0,c
  2736  0017FE  EF03  F00C         	goto	u2441
  2737  001802  EF05  F00C         	goto	u2440
  2738  001806                     u2441:
  2739  001806  EF08  F00C         	goto	l3577
  2740  00180A                     u2440:
  2741  00180A  90D8               	bcf	status,0,c
  2742  00180C  EF09  F00C         	goto	l942
  2743  001810                     l3577:
  2744  001810  80D8               	bsf	status,0,c
  2745  001812                     l942:
  2746  001812  0012               	return		;funcret
  2747  001814                     __end_of___flge:
  2748                           	callstack 0
  2749                           
  2750 ;; *************** function ___fldiv *****************
  2751 ;; Defined at:
  2752 ;;		line 11 in file "C:\Program Files\Microchip\xc8\v2.36\pic\sources\c99\common\sprcdiv.c"
  2753 ;; Parameters:    Size  Location     Type
  2754 ;;  b               4    2[COMRAM] unsigned char 
  2755 ;;  a               4    6[COMRAM] unsigned char 
  2756 ;; Auto vars:     Size  Location     Type
  2757 ;;  grs             4   21[COMRAM] unsigned long 
  2758 ;;  rem             4   14[COMRAM] unsigned long 
  2759 ;;  new_exp         2   19[COMRAM] short 
  2760 ;;  aexp            1   26[COMRAM] unsigned char 
  2761 ;;  bexp            1   25[COMRAM] unsigned char 
  2762 ;;  sign            1   18[COMRAM] unsigned char 
  2763 ;; Return value:  Size  Location     Type
  2764 ;;                  4    2[COMRAM] unsigned char 
  2765 ;; Registers used:
  2766 ;;		wreg, status,2, status,0
  2767 ;; Tracked objects:
  2768 ;;		On entry : 0/0
  2769 ;;		On exit  : 0/0
  2770 ;;		Unchanged: 0/0
  2771 ;; Data sizes:     COMRAM   BANK0   BANK1   BANK2   BANK3   BANK4   BANK5   BANK6   BANK7   BANK8   BANK9  BANK10  BANK1
      +1  BANK12  BANK13  BANK14
  2772 ;;      Params:         8       0       0       0       0       0       0       0       0       0       0       0       
      +0       0       0       0
  2773 ;;      Locals:        13       0       0       0       0       0       0       0       0       0       0       0       
      +0       0       0       0
  2774 ;;      Temps:          4       0       0       0       0       0       0       0       0       0       0       0       
      +0       0       0       0
  2775 ;;      Totals:        25       0       0       0       0       0       0       0       0       0       0       0       
      +0       0       0       0
  2776 ;;Total ram usage:       25 bytes
  2777 ;; Hardware stack levels used: 1
  2778 ;; Hardware stack levels required when called: 3
  2779 ;; This function calls:
  2780 ;;		Nothing
  2781 ;; This function is called by:
  2782 ;;		_ADC_Conv_pinSeven
  2783 ;;		_ADC_Conv_pinNine
  2784 ;; This function uses a non-reentrant model
  2785 ;;
  2786                           
  2787                           	psect	text11
  2788  00047A                     __ptext11:
  2789                           	callstack 0
  2790  00047A                     ___fldiv:
  2791                           	callstack 25
  2792  00047A  5006               	movf	(___fldiv@b+3)^0,w,c
  2793  00047C  0B80               	andlw	128
  2794  00047E  6E13               	movwf	___fldiv@sign^0,c
  2795  000480  5006               	movf	(___fldiv@b+3)^0,w,c
  2796  000482  2406               	addwf	(___fldiv@b+3)^0,w,c
  2797  000484  6E1A               	movwf	___fldiv@bexp^0,c
  2798  000486  AE05               	btfss	(___fldiv@b+2)^0,7,c
  2799  000488  EF48  F002         	goto	u1981
  2800  00048C  EF4A  F002         	goto	u1980
  2801  000490                     u1981:
  2802  000490  EF4B  F002         	goto	l3297
  2803  000494                     u1980:
  2804  000494  801A               	bsf	___fldiv@bexp^0,0,c
  2805  000496                     l3297:
  2806  000496  501A               	movf	___fldiv@bexp^0,w,c
  2807  000498  B4D8               	btfsc	status,2,c
  2808  00049A  EF51  F002         	goto	u1991
  2809  00049E  EF53  F002         	goto	u1990
  2810  0004A2                     u1991:
  2811  0004A2  EF68  F002         	goto	l3307
  2812  0004A6                     u1990:
  2813  0004A6  281A               	incf	___fldiv@bexp^0,w,c
  2814  0004A8  A4D8               	btfss	status,2,c
  2815  0004AA  EF59  F002         	goto	u2001
  2816  0004AE  EF5B  F002         	goto	u2000
  2817  0004B2                     u2001:
  2818  0004B2  EF63  F002         	goto	l3303
  2819  0004B6                     u2000:
  2820  0004B6  0E00               	movlw	0
  2821  0004B8  6E03               	movwf	___fldiv@b^0,c
  2822  0004BA  0E00               	movlw	0
  2823  0004BC  6E04               	movwf	(___fldiv@b+1)^0,c
  2824  0004BE  0E00               	movlw	0
  2825  0004C0  6E05               	movwf	(___fldiv@b+2)^0,c
  2826  0004C2  0E00               	movlw	0
  2827  0004C4  6E06               	movwf	(___fldiv@b+3)^0,c
  2828  0004C6                     l3303:
  2829  0004C6  8E05               	bsf	(___fldiv@b+2)^0,7,c
  2830  0004C8  0E00               	movlw	0
  2831  0004CA  6E06               	movwf	(___fldiv@b+3)^0,c
  2832  0004CC  EF70  F002         	goto	l3309
  2833  0004D0                     l3307:
  2834  0004D0  0E00               	movlw	0
  2835  0004D2  6E03               	movwf	___fldiv@b^0,c
  2836  0004D4  0E00               	movlw	0
  2837  0004D6  6E04               	movwf	(___fldiv@b+1)^0,c
  2838  0004D8  0E00               	movlw	0
  2839  0004DA  6E05               	movwf	(___fldiv@b+2)^0,c
  2840  0004DC  0E00               	movlw	0
  2841  0004DE  6E06               	movwf	(___fldiv@b+3)^0,c
  2842  0004E0                     l3309:
  2843  0004E0  500A               	movf	(___fldiv@a+3)^0,w,c
  2844  0004E2  0B80               	andlw	128
  2845  0004E4  1A13               	xorwf	___fldiv@sign^0,f,c
  2846  0004E6  500A               	movf	(___fldiv@a+3)^0,w,c
  2847  0004E8  240A               	addwf	(___fldiv@a+3)^0,w,c
  2848  0004EA  6E1B               	movwf	___fldiv@aexp^0,c
  2849  0004EC  AE09               	btfss	(___fldiv@a+2)^0,7,c
  2850  0004EE  EF7B  F002         	goto	u2011
  2851  0004F2  EF7D  F002         	goto	u2010
  2852  0004F6                     u2011:
  2853  0004F6  EF7E  F002         	goto	l3317
  2854  0004FA                     u2010:
  2855  0004FA  801B               	bsf	___fldiv@aexp^0,0,c
  2856  0004FC                     l3317:
  2857  0004FC  501B               	movf	___fldiv@aexp^0,w,c
  2858  0004FE  B4D8               	btfsc	status,2,c
  2859  000500  EF84  F002         	goto	u2021
  2860  000504  EF86  F002         	goto	u2020
  2861  000508                     u2021:
  2862  000508  EF9B  F002         	goto	l3327
  2863  00050C                     u2020:
  2864  00050C  281B               	incf	___fldiv@aexp^0,w,c
  2865  00050E  A4D8               	btfss	status,2,c
  2866  000510  EF8C  F002         	goto	u2031
  2867  000514  EF8E  F002         	goto	u2030
  2868  000518                     u2031:
  2869  000518  EF96  F002         	goto	l3323
  2870  00051C                     u2030:
  2871  00051C  0E00               	movlw	0
  2872  00051E  6E07               	movwf	___fldiv@a^0,c
  2873  000520  0E00               	movlw	0
  2874  000522  6E08               	movwf	(___fldiv@a+1)^0,c
  2875  000524  0E00               	movlw	0
  2876  000526  6E09               	movwf	(___fldiv@a+2)^0,c
  2877  000528  0E00               	movlw	0
  2878  00052A  6E0A               	movwf	(___fldiv@a+3)^0,c
  2879  00052C                     l3323:
  2880  00052C  8E09               	bsf	(___fldiv@a+2)^0,7,c
  2881  00052E  0E00               	movlw	0
  2882  000530  6E0A               	movwf	(___fldiv@a+3)^0,c
  2883  000532  EFA3  F002         	goto	l3329
  2884  000536                     l3327:
  2885  000536  0E00               	movlw	0
  2886  000538  6E07               	movwf	___fldiv@a^0,c
  2887  00053A  0E00               	movlw	0
  2888  00053C  6E08               	movwf	(___fldiv@a+1)^0,c
  2889  00053E  0E00               	movlw	0
  2890  000540  6E09               	movwf	(___fldiv@a+2)^0,c
  2891  000542  0E00               	movlw	0
  2892  000544  6E0A               	movwf	(___fldiv@a+3)^0,c
  2893  000546                     l3329:
  2894  000546  5007               	movf	___fldiv@a^0,w,c
  2895  000548  1008               	iorwf	(___fldiv@a+1)^0,w,c
  2896  00054A  1009               	iorwf	(___fldiv@a+2)^0,w,c
  2897  00054C  100A               	iorwf	(___fldiv@a+3)^0,w,c
  2898  00054E  A4D8               	btfss	status,2,c
  2899  000550  EFAC  F002         	goto	u2041
  2900  000554  EFAE  F002         	goto	u2040
  2901  000558                     u2041:
  2902  000558  EFC6  F002         	goto	l3341
  2903  00055C                     u2040:
  2904  00055C  0E00               	movlw	0
  2905  00055E  6E03               	movwf	___fldiv@b^0,c
  2906  000560  0E00               	movlw	0
  2907  000562  6E04               	movwf	(___fldiv@b+1)^0,c
  2908  000564  0E00               	movlw	0
  2909  000566  6E05               	movwf	(___fldiv@b+2)^0,c
  2910  000568  0E00               	movlw	0
  2911  00056A  6E06               	movwf	(___fldiv@b+3)^0,c
  2912  00056C  0E80               	movlw	128
  2913  00056E  1205               	iorwf	(___fldiv@b+2)^0,f,c
  2914  000570  0E7F               	movlw	127
  2915  000572  1206               	iorwf	(___fldiv@b+3)^0,f,c
  2916  000574                     l3335:
  2917  000574  5013               	movf	___fldiv@sign^0,w,c
  2918  000576  1206               	iorwf	(___fldiv@b+3)^0,f,c
  2919  000578  C003  F003         	movff	___fldiv@b,?___fldiv
  2920  00057C  C004  F004         	movff	___fldiv@b+1,?___fldiv+1
  2921  000580  C005  F005         	movff	___fldiv@b+2,?___fldiv+2
  2922  000584  C006  F006         	movff	___fldiv@b+3,?___fldiv+3
  2923  000588  EF09  F004         	goto	l1254
  2924  00058C                     l3341:
  2925  00058C  501A               	movf	___fldiv@bexp^0,w,c
  2926  00058E  A4D8               	btfss	status,2,c
  2927  000590  EFCC  F002         	goto	u2051
  2928  000594  EFCE  F002         	goto	u2050
  2929  000598                     u2051:
  2930  000598  EFD8  F002         	goto	l3349
  2931  00059C                     u2050:
  2932  00059C  0E00               	movlw	0
  2933  00059E  6E03               	movwf	?___fldiv^0,c
  2934  0005A0  0E00               	movlw	0
  2935  0005A2  6E04               	movwf	(?___fldiv+1)^0,c
  2936  0005A4  0E00               	movlw	0
  2937  0005A6  6E05               	movwf	(?___fldiv+2)^0,c
  2938  0005A8  0E00               	movlw	0
  2939  0005AA  6E06               	movwf	(?___fldiv+3)^0,c
  2940  0005AC  EF09  F004         	goto	l1254
  2941  0005B0                     l3349:
  2942  0005B0  501B               	movf	___fldiv@aexp^0,w,c
  2943  0005B2  C01A  F00B         	movff	___fldiv@bexp,??___fldiv
  2944  0005B6  6A0C               	clrf	(??___fldiv+1)^0,c
  2945  0005B8  5E0B               	subwf	??___fldiv^0,f,c
  2946  0005BA  0E00               	movlw	0
  2947  0005BC  5A0C               	subwfb	(??___fldiv+1)^0,f,c
  2948  0005BE  0E7F               	movlw	127
  2949  0005C0  240B               	addwf	??___fldiv^0,w,c
  2950  0005C2  6E14               	movwf	___fldiv@new_exp^0,c
  2951  0005C4  0E00               	movlw	0
  2952  0005C6  200C               	addwfc	(??___fldiv+1)^0,w,c
  2953  0005C8  6E15               	movwf	(___fldiv@new_exp+1)^0,c
  2954  0005CA  C003  F00F         	movff	___fldiv@b,___fldiv@rem
  2955  0005CE  C004  F010         	movff	___fldiv@b+1,___fldiv@rem+1
  2956  0005D2  C005  F011         	movff	___fldiv@b+2,___fldiv@rem+2
  2957  0005D6  C006  F012         	movff	___fldiv@b+3,___fldiv@rem+3
  2958  0005DA  0E00               	movlw	0
  2959  0005DC  6E03               	movwf	___fldiv@b^0,c
  2960  0005DE  0E00               	movlw	0
  2961  0005E0  6E04               	movwf	(___fldiv@b+1)^0,c
  2962  0005E2  0E00               	movlw	0
  2963  0005E4  6E05               	movwf	(___fldiv@b+2)^0,c
  2964  0005E6  0E00               	movlw	0
  2965  0005E8  6E06               	movwf	(___fldiv@b+3)^0,c
  2966  0005EA  0E00               	movlw	0
  2967  0005EC  6E16               	movwf	___fldiv@grs^0,c
  2968  0005EE  0E00               	movlw	0
  2969  0005F0  6E17               	movwf	(___fldiv@grs+1)^0,c
  2970  0005F2  0E00               	movlw	0
  2971  0005F4  6E18               	movwf	(___fldiv@grs+2)^0,c
  2972  0005F6  0E00               	movlw	0
  2973  0005F8  6E19               	movwf	(___fldiv@grs+3)^0,c
  2974  0005FA  0E00               	movlw	0
  2975  0005FC  6E1B               	movwf	___fldiv@aexp^0,c
  2976  0005FE  EF39  F003         	goto	l1256
  2977  000602                     l3359:
  2978  000602  501B               	movf	___fldiv@aexp^0,w,c
  2979  000604  B4D8               	btfsc	status,2,c
  2980  000606  EF07  F003         	goto	u2061
  2981  00060A  EF09  F003         	goto	u2060
  2982  00060E                     u2061:
  2983  00060E  EF20  F003         	goto	l3367
  2984  000612                     u2060:
  2985  000612  90D8               	bcf	status,0,c
  2986  000614  360F               	rlcf	___fldiv@rem^0,f,c
  2987  000616  3610               	rlcf	(___fldiv@rem+1)^0,f,c
  2988  000618  3611               	rlcf	(___fldiv@rem+2)^0,f,c
  2989  00061A  3612               	rlcf	(___fldiv@rem+3)^0,f,c
  2990  00061C  90D8               	bcf	status,0,c
  2991  00061E  3603               	rlcf	___fldiv@b^0,f,c
  2992  000620  3604               	rlcf	(___fldiv@b+1)^0,f,c
  2993  000622  3605               	rlcf	(___fldiv@b+2)^0,f,c
  2994  000624  3606               	rlcf	(___fldiv@b+3)^0,f,c
  2995  000626  AE19               	btfss	(___fldiv@grs+3)^0,7,c
  2996  000628  EF18  F003         	goto	u2071
  2997  00062C  EF1A  F003         	goto	u2070
  2998  000630                     u2071:
  2999  000630  EF1B  F003         	goto	l1259
  3000  000634                     u2070:
  3001  000634  8003               	bsf	___fldiv@b^0,0,c
  3002  000636                     l1259:
  3003  000636  90D8               	bcf	status,0,c
  3004  000638  3616               	rlcf	___fldiv@grs^0,f,c
  3005  00063A  3617               	rlcf	(___fldiv@grs+1)^0,f,c
  3006  00063C  3618               	rlcf	(___fldiv@grs+2)^0,f,c
  3007  00063E  3619               	rlcf	(___fldiv@grs+3)^0,f,c
  3008  000640                     l3367:
  3009  000640  5007               	movf	___fldiv@a^0,w,c
  3010  000642  5C0F               	subwf	___fldiv@rem^0,w,c
  3011  000644  5008               	movf	(___fldiv@a+1)^0,w,c
  3012  000646  5810               	subwfb	(___fldiv@rem+1)^0,w,c
  3013  000648  5009               	movf	(___fldiv@a+2)^0,w,c
  3014  00064A  5811               	subwfb	(___fldiv@rem+2)^0,w,c
  3015  00064C  500A               	movf	(___fldiv@a+3)^0,w,c
  3016  00064E  5812               	subwfb	(___fldiv@rem+3)^0,w,c
  3017  000650  A0D8               	btfss	status,0,c
  3018  000652  EF2D  F003         	goto	u2081
  3019  000656  EF2F  F003         	goto	u2080
  3020  00065A                     u2081:
  3021  00065A  EF38  F003         	goto	l3373
  3022  00065E                     u2080:
  3023  00065E  8C19               	bsf	(___fldiv@grs+3)^0,6,c
  3024  000660  5007               	movf	___fldiv@a^0,w,c
  3025  000662  5E0F               	subwf	___fldiv@rem^0,f,c
  3026  000664  5008               	movf	(___fldiv@a+1)^0,w,c
  3027  000666  5A10               	subwfb	(___fldiv@rem+1)^0,f,c
  3028  000668  5009               	movf	(___fldiv@a+2)^0,w,c
  3029  00066A  5A11               	subwfb	(___fldiv@rem+2)^0,f,c
  3030  00066C  500A               	movf	(___fldiv@a+3)^0,w,c
  3031  00066E  5A12               	subwfb	(___fldiv@rem+3)^0,f,c
  3032  000670                     l3373:
  3033  000670  2A1B               	incf	___fldiv@aexp^0,f,c
  3034  000672                     l1256:
  3035  000672  0E19               	movlw	25
  3036  000674  641B               	cpfsgt	___fldiv@aexp^0,c
  3037  000676  EF3F  F003         	goto	u2091
  3038  00067A  EF41  F003         	goto	u2090
  3039  00067E                     u2091:
  3040  00067E  EF01  F003         	goto	l3359
  3041  000682                     u2090:
  3042  000682  500F               	movf	___fldiv@rem^0,w,c
  3043  000684  1010               	iorwf	(___fldiv@rem+1)^0,w,c
  3044  000686  1011               	iorwf	(___fldiv@rem+2)^0,w,c
  3045  000688  1012               	iorwf	(___fldiv@rem+3)^0,w,c
  3046  00068A  B4D8               	btfsc	status,2,c
  3047  00068C  EF4A  F003         	goto	u2101
  3048  000690  EF4C  F003         	goto	u2100
  3049  000694                     u2101:
  3050  000694  EF64  F003         	goto	l3385
  3051  000698                     u2100:
  3052  000698  8016               	bsf	___fldiv@grs^0,0,c
  3053  00069A  EF64  F003         	goto	l3385
  3054  00069E                     l3379:
  3055  00069E  90D8               	bcf	status,0,c
  3056  0006A0  3603               	rlcf	___fldiv@b^0,f,c
  3057  0006A2  3604               	rlcf	(___fldiv@b+1)^0,f,c
  3058  0006A4  3605               	rlcf	(___fldiv@b+2)^0,f,c
  3059  0006A6  3606               	rlcf	(___fldiv@b+3)^0,f,c
  3060  0006A8  AE19               	btfss	(___fldiv@grs+3)^0,7,c
  3061  0006AA  EF59  F003         	goto	u2111
  3062  0006AE  EF5B  F003         	goto	u2110
  3063  0006B2                     u2111:
  3064  0006B2  EF5C  F003         	goto	l1265
  3065  0006B6                     u2110:
  3066  0006B6  8003               	bsf	___fldiv@b^0,0,c
  3067  0006B8                     l1265:
  3068  0006B8  90D8               	bcf	status,0,c
  3069  0006BA  3616               	rlcf	___fldiv@grs^0,f,c
  3070  0006BC  3617               	rlcf	(___fldiv@grs+1)^0,f,c
  3071  0006BE  3618               	rlcf	(___fldiv@grs+2)^0,f,c
  3072  0006C0  3619               	rlcf	(___fldiv@grs+3)^0,f,c
  3073  0006C2  0614               	decf	___fldiv@new_exp^0,f,c
  3074  0006C4  A0D8               	btfss	status,0,c
  3075  0006C6  0615               	decf	(___fldiv@new_exp+1)^0,f,c
  3076  0006C8                     l3385:
  3077  0006C8  AE05               	btfss	(___fldiv@b+2)^0,7,c
  3078  0006CA  EF69  F003         	goto	u2121
  3079  0006CE  EF6B  F003         	goto	u2120
  3080  0006D2                     u2121:
  3081  0006D2  EF4F  F003         	goto	l3379
  3082  0006D6                     u2120:
  3083  0006D6  0E00               	movlw	0
  3084  0006D8  6E1B               	movwf	___fldiv@aexp^0,c
  3085  0006DA  AE19               	btfss	(___fldiv@grs+3)^0,7,c
  3086  0006DC  EF72  F003         	goto	u2131
  3087  0006E0  EF74  F003         	goto	u2130
  3088  0006E4                     u2131:
  3089  0006E4  EF98  F003         	goto	l1267
  3090  0006E8                     u2130:
  3091  0006E8  0EFF               	movlw	255
  3092  0006EA  1416               	andwf	___fldiv@grs^0,w,c
  3093  0006EC  6E0B               	movwf	??___fldiv^0,c
  3094  0006EE  0EFF               	movlw	255
  3095  0006F0  1417               	andwf	(___fldiv@grs+1)^0,w,c
  3096  0006F2  6E0C               	movwf	(??___fldiv+1)^0,c
  3097  0006F4  0EFF               	movlw	255
  3098  0006F6  1418               	andwf	(___fldiv@grs+2)^0,w,c
  3099  0006F8  6E0D               	movwf	(??___fldiv+2)^0,c
  3100  0006FA  0E7F               	movlw	127
  3101  0006FC  1419               	andwf	(___fldiv@grs+3)^0,w,c
  3102  0006FE  6E0E               	movwf	(??___fldiv+3)^0,c
  3103  000700  500B               	movf	??___fldiv^0,w,c
  3104  000702  100C               	iorwf	(??___fldiv+1)^0,w,c
  3105  000704  100D               	iorwf	(??___fldiv+2)^0,w,c
  3106  000706  100E               	iorwf	(??___fldiv+3)^0,w,c
  3107  000708  B4D8               	btfsc	status,2,c
  3108  00070A  EF89  F003         	goto	u2141
  3109  00070E  EF8B  F003         	goto	u2140
  3110  000712                     u2141:
  3111  000712  EF8F  F003         	goto	l1268
  3112  000716                     u2140:
  3113  000716                     l3393:
  3114  000716  0E01               	movlw	1
  3115  000718  6E1B               	movwf	___fldiv@aexp^0,c
  3116  00071A  EF98  F003         	goto	l1267
  3117  00071E                     l1268:
  3118  00071E  A003               	btfss	___fldiv@b^0,0,c
  3119  000720  EF94  F003         	goto	u2151
  3120  000724  EF96  F003         	goto	u2150
  3121  000728                     u2151:
  3122  000728  EF98  F003         	goto	l1267
  3123  00072C                     u2150:
  3124  00072C  EF8B  F003         	goto	l3393
  3125  000730                     l1267:
  3126  000730  501B               	movf	___fldiv@aexp^0,w,c
  3127  000732  B4D8               	btfsc	status,2,c
  3128  000734  EF9E  F003         	goto	u2161
  3129  000738  EFA0  F003         	goto	u2160
  3130  00073C                     u2161:
  3131  00073C  EFC4  F003         	goto	l3405
  3132  000740                     u2160:
  3133  000740  0E01               	movlw	1
  3134  000742  2603               	addwf	___fldiv@b^0,f,c
  3135  000744  0E00               	movlw	0
  3136  000746  2204               	addwfc	(___fldiv@b+1)^0,f,c
  3137  000748  2205               	addwfc	(___fldiv@b+2)^0,f,c
  3138  00074A  2206               	addwfc	(___fldiv@b+3)^0,f,c
  3139  00074C  A006               	btfss	(___fldiv@b+3)^0,0,c
  3140  00074E  EFAB  F003         	goto	u2171
  3141  000752  EFAD  F003         	goto	u2170
  3142  000756                     u2171:
  3143  000756  EFC4  F003         	goto	l3405
  3144  00075A                     u2170:
  3145  00075A  C003  F00B         	movff	___fldiv@b,??___fldiv
  3146  00075E  C004  F00C         	movff	___fldiv@b+1,??___fldiv+1
  3147  000762  C005  F00D         	movff	___fldiv@b+2,??___fldiv+2
  3148  000766  C006  F00E         	movff	___fldiv@b+3,??___fldiv+3
  3149  00076A  340E               	rlcf	(??___fldiv+3)^0,w,c
  3150  00076C  320E               	rrcf	(??___fldiv+3)^0,f,c
  3151  00076E  320D               	rrcf	(??___fldiv+2)^0,f,c
  3152  000770  320C               	rrcf	(??___fldiv+1)^0,f,c
  3153  000772  320B               	rrcf	??___fldiv^0,f,c
  3154  000774  C00B  F003         	movff	??___fldiv,___fldiv@b
  3155  000778  C00C  F004         	movff	??___fldiv+1,___fldiv@b+1
  3156  00077C  C00D  F005         	movff	??___fldiv+2,___fldiv@b+2
  3157  000780  C00E  F006         	movff	??___fldiv+3,___fldiv@b+3
  3158  000784  4A14               	infsnz	___fldiv@new_exp^0,f,c
  3159  000786  2A15               	incf	(___fldiv@new_exp+1)^0,f,c
  3160  000788                     l3405:
  3161  000788  BE15               	btfsc	(___fldiv@new_exp+1)^0,7,c
  3162  00078A  EFCF  F003         	goto	u2181
  3163  00078E  5015               	movf	(___fldiv@new_exp+1)^0,w,c
  3164  000790  E108               	bnz	u2180
  3165  000792  2814               	incf	___fldiv@new_exp^0,w,c
  3166  000794  A0D8               	btfss	status,0,c
  3167  000796  EFCF  F003         	goto	u2181
  3168  00079A  EFD1  F003         	goto	u2180
  3169  00079E                     u2181:
  3170  00079E  EFDC  F003         	goto	l3409
  3171  0007A2                     u2180:
  3172  0007A2  0E00               	movlw	0
  3173  0007A4  6E15               	movwf	(___fldiv@new_exp+1)^0,c
  3174  0007A6  6814               	setf	___fldiv@new_exp^0,c
  3175  0007A8  0E00               	movlw	0
  3176  0007AA  6E03               	movwf	___fldiv@b^0,c
  3177  0007AC  0E00               	movlw	0
  3178  0007AE  6E04               	movwf	(___fldiv@b+1)^0,c
  3179  0007B0  0E00               	movlw	0
  3180  0007B2  6E05               	movwf	(___fldiv@b+2)^0,c
  3181  0007B4  0E00               	movlw	0
  3182  0007B6  6E06               	movwf	(___fldiv@b+3)^0,c
  3183  0007B8                     l3409:
  3184  0007B8  BE15               	btfsc	(___fldiv@new_exp+1)^0,7,c
  3185  0007BA  EFE9  F003         	goto	u2190
  3186  0007BE  5015               	movf	(___fldiv@new_exp+1)^0,w,c
  3187  0007C0  E106               	bnz	u2191
  3188  0007C2  0414               	decf	___fldiv@new_exp^0,w,c
  3189  0007C4  B0D8               	btfsc	status,0,c
  3190  0007C6  EFE7  F003         	goto	u2191
  3191  0007CA  EFE9  F003         	goto	u2190
  3192  0007CE                     u2191:
  3193  0007CE  EFF7  F003         	goto	l3413
  3194  0007D2                     u2190:
  3195  0007D2  0E00               	movlw	0
  3196  0007D4  6E15               	movwf	(___fldiv@new_exp+1)^0,c
  3197  0007D6  0E00               	movlw	0
  3198  0007D8  6E14               	movwf	___fldiv@new_exp^0,c
  3199  0007DA  0E00               	movlw	0
  3200  0007DC  6E03               	movwf	___fldiv@b^0,c
  3201  0007DE  0E00               	movlw	0
  3202  0007E0  6E04               	movwf	(___fldiv@b+1)^0,c
  3203  0007E2  0E00               	movlw	0
  3204  0007E4  6E05               	movwf	(___fldiv@b+2)^0,c
  3205  0007E6  0E00               	movlw	0
  3206  0007E8  6E06               	movwf	(___fldiv@b+3)^0,c
  3207  0007EA  0E00               	movlw	0
  3208  0007EC  6E13               	movwf	___fldiv@sign^0,c
  3209  0007EE                     l3413:
  3210  0007EE  C014  F01A         	movff	___fldiv@new_exp,___fldiv@bexp
  3211  0007F2  A01A               	btfss	___fldiv@bexp^0,0,c
  3212  0007F4  EFFE  F003         	goto	u2201
  3213  0007F8  EF00  F004         	goto	u2200
  3214  0007FC                     u2201:
  3215  0007FC  EF03  F004         	goto	l3419
  3216  000800                     u2200:
  3217  000800  8E05               	bsf	(___fldiv@b+2)^0,7,c
  3218  000802  EF04  F004         	goto	l3421
  3219  000806                     l3419:
  3220  000806  9E05               	bcf	(___fldiv@b+2)^0,7,c
  3221  000808                     l3421:
  3222  000808  90D8               	bcf	status,0,c
  3223  00080A  301A               	rrcf	___fldiv@bexp^0,w,c
  3224  00080C  6E06               	movwf	(___fldiv@b+3)^0,c
  3225  00080E  EFBA  F002         	goto	l3335
  3226  000812                     l1254:
  3227  000812  0012               	return		;funcret
  3228  000814                     __end_of___fldiv:
  3229                           	callstack 0
  3230                           
  3231 ;; *************** function _ADC_GetConversion *****************
  3232 ;; Defined at:
  3233 ;;		line 108 in file "mcc_generated_files/adc.c"
  3234 ;; Parameters:    Size  Location     Type
  3235 ;;  channel         1    wreg     enum E12396
  3236 ;; Auto vars:     Size  Location     Type
  3237 ;;  channel         1    6[COMRAM] enum E12396
  3238 ;; Return value:  Size  Location     Type
  3239 ;;                  2    2[COMRAM] unsigned short 
  3240 ;; Registers used:
  3241 ;;		wreg, status,2, status,0
  3242 ;; Tracked objects:
  3243 ;;		On entry : 0/0
  3244 ;;		On exit  : 0/0
  3245 ;;		Unchanged: 0/0
  3246 ;; Data sizes:     COMRAM   BANK0   BANK1   BANK2   BANK3   BANK4   BANK5   BANK6   BANK7   BANK8   BANK9  BANK10  BANK1
      +1  BANK12  BANK13  BANK14
  3247 ;;      Params:         2       0       0       0       0       0       0       0       0       0       0       0       
      +0       0       0       0
  3248 ;;      Locals:         1       0       0       0       0       0       0       0       0       0       0       0       
      +0       0       0       0
  3249 ;;      Temps:          2       0       0       0       0       0       0       0       0       0       0       0       
      +0       0       0       0
  3250 ;;      Totals:         5       0       0       0       0       0       0       0       0       0       0       0       
      +0       0       0       0
  3251 ;;Total ram usage:        5 bytes
  3252 ;; Hardware stack levels used: 1
  3253 ;; Hardware stack levels required when called: 3
  3254 ;; This function calls:
  3255 ;;		Nothing
  3256 ;; This function is called by:
  3257 ;;		_ADC_Conv_pinSeven
  3258 ;;		_ADC_Conv_pinNine
  3259 ;; This function uses a non-reentrant model
  3260 ;;
  3261                           
  3262                           	psect	text12
  3263  001A8C                     __ptext12:
  3264                           	callstack 0
  3265  001A8C                     _ADC_GetConversion:
  3266                           	callstack 25
  3267                           
  3268                           ;incstack = 0
  3269                           ;ADC_GetConversion@channel stored from wreg
  3270  001A8C  6E07               	movwf	ADC_GetConversion@channel^0,c
  3271  001A8E                     
  3272                           ;mcc_generated_files/adc.c: 108: adc_result_t ADC_GetConversion(adc_channel_t channel);m
      +                          cc_generated_files/adc.c: 109: {;mcc_generated_files/adc.c: 111:     ADCON0bits.CHS = ch
      +                          annel;
  3273  001A8E  C007  F005         	movff	ADC_GetConversion@channel,??_ADC_GetConversion
  3274  001A92  4605               	rlncf	??_ADC_GetConversion^0,f,c
  3275  001A94  4605               	rlncf	??_ADC_GetConversion^0,f,c
  3276  001A96  50C2               	movf	194,w,c	;volatile
  3277  001A98  1805               	xorwf	??_ADC_GetConversion^0,w,c
  3278  001A9A  0B83               	andlw	-125
  3279  001A9C  1805               	xorwf	??_ADC_GetConversion^0,w,c
  3280  001A9E  6EC2               	movwf	194,c	;volatile
  3281  001AA0                     
  3282                           ;mcc_generated_files/adc.c: 114:     ADCON0bits.ADON = 1;
  3283  001AA0  80C2               	bsf	194,0,c	;volatile
  3284  001AA2                     
  3285                           ;mcc_generated_files/adc.c: 118:     ADCON0bits.GO_nDONE = 1;
  3286  001AA2  82C2               	bsf	194,1,c	;volatile
  3287  001AA4                     l527:
  3288                           
  3289                           ;mcc_generated_files/adc.c: 121:     while (ADCON0bits.GO_nDONE)
  3290  001AA4  B2C2               	btfsc	194,1,c	;volatile
  3291  001AA6  EF57  F00D         	goto	u1971
  3292  001AAA  EF59  F00D         	goto	u1970
  3293  001AAE                     u1971:
  3294  001AAE  EF52  F00D         	goto	l527
  3295  001AB2                     u1970:
  3296  001AB2                     
  3297                           ;mcc_generated_files/adc.c: 126:     return ((adc_result_t)((ADRESH << 8) + ADRESL));
  3298  001AB2  50C4               	movf	196,w,c	;volatile
  3299  001AB4  6E06               	movwf	(??_ADC_GetConversion+1)^0,c
  3300  001AB6  6A05               	clrf	??_ADC_GetConversion^0,c
  3301  001AB8  50C3               	movf	195,w,c	;volatile
  3302  001ABA  2405               	addwf	??_ADC_GetConversion^0,w,c
  3303  001ABC  6E03               	movwf	?_ADC_GetConversion^0,c
  3304  001ABE  0E00               	movlw	0
  3305  001AC0  2006               	addwfc	(??_ADC_GetConversion+1)^0,w,c
  3306  001AC2  6E04               	movwf	(?_ADC_GetConversion+1)^0,c
  3307  001AC4  0012               	return		;funcret
  3308  001AC6                     __end_of_ADC_GetConversion:
  3309                           	callstack 0
  3310                           
  3311 ;; *************** function _shutdown_seq *****************
  3312 ;; Defined at:
  3313 ;;		line 164 in file "main.c"
  3314 ;; Parameters:    Size  Location     Type
  3315 ;;		None
  3316 ;; Auto vars:     Size  Location     Type
  3317 ;;		None
  3318 ;; Return value:  Size  Location     Type
  3319 ;;                  1    wreg      void 
  3320 ;; Registers used:
  3321 ;;		wreg, fsr2l, fsr2h, status,2, status,0, cstack
  3322 ;; Tracked objects:
  3323 ;;		On entry : 0/0
  3324 ;;		On exit  : 0/0
  3325 ;;		Unchanged: 0/0
  3326 ;; Data sizes:     COMRAM   BANK0   BANK1   BANK2   BANK3   BANK4   BANK5   BANK6   BANK7   BANK8   BANK9  BANK10  BANK1
      +1  BANK12  BANK13  BANK14
  3327 ;;      Params:         0       0       0       0       0       0       0       0       0       0       0       0       
      +0       0       0       0
  3328 ;;      Locals:         0       0       0       0       0       0       0       0       0       0       0       0       
      +0       0       0       0
  3329 ;;      Temps:          0       0       0       0       0       0       0       0       0       0       0       0       
      +0       0       0       0
  3330 ;;      Totals:         0       0       0       0       0       0       0       0       0       0       0       0       
      +0       0       0       0
  3331 ;;Total ram usage:        0 bytes
  3332 ;; Hardware stack levels used: 1
  3333 ;; Hardware stack levels required when called: 6
  3334 ;; This function calls:
  3335 ;;		_canbus_shutdown_success
  3336 ;; This function is called by:
  3337 ;;		_main
  3338 ;; This function uses a non-reentrant model
  3339 ;;
  3340                           
  3341                           	psect	text13
  3342  001C9E                     __ptext13:
  3343                           	callstack 0
  3344  001C9E                     _shutdown_seq:
  3345                           	callstack 24
  3346  001C9E                     
  3347                           ;main.c: 165:     canbus_shutdown_success(1);
  3348  001C9E  0E00               	movlw	0
  3349  001CA0  6E1C               	movwf	(canbus_shutdown_success@number+1)^0,c
  3350  001CA2  0E01               	movlw	1
  3351  001CA4  6E1B               	movwf	canbus_shutdown_success@number^0,c
  3352  001CA6  ECC0  F00D         	call	_canbus_shutdown_success	;wreg free
  3353  001CAA  0012               	return		;funcret
  3354  001CAC                     __end_of_shutdown_seq:
  3355                           	callstack 0
  3356                           
  3357 ;; *************** function _canbus_shutdown_success *****************
  3358 ;; Defined at:
  3359 ;;		line 98 in file "main.c"
  3360 ;; Parameters:    Size  Location     Type
  3361 ;;  number          2   26[COMRAM] int 
  3362 ;; Auto vars:     Size  Location     Type
  3363 ;;		None
  3364 ;; Return value:  Size  Location     Type
  3365 ;;                  1    wreg      void 
  3366 ;; Registers used:
  3367 ;;		wreg, fsr2l, fsr2h, status,2, status,0, cstack
  3368 ;; Tracked objects:
  3369 ;;		On entry : 0/0
  3370 ;;		On exit  : 0/0
  3371 ;;		Unchanged: 0/0
  3372 ;; Data sizes:     COMRAM   BANK0   BANK1   BANK2   BANK3   BANK4   BANK5   BANK6   BANK7   BANK8   BANK9  BANK10  BANK1
      +1  BANK12  BANK13  BANK14
  3373 ;;      Params:         2       0       0       0       0       0       0       0       0       0       0       0       
      +0       0       0       0
  3374 ;;      Locals:         0       0       0       0       0       0       0       0       0       0       0       0       
      +0       0       0       0
  3375 ;;      Temps:          0       0       0       0       0       0       0       0       0       0       0       0       
      +0       0       0       0
  3376 ;;      Totals:         2       0       0       0       0       0       0       0       0       0       0       0       
      +0       0       0       0
  3377 ;;Total ram usage:        2 bytes
  3378 ;; Hardware stack levels used: 1
  3379 ;; Hardware stack levels required when called: 5
  3380 ;; This function calls:
  3381 ;;		_CAN_transmit
  3382 ;; This function is called by:
  3383 ;;		_shutdown_seq
  3384 ;; This function uses a non-reentrant model
  3385 ;;
  3386                           
  3387                           	psect	text14
  3388  001B80                     __ptext14:
  3389                           	callstack 0
  3390  001B80                     _canbus_shutdown_success:
  3391                           	callstack 24
  3392  001B80                     
  3393                           ;main.c: 99:     tx7.frame.idType = 1;
  3394  001B80  0E01               	movlw	1
  3395  001B82  0100               	movlb	0	; () banked
  3396  001B84  6FA6               	movwf	_tx7& (0+255),b
  3397                           
  3398                           ;main.c: 100:     tx7.frame.id = 0x18;
  3399  001B86  0E18               	movlw	24
  3400  001B88  6FA7               	movwf	(_tx7+1)& (0+255),b
  3401  001B8A  0E00               	movlw	0
  3402  001B8C  6FA8               	movwf	(_tx7+2)& (0+255),b
  3403  001B8E  0E00               	movlw	0
  3404  001B90  6FA9               	movwf	(_tx7+3)& (0+255),b
  3405  001B92  0E00               	movlw	0
  3406  001B94  6FAA               	movwf	(_tx7+4)& (0+255),b
  3407                           
  3408                           ;main.c: 101:     tx7.frame.dlc = 0x01;
  3409  001B96  0E01               	movlw	1
  3410  001B98  6FAB               	movwf	(_tx7+5)& (0+255),b
  3411  001B9A                     
  3412                           ; BSR set to: 0
  3413                           ;main.c: 102:     tx7.frame.data0 = number;
  3414  001B9A  C01B  F0AC         	movff	canbus_shutdown_success@number,_tx7+6
  3415  001B9E                     
  3416                           ; BSR set to: 0
  3417                           ;main.c: 103:     CAN_transmit(&tx7);
  3418  001B9E  0EA6               	movlw	low _tx7
  3419  001BA0  6E15               	movwf	CAN_transmit@tempCanMsg^0,c
  3420  001BA2  0E00               	movlw	high _tx7
  3421  001BA4  6E16               	movwf	(CAN_transmit@tempCanMsg+1)^0,c
  3422  001BA6  EC0A  F004         	call	_CAN_transmit	;wreg free
  3423  001BAA  0012               	return		;funcret
  3424  001BAC                     __end_of_canbus_shutdown_success:
  3425                           	callstack 0
  3426                           
  3427 ;; *************** function _e_stop_seq *****************
  3428 ;; Defined at:
  3429 ;;		line 168 in file "main.c"
  3430 ;; Parameters:    Size  Location     Type
  3431 ;;		None
  3432 ;; Auto vars:     Size  Location     Type
  3433 ;;		None
  3434 ;; Return value:  Size  Location     Type
  3435 ;;                  1    wreg      void 
  3436 ;; Registers used:
  3437 ;;		wreg, fsr2l, fsr2h, status,2, status,0, cstack
  3438 ;; Tracked objects:
  3439 ;;		On entry : 0/0
  3440 ;;		On exit  : 0/0
  3441 ;;		Unchanged: 0/0
  3442 ;; Data sizes:     COMRAM   BANK0   BANK1   BANK2   BANK3   BANK4   BANK5   BANK6   BANK7   BANK8   BANK9  BANK10  BANK1
      +1  BANK12  BANK13  BANK14
  3443 ;;      Params:         0       0       0       0       0       0       0       0       0       0       0       0       
      +0       0       0       0
  3444 ;;      Locals:         0       0       0       0       0       0       0       0       0       0       0       0       
      +0       0       0       0
  3445 ;;      Temps:          0       0       0       0       0       0       0       0       0       0       0       0       
      +0       0       0       0
  3446 ;;      Totals:         0       0       0       0       0       0       0       0       0       0       0       0       
      +0       0       0       0
  3447 ;;Total ram usage:        0 bytes
  3448 ;; Hardware stack levels used: 1
  3449 ;; Hardware stack levels required when called: 6
  3450 ;; This function calls:
  3451 ;;		_canbus_msg_bps
  3452 ;; This function is called by:
  3453 ;;		_main
  3454 ;; This function uses a non-reentrant model
  3455 ;;
  3456                           
  3457                           	psect	text15
  3458  001C7A                     __ptext15:
  3459                           	callstack 0
  3460  001C7A                     _e_stop_seq:
  3461                           	callstack 24
  3462  001C7A                     
  3463                           ;main.c: 169:     canbus_msg_bps(1);
  3464  001C7A  0E00               	movlw	0
  3465  001C7C  6E1C               	movwf	(canbus_msg_bps@number+1)^0,c
  3466  001C7E  0E01               	movlw	1
  3467  001C80  6E1B               	movwf	canbus_msg_bps@number^0,c
  3468  001C82  ECD6  F00D         	call	_canbus_msg_bps	;wreg free
  3469  001C86  9689               	bcf	137,3,c	;volatile
  3470  001C88  9489               	bcf	137,2,c	;volatile
  3471  001C8A  0012               	return		;funcret
  3472  001C8C                     __end_of_e_stop_seq:
  3473                           	callstack 0
  3474                           
  3475 ;; *************** function _canbus_msg_bps *****************
  3476 ;; Defined at:
  3477 ;;		line 71 in file "main.c"
  3478 ;; Parameters:    Size  Location     Type
  3479 ;;  number          2   26[COMRAM] int 
  3480 ;; Auto vars:     Size  Location     Type
  3481 ;;		None
  3482 ;; Return value:  Size  Location     Type
  3483 ;;                  1    wreg      void 
  3484 ;; Registers used:
  3485 ;;		wreg, fsr2l, fsr2h, status,2, status,0, cstack
  3486 ;; Tracked objects:
  3487 ;;		On entry : 0/0
  3488 ;;		On exit  : 0/0
  3489 ;;		Unchanged: 0/0
  3490 ;; Data sizes:     COMRAM   BANK0   BANK1   BANK2   BANK3   BANK4   BANK5   BANK6   BANK7   BANK8   BANK9  BANK10  BANK1
      +1  BANK12  BANK13  BANK14
  3491 ;;      Params:         2       0       0       0       0       0       0       0       0       0       0       0       
      +0       0       0       0
  3492 ;;      Locals:         0       0       0       0       0       0       0       0       0       0       0       0       
      +0       0       0       0
  3493 ;;      Temps:          0       0       0       0       0       0       0       0       0       0       0       0       
      +0       0       0       0
  3494 ;;      Totals:         2       0       0       0       0       0       0       0       0       0       0       0       
      +0       0       0       0
  3495 ;;Total ram usage:        2 bytes
  3496 ;; Hardware stack levels used: 1
  3497 ;; Hardware stack levels required when called: 5
  3498 ;; This function calls:
  3499 ;;		_CAN_transmit
  3500 ;; This function is called by:
  3501 ;;		_e_stop_seq
  3502 ;; This function uses a non-reentrant model
  3503 ;;
  3504                           
  3505                           	psect	text16
  3506  001BAC                     __ptext16:
  3507                           	callstack 0
  3508  001BAC                     _canbus_msg_bps:
  3509                           	callstack 24
  3510  001BAC                     
  3511                           ;main.c: 72:     tx4.frame.idType = 1;
  3512  001BAC  0E01               	movlw	1
  3513  001BAE  0100               	movlb	0	; () banked
  3514  001BB0  6FD0               	movwf	_tx4& (0+255),b
  3515                           
  3516                           ;main.c: 73:     tx4.frame.id = 0x4;
  3517  001BB2  0E04               	movlw	4
  3518  001BB4  6FD1               	movwf	(_tx4+1)& (0+255),b
  3519  001BB6  0E00               	movlw	0
  3520  001BB8  6FD2               	movwf	(_tx4+2)& (0+255),b
  3521  001BBA  0E00               	movlw	0
  3522  001BBC  6FD3               	movwf	(_tx4+3)& (0+255),b
  3523  001BBE  0E00               	movlw	0
  3524  001BC0  6FD4               	movwf	(_tx4+4)& (0+255),b
  3525                           
  3526                           ;main.c: 74:     tx4.frame.dlc = 0x01;
  3527  001BC2  0E01               	movlw	1
  3528  001BC4  6FD5               	movwf	(_tx4+5)& (0+255),b
  3529  001BC6                     
  3530                           ; BSR set to: 0
  3531                           ;main.c: 75:     tx4.frame.data0 = number;
  3532  001BC6  C01B  F0D6         	movff	canbus_msg_bps@number,_tx4+6
  3533  001BCA                     
  3534                           ; BSR set to: 0
  3535                           ;main.c: 76:     CAN_transmit(&tx4);
  3536  001BCA  0ED0               	movlw	low _tx4
  3537  001BCC  6E15               	movwf	CAN_transmit@tempCanMsg^0,c
  3538  001BCE  0E00               	movlw	high _tx4
  3539  001BD0  6E16               	movwf	(CAN_transmit@tempCanMsg+1)^0,c
  3540  001BD2  EC0A  F004         	call	_CAN_transmit	;wreg free
  3541  001BD6  0012               	return		;funcret
  3542  001BD8                     __end_of_canbus_msg_bps:
  3543                           	callstack 0
  3544                           
  3545 ;; *************** function _canbus_msg_ok *****************
  3546 ;; Defined at:
  3547 ;;		line 114 in file "main.c"
  3548 ;; Parameters:    Size  Location     Type
  3549 ;;  number          2   26[COMRAM] int 
  3550 ;; Auto vars:     Size  Location     Type
  3551 ;;		None
  3552 ;; Return value:  Size  Location     Type
  3553 ;;                  1    wreg      void 
  3554 ;; Registers used:
  3555 ;;		wreg, fsr2l, fsr2h, status,2, status,0, cstack
  3556 ;; Tracked objects:
  3557 ;;		On entry : 0/0
  3558 ;;		On exit  : 0/0
  3559 ;;		Unchanged: 0/0
  3560 ;; Data sizes:     COMRAM   BANK0   BANK1   BANK2   BANK3   BANK4   BANK5   BANK6   BANK7   BANK8   BANK9  BANK10  BANK1
      +1  BANK12  BANK13  BANK14
  3561 ;;      Params:         2       0       0       0       0       0       0       0       0       0       0       0       
      +0       0       0       0
  3562 ;;      Locals:         0       0       0       0       0       0       0       0       0       0       0       0       
      +0       0       0       0
  3563 ;;      Temps:          0       0       0       0       0       0       0       0       0       0       0       0       
      +0       0       0       0
  3564 ;;      Totals:         2       0       0       0       0       0       0       0       0       0       0       0       
      +0       0       0       0
  3565 ;;Total ram usage:        2 bytes
  3566 ;; Hardware stack levels used: 1
  3567 ;; Hardware stack levels required when called: 5
  3568 ;; This function calls:
  3569 ;;		_CAN_transmit
  3570 ;; This function is called by:
  3571 ;;		_main
  3572 ;; This function uses a non-reentrant model
  3573 ;;
  3574                           
  3575                           	psect	text17
  3576  001BD8                     __ptext17:
  3577                           	callstack 0
  3578  001BD8                     _canbus_msg_ok:
  3579                           	callstack 25
  3580  001BD8                     
  3581                           ;main.c: 115:     tx10.frame.idType = 1;
  3582  001BD8  0E01               	movlw	1
  3583  001BDA  0100               	movlb	0	; () banked
  3584  001BDC  6F7C               	movwf	_tx10& (0+255),b
  3585                           
  3586                           ;main.c: 116:     tx10.frame.id = 0x111;
  3587  001BDE  0E11               	movlw	17
  3588  001BE0  6F7D               	movwf	(_tx10+1)& (0+255),b
  3589  001BE2  0E01               	movlw	1
  3590  001BE4  6F7E               	movwf	(_tx10+2)& (0+255),b
  3591  001BE6  0E00               	movlw	0
  3592  001BE8  6F7F               	movwf	(_tx10+3)& (0+255),b
  3593  001BEA  0E00               	movlw	0
  3594  001BEC  6F80               	movwf	(_tx10+4)& (0+255),b
  3595                           
  3596                           ;main.c: 117:     tx10.frame.dlc = 0x01;
  3597  001BEE  0E01               	movlw	1
  3598  001BF0  6F81               	movwf	(_tx10+5)& (0+255),b
  3599  001BF2                     
  3600                           ; BSR set to: 0
  3601                           ;main.c: 118:     tx10.frame.data0 = number;
  3602  001BF2  C01B  F082         	movff	canbus_msg_ok@number,_tx10+6
  3603  001BF6                     
  3604                           ; BSR set to: 0
  3605                           ;main.c: 119:     CAN_transmit(&tx10);
  3606  001BF6  0E7C               	movlw	low _tx10
  3607  001BF8  6E15               	movwf	CAN_transmit@tempCanMsg^0,c
  3608  001BFA  0E00               	movlw	high _tx10
  3609  001BFC  6E16               	movwf	(CAN_transmit@tempCanMsg+1)^0,c
  3610  001BFE  EC0A  F004         	call	_CAN_transmit	;wreg free
  3611  001C02  0012               	return		;funcret
  3612  001C04                     __end_of_canbus_msg_ok:
  3613                           	callstack 0
  3614                           
  3615 ;; *************** function _aux_battery_LV *****************
  3616 ;; Defined at:
  3617 ;;		line 174 in file "main.c"
  3618 ;; Parameters:    Size  Location     Type
  3619 ;;		None
  3620 ;; Auto vars:     Size  Location     Type
  3621 ;;		None
  3622 ;; Return value:  Size  Location     Type
  3623 ;;                  1    wreg      void 
  3624 ;; Registers used:
  3625 ;;		wreg, fsr2l, fsr2h, status,2, status,0, cstack
  3626 ;; Tracked objects:
  3627 ;;		On entry : 0/0
  3628 ;;		On exit  : 0/0
  3629 ;;		Unchanged: 0/0
  3630 ;; Data sizes:     COMRAM   BANK0   BANK1   BANK2   BANK3   BANK4   BANK5   BANK6   BANK7   BANK8   BANK9  BANK10  BANK1
      +1  BANK12  BANK13  BANK14
  3631 ;;      Params:         0       0       0       0       0       0       0       0       0       0       0       0       
      +0       0       0       0
  3632 ;;      Locals:         0       0       0       0       0       0       0       0       0       0       0       0       
      +0       0       0       0
  3633 ;;      Temps:          0       0       0       0       0       0       0       0       0       0       0       0       
      +0       0       0       0
  3634 ;;      Totals:         0       0       0       0       0       0       0       0       0       0       0       0       
      +0       0       0       0
  3635 ;;Total ram usage:        0 bytes
  3636 ;; Hardware stack levels used: 1
  3637 ;; Hardware stack levels required when called: 6
  3638 ;; This function calls:
  3639 ;;		_canbus_msg_auxlow
  3640 ;; This function is called by:
  3641 ;;		_main
  3642 ;; This function uses a non-reentrant model
  3643 ;;
  3644                           
  3645                           	psect	text18
  3646  001CAC                     __ptext18:
  3647                           	callstack 0
  3648  001CAC                     _aux_battery_LV:
  3649                           	callstack 24
  3650  001CAC                     
  3651                           ;main.c: 175:     canbus_msg_auxlow(1);
  3652  001CAC  0E00               	movlw	0
  3653  001CAE  6E1C               	movwf	(canbus_msg_auxlow@number+1)^0,c
  3654  001CB0  0E01               	movlw	1
  3655  001CB2  6E1B               	movwf	canbus_msg_auxlow@number^0,c
  3656  001CB4  EC02  F00E         	call	_canbus_msg_auxlow	;wreg free
  3657  001CB8  0012               	return		;funcret
  3658  001CBA                     __end_of_aux_battery_LV:
  3659                           	callstack 0
  3660                           
  3661 ;; *************** function _canbus_msg_auxlow *****************
  3662 ;; Defined at:
  3663 ;;		line 89 in file "main.c"
  3664 ;; Parameters:    Size  Location     Type
  3665 ;;  number          2   26[COMRAM] int 
  3666 ;; Auto vars:     Size  Location     Type
  3667 ;;		None
  3668 ;; Return value:  Size  Location     Type
  3669 ;;                  1    wreg      void 
  3670 ;; Registers used:
  3671 ;;		wreg, fsr2l, fsr2h, status,2, status,0, cstack
  3672 ;; Tracked objects:
  3673 ;;		On entry : 0/0
  3674 ;;		On exit  : 0/0
  3675 ;;		Unchanged: 0/0
  3676 ;; Data sizes:     COMRAM   BANK0   BANK1   BANK2   BANK3   BANK4   BANK5   BANK6   BANK7   BANK8   BANK9  BANK10  BANK1
      +1  BANK12  BANK13  BANK14
  3677 ;;      Params:         2       0       0       0       0       0       0       0       0       0       0       0       
      +0       0       0       0
  3678 ;;      Locals:         0       0       0       0       0       0       0       0       0       0       0       0       
      +0       0       0       0
  3679 ;;      Temps:          0       0       0       0       0       0       0       0       0       0       0       0       
      +0       0       0       0
  3680 ;;      Totals:         2       0       0       0       0       0       0       0       0       0       0       0       
      +0       0       0       0
  3681 ;;Total ram usage:        2 bytes
  3682 ;; Hardware stack levels used: 1
  3683 ;; Hardware stack levels required when called: 5
  3684 ;; This function calls:
  3685 ;;		_CAN_transmit
  3686 ;; This function is called by:
  3687 ;;		_start_up_seq
  3688 ;;		_aux_battery_LV
  3689 ;; This function uses a non-reentrant model
  3690 ;;
  3691                           
  3692                           	psect	text19
  3693  001C04                     __ptext19:
  3694                           	callstack 0
  3695  001C04                     _canbus_msg_auxlow:
  3696                           	callstack 24
  3697  001C04                     
  3698                           ;main.c: 90:     tx6.frame.idType = 1;
  3699  001C04  0E01               	movlw	1
  3700  001C06  0100               	movlb	0	; () banked
  3701  001C08  6FB4               	movwf	_tx6& (0+255),b
  3702                           
  3703                           ;main.c: 91:     tx6.frame.id = 0x5;
  3704  001C0A  0E05               	movlw	5
  3705  001C0C  6FB5               	movwf	(_tx6+1)& (0+255),b
  3706  001C0E  0E00               	movlw	0
  3707  001C10  6FB6               	movwf	(_tx6+2)& (0+255),b
  3708  001C12  0E00               	movlw	0
  3709  001C14  6FB7               	movwf	(_tx6+3)& (0+255),b
  3710  001C16  0E00               	movlw	0
  3711  001C18  6FB8               	movwf	(_tx6+4)& (0+255),b
  3712                           
  3713                           ;main.c: 92:     tx6.frame.dlc = 0x01;
  3714  001C1A  0E01               	movlw	1
  3715  001C1C  6FB9               	movwf	(_tx6+5)& (0+255),b
  3716  001C1E                     
  3717                           ; BSR set to: 0
  3718                           ;main.c: 93:     tx6.frame.data0 = number;
  3719  001C1E  C01B  F0BA         	movff	canbus_msg_auxlow@number,_tx6+6
  3720  001C22                     
  3721                           ; BSR set to: 0
  3722                           ;main.c: 94:     CAN_transmit(&tx6);
  3723  001C22  0EB4               	movlw	low _tx6
  3724  001C24  6E15               	movwf	CAN_transmit@tempCanMsg^0,c
  3725  001C26  0E00               	movlw	high _tx6
  3726  001C28  6E16               	movwf	(CAN_transmit@tempCanMsg+1)^0,c
  3727  001C2A  EC0A  F004         	call	_CAN_transmit	;wreg free
  3728  001C2E  0012               	return		;funcret
  3729  001C30                     __end_of_canbus_msg_auxlow:
  3730                           	callstack 0
  3731                           
  3732 ;; *************** function _CAN_transmit *****************
  3733 ;; Defined at:
  3734 ;;		line 244 in file "mcc_generated_files/ecan.c"
  3735 ;; Parameters:    Size  Location     Type
  3736 ;;  tempCanMsg      2   20[COMRAM] PTR struct .
  3737 ;;		 -> tx8(14), tx10(14), tx9(14), tx7(14), 
  3738 ;;		 -> tx6(14), tx5(14), tx4(14), tx3(14), 
  3739 ;;		 -> tx21(14), 
  3740 ;; Auto vars:     Size  Location     Type
  3741 ;;  tempSIDL        1   25[COMRAM] unsigned char 
  3742 ;;  tempSIDH        1   24[COMRAM] unsigned char 
  3743 ;;  tempEIDL        1   23[COMRAM] unsigned char 
  3744 ;;  tempEIDH        1   22[COMRAM] unsigned char 
  3745 ;;  returnValue     1    0        unsigned char 
  3746 ;; Return value:  Size  Location     Type
  3747 ;;                  1    wreg      unsigned char 
  3748 ;; Registers used:
  3749 ;;		wreg, fsr2l, fsr2h, status,2, status,0, cstack
  3750 ;; Tracked objects:
  3751 ;;		On entry : 0/0
  3752 ;;		On exit  : 0/0
  3753 ;;		Unchanged: 0/0
  3754 ;; Data sizes:     COMRAM   BANK0   BANK1   BANK2   BANK3   BANK4   BANK5   BANK6   BANK7   BANK8   BANK9  BANK10  BANK1
      +1  BANK12  BANK13  BANK14
  3755 ;;      Params:         2       0       0       0       0       0       0       0       0       0       0       0       
      +0       0       0       0
  3756 ;;      Locals:         4       0       0       0       0       0       0       0       0       0       0       0       
      +0       0       0       0
  3757 ;;      Temps:          0       0       0       0       0       0       0       0       0       0       0       0       
      +0       0       0       0
  3758 ;;      Totals:         6       0       0       0       0       0       0       0       0       0       0       0       
      +0       0       0       0
  3759 ;;Total ram usage:        6 bytes
  3760 ;; Hardware stack levels used: 1
  3761 ;; Hardware stack levels required when called: 4
  3762 ;; This function calls:
  3763 ;;		_convertCANid2Reg
  3764 ;; This function is called by:
  3765 ;;		_ADC_Conv_pinSeven
  3766 ;;		_ADC_Conv_pinNine
  3767 ;;		_canbus_msg_startupfail
  3768 ;;		_canbus_msg_bps
  3769 ;;		_canbus_msg_auxlow
  3770 ;;		_canbus_shutdown_success
  3771 ;;		_canbus_msg_startup_success
  3772 ;;		_canbus_msg_ok
  3773 ;;		_canbus_latch_shutdown
  3774 ;;		_canbus_msg_auxfail
  3775 ;; This function uses a non-reentrant model
  3776 ;;
  3777                           
  3778                           	psect	text20
  3779  000814                     __ptext20:
  3780                           	callstack 0
  3781  000814                     _CAN_transmit:
  3782                           	callstack 24
  3783  000814                     
  3784                           ;mcc_generated_files/ecan.c: 244: uint8_t CAN_transmit(uCAN_MSG *tempCanMsg);mcc_generat
      +                          ed_files/ecan.c: 245: {;mcc_generated_files/ecan.c: 246:     uint8_t tempEIDH = 0;
  3785  000814  0E00               	movlw	0
  3786  000816  6E17               	movwf	CAN_transmit@tempEIDH^0,c
  3787                           
  3788                           ;mcc_generated_files/ecan.c: 247:     uint8_t tempEIDL = 0;
  3789  000818  0E00               	movlw	0
  3790  00081A  6E18               	movwf	CAN_transmit@tempEIDL^0,c
  3791                           
  3792                           ;mcc_generated_files/ecan.c: 248:     uint8_t tempSIDH = 0;
  3793  00081C  0E00               	movlw	0
  3794  00081E  6E19               	movwf	CAN_transmit@tempSIDH^0,c
  3795                           
  3796                           ;mcc_generated_files/ecan.c: 249:     uint8_t tempSIDL = 0;
  3797  000820  0E00               	movlw	0
  3798  000822  6E1A               	movwf	CAN_transmit@tempSIDL^0,c
  3799  000824                     
  3800                           ;mcc_generated_files/ecan.c: 252:     if (TXB0CONbits.TXREQ != 1)
  3801  000824  010F               	movlb	15	; () banked
  3802  000826  B720               	btfsc	32,3,b	;volatile
  3803  000828  EF18  F004         	goto	u1941
  3804  00082C  EF1A  F004         	goto	u1940
  3805  000830                     u1941:
  3806  000830  EF94  F004         	goto	l425
  3807  000834                     u1940:
  3808  000834                     
  3809                           ; BSR set to: 15
  3810                           ;mcc_generated_files/ecan.c: 253:     {;mcc_generated_files/ecan.c: 254:         convert
      +                          CANid2Reg(tempCanMsg->frame.id, tempCanMsg->frame.idType, &tempEIDH, &tempEIDL, &tempSID
      +                          H, &tempSIDL);
  3811  000834  EE20 F001          	lfsr	2,1
  3812  000838  5015               	movf	CAN_transmit@tempCanMsg^0,w,c
  3813  00083A  26D9               	addwf	fsr2l,f,c
  3814  00083C  5016               	movf	(CAN_transmit@tempCanMsg+1)^0,w,c
  3815  00083E  22DA               	addwfc	fsr2h,f,c
  3816  000840  CFDE F003          	movff	postinc2,convertCANid2Reg@tempPassedInID
  3817  000844  CFDE F004          	movff	postinc2,convertCANid2Reg@tempPassedInID+1
  3818  000848  CFDE F005          	movff	postinc2,convertCANid2Reg@tempPassedInID+2
  3819  00084C  CFDE F006          	movff	postinc2,convertCANid2Reg@tempPassedInID+3
  3820  000850  C015  FFD9         	movff	CAN_transmit@tempCanMsg,fsr2l
  3821  000854  C016  FFDA         	movff	CAN_transmit@tempCanMsg+1,fsr2h
  3822  000858  50DF               	movf	indf2,w,c
  3823  00085A  6E07               	movwf	convertCANid2Reg@canIdType^0,c
  3824  00085C  0E17               	movlw	low CAN_transmit@tempEIDH
  3825  00085E  6E08               	movwf	convertCANid2Reg@passedInEIDH^0,c
  3826  000860  0E00               	movlw	high CAN_transmit@tempEIDH
  3827  000862  6E09               	movwf	(convertCANid2Reg@passedInEIDH+1)^0,c
  3828  000864  0E18               	movlw	low CAN_transmit@tempEIDL
  3829  000866  6E0A               	movwf	convertCANid2Reg@passedInEIDL^0,c
  3830  000868  0E00               	movlw	high CAN_transmit@tempEIDL
  3831  00086A  6E0B               	movwf	(convertCANid2Reg@passedInEIDL+1)^0,c
  3832  00086C  0E19               	movlw	low CAN_transmit@tempSIDH
  3833  00086E  6E0C               	movwf	convertCANid2Reg@passedInSIDH^0,c
  3834  000870  0E00               	movlw	high CAN_transmit@tempSIDH
  3835  000872  6E0D               	movwf	(convertCANid2Reg@passedInSIDH+1)^0,c
  3836  000874  0E1A               	movlw	low CAN_transmit@tempSIDL
  3837  000876  6E0E               	movwf	convertCANid2Reg@passedInSIDL^0,c
  3838  000878  0E00               	movlw	high CAN_transmit@tempSIDL
  3839  00087A  6E0F               	movwf	(convertCANid2Reg@passedInSIDL+1)^0,c
  3840  00087C  EC6E  F008         	call	_convertCANid2Reg	;wreg free
  3841  000880                     
  3842                           ;mcc_generated_files/ecan.c: 256:         TXB0EIDH = tempEIDH;
  3843  000880  C017  FF23         	movff	CAN_transmit@tempEIDH,3875	;volatile
  3844  000884                     
  3845                           ;mcc_generated_files/ecan.c: 257:         TXB0EIDL = tempEIDL;
  3846  000884  C018  FF24         	movff	CAN_transmit@tempEIDL,3876	;volatile
  3847  000888                     
  3848                           ;mcc_generated_files/ecan.c: 258:         TXB0SIDH = tempSIDH;
  3849  000888  C019  FF21         	movff	CAN_transmit@tempSIDH,3873	;volatile
  3850  00088C                     
  3851                           ;mcc_generated_files/ecan.c: 259:         TXB0SIDL = tempSIDL;
  3852  00088C  C01A  FF22         	movff	CAN_transmit@tempSIDL,3874	;volatile
  3853  000890                     
  3854                           ;mcc_generated_files/ecan.c: 260:         TXB0DLC = tempCanMsg->frame.dlc;
  3855  000890  EE20 F005          	lfsr	2,5
  3856  000894  5015               	movf	CAN_transmit@tempCanMsg^0,w,c
  3857  000896  26D9               	addwf	fsr2l,f,c
  3858  000898  5016               	movf	(CAN_transmit@tempCanMsg+1)^0,w,c
  3859  00089A  22DA               	addwfc	fsr2h,f,c
  3860  00089C  50DF               	movf	indf2,w,c
  3861  00089E  010F               	movlb	15	; () banked
  3862  0008A0  6F25               	movwf	37,b	;volatile
  3863  0008A2                     
  3864                           ; BSR set to: 15
  3865                           ;mcc_generated_files/ecan.c: 261:         TXB0D0 = tempCanMsg->frame.data0;
  3866  0008A2  EE20 F006          	lfsr	2,6
  3867  0008A6  5015               	movf	CAN_transmit@tempCanMsg^0,w,c
  3868  0008A8  26D9               	addwf	fsr2l,f,c
  3869  0008AA  5016               	movf	(CAN_transmit@tempCanMsg+1)^0,w,c
  3870  0008AC  22DA               	addwfc	fsr2h,f,c
  3871  0008AE  50DF               	movf	indf2,w,c
  3872  0008B0  6F26               	movwf	38,b	;volatile
  3873  0008B2                     
  3874                           ; BSR set to: 15
  3875                           ;mcc_generated_files/ecan.c: 262:         TXB0D1 = tempCanMsg->frame.data1;
  3876  0008B2  EE20 F007          	lfsr	2,7
  3877  0008B6  5015               	movf	CAN_transmit@tempCanMsg^0,w,c
  3878  0008B8  26D9               	addwf	fsr2l,f,c
  3879  0008BA  5016               	movf	(CAN_transmit@tempCanMsg+1)^0,w,c
  3880  0008BC  22DA               	addwfc	fsr2h,f,c
  3881  0008BE  50DF               	movf	indf2,w,c
  3882  0008C0  6F27               	movwf	39,b	;volatile
  3883  0008C2                     
  3884                           ; BSR set to: 15
  3885                           ;mcc_generated_files/ecan.c: 263:         TXB0D2 = tempCanMsg->frame.data2;
  3886  0008C2  EE20 F008          	lfsr	2,8
  3887  0008C6  5015               	movf	CAN_transmit@tempCanMsg^0,w,c
  3888  0008C8  26D9               	addwf	fsr2l,f,c
  3889  0008CA  5016               	movf	(CAN_transmit@tempCanMsg+1)^0,w,c
  3890  0008CC  22DA               	addwfc	fsr2h,f,c
  3891  0008CE  50DF               	movf	indf2,w,c
  3892  0008D0  6F28               	movwf	40,b	;volatile
  3893  0008D2                     
  3894                           ; BSR set to: 15
  3895                           ;mcc_generated_files/ecan.c: 264:         TXB0D3 = tempCanMsg->frame.data3;
  3896  0008D2  EE20 F009          	lfsr	2,9
  3897  0008D6  5015               	movf	CAN_transmit@tempCanMsg^0,w,c
  3898  0008D8  26D9               	addwf	fsr2l,f,c
  3899  0008DA  5016               	movf	(CAN_transmit@tempCanMsg+1)^0,w,c
  3900  0008DC  22DA               	addwfc	fsr2h,f,c
  3901  0008DE  50DF               	movf	indf2,w,c
  3902  0008E0  6F29               	movwf	41,b	;volatile
  3903  0008E2                     
  3904                           ; BSR set to: 15
  3905                           ;mcc_generated_files/ecan.c: 265:         TXB0D4 = tempCanMsg->frame.data4;
  3906  0008E2  EE20 F00A          	lfsr	2,10
  3907  0008E6  5015               	movf	CAN_transmit@tempCanMsg^0,w,c
  3908  0008E8  26D9               	addwf	fsr2l,f,c
  3909  0008EA  5016               	movf	(CAN_transmit@tempCanMsg+1)^0,w,c
  3910  0008EC  22DA               	addwfc	fsr2h,f,c
  3911  0008EE  50DF               	movf	indf2,w,c
  3912  0008F0  6F2A               	movwf	42,b	;volatile
  3913  0008F2                     
  3914                           ; BSR set to: 15
  3915                           ;mcc_generated_files/ecan.c: 266:         TXB0D5 = tempCanMsg->frame.data5;
  3916  0008F2  EE20 F00B          	lfsr	2,11
  3917  0008F6  5015               	movf	CAN_transmit@tempCanMsg^0,w,c
  3918  0008F8  26D9               	addwf	fsr2l,f,c
  3919  0008FA  5016               	movf	(CAN_transmit@tempCanMsg+1)^0,w,c
  3920  0008FC  22DA               	addwfc	fsr2h,f,c
  3921  0008FE  50DF               	movf	indf2,w,c
  3922  000900  6F2B               	movwf	43,b	;volatile
  3923  000902                     
  3924                           ; BSR set to: 15
  3925                           ;mcc_generated_files/ecan.c: 267:         TXB0D6 = tempCanMsg->frame.data6;
  3926  000902  EE20 F00C          	lfsr	2,12
  3927  000906  5015               	movf	CAN_transmit@tempCanMsg^0,w,c
  3928  000908  26D9               	addwf	fsr2l,f,c
  3929  00090A  5016               	movf	(CAN_transmit@tempCanMsg+1)^0,w,c
  3930  00090C  22DA               	addwfc	fsr2h,f,c
  3931  00090E  50DF               	movf	indf2,w,c
  3932  000910  6F2C               	movwf	44,b	;volatile
  3933  000912                     
  3934                           ; BSR set to: 15
  3935                           ;mcc_generated_files/ecan.c: 268:         TXB0D7 = tempCanMsg->frame.data7;
  3936  000912  EE20 F00D          	lfsr	2,13
  3937  000916  5015               	movf	CAN_transmit@tempCanMsg^0,w,c
  3938  000918  26D9               	addwf	fsr2l,f,c
  3939  00091A  5016               	movf	(CAN_transmit@tempCanMsg+1)^0,w,c
  3940  00091C  22DA               	addwfc	fsr2h,f,c
  3941  00091E  50DF               	movf	indf2,w,c
  3942  000920  6F2D               	movwf	45,b	;volatile
  3943  000922                     
  3944                           ; BSR set to: 15
  3945                           ;mcc_generated_files/ecan.c: 270:         TXB0CONbits.TXREQ = 1;
  3946  000922  8720               	bsf	32,3,b	;volatile
  3947  000924                     l3213:
  3948                           
  3949                           ; BSR set to: 15
  3950                           ;mcc_generated_files/ecan.c: 273:     }
  3951  000924  EF96  F005         	goto	l430
  3952  000928                     l425:
  3953                           
  3954                           ; BSR set to: 15
  3955  000928  B710               	btfsc	16,3,b	;volatile
  3956  00092A  EF99  F004         	goto	u1951
  3957  00092E  EF9B  F004         	goto	u1950
  3958  000932                     u1951:
  3959  000932  EF15  F005         	goto	l427
  3960  000936                     u1950:
  3961  000936                     
  3962                           ; BSR set to: 15
  3963                           ;mcc_generated_files/ecan.c: 275:     {;mcc_generated_files/ecan.c: 277:         convert
      +                          CANid2Reg(tempCanMsg->frame.id, tempCanMsg->frame.idType, &tempEIDH, &tempEIDL, &tempSID
      +                          H, &tempSIDL);
  3964  000936  EE20 F001          	lfsr	2,1
  3965  00093A  5015               	movf	CAN_transmit@tempCanMsg^0,w,c
  3966  00093C  26D9               	addwf	fsr2l,f,c
  3967  00093E  5016               	movf	(CAN_transmit@tempCanMsg+1)^0,w,c
  3968  000940  22DA               	addwfc	fsr2h,f,c
  3969  000942  CFDE F003          	movff	postinc2,convertCANid2Reg@tempPassedInID
  3970  000946  CFDE F004          	movff	postinc2,convertCANid2Reg@tempPassedInID+1
  3971  00094A  CFDE F005          	movff	postinc2,convertCANid2Reg@tempPassedInID+2
  3972  00094E  CFDE F006          	movff	postinc2,convertCANid2Reg@tempPassedInID+3
  3973  000952  C015  FFD9         	movff	CAN_transmit@tempCanMsg,fsr2l
  3974  000956  C016  FFDA         	movff	CAN_transmit@tempCanMsg+1,fsr2h
  3975  00095A  50DF               	movf	indf2,w,c
  3976  00095C  6E07               	movwf	convertCANid2Reg@canIdType^0,c
  3977  00095E  0E17               	movlw	low CAN_transmit@tempEIDH
  3978  000960  6E08               	movwf	convertCANid2Reg@passedInEIDH^0,c
  3979  000962  0E00               	movlw	high CAN_transmit@tempEIDH
  3980  000964  6E09               	movwf	(convertCANid2Reg@passedInEIDH+1)^0,c
  3981  000966  0E18               	movlw	low CAN_transmit@tempEIDL
  3982  000968  6E0A               	movwf	convertCANid2Reg@passedInEIDL^0,c
  3983  00096A  0E00               	movlw	high CAN_transmit@tempEIDL
  3984  00096C  6E0B               	movwf	(convertCANid2Reg@passedInEIDL+1)^0,c
  3985  00096E  0E19               	movlw	low CAN_transmit@tempSIDH
  3986  000970  6E0C               	movwf	convertCANid2Reg@passedInSIDH^0,c
  3987  000972  0E00               	movlw	high CAN_transmit@tempSIDH
  3988  000974  6E0D               	movwf	(convertCANid2Reg@passedInSIDH+1)^0,c
  3989  000976  0E1A               	movlw	low CAN_transmit@tempSIDL
  3990  000978  6E0E               	movwf	convertCANid2Reg@passedInSIDL^0,c
  3991  00097A  0E00               	movlw	high CAN_transmit@tempSIDL
  3992  00097C  6E0F               	movwf	(convertCANid2Reg@passedInSIDL+1)^0,c
  3993  00097E  EC6E  F008         	call	_convertCANid2Reg	;wreg free
  3994  000982                     
  3995                           ;mcc_generated_files/ecan.c: 279:         TXB1EIDH = tempEIDH;
  3996  000982  C017  FF13         	movff	CAN_transmit@tempEIDH,3859	;volatile
  3997  000986                     
  3998                           ;mcc_generated_files/ecan.c: 280:         TXB1EIDL = tempEIDL;
  3999  000986  C018  FF14         	movff	CAN_transmit@tempEIDL,3860	;volatile
  4000  00098A                     
  4001                           ;mcc_generated_files/ecan.c: 281:         TXB1SIDH = tempSIDH;
  4002  00098A  C019  FF11         	movff	CAN_transmit@tempSIDH,3857	;volatile
  4003  00098E                     
  4004                           ;mcc_generated_files/ecan.c: 282:         TXB1SIDL = tempSIDL;
  4005  00098E  C01A  FF12         	movff	CAN_transmit@tempSIDL,3858	;volatile
  4006  000992                     
  4007                           ;mcc_generated_files/ecan.c: 283:         TXB1DLC = tempCanMsg->frame.dlc;
  4008  000992  EE20 F005          	lfsr	2,5
  4009  000996  5015               	movf	CAN_transmit@tempCanMsg^0,w,c
  4010  000998  26D9               	addwf	fsr2l,f,c
  4011  00099A  5016               	movf	(CAN_transmit@tempCanMsg+1)^0,w,c
  4012  00099C  22DA               	addwfc	fsr2h,f,c
  4013  00099E  50DF               	movf	indf2,w,c
  4014  0009A0  010F               	movlb	15	; () banked
  4015  0009A2  6F15               	movwf	21,b	;volatile
  4016  0009A4                     
  4017                           ; BSR set to: 15
  4018                           ;mcc_generated_files/ecan.c: 284:         TXB1D0 = tempCanMsg->frame.data0;
  4019  0009A4  EE20 F006          	lfsr	2,6
  4020  0009A8  5015               	movf	CAN_transmit@tempCanMsg^0,w,c
  4021  0009AA  26D9               	addwf	fsr2l,f,c
  4022  0009AC  5016               	movf	(CAN_transmit@tempCanMsg+1)^0,w,c
  4023  0009AE  22DA               	addwfc	fsr2h,f,c
  4024  0009B0  50DF               	movf	indf2,w,c
  4025  0009B2  6F16               	movwf	22,b	;volatile
  4026  0009B4                     
  4027                           ; BSR set to: 15
  4028                           ;mcc_generated_files/ecan.c: 285:         TXB1D1 = tempCanMsg->frame.data1;
  4029  0009B4  EE20 F007          	lfsr	2,7
  4030  0009B8  5015               	movf	CAN_transmit@tempCanMsg^0,w,c
  4031  0009BA  26D9               	addwf	fsr2l,f,c
  4032  0009BC  5016               	movf	(CAN_transmit@tempCanMsg+1)^0,w,c
  4033  0009BE  22DA               	addwfc	fsr2h,f,c
  4034  0009C0  50DF               	movf	indf2,w,c
  4035  0009C2  6F17               	movwf	23,b	;volatile
  4036  0009C4                     
  4037                           ; BSR set to: 15
  4038                           ;mcc_generated_files/ecan.c: 286:         TXB1D2 = tempCanMsg->frame.data2;
  4039  0009C4  EE20 F008          	lfsr	2,8
  4040  0009C8  5015               	movf	CAN_transmit@tempCanMsg^0,w,c
  4041  0009CA  26D9               	addwf	fsr2l,f,c
  4042  0009CC  5016               	movf	(CAN_transmit@tempCanMsg+1)^0,w,c
  4043  0009CE  22DA               	addwfc	fsr2h,f,c
  4044  0009D0  50DF               	movf	indf2,w,c
  4045  0009D2  6F18               	movwf	24,b	;volatile
  4046  0009D4                     
  4047                           ; BSR set to: 15
  4048                           ;mcc_generated_files/ecan.c: 287:         TXB1D3 = tempCanMsg->frame.data3;
  4049  0009D4  EE20 F009          	lfsr	2,9
  4050  0009D8  5015               	movf	CAN_transmit@tempCanMsg^0,w,c
  4051  0009DA  26D9               	addwf	fsr2l,f,c
  4052  0009DC  5016               	movf	(CAN_transmit@tempCanMsg+1)^0,w,c
  4053  0009DE  22DA               	addwfc	fsr2h,f,c
  4054  0009E0  50DF               	movf	indf2,w,c
  4055  0009E2  6F19               	movwf	25,b	;volatile
  4056  0009E4                     
  4057                           ; BSR set to: 15
  4058                           ;mcc_generated_files/ecan.c: 288:         TXB1D4 = tempCanMsg->frame.data4;
  4059  0009E4  EE20 F00A          	lfsr	2,10
  4060  0009E8  5015               	movf	CAN_transmit@tempCanMsg^0,w,c
  4061  0009EA  26D9               	addwf	fsr2l,f,c
  4062  0009EC  5016               	movf	(CAN_transmit@tempCanMsg+1)^0,w,c
  4063  0009EE  22DA               	addwfc	fsr2h,f,c
  4064  0009F0  50DF               	movf	indf2,w,c
  4065  0009F2  6F1A               	movwf	26,b	;volatile
  4066  0009F4                     
  4067                           ; BSR set to: 15
  4068                           ;mcc_generated_files/ecan.c: 289:         TXB1D5 = tempCanMsg->frame.data5;
  4069  0009F4  EE20 F00B          	lfsr	2,11
  4070  0009F8  5015               	movf	CAN_transmit@tempCanMsg^0,w,c
  4071  0009FA  26D9               	addwf	fsr2l,f,c
  4072  0009FC  5016               	movf	(CAN_transmit@tempCanMsg+1)^0,w,c
  4073  0009FE  22DA               	addwfc	fsr2h,f,c
  4074  000A00  50DF               	movf	indf2,w,c
  4075  000A02  6F1B               	movwf	27,b	;volatile
  4076  000A04                     
  4077                           ; BSR set to: 15
  4078                           ;mcc_generated_files/ecan.c: 290:         TXB1D6 = tempCanMsg->frame.data6;
  4079  000A04  EE20 F00C          	lfsr	2,12
  4080  000A08  5015               	movf	CAN_transmit@tempCanMsg^0,w,c
  4081  000A0A  26D9               	addwf	fsr2l,f,c
  4082  000A0C  5016               	movf	(CAN_transmit@tempCanMsg+1)^0,w,c
  4083  000A0E  22DA               	addwfc	fsr2h,f,c
  4084  000A10  50DF               	movf	indf2,w,c
  4085  000A12  6F1C               	movwf	28,b	;volatile
  4086  000A14                     
  4087                           ; BSR set to: 15
  4088                           ;mcc_generated_files/ecan.c: 291:         TXB1D7 = tempCanMsg->frame.data7;
  4089  000A14  EE20 F00D          	lfsr	2,13
  4090  000A18  5015               	movf	CAN_transmit@tempCanMsg^0,w,c
  4091  000A1A  26D9               	addwf	fsr2l,f,c
  4092  000A1C  5016               	movf	(CAN_transmit@tempCanMsg+1)^0,w,c
  4093  000A1E  22DA               	addwfc	fsr2h,f,c
  4094  000A20  50DF               	movf	indf2,w,c
  4095  000A22  6F1D               	movwf	29,b	;volatile
  4096  000A24                     
  4097                           ; BSR set to: 15
  4098                           ;mcc_generated_files/ecan.c: 293:         TXB1CONbits.TXREQ = 1;
  4099  000A24  8710               	bsf	16,3,b	;volatile
  4100  000A26  EF92  F004         	goto	l3213
  4101  000A2A                     l427:
  4102                           
  4103                           ; BSR set to: 15
  4104  000A2A  B700               	btfsc	0,3,b	;volatile
  4105  000A2C  EF1A  F005         	goto	u1961
  4106  000A30  EF1C  F005         	goto	u1960
  4107  000A34                     u1961:
  4108  000A34  EF96  F005         	goto	l426
  4109  000A38                     u1960:
  4110  000A38                     
  4111                           ; BSR set to: 15
  4112                           ;mcc_generated_files/ecan.c: 297:     {;mcc_generated_files/ecan.c: 299:         convert
      +                          CANid2Reg(tempCanMsg->frame.id, tempCanMsg->frame.idType, &tempEIDH, &tempEIDL, &tempSID
      +                          H, &tempSIDL);
  4113  000A38  EE20 F001          	lfsr	2,1
  4114  000A3C  5015               	movf	CAN_transmit@tempCanMsg^0,w,c
  4115  000A3E  26D9               	addwf	fsr2l,f,c
  4116  000A40  5016               	movf	(CAN_transmit@tempCanMsg+1)^0,w,c
  4117  000A42  22DA               	addwfc	fsr2h,f,c
  4118  000A44  CFDE F003          	movff	postinc2,convertCANid2Reg@tempPassedInID
  4119  000A48  CFDE F004          	movff	postinc2,convertCANid2Reg@tempPassedInID+1
  4120  000A4C  CFDE F005          	movff	postinc2,convertCANid2Reg@tempPassedInID+2
  4121  000A50  CFDE F006          	movff	postinc2,convertCANid2Reg@tempPassedInID+3
  4122  000A54  C015  FFD9         	movff	CAN_transmit@tempCanMsg,fsr2l
  4123  000A58  C016  FFDA         	movff	CAN_transmit@tempCanMsg+1,fsr2h
  4124  000A5C  50DF               	movf	indf2,w,c
  4125  000A5E  6E07               	movwf	convertCANid2Reg@canIdType^0,c
  4126  000A60  0E17               	movlw	low CAN_transmit@tempEIDH
  4127  000A62  6E08               	movwf	convertCANid2Reg@passedInEIDH^0,c
  4128  000A64  0E00               	movlw	high CAN_transmit@tempEIDH
  4129  000A66  6E09               	movwf	(convertCANid2Reg@passedInEIDH+1)^0,c
  4130  000A68  0E18               	movlw	low CAN_transmit@tempEIDL
  4131  000A6A  6E0A               	movwf	convertCANid2Reg@passedInEIDL^0,c
  4132  000A6C  0E00               	movlw	high CAN_transmit@tempEIDL
  4133  000A6E  6E0B               	movwf	(convertCANid2Reg@passedInEIDL+1)^0,c
  4134  000A70  0E19               	movlw	low CAN_transmit@tempSIDH
  4135  000A72  6E0C               	movwf	convertCANid2Reg@passedInSIDH^0,c
  4136  000A74  0E00               	movlw	high CAN_transmit@tempSIDH
  4137  000A76  6E0D               	movwf	(convertCANid2Reg@passedInSIDH+1)^0,c
  4138  000A78  0E1A               	movlw	low CAN_transmit@tempSIDL
  4139  000A7A  6E0E               	movwf	convertCANid2Reg@passedInSIDL^0,c
  4140  000A7C  0E00               	movlw	high CAN_transmit@tempSIDL
  4141  000A7E  6E0F               	movwf	(convertCANid2Reg@passedInSIDL+1)^0,c
  4142  000A80  EC6E  F008         	call	_convertCANid2Reg	;wreg free
  4143  000A84                     
  4144                           ;mcc_generated_files/ecan.c: 301:         TXB2EIDH = tempEIDH;
  4145  000A84  C017  FF03         	movff	CAN_transmit@tempEIDH,3843	;volatile
  4146  000A88                     
  4147                           ;mcc_generated_files/ecan.c: 302:         TXB2EIDL = tempEIDL;
  4148  000A88  C018  FF04         	movff	CAN_transmit@tempEIDL,3844	;volatile
  4149  000A8C                     
  4150                           ;mcc_generated_files/ecan.c: 303:         TXB2SIDH = tempSIDH;
  4151  000A8C  C019  FF01         	movff	CAN_transmit@tempSIDH,3841	;volatile
  4152  000A90                     
  4153                           ;mcc_generated_files/ecan.c: 304:         TXB2SIDL = tempSIDL;
  4154  000A90  C01A  FF02         	movff	CAN_transmit@tempSIDL,3842	;volatile
  4155  000A94                     
  4156                           ;mcc_generated_files/ecan.c: 305:         TXB2DLC = tempCanMsg->frame.dlc;
  4157  000A94  EE20 F005          	lfsr	2,5
  4158  000A98  5015               	movf	CAN_transmit@tempCanMsg^0,w,c
  4159  000A9A  26D9               	addwf	fsr2l,f,c
  4160  000A9C  5016               	movf	(CAN_transmit@tempCanMsg+1)^0,w,c
  4161  000A9E  22DA               	addwfc	fsr2h,f,c
  4162  000AA0  50DF               	movf	indf2,w,c
  4163  000AA2  010F               	movlb	15	; () banked
  4164  000AA4  6F05               	movwf	5,b	;volatile
  4165  000AA6                     
  4166                           ; BSR set to: 15
  4167                           ;mcc_generated_files/ecan.c: 306:         TXB2D0 = tempCanMsg->frame.data0;
  4168  000AA6  EE20 F006          	lfsr	2,6
  4169  000AAA  5015               	movf	CAN_transmit@tempCanMsg^0,w,c
  4170  000AAC  26D9               	addwf	fsr2l,f,c
  4171  000AAE  5016               	movf	(CAN_transmit@tempCanMsg+1)^0,w,c
  4172  000AB0  22DA               	addwfc	fsr2h,f,c
  4173  000AB2  50DF               	movf	indf2,w,c
  4174  000AB4  6F06               	movwf	6,b	;volatile
  4175  000AB6                     
  4176                           ; BSR set to: 15
  4177                           ;mcc_generated_files/ecan.c: 307:         TXB2D1 = tempCanMsg->frame.data1;
  4178  000AB6  EE20 F007          	lfsr	2,7
  4179  000ABA  5015               	movf	CAN_transmit@tempCanMsg^0,w,c
  4180  000ABC  26D9               	addwf	fsr2l,f,c
  4181  000ABE  5016               	movf	(CAN_transmit@tempCanMsg+1)^0,w,c
  4182  000AC0  22DA               	addwfc	fsr2h,f,c
  4183  000AC2  50DF               	movf	indf2,w,c
  4184  000AC4  6F07               	movwf	7,b	;volatile
  4185  000AC6                     
  4186                           ; BSR set to: 15
  4187                           ;mcc_generated_files/ecan.c: 308:         TXB2D2 = tempCanMsg->frame.data2;
  4188  000AC6  EE20 F008          	lfsr	2,8
  4189  000ACA  5015               	movf	CAN_transmit@tempCanMsg^0,w,c
  4190  000ACC  26D9               	addwf	fsr2l,f,c
  4191  000ACE  5016               	movf	(CAN_transmit@tempCanMsg+1)^0,w,c
  4192  000AD0  22DA               	addwfc	fsr2h,f,c
  4193  000AD2  50DF               	movf	indf2,w,c
  4194  000AD4  6F08               	movwf	8,b	;volatile
  4195  000AD6                     
  4196                           ; BSR set to: 15
  4197                           ;mcc_generated_files/ecan.c: 309:         TXB2D3 = tempCanMsg->frame.data3;
  4198  000AD6  EE20 F009          	lfsr	2,9
  4199  000ADA  5015               	movf	CAN_transmit@tempCanMsg^0,w,c
  4200  000ADC  26D9               	addwf	fsr2l,f,c
  4201  000ADE  5016               	movf	(CAN_transmit@tempCanMsg+1)^0,w,c
  4202  000AE0  22DA               	addwfc	fsr2h,f,c
  4203  000AE2  50DF               	movf	indf2,w,c
  4204  000AE4  6F09               	movwf	9,b	;volatile
  4205  000AE6                     
  4206                           ; BSR set to: 15
  4207                           ;mcc_generated_files/ecan.c: 310:         TXB2D4 = tempCanMsg->frame.data4;
  4208  000AE6  EE20 F00A          	lfsr	2,10
  4209  000AEA  5015               	movf	CAN_transmit@tempCanMsg^0,w,c
  4210  000AEC  26D9               	addwf	fsr2l,f,c
  4211  000AEE  5016               	movf	(CAN_transmit@tempCanMsg+1)^0,w,c
  4212  000AF0  22DA               	addwfc	fsr2h,f,c
  4213  000AF2  50DF               	movf	indf2,w,c
  4214  000AF4  6F0A               	movwf	10,b	;volatile
  4215  000AF6                     
  4216                           ; BSR set to: 15
  4217                           ;mcc_generated_files/ecan.c: 311:         TXB2D5 = tempCanMsg->frame.data5;
  4218  000AF6  EE20 F00B          	lfsr	2,11
  4219  000AFA  5015               	movf	CAN_transmit@tempCanMsg^0,w,c
  4220  000AFC  26D9               	addwf	fsr2l,f,c
  4221  000AFE  5016               	movf	(CAN_transmit@tempCanMsg+1)^0,w,c
  4222  000B00  22DA               	addwfc	fsr2h,f,c
  4223  000B02  50DF               	movf	indf2,w,c
  4224  000B04  6F0B               	movwf	11,b	;volatile
  4225  000B06                     
  4226                           ; BSR set to: 15
  4227                           ;mcc_generated_files/ecan.c: 312:         TXB2D6 = tempCanMsg->frame.data6;
  4228  000B06  EE20 F00C          	lfsr	2,12
  4229  000B0A  5015               	movf	CAN_transmit@tempCanMsg^0,w,c
  4230  000B0C  26D9               	addwf	fsr2l,f,c
  4231  000B0E  5016               	movf	(CAN_transmit@tempCanMsg+1)^0,w,c
  4232  000B10  22DA               	addwfc	fsr2h,f,c
  4233  000B12  50DF               	movf	indf2,w,c
  4234  000B14  6F0C               	movwf	12,b	;volatile
  4235  000B16                     
  4236                           ; BSR set to: 15
  4237                           ;mcc_generated_files/ecan.c: 313:         TXB2D7 = tempCanMsg->frame.data7;
  4238  000B16  EE20 F00D          	lfsr	2,13
  4239  000B1A  5015               	movf	CAN_transmit@tempCanMsg^0,w,c
  4240  000B1C  26D9               	addwf	fsr2l,f,c
  4241  000B1E  5016               	movf	(CAN_transmit@tempCanMsg+1)^0,w,c
  4242  000B20  22DA               	addwfc	fsr2h,f,c
  4243  000B22  50DF               	movf	indf2,w,c
  4244  000B24  6F0D               	movwf	13,b	;volatile
  4245  000B26                     
  4246                           ; BSR set to: 15
  4247                           ;mcc_generated_files/ecan.c: 315:         TXB2CONbits.TXREQ = 1;
  4248  000B26  8700               	bsf	0,3,b	;volatile
  4249  000B28  EF92  F004         	goto	l3213
  4250  000B2C                     l426:
  4251  000B2C                     l430:
  4252                           
  4253                           ; BSR set to: 15
  4254  000B2C  0012               	return		;funcret
  4255  000B2E                     __end_of_CAN_transmit:
  4256                           	callstack 0
  4257                           
  4258 ;; *************** function _convertCANid2Reg *****************
  4259 ;; Defined at:
  4260 ;;		line 471 in file "mcc_generated_files/ecan.c"
  4261 ;; Parameters:    Size  Location     Type
  4262 ;;  tempPassedIn    4    2[COMRAM] unsigned long 
  4263 ;;  canIdType       1    6[COMRAM] unsigned char 
  4264 ;;  passedInEIDH    2    7[COMRAM] PTR unsigned char 
  4265 ;;		 -> CAN_transmit@tempEIDH(1), 
  4266 ;;  passedInEIDL    2    9[COMRAM] PTR unsigned char 
  4267 ;;		 -> CAN_transmit@tempEIDL(1), 
  4268 ;;  passedInSIDH    2   11[COMRAM] PTR unsigned char 
  4269 ;;		 -> CAN_transmit@tempSIDH(1), 
  4270 ;;  passedInSIDL    2   13[COMRAM] PTR unsigned char 
  4271 ;;		 -> CAN_transmit@tempSIDL(1), 
  4272 ;; Auto vars:     Size  Location     Type
  4273 ;;  wipSIDL         1   19[COMRAM] unsigned char 
  4274 ;; Return value:  Size  Location     Type
  4275 ;;                  1    wreg      void 
  4276 ;; Registers used:
  4277 ;;		wreg, fsr2l, fsr2h, status,2, status,0
  4278 ;; Tracked objects:
  4279 ;;		On entry : 0/0
  4280 ;;		On exit  : 0/0
  4281 ;;		Unchanged: 0/0
  4282 ;; Data sizes:     COMRAM   BANK0   BANK1   BANK2   BANK3   BANK4   BANK5   BANK6   BANK7   BANK8   BANK9  BANK10  BANK1
      +1  BANK12  BANK13  BANK14
  4283 ;;      Params:        13       0       0       0       0       0       0       0       0       0       0       0       
      +0       0       0       0
  4284 ;;      Locals:         1       0       0       0       0       0       0       0       0       0       0       0       
      +0       0       0       0
  4285 ;;      Temps:          4       0       0       0       0       0       0       0       0       0       0       0       
      +0       0       0       0
  4286 ;;      Totals:        18       0       0       0       0       0       0       0       0       0       0       0       
      +0       0       0       0
  4287 ;;Total ram usage:       18 bytes
  4288 ;; Hardware stack levels used: 1
  4289 ;; Hardware stack levels required when called: 3
  4290 ;; This function calls:
  4291 ;;		Nothing
  4292 ;; This function is called by:
  4293 ;;		_CAN_transmit
  4294 ;; This function uses a non-reentrant model
  4295 ;;
  4296                           
  4297                           	psect	text21
  4298  0010DC                     __ptext21:
  4299                           	callstack 0
  4300  0010DC                     _convertCANid2Reg:
  4301                           	callstack 24
  4302  0010DC                     
  4303                           ;mcc_generated_files/ecan.c: 474:     if (canIdType == 2) {
  4304  0010DC  0E02               	movlw	2
  4305  0010DE  1807               	xorwf	convertCANid2Reg@canIdType^0,w,c
  4306  0010E0  A4D8               	btfss	status,2,c
  4307  0010E2  EF75  F008         	goto	u1911
  4308  0010E6  EF77  F008         	goto	u1910
  4309  0010EA                     u1911:
  4310  0010EA  EFFA  F008         	goto	l3167
  4311  0010EE                     u1910:
  4312  0010EE                     
  4313                           ;mcc_generated_files/ecan.c: 477:         *passedInEIDL = 0xFF & tempPassedInID;
  4314  0010EE  C00A  FFD9         	movff	convertCANid2Reg@passedInEIDL,fsr2l
  4315  0010F2  C00B  FFDA         	movff	convertCANid2Reg@passedInEIDL+1,fsr2h
  4316  0010F6  C003  FFDF         	movff	convertCANid2Reg@tempPassedInID,indf2
  4317  0010FA                     
  4318                           ;mcc_generated_files/ecan.c: 478:         tempPassedInID = tempPassedInID >> 8;
  4319  0010FA  C003  F010         	movff	convertCANid2Reg@tempPassedInID,??_convertCANid2Reg
  4320  0010FE  C004  F011         	movff	convertCANid2Reg@tempPassedInID+1,??_convertCANid2Reg+1
  4321  001102  C005  F012         	movff	convertCANid2Reg@tempPassedInID+2,??_convertCANid2Reg+2
  4322  001106  C006  F013         	movff	convertCANid2Reg@tempPassedInID+3,??_convertCANid2Reg+3
  4323  00110A  C011  F010         	movff	??_convertCANid2Reg+1,??_convertCANid2Reg
  4324  00110E  C012  F011         	movff	??_convertCANid2Reg+2,??_convertCANid2Reg+1
  4325  001112  C013  F012         	movff	??_convertCANid2Reg+3,??_convertCANid2Reg+2
  4326  001116  6A13               	clrf	(??_convertCANid2Reg+3)^0,c
  4327  001118  C010  F003         	movff	??_convertCANid2Reg,convertCANid2Reg@tempPassedInID
  4328  00111C  C011  F004         	movff	??_convertCANid2Reg+1,convertCANid2Reg@tempPassedInID+1
  4329  001120  C012  F005         	movff	??_convertCANid2Reg+2,convertCANid2Reg@tempPassedInID+2
  4330  001124  C013  F006         	movff	??_convertCANid2Reg+3,convertCANid2Reg@tempPassedInID+3
  4331  001128                     
  4332                           ;mcc_generated_files/ecan.c: 481:         *passedInEIDH = 0xFF & tempPassedInID;
  4333  001128  C008  FFD9         	movff	convertCANid2Reg@passedInEIDH,fsr2l
  4334  00112C  C009  FFDA         	movff	convertCANid2Reg@passedInEIDH+1,fsr2h
  4335  001130  C003  FFDF         	movff	convertCANid2Reg@tempPassedInID,indf2
  4336                           
  4337                           ;mcc_generated_files/ecan.c: 482:         tempPassedInID = tempPassedInID >> 8;
  4338  001134  C003  F010         	movff	convertCANid2Reg@tempPassedInID,??_convertCANid2Reg
  4339  001138  C004  F011         	movff	convertCANid2Reg@tempPassedInID+1,??_convertCANid2Reg+1
  4340  00113C  C005  F012         	movff	convertCANid2Reg@tempPassedInID+2,??_convertCANid2Reg+2
  4341  001140  C006  F013         	movff	convertCANid2Reg@tempPassedInID+3,??_convertCANid2Reg+3
  4342  001144  C011  F010         	movff	??_convertCANid2Reg+1,??_convertCANid2Reg
  4343  001148  C012  F011         	movff	??_convertCANid2Reg+2,??_convertCANid2Reg+1
  4344  00114C  C013  F012         	movff	??_convertCANid2Reg+3,??_convertCANid2Reg+2
  4345  001150  6A13               	clrf	(??_convertCANid2Reg+3)^0,c
  4346  001152  C010  F003         	movff	??_convertCANid2Reg,convertCANid2Reg@tempPassedInID
  4347  001156  C011  F004         	movff	??_convertCANid2Reg+1,convertCANid2Reg@tempPassedInID+1
  4348  00115A  C012  F005         	movff	??_convertCANid2Reg+2,convertCANid2Reg@tempPassedInID+2
  4349  00115E  C013  F006         	movff	??_convertCANid2Reg+3,convertCANid2Reg@tempPassedInID+3
  4350  001162                     
  4351                           ;mcc_generated_files/ecan.c: 486:         wipSIDL = 0x03 & tempPassedInID;
  4352  001162  5003               	movf	convertCANid2Reg@tempPassedInID^0,w,c
  4353  001164  0B03               	andlw	3
  4354  001166  6E14               	movwf	convertCANid2Reg@wipSIDL^0,c
  4355  001168                     
  4356                           ;mcc_generated_files/ecan.c: 487:         tempPassedInID = tempPassedInID << 3;
  4357  001168  C003  F010         	movff	convertCANid2Reg@tempPassedInID,??_convertCANid2Reg
  4358  00116C  C004  F011         	movff	convertCANid2Reg@tempPassedInID+1,??_convertCANid2Reg+1
  4359  001170  C005  F012         	movff	convertCANid2Reg@tempPassedInID+2,??_convertCANid2Reg+2
  4360  001174  C006  F013         	movff	convertCANid2Reg@tempPassedInID+3,??_convertCANid2Reg+3
  4361  001178  0E03               	movlw	3
  4362  00117A                     u1925:
  4363  00117A  90D8               	bcf	status,0,c
  4364  00117C  3610               	rlcf	??_convertCANid2Reg^0,f,c
  4365  00117E  3611               	rlcf	(??_convertCANid2Reg+1)^0,f,c
  4366  001180  3612               	rlcf	(??_convertCANid2Reg+2)^0,f,c
  4367  001182  3613               	rlcf	(??_convertCANid2Reg+3)^0,f,c
  4368  001184  2EE8               	decfsz	wreg,f,c
  4369  001186  EFBD  F008         	goto	u1925
  4370  00118A  C010  F003         	movff	??_convertCANid2Reg,convertCANid2Reg@tempPassedInID
  4371  00118E  C011  F004         	movff	??_convertCANid2Reg+1,convertCANid2Reg@tempPassedInID+1
  4372  001192  C012  F005         	movff	??_convertCANid2Reg+2,convertCANid2Reg@tempPassedInID+2
  4373  001196  C013  F006         	movff	??_convertCANid2Reg+3,convertCANid2Reg@tempPassedInID+3
  4374  00119A                     
  4375                           ;mcc_generated_files/ecan.c: 488:         wipSIDL = (0xE0 & tempPassedInID) + wipSIDL;
  4376  00119A  5003               	movf	convertCANid2Reg@tempPassedInID^0,w,c
  4377  00119C  0BE0               	andlw	224
  4378  00119E  2414               	addwf	convertCANid2Reg@wipSIDL^0,w,c
  4379  0011A0  6E14               	movwf	convertCANid2Reg@wipSIDL^0,c
  4380  0011A2                     
  4381                           ;mcc_generated_files/ecan.c: 489:         wipSIDL = (uint8_t)(wipSIDL + 0x08);
  4382  0011A2  5014               	movf	convertCANid2Reg@wipSIDL^0,w,c
  4383  0011A4  0F08               	addlw	8
  4384  0011A6  6E14               	movwf	convertCANid2Reg@wipSIDL^0,c
  4385  0011A8                     
  4386                           ;mcc_generated_files/ecan.c: 490:         *passedInSIDL = (uint8_t)(0xEB & wipSIDL);
  4387  0011A8  5014               	movf	convertCANid2Reg@wipSIDL^0,w,c
  4388  0011AA  0BEB               	andlw	235
  4389  0011AC  C00E  FFD9         	movff	convertCANid2Reg@passedInSIDL,fsr2l
  4390  0011B0  C00F  FFDA         	movff	convertCANid2Reg@passedInSIDL+1,fsr2h
  4391  0011B4  6EDF               	movwf	indf2,c
  4392  0011B6                     l3163:
  4393                           
  4394                           ;mcc_generated_files/ecan.c: 493:         tempPassedInID = tempPassedInID >> 8;
  4395  0011B6  C003  F010         	movff	convertCANid2Reg@tempPassedInID,??_convertCANid2Reg
  4396  0011BA  C004  F011         	movff	convertCANid2Reg@tempPassedInID+1,??_convertCANid2Reg+1
  4397  0011BE  C005  F012         	movff	convertCANid2Reg@tempPassedInID+2,??_convertCANid2Reg+2
  4398  0011C2  C006  F013         	movff	convertCANid2Reg@tempPassedInID+3,??_convertCANid2Reg+3
  4399  0011C6  C011  F010         	movff	??_convertCANid2Reg+1,??_convertCANid2Reg
  4400  0011CA  C012  F011         	movff	??_convertCANid2Reg+2,??_convertCANid2Reg+1
  4401  0011CE  C013  F012         	movff	??_convertCANid2Reg+3,??_convertCANid2Reg+2
  4402  0011D2  6A13               	clrf	(??_convertCANid2Reg+3)^0,c
  4403  0011D4  C010  F003         	movff	??_convertCANid2Reg,convertCANid2Reg@tempPassedInID
  4404  0011D8  C011  F004         	movff	??_convertCANid2Reg+1,convertCANid2Reg@tempPassedInID+1
  4405  0011DC  C012  F005         	movff	??_convertCANid2Reg+2,convertCANid2Reg@tempPassedInID+2
  4406  0011E0  C013  F006         	movff	??_convertCANid2Reg+3,convertCANid2Reg@tempPassedInID+3
  4407  0011E4                     
  4408                           ;mcc_generated_files/ecan.c: 494:         *passedInSIDH = 0xFF & tempPassedInID;
  4409  0011E4  C00C  FFD9         	movff	convertCANid2Reg@passedInSIDH,fsr2l
  4410  0011E8  C00D  FFDA         	movff	convertCANid2Reg@passedInSIDH+1,fsr2h
  4411  0011EC  C003  FFDF         	movff	convertCANid2Reg@tempPassedInID,indf2
  4412                           
  4413                           ;mcc_generated_files/ecan.c: 495:     } else
  4414  0011F0  EF27  F009         	goto	l468
  4415  0011F4                     l3167:
  4416                           
  4417                           ;mcc_generated_files/ecan.c: 496:     {;mcc_generated_files/ecan.c: 497:         *passed
      +                          InEIDH = 0;
  4418  0011F4  C008  FFD9         	movff	convertCANid2Reg@passedInEIDH,fsr2l
  4419  0011F8  C009  FFDA         	movff	convertCANid2Reg@passedInEIDH+1,fsr2h
  4420  0011FC  0E00               	movlw	0
  4421  0011FE  6EDF               	movwf	indf2,c
  4422                           
  4423                           ;mcc_generated_files/ecan.c: 498:         *passedInEIDL = 0;
  4424  001200  C00A  FFD9         	movff	convertCANid2Reg@passedInEIDL,fsr2l
  4425  001204  C00B  FFDA         	movff	convertCANid2Reg@passedInEIDL+1,fsr2h
  4426  001208  0E00               	movlw	0
  4427  00120A  6EDF               	movwf	indf2,c
  4428  00120C                     
  4429                           ;mcc_generated_files/ecan.c: 499:         tempPassedInID = tempPassedInID << 5;
  4430  00120C  C003  F010         	movff	convertCANid2Reg@tempPassedInID,??_convertCANid2Reg
  4431  001210  C004  F011         	movff	convertCANid2Reg@tempPassedInID+1,??_convertCANid2Reg+1
  4432  001214  C005  F012         	movff	convertCANid2Reg@tempPassedInID+2,??_convertCANid2Reg+2
  4433  001218  C006  F013         	movff	convertCANid2Reg@tempPassedInID+3,??_convertCANid2Reg+3
  4434  00121C  0E05               	movlw	5
  4435  00121E                     u1935:
  4436  00121E  90D8               	bcf	status,0,c
  4437  001220  3610               	rlcf	??_convertCANid2Reg^0,f,c
  4438  001222  3611               	rlcf	(??_convertCANid2Reg+1)^0,f,c
  4439  001224  3612               	rlcf	(??_convertCANid2Reg+2)^0,f,c
  4440  001226  3613               	rlcf	(??_convertCANid2Reg+3)^0,f,c
  4441  001228  2EE8               	decfsz	wreg,f,c
  4442  00122A  EF0F  F009         	goto	u1935
  4443  00122E  C010  F003         	movff	??_convertCANid2Reg,convertCANid2Reg@tempPassedInID
  4444  001232  C011  F004         	movff	??_convertCANid2Reg+1,convertCANid2Reg@tempPassedInID+1
  4445  001236  C012  F005         	movff	??_convertCANid2Reg+2,convertCANid2Reg@tempPassedInID+2
  4446  00123A  C013  F006         	movff	??_convertCANid2Reg+3,convertCANid2Reg@tempPassedInID+3
  4447  00123E                     
  4448                           ;mcc_generated_files/ecan.c: 500:         *passedInSIDL = 0xFF & tempPassedInID;
  4449  00123E  C00E  FFD9         	movff	convertCANid2Reg@passedInSIDL,fsr2l
  4450  001242  C00F  FFDA         	movff	convertCANid2Reg@passedInSIDL+1,fsr2h
  4451  001246  C003  FFDF         	movff	convertCANid2Reg@tempPassedInID,indf2
  4452  00124A  EFDB  F008         	goto	l3163
  4453  00124E                     l468:
  4454  00124E  0012               	return		;funcret
  4455  001250                     __end_of_convertCANid2Reg:
  4456                           	callstack 0
  4457                           
  4458 ;; *************** function _SYSTEM_Initialize *****************
  4459 ;; Defined at:
  4460 ;;		line 50 in file "mcc_generated_files/mcc.c"
  4461 ;; Parameters:    Size  Location     Type
  4462 ;;		None
  4463 ;; Auto vars:     Size  Location     Type
  4464 ;;		None
  4465 ;; Return value:  Size  Location     Type
  4466 ;;                  1    wreg      void 
  4467 ;; Registers used:
  4468 ;;		wreg, status,2, status,0, cstack
  4469 ;; Tracked objects:
  4470 ;;		On entry : 0/0
  4471 ;;		On exit  : 0/0
  4472 ;;		Unchanged: 0/0
  4473 ;; Data sizes:     COMRAM   BANK0   BANK1   BANK2   BANK3   BANK4   BANK5   BANK6   BANK7   BANK8   BANK9  BANK10  BANK1
      +1  BANK12  BANK13  BANK14
  4474 ;;      Params:         0       0       0       0       0       0       0       0       0       0       0       0       
      +0       0       0       0
  4475 ;;      Locals:         0       0       0       0       0       0       0       0       0       0       0       0       
      +0       0       0       0
  4476 ;;      Temps:          0       0       0       0       0       0       0       0       0       0       0       0       
      +0       0       0       0
  4477 ;;      Totals:         0       0       0       0       0       0       0       0       0       0       0       0       
      +0       0       0       0
  4478 ;;Total ram usage:        0 bytes
  4479 ;; Hardware stack levels used: 1
  4480 ;; Hardware stack levels required when called: 5
  4481 ;; This function calls:
  4482 ;;		_ADC_Initialize
  4483 ;;		_ECAN_Initialize
  4484 ;;		_INTERRUPT_Initialize
  4485 ;;		_OSCILLATOR_Initialize
  4486 ;;		_PIN_MANAGER_Initialize
  4487 ;; This function is called by:
  4488 ;;		_main
  4489 ;; This function uses a non-reentrant model
  4490 ;;
  4491                           
  4492                           	psect	text22
  4493  001C4E                     __ptext22:
  4494                           	callstack 0
  4495  001C4E                     _SYSTEM_Initialize:
  4496                           	callstack 25
  4497  001C4E                     
  4498                           ;mcc_generated_files/mcc.c: 53:     INTERRUPT_Initialize();
  4499  001C4E  EC64  F00E         	call	_INTERRUPT_Initialize	;wreg free
  4500  001C52                     
  4501                           ;mcc_generated_files/mcc.c: 54:     PIN_MANAGER_Initialize();
  4502  001C52  EC63  F00D         	call	_PIN_MANAGER_Initialize	;wreg free
  4503  001C56                     
  4504                           ;mcc_generated_files/mcc.c: 55:     OSCILLATOR_Initialize();
  4505  001C56  EC46  F00E         	call	_OSCILLATOR_Initialize	;wreg free
  4506  001C5A                     
  4507                           ;mcc_generated_files/mcc.c: 56:     ADC_Initialize();
  4508  001C5A  EC32  F00E         	call	_ADC_Initialize	;wreg free
  4509  001C5E                     
  4510                           ;mcc_generated_files/mcc.c: 57:     ECAN_Initialize();
  4511  001C5E  EC9B  F007         	call	_ECAN_Initialize	;wreg free
  4512  001C62  0012               	return		;funcret
  4513  001C64                     __end_of_SYSTEM_Initialize:
  4514                           	callstack 0
  4515                           
  4516 ;; *************** function _PIN_MANAGER_Initialize *****************
  4517 ;; Defined at:
  4518 ;;		line 55 in file "mcc_generated_files/pin_manager.c"
  4519 ;; Parameters:    Size  Location     Type
  4520 ;;		None
  4521 ;; Auto vars:     Size  Location     Type
  4522 ;;		None
  4523 ;; Return value:  Size  Location     Type
  4524 ;;                  1    wreg      void 
  4525 ;; Registers used:
  4526 ;;		wreg, status,2
  4527 ;; Tracked objects:
  4528 ;;		On entry : 0/0
  4529 ;;		On exit  : 0/0
  4530 ;;		Unchanged: 0/0
  4531 ;; Data sizes:     COMRAM   BANK0   BANK1   BANK2   BANK3   BANK4   BANK5   BANK6   BANK7   BANK8   BANK9  BANK10  BANK1
      +1  BANK12  BANK13  BANK14
  4532 ;;      Params:         0       0       0       0       0       0       0       0       0       0       0       0       
      +0       0       0       0
  4533 ;;      Locals:         0       0       0       0       0       0       0       0       0       0       0       0       
      +0       0       0       0
  4534 ;;      Temps:          0       0       0       0       0       0       0       0       0       0       0       0       
      +0       0       0       0
  4535 ;;      Totals:         0       0       0       0       0       0       0       0       0       0       0       0       
      +0       0       0       0
  4536 ;;Total ram usage:        0 bytes
  4537 ;; Hardware stack levels used: 1
  4538 ;; Hardware stack levels required when called: 3
  4539 ;; This function calls:
  4540 ;;		Nothing
  4541 ;; This function is called by:
  4542 ;;		_SYSTEM_Initialize
  4543 ;; This function uses a non-reentrant model
  4544 ;;
  4545                           
  4546                           	psect	text23
  4547  001AC6                     __ptext23:
  4548                           	callstack 0
  4549  001AC6                     _PIN_MANAGER_Initialize:
  4550                           	callstack 26
  4551  001AC6                     
  4552                           ;mcc_generated_files/pin_manager.c: 60:     LATE = 0x00;
  4553  001AC6  0E00               	movlw	0
  4554  001AC8  6E8D               	movwf	141,c	;volatile
  4555                           
  4556                           ;mcc_generated_files/pin_manager.c: 61:     LATD = 0x00;
  4557  001ACA  0E00               	movlw	0
  4558  001ACC  6E8C               	movwf	140,c	;volatile
  4559                           
  4560                           ;mcc_generated_files/pin_manager.c: 62:     LATA = 0x00;
  4561  001ACE  0E00               	movlw	0
  4562  001AD0  6E89               	movwf	137,c	;volatile
  4563                           
  4564                           ;mcc_generated_files/pin_manager.c: 63:     LATB = 0x00;
  4565  001AD2  0E00               	movlw	0
  4566  001AD4  6E8A               	movwf	138,c	;volatile
  4567                           
  4568                           ;mcc_generated_files/pin_manager.c: 64:     LATC = 0x00;
  4569  001AD6  0E00               	movlw	0
  4570  001AD8  6E8B               	movwf	139,c	;volatile
  4571                           
  4572                           ;mcc_generated_files/pin_manager.c: 69:     TRISE = 0x07;
  4573  001ADA  0E07               	movlw	7
  4574  001ADC  6E96               	movwf	150,c	;volatile
  4575                           
  4576                           ;mcc_generated_files/pin_manager.c: 70:     TRISA = 0xE3;
  4577  001ADE  0EE3               	movlw	227
  4578  001AE0  6E92               	movwf	146,c	;volatile
  4579                           
  4580                           ;mcc_generated_files/pin_manager.c: 71:     TRISB = 0xFB;
  4581  001AE2  0EFB               	movlw	251
  4582  001AE4  6E93               	movwf	147,c	;volatile
  4583                           
  4584                           ;mcc_generated_files/pin_manager.c: 72:     TRISC = 0xB8;
  4585  001AE6  0EB8               	movlw	184
  4586  001AE8  6E94               	movwf	148,c	;volatile
  4587  001AEA                     
  4588                           ;mcc_generated_files/pin_manager.c: 73:     TRISD = 0xFF;
  4589  001AEA  6895               	setf	149,c	;volatile
  4590  001AEC                     
  4591                           ;mcc_generated_files/pin_manager.c: 78:     ANCON0 = 0xFF;
  4592  001AEC  010F               	movlb	15	; () banked
  4593  001AEE  695D               	setf	93,b	;volatile
  4594                           
  4595                           ;mcc_generated_files/pin_manager.c: 79:     ANCON1 = 0x7F;
  4596  001AF0  0E7F               	movlw	127
  4597  001AF2  6F5C               	movwf	92,b	;volatile
  4598                           
  4599                           ;mcc_generated_files/pin_manager.c: 84:     WPUB = 0x00;
  4600  001AF4  0E00               	movlw	0
  4601  001AF6  6F5B               	movwf	91,b	;volatile
  4602  001AF8                     
  4603                           ; BSR set to: 15
  4604                           ;mcc_generated_files/pin_manager.c: 85:     INTCON2bits.nRBPU = 1;
  4605  001AF8  8EF1               	bsf	241,7,c	;volatile
  4606  001AFA                     
  4607                           ; BSR set to: 15
  4608  001AFA  0012               	return		;funcret
  4609  001AFC                     __end_of_PIN_MANAGER_Initialize:
  4610                           	callstack 0
  4611                           
  4612 ;; *************** function _OSCILLATOR_Initialize *****************
  4613 ;; Defined at:
  4614 ;;		line 60 in file "mcc_generated_files/mcc.c"
  4615 ;; Parameters:    Size  Location     Type
  4616 ;;		None
  4617 ;; Auto vars:     Size  Location     Type
  4618 ;;		None
  4619 ;; Return value:  Size  Location     Type
  4620 ;;                  1    wreg      void 
  4621 ;; Registers used:
  4622 ;;		wreg, status,2
  4623 ;; Tracked objects:
  4624 ;;		On entry : 0/0
  4625 ;;		On exit  : 0/0
  4626 ;;		Unchanged: 0/0
  4627 ;; Data sizes:     COMRAM   BANK0   BANK1   BANK2   BANK3   BANK4   BANK5   BANK6   BANK7   BANK8   BANK9  BANK10  BANK1
      +1  BANK12  BANK13  BANK14
  4628 ;;      Params:         0       0       0       0       0       0       0       0       0       0       0       0       
      +0       0       0       0
  4629 ;;      Locals:         0       0       0       0       0       0       0       0       0       0       0       0       
      +0       0       0       0
  4630 ;;      Temps:          0       0       0       0       0       0       0       0       0       0       0       0       
      +0       0       0       0
  4631 ;;      Totals:         0       0       0       0       0       0       0       0       0       0       0       0       
      +0       0       0       0
  4632 ;;Total ram usage:        0 bytes
  4633 ;; Hardware stack levels used: 1
  4634 ;; Hardware stack levels required when called: 3
  4635 ;; This function calls:
  4636 ;;		Nothing
  4637 ;; This function is called by:
  4638 ;;		_SYSTEM_Initialize
  4639 ;; This function uses a non-reentrant model
  4640 ;;
  4641                           
  4642                           	psect	text24
  4643  001C8C                     __ptext24:
  4644                           	callstack 0
  4645  001C8C                     _OSCILLATOR_Initialize:
  4646                           	callstack 26
  4647  001C8C                     
  4648                           ;mcc_generated_files/mcc.c: 63:     OSCCON = 0x60;
  4649  001C8C  0E60               	movlw	96
  4650  001C8E  6ED3               	movwf	211,c	;volatile
  4651                           
  4652                           ;mcc_generated_files/mcc.c: 65:     OSCCON2 = 0x00;
  4653  001C90  0E00               	movlw	0
  4654  001C92  6ED2               	movwf	210,c	;volatile
  4655                           
  4656                           ;mcc_generated_files/mcc.c: 67:     OSCTUNE = 0x00;
  4657  001C94  0E00               	movlw	0
  4658  001C96  6E9B               	movwf	155,c	;volatile
  4659                           
  4660                           ;mcc_generated_files/mcc.c: 69:     REFOCON = 0x00;
  4661  001C98  0E00               	movlw	0
  4662  001C9A  6E9A               	movwf	154,c	;volatile
  4663  001C9C  0012               	return		;funcret
  4664  001C9E                     __end_of_OSCILLATOR_Initialize:
  4665                           	callstack 0
  4666                           
  4667 ;; *************** function _INTERRUPT_Initialize *****************
  4668 ;; Defined at:
  4669 ;;		line 52 in file "mcc_generated_files/interrupt_manager.c"
  4670 ;; Parameters:    Size  Location     Type
  4671 ;;		None
  4672 ;; Auto vars:     Size  Location     Type
  4673 ;;		None
  4674 ;; Return value:  Size  Location     Type
  4675 ;;                  1    wreg      void 
  4676 ;; Registers used:
  4677 ;;		None
  4678 ;; Tracked objects:
  4679 ;;		On entry : 0/0
  4680 ;;		On exit  : 0/0
  4681 ;;		Unchanged: 0/0
  4682 ;; Data sizes:     COMRAM   BANK0   BANK1   BANK2   BANK3   BANK4   BANK5   BANK6   BANK7   BANK8   BANK9  BANK10  BANK1
      +1  BANK12  BANK13  BANK14
  4683 ;;      Params:         0       0       0       0       0       0       0       0       0       0       0       0       
      +0       0       0       0
  4684 ;;      Locals:         0       0       0       0       0       0       0       0       0       0       0       0       
      +0       0       0       0
  4685 ;;      Temps:          0       0       0       0       0       0       0       0       0       0       0       0       
      +0       0       0       0
  4686 ;;      Totals:         0       0       0       0       0       0       0       0       0       0       0       0       
      +0       0       0       0
  4687 ;;Total ram usage:        0 bytes
  4688 ;; Hardware stack levels used: 1
  4689 ;; Hardware stack levels required when called: 3
  4690 ;; This function calls:
  4691 ;;		Nothing
  4692 ;; This function is called by:
  4693 ;;		_SYSTEM_Initialize
  4694 ;; This function uses a non-reentrant model
  4695 ;;
  4696                           
  4697                           	psect	text25
  4698  001CC8                     __ptext25:
  4699                           	callstack 0
  4700  001CC8                     _INTERRUPT_Initialize:
  4701                           	callstack 26
  4702  001CC8                     
  4703                           ;mcc_generated_files/interrupt_manager.c: 55:     RCONbits.IPEN = 0;
  4704  001CC8  9ED0               	bcf	208,7,c	;volatile
  4705  001CCA  0012               	return		;funcret
  4706  001CCC                     __end_of_INTERRUPT_Initialize:
  4707                           	callstack 0
  4708                           
  4709 ;; *************** function _ECAN_Initialize *****************
  4710 ;; Defined at:
  4711 ;;		line 65 in file "mcc_generated_files/ecan.c"
  4712 ;; Parameters:    Size  Location     Type
  4713 ;;		None
  4714 ;; Auto vars:     Size  Location     Type
  4715 ;;		None
  4716 ;; Return value:  Size  Location     Type
  4717 ;;                  1    wreg      void 
  4718 ;; Registers used:
  4719 ;;		wreg, status,2, status,0, cstack
  4720 ;; Tracked objects:
  4721 ;;		On entry : 0/0
  4722 ;;		On exit  : 0/0
  4723 ;;		Unchanged: 0/0
  4724 ;; Data sizes:     COMRAM   BANK0   BANK1   BANK2   BANK3   BANK4   BANK5   BANK6   BANK7   BANK8   BANK9  BANK10  BANK1
      +1  BANK12  BANK13  BANK14
  4725 ;;      Params:         0       0       0       0       0       0       0       0       0       0       0       0       
      +0       0       0       0
  4726 ;;      Locals:         0       0       0       0       0       0       0       0       0       0       0       0       
      +0       0       0       0
  4727 ;;      Temps:          1       0       0       0       0       0       0       0       0       0       0       0       
      +0       0       0       0
  4728 ;;      Totals:         1       0       0       0       0       0       0       0       0       0       0       0       
      +0       0       0       0
  4729 ;;Total ram usage:        1 bytes
  4730 ;; Hardware stack levels used: 1
  4731 ;; Hardware stack levels required when called: 4
  4732 ;; This function calls:
  4733 ;;		_ECAN_SetWakeUpInterruptHandler
  4734 ;; This function is called by:
  4735 ;;		_SYSTEM_Initialize
  4736 ;; This function uses a non-reentrant model
  4737 ;;
  4738                           
  4739                           	psect	text26
  4740  000F36                     __ptext26:
  4741                           	callstack 0
  4742  000F36                     _ECAN_Initialize:
  4743                           	callstack 25
  4744  000F36                     
  4745                           ;mcc_generated_files/ecan.c: 67:     CANCON = 0x80;
  4746  000F36  0E80               	movlw	128
  4747  000F38  6E6F               	movwf	111,c	;volatile
  4748  000F3A                     l3687:
  4749  000F3A  506E               	movf	110,w,c	;volatile
  4750  000F3C  0BE0               	andlw	224
  4751  000F3E  0A80               	xorlw	128
  4752  000F40  A4D8               	btfss	status,2,c
  4753  000F42  EFA5  F007         	goto	u2621
  4754  000F46  EFA7  F007         	goto	u2620
  4755  000F4A                     u2621:
  4756  000F4A  EF9D  F007         	goto	l3687
  4757  000F4E                     u2620:
  4758  000F4E                     
  4759                           ;mcc_generated_files/ecan.c: 73:     ECANCON = 0x40;
  4760  000F4E  0E40               	movlw	64
  4761  000F50  6E72               	movwf	114,c	;volatile
  4762                           
  4763                           ;mcc_generated_files/ecan.c: 78:     CIOCON = 0x20;
  4764  000F52  0E20               	movlw	32
  4765  000F54  6E70               	movwf	112,c	;volatile
  4766                           
  4767                           ;mcc_generated_files/ecan.c: 100:     BSEL0 = 0x00;
  4768  000F56  0E00               	movlw	0
  4769  000F58  010E               	movlb	14	; () banked
  4770  000F5A  6F7D               	movwf	125,b	;volatile
  4771  000F5C                     
  4772                           ; BSR set to: 14
  4773                           ;mcc_generated_files/ecan.c: 105:     RXM0EIDH = 0xFF;
  4774  000F5C  69FA               	setf	250,b	;volatile
  4775  000F5E                     
  4776                           ; BSR set to: 14
  4777                           ;mcc_generated_files/ecan.c: 106:     RXM0EIDL = 0xFF;
  4778  000F5E  69FB               	setf	251,b	;volatile
  4779                           
  4780                           ;mcc_generated_files/ecan.c: 107:     RXM0SIDH = 0x01;
  4781  000F60  0E01               	movlw	1
  4782  000F62  6FF8               	movwf	248,b	;volatile
  4783                           
  4784                           ;mcc_generated_files/ecan.c: 108:     RXM0SIDL = 0xC3;
  4785  000F64  0EC3               	movlw	195
  4786  000F66  6FF9               	movwf	249,b	;volatile
  4787  000F68                     
  4788                           ; BSR set to: 14
  4789                           ;mcc_generated_files/ecan.c: 109:     RXM1EIDH = 0xFF;
  4790  000F68  69FE               	setf	254,b	;volatile
  4791  000F6A                     
  4792                           ; BSR set to: 14
  4793                           ;mcc_generated_files/ecan.c: 110:     RXM1EIDL = 0xFF;
  4794  000F6A  69FF               	setf	255,b	;volatile
  4795  000F6C                     
  4796                           ; BSR set to: 14
  4797                           ;mcc_generated_files/ecan.c: 111:     RXM1SIDH = 0xFF;
  4798  000F6C  69FC               	setf	252,b	;volatile
  4799                           
  4800                           ;mcc_generated_files/ecan.c: 112:     RXM1SIDL = 0xE3;
  4801  000F6E  0EE3               	movlw	227
  4802  000F70  6FFD               	movwf	253,b	;volatile
  4803                           
  4804                           ;mcc_generated_files/ecan.c: 117:     RXFCON0 = 0x01;
  4805  000F72  0E01               	movlw	1
  4806  000F74  6F46               	movwf	70,b	;volatile
  4807                           
  4808                           ;mcc_generated_files/ecan.c: 118:     RXFCON1 = 0x00;
  4809  000F76  0E00               	movlw	0
  4810  000F78  6F47               	movwf	71,b	;volatile
  4811                           
  4812                           ;mcc_generated_files/ecan.c: 122:     MSEL0 = 0x00;
  4813  000F7A  0E00               	movlw	0
  4814  000F7C  6F79               	movwf	121,b	;volatile
  4815                           
  4816                           ;mcc_generated_files/ecan.c: 123:     MSEL1 = 0x00;
  4817  000F7E  0E00               	movlw	0
  4818  000F80  6F7A               	movwf	122,b	;volatile
  4819                           
  4820                           ;mcc_generated_files/ecan.c: 124:     MSEL2 = 0x00;
  4821  000F82  0E00               	movlw	0
  4822  000F84  6F7B               	movwf	123,b	;volatile
  4823                           
  4824                           ;mcc_generated_files/ecan.c: 125:     MSEL3 = 0x00;
  4825  000F86  0E00               	movlw	0
  4826  000F88  6F7C               	movwf	124,b	;volatile
  4827                           
  4828                           ;mcc_generated_files/ecan.c: 130:     RXFBCON0 = 0x00;
  4829  000F8A  0E00               	movlw	0
  4830  000F8C  6F71               	movwf	113,b	;volatile
  4831                           
  4832                           ;mcc_generated_files/ecan.c: 131:     RXFBCON1 = 0x00;
  4833  000F8E  0E00               	movlw	0
  4834  000F90  6F72               	movwf	114,b	;volatile
  4835                           
  4836                           ;mcc_generated_files/ecan.c: 132:     RXFBCON2 = 0x00;
  4837  000F92  0E00               	movlw	0
  4838  000F94  6F73               	movwf	115,b	;volatile
  4839                           
  4840                           ;mcc_generated_files/ecan.c: 133:     RXFBCON3 = 0x00;
  4841  000F96  0E00               	movlw	0
  4842  000F98  6F74               	movwf	116,b	;volatile
  4843                           
  4844                           ;mcc_generated_files/ecan.c: 134:     RXFBCON4 = 0x00;
  4845  000F9A  0E00               	movlw	0
  4846  000F9C  6F75               	movwf	117,b	;volatile
  4847                           
  4848                           ;mcc_generated_files/ecan.c: 135:     RXFBCON5 = 0x00;
  4849  000F9E  0E00               	movlw	0
  4850  000FA0  6F76               	movwf	118,b	;volatile
  4851                           
  4852                           ;mcc_generated_files/ecan.c: 136:     RXFBCON6 = 0x00;
  4853  000FA2  0E00               	movlw	0
  4854  000FA4  6F77               	movwf	119,b	;volatile
  4855                           
  4856                           ;mcc_generated_files/ecan.c: 137:     RXFBCON7 = 0x00;
  4857  000FA6  0E00               	movlw	0
  4858  000FA8  6F78               	movwf	120,b	;volatile
  4859                           
  4860                           ;mcc_generated_files/ecan.c: 142:     RXF0EIDH = 0x02;
  4861  000FAA  0E02               	movlw	2
  4862  000FAC  6FE2               	movwf	226,b	;volatile
  4863                           
  4864                           ;mcc_generated_files/ecan.c: 143:     RXF0EIDL = 0x25;
  4865  000FAE  0E25               	movlw	37
  4866  000FB0  6FE3               	movwf	227,b	;volatile
  4867                           
  4868                           ;mcc_generated_files/ecan.c: 144:     RXF0SIDH = 0x44;
  4869  000FB2  0E44               	movlw	68
  4870  000FB4  6FE0               	movwf	224,b	;volatile
  4871                           
  4872                           ;mcc_generated_files/ecan.c: 145:     RXF0SIDL = 0xA9;
  4873  000FB6  0EA9               	movlw	169
  4874  000FB8  6FE1               	movwf	225,b	;volatile
  4875                           
  4876                           ;mcc_generated_files/ecan.c: 146:     RXF1EIDH = 0x00;
  4877  000FBA  0E00               	movlw	0
  4878  000FBC  6FE6               	movwf	230,b	;volatile
  4879                           
  4880                           ;mcc_generated_files/ecan.c: 147:     RXF1EIDL = 0x00;
  4881  000FBE  0E00               	movlw	0
  4882  000FC0  6FE7               	movwf	231,b	;volatile
  4883                           
  4884                           ;mcc_generated_files/ecan.c: 148:     RXF1SIDH = 0x00;
  4885  000FC2  0E00               	movlw	0
  4886  000FC4  6FE4               	movwf	228,b	;volatile
  4887                           
  4888                           ;mcc_generated_files/ecan.c: 149:     RXF1SIDL = 0x00;
  4889  000FC6  0E00               	movlw	0
  4890  000FC8  6FE5               	movwf	229,b	;volatile
  4891                           
  4892                           ;mcc_generated_files/ecan.c: 150:     RXF2EIDH = 0x00;
  4893  000FCA  0E00               	movlw	0
  4894  000FCC  6FEA               	movwf	234,b	;volatile
  4895                           
  4896                           ;mcc_generated_files/ecan.c: 151:     RXF2EIDL = 0x00;
  4897  000FCE  0E00               	movlw	0
  4898  000FD0  6FEB               	movwf	235,b	;volatile
  4899                           
  4900                           ;mcc_generated_files/ecan.c: 152:     RXF2SIDH = 0x00;
  4901  000FD2  0E00               	movlw	0
  4902  000FD4  6FE8               	movwf	232,b	;volatile
  4903                           
  4904                           ;mcc_generated_files/ecan.c: 153:     RXF2SIDL = 0x00;
  4905  000FD6  0E00               	movlw	0
  4906  000FD8  6FE9               	movwf	233,b	;volatile
  4907                           
  4908                           ;mcc_generated_files/ecan.c: 154:     RXF3EIDH = 0x00;
  4909  000FDA  0E00               	movlw	0
  4910  000FDC  6FEE               	movwf	238,b	;volatile
  4911                           
  4912                           ;mcc_generated_files/ecan.c: 155:     RXF3EIDL = 0x00;
  4913  000FDE  0E00               	movlw	0
  4914  000FE0  6FEF               	movwf	239,b	;volatile
  4915                           
  4916                           ;mcc_generated_files/ecan.c: 156:     RXF3SIDH = 0x00;
  4917  000FE2  0E00               	movlw	0
  4918  000FE4  6FEC               	movwf	236,b	;volatile
  4919                           
  4920                           ;mcc_generated_files/ecan.c: 157:     RXF3SIDL = 0x00;
  4921  000FE6  0E00               	movlw	0
  4922  000FE8  6FED               	movwf	237,b	;volatile
  4923                           
  4924                           ;mcc_generated_files/ecan.c: 158:     RXF4EIDH = 0x00;
  4925  000FEA  0E00               	movlw	0
  4926  000FEC  6FF2               	movwf	242,b	;volatile
  4927                           
  4928                           ;mcc_generated_files/ecan.c: 159:     RXF4EIDL = 0x00;
  4929  000FEE  0E00               	movlw	0
  4930  000FF0  6FF3               	movwf	243,b	;volatile
  4931                           
  4932                           ;mcc_generated_files/ecan.c: 160:     RXF4SIDH = 0x00;
  4933  000FF2  0E00               	movlw	0
  4934  000FF4  6FF0               	movwf	240,b	;volatile
  4935                           
  4936                           ;mcc_generated_files/ecan.c: 161:     RXF4SIDL = 0x00;
  4937  000FF6  0E00               	movlw	0
  4938  000FF8  6FF1               	movwf	241,b	;volatile
  4939                           
  4940                           ;mcc_generated_files/ecan.c: 162:     RXF5EIDH = 0x00;
  4941  000FFA  0E00               	movlw	0
  4942  000FFC  6FF6               	movwf	246,b	;volatile
  4943                           
  4944                           ;mcc_generated_files/ecan.c: 163:     RXF5EIDL = 0x00;
  4945  000FFE  0E00               	movlw	0
  4946  001000  6FF7               	movwf	247,b	;volatile
  4947                           
  4948                           ;mcc_generated_files/ecan.c: 164:     RXF5SIDH = 0x00;
  4949  001002  0E00               	movlw	0
  4950  001004  6FF4               	movwf	244,b	;volatile
  4951                           
  4952                           ;mcc_generated_files/ecan.c: 165:     RXF5SIDL = 0x00;
  4953  001006  0E00               	movlw	0
  4954  001008  6FF5               	movwf	245,b	;volatile
  4955                           
  4956                           ;mcc_generated_files/ecan.c: 167:     RXF6EIDH = 0x00;
  4957  00100A  0E00               	movlw	0
  4958  00100C  6F4A               	movwf	74,b	;volatile
  4959                           
  4960                           ;mcc_generated_files/ecan.c: 168:     RXF6EIDL = 0x00;
  4961  00100E  0E00               	movlw	0
  4962  001010  6F4B               	movwf	75,b	;volatile
  4963                           
  4964                           ;mcc_generated_files/ecan.c: 169:     RXF6SIDH = 0x00;
  4965  001012  0E00               	movlw	0
  4966  001014  6F48               	movwf	72,b	;volatile
  4967                           
  4968                           ;mcc_generated_files/ecan.c: 170:     RXF6SIDL = 0x00;
  4969  001016  0E00               	movlw	0
  4970  001018  6F49               	movwf	73,b	;volatile
  4971                           
  4972                           ;mcc_generated_files/ecan.c: 171:     RXF7EIDH = 0x00;
  4973  00101A  0E00               	movlw	0
  4974  00101C  6F4E               	movwf	78,b	;volatile
  4975                           
  4976                           ;mcc_generated_files/ecan.c: 172:     RXF7EIDL = 0x00;
  4977  00101E  0E00               	movlw	0
  4978  001020  6F4F               	movwf	79,b	;volatile
  4979                           
  4980                           ;mcc_generated_files/ecan.c: 173:     RXF7SIDH = 0x00;
  4981  001022  0E00               	movlw	0
  4982  001024  6F4C               	movwf	76,b	;volatile
  4983                           
  4984                           ;mcc_generated_files/ecan.c: 174:     RXF7SIDL = 0x00;
  4985  001026  0E00               	movlw	0
  4986  001028  6F4D               	movwf	77,b	;volatile
  4987                           
  4988                           ;mcc_generated_files/ecan.c: 175:     RXF8EIDH = 0x00;
  4989  00102A  0E00               	movlw	0
  4990  00102C  6F52               	movwf	82,b	;volatile
  4991                           
  4992                           ;mcc_generated_files/ecan.c: 176:     RXF8EIDL = 0x00;
  4993  00102E  0E00               	movlw	0
  4994  001030  6F53               	movwf	83,b	;volatile
  4995                           
  4996                           ;mcc_generated_files/ecan.c: 177:     RXF8SIDH = 0x00;
  4997  001032  0E00               	movlw	0
  4998  001034  6F50               	movwf	80,b	;volatile
  4999                           
  5000                           ;mcc_generated_files/ecan.c: 178:     RXF8SIDL = 0x00;
  5001  001036  0E00               	movlw	0
  5002  001038  6F51               	movwf	81,b	;volatile
  5003                           
  5004                           ;mcc_generated_files/ecan.c: 179:     RXF9EIDH = 0x00;
  5005  00103A  0E00               	movlw	0
  5006  00103C  6F56               	movwf	86,b	;volatile
  5007                           
  5008                           ;mcc_generated_files/ecan.c: 180:     RXF9EIDL = 0x00;
  5009  00103E  0E00               	movlw	0
  5010  001040  6F57               	movwf	87,b	;volatile
  5011                           
  5012                           ;mcc_generated_files/ecan.c: 181:     RXF9SIDH = 0x00;
  5013  001042  0E00               	movlw	0
  5014  001044  6F54               	movwf	84,b	;volatile
  5015                           
  5016                           ;mcc_generated_files/ecan.c: 182:     RXF9SIDL = 0x00;
  5017  001046  0E00               	movlw	0
  5018  001048  6F55               	movwf	85,b	;volatile
  5019                           
  5020                           ;mcc_generated_files/ecan.c: 183:     RXF10EIDH = 0x00;
  5021  00104A  0E00               	movlw	0
  5022  00104C  6F5A               	movwf	90,b	;volatile
  5023                           
  5024                           ;mcc_generated_files/ecan.c: 184:     RXF10EIDL = 0x00;
  5025  00104E  0E00               	movlw	0
  5026  001050  6F5B               	movwf	91,b	;volatile
  5027                           
  5028                           ;mcc_generated_files/ecan.c: 185:     RXF10SIDH = 0x00;
  5029  001052  0E00               	movlw	0
  5030  001054  6F58               	movwf	88,b	;volatile
  5031                           
  5032                           ;mcc_generated_files/ecan.c: 186:     RXF10SIDL = 0x00;
  5033  001056  0E00               	movlw	0
  5034  001058  6F59               	movwf	89,b	;volatile
  5035                           
  5036                           ;mcc_generated_files/ecan.c: 187:     RXF11EIDH = 0x00;
  5037  00105A  0E00               	movlw	0
  5038  00105C  6F5E               	movwf	94,b	;volatile
  5039                           
  5040                           ;mcc_generated_files/ecan.c: 188:     RXF11EIDL = 0x00;
  5041  00105E  0E00               	movlw	0
  5042  001060  6F5F               	movwf	95,b	;volatile
  5043                           
  5044                           ;mcc_generated_files/ecan.c: 189:     RXF11SIDH = 0x00;
  5045  001062  0E00               	movlw	0
  5046  001064  6F5C               	movwf	92,b	;volatile
  5047                           
  5048                           ;mcc_generated_files/ecan.c: 190:     RXF11SIDL = 0x00;
  5049  001066  0E00               	movlw	0
  5050  001068  6F5D               	movwf	93,b	;volatile
  5051                           
  5052                           ;mcc_generated_files/ecan.c: 191:     RXF12EIDH = 0x00;
  5053  00106A  0E00               	movlw	0
  5054  00106C  6F62               	movwf	98,b	;volatile
  5055                           
  5056                           ;mcc_generated_files/ecan.c: 192:     RXF12EIDL = 0x00;
  5057  00106E  0E00               	movlw	0
  5058  001070  6F63               	movwf	99,b	;volatile
  5059                           
  5060                           ;mcc_generated_files/ecan.c: 193:     RXF12SIDH = 0x00;
  5061  001072  0E00               	movlw	0
  5062  001074  6F60               	movwf	96,b	;volatile
  5063                           
  5064                           ;mcc_generated_files/ecan.c: 194:     RXF12SIDL = 0x00;
  5065  001076  0E00               	movlw	0
  5066  001078  6F61               	movwf	97,b	;volatile
  5067                           
  5068                           ;mcc_generated_files/ecan.c: 195:     RXF13EIDH = 0x00;
  5069  00107A  0E00               	movlw	0
  5070  00107C  6F66               	movwf	102,b	;volatile
  5071                           
  5072                           ;mcc_generated_files/ecan.c: 196:     RXF13EIDL = 0x00;
  5073  00107E  0E00               	movlw	0
  5074  001080  6F67               	movwf	103,b	;volatile
  5075                           
  5076                           ;mcc_generated_files/ecan.c: 197:     RXF13SIDH = 0x00;
  5077  001082  0E00               	movlw	0
  5078  001084  6F64               	movwf	100,b	;volatile
  5079                           
  5080                           ;mcc_generated_files/ecan.c: 198:     RXF13SIDL = 0x00;
  5081  001086  0E00               	movlw	0
  5082  001088  6F65               	movwf	101,b	;volatile
  5083                           
  5084                           ;mcc_generated_files/ecan.c: 199:     RXF14EIDH = 0x00;
  5085  00108A  0E00               	movlw	0
  5086  00108C  6F6A               	movwf	106,b	;volatile
  5087                           
  5088                           ;mcc_generated_files/ecan.c: 200:     RXF14EIDL = 0x00;
  5089  00108E  0E00               	movlw	0
  5090  001090  6F6B               	movwf	107,b	;volatile
  5091                           
  5092                           ;mcc_generated_files/ecan.c: 201:     RXF14SIDH = 0x00;
  5093  001092  0E00               	movlw	0
  5094  001094  6F68               	movwf	104,b	;volatile
  5095                           
  5096                           ;mcc_generated_files/ecan.c: 202:     RXF14SIDL = 0x00;
  5097  001096  0E00               	movlw	0
  5098  001098  6F69               	movwf	105,b	;volatile
  5099  00109A                     
  5100                           ; BSR set to: 14
  5101                           ;mcc_generated_files/ecan.c: 203:     RXF15EIDH = 0xFF;
  5102  00109A  696E               	setf	110,b	;volatile
  5103  00109C                     
  5104                           ; BSR set to: 14
  5105                           ;mcc_generated_files/ecan.c: 204:     RXF15EIDL = 0xFF;
  5106  00109C  696F               	setf	111,b	;volatile
  5107  00109E                     
  5108                           ; BSR set to: 14
  5109                           ;mcc_generated_files/ecan.c: 205:     RXF15SIDH = 0xFF;
  5110  00109E  696C               	setf	108,b	;volatile
  5111                           
  5112                           ;mcc_generated_files/ecan.c: 206:     RXF15SIDL = 0xE3;
  5113  0010A0  0EE3               	movlw	227
  5114  0010A2  6F6D               	movwf	109,b	;volatile
  5115                           
  5116                           ;mcc_generated_files/ecan.c: 221:     BRGCON1 = 0x03;
  5117  0010A4  0E03               	movlw	3
  5118  0010A6  6F43               	movwf	67,b	;volatile
  5119                           
  5120                           ;mcc_generated_files/ecan.c: 222:     BRGCON2 = 0xA8;
  5121  0010A8  0EA8               	movlw	168
  5122  0010AA  6F44               	movwf	68,b	;volatile
  5123                           
  5124                           ;mcc_generated_files/ecan.c: 223:     BRGCON3 = 0x01;
  5125  0010AC  0E01               	movlw	1
  5126  0010AE  6F45               	movwf	69,b	;volatile
  5127  0010B0                     
  5128                           ; BSR set to: 14
  5129                           ;mcc_generated_files/ecan.c: 225:     ECAN_SetWakeUpInterruptHandler(WakeUpDefaultInterr
      +                          uptHandler);
  5130  0010B0  0ECC               	movlw	low _WakeUpDefaultInterruptHandler
  5131  0010B2  6E03               	movwf	ECAN_SetWakeUpInterruptHandler@handler^0,c
  5132  0010B4  0E1C               	movlw	high _WakeUpDefaultInterruptHandler
  5133  0010B6  6E04               	movwf	(ECAN_SetWakeUpInterruptHandler@handler+1)^0,c
  5134  0010B8  EC5D  F00E         	call	_ECAN_SetWakeUpInterruptHandler	;wreg free
  5135  0010BC                     
  5136                           ;mcc_generated_files/ecan.c: 226:     PIR5bits.WAKIF = 0;
  5137  0010BC  9C77               	bcf	119,6,c	;volatile
  5138  0010BE                     
  5139                           ;mcc_generated_files/ecan.c: 227:     PIE5bits.WAKIE = 1;
  5140  0010BE  8C76               	bsf	118,6,c	;volatile
  5141  0010C0                     
  5142                           ;mcc_generated_files/ecan.c: 229:     CANCON = 0x00;
  5143  0010C0  0E00               	movlw	0
  5144  0010C2  6E6F               	movwf	111,c	;volatile
  5145  0010C4                     l3715:
  5146  0010C4  CF6E F005          	movff	3950,??_ECAN_Initialize	;volatile
  5147  0010C8  0EE0               	movlw	224
  5148  0010CA  1605               	andwf	??_ECAN_Initialize^0,f,c
  5149  0010CC  A4D8               	btfss	status,2,c
  5150  0010CE  EF6B  F008         	goto	u2631
  5151  0010D2  EF6D  F008         	goto	u2630
  5152  0010D6                     u2631:
  5153  0010D6  EF62  F008         	goto	l3715
  5154  0010DA                     u2630:
  5155  0010DA  0012               	return		;funcret
  5156  0010DC                     __end_of_ECAN_Initialize:
  5157                           	callstack 0
  5158                           
  5159 ;; *************** function _ECAN_SetWakeUpInterruptHandler *****************
  5160 ;; Defined at:
  5161 ;;		line 506 in file "mcc_generated_files/ecan.c"
  5162 ;; Parameters:    Size  Location     Type
  5163 ;;  handler         2    2[COMRAM] PTR FTN()void 
  5164 ;;		 -> WakeUpDefaultInterruptHandler(1), 
  5165 ;; Auto vars:     Size  Location     Type
  5166 ;;		None
  5167 ;; Return value:  Size  Location     Type
  5168 ;;                  1    wreg      void 
  5169 ;; Registers used:
  5170 ;;		wreg, status,2, status,0
  5171 ;; Tracked objects:
  5172 ;;		On entry : 0/0
  5173 ;;		On exit  : 0/0
  5174 ;;		Unchanged: 0/0
  5175 ;; Data sizes:     COMRAM   BANK0   BANK1   BANK2   BANK3   BANK4   BANK5   BANK6   BANK7   BANK8   BANK9  BANK10  BANK1
      +1  BANK12  BANK13  BANK14
  5176 ;;      Params:         2       0       0       0       0       0       0       0       0       0       0       0       
      +0       0       0       0
  5177 ;;      Locals:         0       0       0       0       0       0       0       0       0       0       0       0       
      +0       0       0       0
  5178 ;;      Temps:          0       0       0       0       0       0       0       0       0       0       0       0       
      +0       0       0       0
  5179 ;;      Totals:         2       0       0       0       0       0       0       0       0       0       0       0       
      +0       0       0       0
  5180 ;;Total ram usage:        2 bytes
  5181 ;; Hardware stack levels used: 1
  5182 ;; Hardware stack levels required when called: 3
  5183 ;; This function calls:
  5184 ;;		Nothing
  5185 ;; This function is called by:
  5186 ;;		_ECAN_Initialize
  5187 ;; This function uses a non-reentrant model
  5188 ;;
  5189                           
  5190                           	psect	text27
  5191  001CBA                     __ptext27:
  5192                           	callstack 0
  5193  001CBA                     _ECAN_SetWakeUpInterruptHandler:
  5194                           	callstack 25
  5195  001CBA                     
  5196                           ;mcc_generated_files/ecan.c: 506: void ECAN_SetWakeUpInterruptHandler(void (*handler)(vo
      +                          id));mcc_generated_files/ecan.c: 507: {;mcc_generated_files/ecan.c: 508:     WakeUpInter
      +                          ruptHandler = handler;
  5197  001CBA  C003  F049         	movff	ECAN_SetWakeUpInterruptHandler@handler,_WakeUpInterruptHandler
  5198  001CBE  C004  F04A         	movff	ECAN_SetWakeUpInterruptHandler@handler+1,_WakeUpInterruptHandler+1
  5199  001CC2  0012               	return		;funcret
  5200  001CC4                     __end_of_ECAN_SetWakeUpInterruptHandler:
  5201                           	callstack 0
  5202                           
  5203 ;; *************** function _ADC_Initialize *****************
  5204 ;; Defined at:
  5205 ;;		line 62 in file "mcc_generated_files/adc.c"
  5206 ;; Parameters:    Size  Location     Type
  5207 ;;		None
  5208 ;; Auto vars:     Size  Location     Type
  5209 ;;		None
  5210 ;; Return value:  Size  Location     Type
  5211 ;;                  1    wreg      void 
  5212 ;; Registers used:
  5213 ;;		wreg, status,2
  5214 ;; Tracked objects:
  5215 ;;		On entry : 0/0
  5216 ;;		On exit  : 0/0
  5217 ;;		Unchanged: 0/0
  5218 ;; Data sizes:     COMRAM   BANK0   BANK1   BANK2   BANK3   BANK4   BANK5   BANK6   BANK7   BANK8   BANK9  BANK10  BANK1
      +1  BANK12  BANK13  BANK14
  5219 ;;      Params:         0       0       0       0       0       0       0       0       0       0       0       0       
      +0       0       0       0
  5220 ;;      Locals:         0       0       0       0       0       0       0       0       0       0       0       0       
      +0       0       0       0
  5221 ;;      Temps:          0       0       0       0       0       0       0       0       0       0       0       0       
      +0       0       0       0
  5222 ;;      Totals:         0       0       0       0       0       0       0       0       0       0       0       0       
      +0       0       0       0
  5223 ;;Total ram usage:        0 bytes
  5224 ;; Hardware stack levels used: 1
  5225 ;; Hardware stack levels required when called: 3
  5226 ;; This function calls:
  5227 ;;		Nothing
  5228 ;; This function is called by:
  5229 ;;		_SYSTEM_Initialize
  5230 ;; This function uses a non-reentrant model
  5231 ;;
  5232                           
  5233                           	psect	text28
  5234  001C64                     __ptext28:
  5235                           	callstack 0
  5236  001C64                     _ADC_Initialize:
  5237                           	callstack 26
  5238  001C64                     
  5239                           ;mcc_generated_files/adc.c: 67:     ADCON0 = 0x01;
  5240  001C64  0E01               	movlw	1
  5241  001C66  6EC2               	movwf	194,c	;volatile
  5242                           
  5243                           ;mcc_generated_files/adc.c: 70:     ADCON1 = 0x00;
  5244  001C68  0E00               	movlw	0
  5245  001C6A  6EC1               	movwf	193,c	;volatile
  5246                           
  5247                           ;mcc_generated_files/adc.c: 73:     ADCON2 = 0x88;
  5248  001C6C  0E88               	movlw	136
  5249  001C6E  6EC0               	movwf	192,c	;volatile
  5250                           
  5251                           ;mcc_generated_files/adc.c: 76:     ADRESH = 0x00;
  5252  001C70  0E00               	movlw	0
  5253  001C72  6EC4               	movwf	196,c	;volatile
  5254                           
  5255                           ;mcc_generated_files/adc.c: 79:     ADRESL = 0x00;
  5256  001C74  0E00               	movlw	0
  5257  001C76  6EC3               	movwf	195,c	;volatile
  5258  001C78  0012               	return		;funcret
  5259  001C7A                     __end_of_ADC_Initialize:
  5260                           	callstack 0
  5261                           
  5262 ;; *************** function _CAN_receive *****************
  5263 ;; Defined at:
  5264 ;;		line 321 in file "mcc_generated_files/ecan.c"
  5265 ;; Parameters:    Size  Location     Type
  5266 ;;  tempCanMsg      2   21[COMRAM] PTR struct .
  5267 ;;		 -> rx(14), 
  5268 ;; Auto vars:     Size  Location     Type
  5269 ;;  returnValue     1   23[COMRAM] unsigned char 
  5270 ;; Return value:  Size  Location     Type
  5271 ;;                  1    wreg      unsigned char 
  5272 ;; Registers used:
  5273 ;;		wreg, fsr2l, fsr2h, status,2, status,0, cstack
  5274 ;; Tracked objects:
  5275 ;;		On entry : 0/0
  5276 ;;		On exit  : 0/0
  5277 ;;		Unchanged: 0/0
  5278 ;; Data sizes:     COMRAM   BANK0   BANK1   BANK2   BANK3   BANK4   BANK5   BANK6   BANK7   BANK8   BANK9  BANK10  BANK1
      +1  BANK12  BANK13  BANK14
  5279 ;;      Params:         2       0       0       0       0       0       0       0       0       0       0       0       
      +0       0       0       0
  5280 ;;      Locals:         1       0       0       0       0       0       0       0       0       0       0       0       
      +0       0       0       0
  5281 ;;      Temps:          0       0       0       0       0       0       0       0       0       0       0       0       
      +0       0       0       0
  5282 ;;      Totals:         3       0       0       0       0       0       0       0       0       0       0       0       
      +0       0       0       0
  5283 ;;Total ram usage:        3 bytes
  5284 ;; Hardware stack levels used: 1
  5285 ;; Hardware stack levels required when called: 4
  5286 ;; This function calls:
  5287 ;;		_convertReg2ExtendedCANid
  5288 ;;		_convertReg2StandardCANid
  5289 ;; This function is called by:
  5290 ;;		_main
  5291 ;; This function uses a non-reentrant model
  5292 ;;
  5293                           
  5294                           	psect	text29
  5295  000B2E                     __ptext29:
  5296                           	callstack 0
  5297  000B2E                     _CAN_receive:
  5298                           	callstack 26
  5299  000B2E                     
  5300                           ;mcc_generated_files/ecan.c: 321: uint8_t CAN_receive(uCAN_MSG *tempCanMsg);mcc_generate
      +                          d_files/ecan.c: 322: {;mcc_generated_files/ecan.c: 323:     uint8_t returnValue = 0;
  5301  000B2E  0E00               	movlw	0
  5302  000B30  6E18               	movwf	CAN_receive@returnValue^0,c
  5303  000B32                     
  5304                           ;mcc_generated_files/ecan.c: 326:     if (RXB0CONbits.RXFUL != 0)
  5305  000B32  AE60               	btfss	96,7,c	;volatile
  5306  000B34  EF9E  F005         	goto	u2681
  5307  000B38  EFA0  F005         	goto	u2680
  5308  000B3C                     u2681:
  5309  000B3C  EF2C  F006         	goto	l433
  5310  000B40                     u2680:
  5311  000B40                     
  5312                           ;mcc_generated_files/ecan.c: 327:     {;mcc_generated_files/ecan.c: 328:         if ((RX
      +                          B0SIDL & 0x08) == 0x08)
  5313  000B40  A662               	btfss	98,3,c	;volatile
  5314  000B42  EFA5  F005         	goto	u2691
  5315  000B46  EFA7  F005         	goto	u2690
  5316  000B4A                     u2691:
  5317  000B4A  EFC6  F005         	goto	l3865
  5318  000B4E                     u2690:
  5319  000B4E                     
  5320                           ;mcc_generated_files/ecan.c: 329:         {;mcc_generated_files/ecan.c: 331:            
      +                           tempCanMsg->frame.idType = (uint8_t) 2;
  5321  000B4E  C016  FFD9         	movff	CAN_receive@tempCanMsg,fsr2l
  5322  000B52  C017  FFDA         	movff	CAN_receive@tempCanMsg+1,fsr2h
  5323  000B56  0E02               	movlw	2
  5324  000B58  6EDF               	movwf	indf2,c
  5325  000B5A                     
  5326                           ;mcc_generated_files/ecan.c: 332:             tempCanMsg->frame.id = convertReg2Extended
      +                          CANid(RXB0EIDH, RXB0EIDL, RXB0SIDH, RXB0SIDL);
  5327  000B5A  CF64 F003          	movff	3940,convertReg2ExtendedCANid@tempRXBn_EIDL	;volatile
  5328  000B5E  CF61 F004          	movff	3937,convertReg2ExtendedCANid@tempRXBn_SIDH	;volatile
  5329  000B62  CF62 F005          	movff	3938,convertReg2ExtendedCANid@tempRXBn_SIDL	;volatile
  5330  000B66  5063               	movf	99,w,c	;volatile
  5331  000B68  EC68  F00A         	call	_convertReg2ExtendedCANid
  5332  000B6C  EE20 F001          	lfsr	2,1
  5333  000B70  5016               	movf	CAN_receive@tempCanMsg^0,w,c
  5334  000B72  26D9               	addwf	fsr2l,f,c
  5335  000B74  5017               	movf	(CAN_receive@tempCanMsg+1)^0,w,c
  5336  000B76  22DA               	addwfc	fsr2h,f,c
  5337  000B78  C003  FFDE         	movff	?_convertReg2ExtendedCANid,postinc2
  5338  000B7C  C004  FFDE         	movff	?_convertReg2ExtendedCANid+1,postinc2
  5339  000B80  C005  FFDE         	movff	?_convertReg2ExtendedCANid+2,postinc2
  5340  000B84  C006  FFDE         	movff	?_convertReg2ExtendedCANid+3,postinc2
  5341                           
  5342                           ;mcc_generated_files/ecan.c: 333:         }
  5343  000B88  EFDF  F005         	goto	l3869
  5344  000B8C                     l3865:
  5345                           
  5346                           ;mcc_generated_files/ecan.c: 335:         {;mcc_generated_files/ecan.c: 337:            
      +                           tempCanMsg->frame.idType = (uint8_t) 1;
  5347  000B8C  C016  FFD9         	movff	CAN_receive@tempCanMsg,fsr2l
  5348  000B90  C017  FFDA         	movff	CAN_receive@tempCanMsg+1,fsr2h
  5349  000B94  0E01               	movlw	1
  5350  000B96  6EDF               	movwf	indf2,c
  5351  000B98                     
  5352                           ;mcc_generated_files/ecan.c: 338:             tempCanMsg->frame.id = convertReg2Standard
      +                          CANid(RXB0SIDH, RXB0SIDL);
  5353  000B98  CF62 F003          	movff	3938,convertReg2StandardCANid@tempRXBn_SIDL	;volatile
  5354  000B9C  5061               	movf	97,w,c	;volatile
  5355  000B9E  ECE1  F00C         	call	_convertReg2StandardCANid
  5356  000BA2  EE20 F001          	lfsr	2,1
  5357  000BA6  5016               	movf	CAN_receive@tempCanMsg^0,w,c
  5358  000BA8  26D9               	addwf	fsr2l,f,c
  5359  000BAA  5017               	movf	(CAN_receive@tempCanMsg+1)^0,w,c
  5360  000BAC  22DA               	addwfc	fsr2h,f,c
  5361  000BAE  C003  FFDE         	movff	?_convertReg2StandardCANid,postinc2
  5362  000BB2  C004  FFDE         	movff	?_convertReg2StandardCANid+1,postinc2
  5363  000BB6  C005  FFDE         	movff	?_convertReg2StandardCANid+2,postinc2
  5364  000BBA  C006  FFDE         	movff	?_convertReg2StandardCANid+3,postinc2
  5365  000BBE                     l3869:
  5366                           
  5367                           ;mcc_generated_files/ecan.c: 341:         tempCanMsg->frame.dlc = RXB0DLC;
  5368  000BBE  EE20 F005          	lfsr	2,5
  5369  000BC2  5016               	movf	CAN_receive@tempCanMsg^0,w,c
  5370  000BC4  26D9               	addwf	fsr2l,f,c
  5371  000BC6  5017               	movf	(CAN_receive@tempCanMsg+1)^0,w,c
  5372  000BC8  22DA               	addwfc	fsr2h,f,c
  5373  000BCA  CF65 FFDF          	movff	3941,indf2	;volatile
  5374  000BCE                     
  5375                           ;mcc_generated_files/ecan.c: 342:         tempCanMsg->frame.data0 = RXB0D0;
  5376  000BCE  EE20 F006          	lfsr	2,6
  5377  000BD2  5016               	movf	CAN_receive@tempCanMsg^0,w,c
  5378  000BD4  26D9               	addwf	fsr2l,f,c
  5379  000BD6  5017               	movf	(CAN_receive@tempCanMsg+1)^0,w,c
  5380  000BD8  22DA               	addwfc	fsr2h,f,c
  5381  000BDA  CF66 FFDF          	movff	3942,indf2	;volatile
  5382  000BDE                     
  5383                           ;mcc_generated_files/ecan.c: 343:         tempCanMsg->frame.data1 = RXB0D1;
  5384  000BDE  EE20 F007          	lfsr	2,7
  5385  000BE2  5016               	movf	CAN_receive@tempCanMsg^0,w,c
  5386  000BE4  26D9               	addwf	fsr2l,f,c
  5387  000BE6  5017               	movf	(CAN_receive@tempCanMsg+1)^0,w,c
  5388  000BE8  22DA               	addwfc	fsr2h,f,c
  5389  000BEA  CF67 FFDF          	movff	3943,indf2	;volatile
  5390  000BEE                     
  5391                           ;mcc_generated_files/ecan.c: 344:         tempCanMsg->frame.data2 = RXB0D2;
  5392  000BEE  EE20 F008          	lfsr	2,8
  5393  000BF2  5016               	movf	CAN_receive@tempCanMsg^0,w,c
  5394  000BF4  26D9               	addwf	fsr2l,f,c
  5395  000BF6  5017               	movf	(CAN_receive@tempCanMsg+1)^0,w,c
  5396  000BF8  22DA               	addwfc	fsr2h,f,c
  5397  000BFA  CF68 FFDF          	movff	3944,indf2	;volatile
  5398  000BFE                     
  5399                           ;mcc_generated_files/ecan.c: 345:         tempCanMsg->frame.data3 = RXB0D3;
  5400  000BFE  EE20 F009          	lfsr	2,9
  5401  000C02  5016               	movf	CAN_receive@tempCanMsg^0,w,c
  5402  000C04  26D9               	addwf	fsr2l,f,c
  5403  000C06  5017               	movf	(CAN_receive@tempCanMsg+1)^0,w,c
  5404  000C08  22DA               	addwfc	fsr2h,f,c
  5405  000C0A  CF69 FFDF          	movff	3945,indf2	;volatile
  5406  000C0E                     
  5407                           ;mcc_generated_files/ecan.c: 346:         tempCanMsg->frame.data4 = RXB0D4;
  5408  000C0E  EE20 F00A          	lfsr	2,10
  5409  000C12  5016               	movf	CAN_receive@tempCanMsg^0,w,c
  5410  000C14  26D9               	addwf	fsr2l,f,c
  5411  000C16  5017               	movf	(CAN_receive@tempCanMsg+1)^0,w,c
  5412  000C18  22DA               	addwfc	fsr2h,f,c
  5413  000C1A  CF6A FFDF          	movff	3946,indf2	;volatile
  5414  000C1E                     
  5415                           ;mcc_generated_files/ecan.c: 347:         tempCanMsg->frame.data5 = RXB0D5;
  5416  000C1E  EE20 F00B          	lfsr	2,11
  5417  000C22  5016               	movf	CAN_receive@tempCanMsg^0,w,c
  5418  000C24  26D9               	addwf	fsr2l,f,c
  5419  000C26  5017               	movf	(CAN_receive@tempCanMsg+1)^0,w,c
  5420  000C28  22DA               	addwfc	fsr2h,f,c
  5421  000C2A  CF6B FFDF          	movff	3947,indf2	;volatile
  5422  000C2E                     
  5423                           ;mcc_generated_files/ecan.c: 348:         tempCanMsg->frame.data6 = RXB0D6;
  5424  000C2E  EE20 F00C          	lfsr	2,12
  5425  000C32  5016               	movf	CAN_receive@tempCanMsg^0,w,c
  5426  000C34  26D9               	addwf	fsr2l,f,c
  5427  000C36  5017               	movf	(CAN_receive@tempCanMsg+1)^0,w,c
  5428  000C38  22DA               	addwfc	fsr2h,f,c
  5429  000C3A  CF6C FFDF          	movff	3948,indf2	;volatile
  5430  000C3E                     
  5431                           ;mcc_generated_files/ecan.c: 349:         tempCanMsg->frame.data7 = RXB0D7;
  5432  000C3E  EE20 F00D          	lfsr	2,13
  5433  000C42  5016               	movf	CAN_receive@tempCanMsg^0,w,c
  5434  000C44  26D9               	addwf	fsr2l,f,c
  5435  000C46  5017               	movf	(CAN_receive@tempCanMsg+1)^0,w,c
  5436  000C48  22DA               	addwfc	fsr2h,f,c
  5437  000C4A  CF6D FFDF          	movff	3949,indf2	;volatile
  5438  000C4E                     
  5439                           ;mcc_generated_files/ecan.c: 350:         RXB0CONbits.RXFUL = 0;
  5440  000C4E  9E60               	bcf	96,7,c	;volatile
  5441  000C50                     l3889:
  5442                           
  5443                           ;mcc_generated_files/ecan.c: 351:         returnValue = 1;
  5444  000C50  0E01               	movlw	1
  5445  000C52  6E18               	movwf	CAN_receive@returnValue^0,c
  5446                           
  5447                           ;mcc_generated_files/ecan.c: 352:     }
  5448  000C54  EFBF  F006         	goto	l3923
  5449  000C58                     l433:
  5450  000C58  010F               	movlb	15	; () banked
  5451  000C5A  AF30               	btfss	48,7,b	;volatile
  5452  000C5C  EF32  F006         	goto	u2701
  5453  000C60  EF34  F006         	goto	u2700
  5454  000C64                     u2701:
  5455  000C64  EFBF  F006         	goto	l3923
  5456  000C68                     u2700:
  5457  000C68                     
  5458                           ; BSR set to: 15
  5459                           ;mcc_generated_files/ecan.c: 354:     {;mcc_generated_files/ecan.c: 355:         if ((RX
      +                          B1SIDL & 0x08) == 0x08)
  5460  000C68  A732               	btfss	50,3,b	;volatile
  5461  000C6A  EF39  F006         	goto	u2711
  5462  000C6E  EF3B  F006         	goto	u2710
  5463  000C72                     u2711:
  5464  000C72  EF5A  F006         	goto	l3897
  5465  000C76                     u2710:
  5466  000C76                     
  5467                           ; BSR set to: 15
  5468                           ;mcc_generated_files/ecan.c: 356:         {;mcc_generated_files/ecan.c: 358:            
      +                           tempCanMsg->frame.idType = (uint8_t) 2;
  5469  000C76  C016  FFD9         	movff	CAN_receive@tempCanMsg,fsr2l
  5470  000C7A  C017  FFDA         	movff	CAN_receive@tempCanMsg+1,fsr2h
  5471  000C7E  0E02               	movlw	2
  5472  000C80  6EDF               	movwf	indf2,c
  5473  000C82                     
  5474                           ; BSR set to: 15
  5475                           ;mcc_generated_files/ecan.c: 359:             tempCanMsg->frame.id = convertReg2Extended
      +                          CANid(RXB1EIDH, RXB1EIDL, RXB1SIDH, RXB1SIDL);
  5476  000C82  CF34 F003          	movff	3892,convertReg2ExtendedCANid@tempRXBn_EIDL	;volatile
  5477  000C86  CF31 F004          	movff	3889,convertReg2ExtendedCANid@tempRXBn_SIDH	;volatile
  5478  000C8A  CF32 F005          	movff	3890,convertReg2ExtendedCANid@tempRXBn_SIDL	;volatile
  5479  000C8E  5133               	movf	51,w,b	;volatile
  5480  000C90  EC68  F00A         	call	_convertReg2ExtendedCANid
  5481  000C94  EE20 F001          	lfsr	2,1
  5482  000C98  5016               	movf	CAN_receive@tempCanMsg^0,w,c
  5483  000C9A  26D9               	addwf	fsr2l,f,c
  5484  000C9C  5017               	movf	(CAN_receive@tempCanMsg+1)^0,w,c
  5485  000C9E  22DA               	addwfc	fsr2h,f,c
  5486  000CA0  C003  FFDE         	movff	?_convertReg2ExtendedCANid,postinc2
  5487  000CA4  C004  FFDE         	movff	?_convertReg2ExtendedCANid+1,postinc2
  5488  000CA8  C005  FFDE         	movff	?_convertReg2ExtendedCANid+2,postinc2
  5489  000CAC  C006  FFDE         	movff	?_convertReg2ExtendedCANid+3,postinc2
  5490                           
  5491                           ;mcc_generated_files/ecan.c: 360:         }
  5492  000CB0  EF73  F006         	goto	l3901
  5493  000CB4                     l3897:
  5494                           
  5495                           ; BSR set to: 15
  5496                           ;mcc_generated_files/ecan.c: 362:         {;mcc_generated_files/ecan.c: 364:            
      +                           tempCanMsg->frame.idType = (uint8_t) 1;
  5497  000CB4  C016  FFD9         	movff	CAN_receive@tempCanMsg,fsr2l
  5498  000CB8  C017  FFDA         	movff	CAN_receive@tempCanMsg+1,fsr2h
  5499  000CBC  0E01               	movlw	1
  5500  000CBE  6EDF               	movwf	indf2,c
  5501  000CC0                     
  5502                           ; BSR set to: 15
  5503                           ;mcc_generated_files/ecan.c: 365:             tempCanMsg->frame.id = convertReg2Standard
      +                          CANid(RXB1SIDH, RXB1SIDL);
  5504  000CC0  CF32 F003          	movff	3890,convertReg2StandardCANid@tempRXBn_SIDL	;volatile
  5505  000CC4  5131               	movf	49,w,b	;volatile
  5506  000CC6  ECE1  F00C         	call	_convertReg2StandardCANid
  5507  000CCA  EE20 F001          	lfsr	2,1
  5508  000CCE  5016               	movf	CAN_receive@tempCanMsg^0,w,c
  5509  000CD0  26D9               	addwf	fsr2l,f,c
  5510  000CD2  5017               	movf	(CAN_receive@tempCanMsg+1)^0,w,c
  5511  000CD4  22DA               	addwfc	fsr2h,f,c
  5512  000CD6  C003  FFDE         	movff	?_convertReg2StandardCANid,postinc2
  5513  000CDA  C004  FFDE         	movff	?_convertReg2StandardCANid+1,postinc2
  5514  000CDE  C005  FFDE         	movff	?_convertReg2StandardCANid+2,postinc2
  5515  000CE2  C006  FFDE         	movff	?_convertReg2StandardCANid+3,postinc2
  5516  000CE6                     l3901:
  5517                           
  5518                           ;mcc_generated_files/ecan.c: 368:         tempCanMsg->frame.dlc = RXB1DLC;
  5519  000CE6  EE20 F005          	lfsr	2,5
  5520  000CEA  5016               	movf	CAN_receive@tempCanMsg^0,w,c
  5521  000CEC  26D9               	addwf	fsr2l,f,c
  5522  000CEE  5017               	movf	(CAN_receive@tempCanMsg+1)^0,w,c
  5523  000CF0  22DA               	addwfc	fsr2h,f,c
  5524  000CF2  CF35 FFDF          	movff	3893,indf2	;volatile
  5525  000CF6                     
  5526                           ;mcc_generated_files/ecan.c: 369:         tempCanMsg->frame.data0 = RXB1D0;
  5527  000CF6  EE20 F006          	lfsr	2,6
  5528  000CFA  5016               	movf	CAN_receive@tempCanMsg^0,w,c
  5529  000CFC  26D9               	addwf	fsr2l,f,c
  5530  000CFE  5017               	movf	(CAN_receive@tempCanMsg+1)^0,w,c
  5531  000D00  22DA               	addwfc	fsr2h,f,c
  5532  000D02  CF36 FFDF          	movff	3894,indf2	;volatile
  5533  000D06                     
  5534                           ;mcc_generated_files/ecan.c: 370:         tempCanMsg->frame.data1 = RXB1D1;
  5535  000D06  EE20 F007          	lfsr	2,7
  5536  000D0A  5016               	movf	CAN_receive@tempCanMsg^0,w,c
  5537  000D0C  26D9               	addwf	fsr2l,f,c
  5538  000D0E  5017               	movf	(CAN_receive@tempCanMsg+1)^0,w,c
  5539  000D10  22DA               	addwfc	fsr2h,f,c
  5540  000D12  CF37 FFDF          	movff	3895,indf2	;volatile
  5541  000D16                     
  5542                           ;mcc_generated_files/ecan.c: 371:         tempCanMsg->frame.data2 = RXB1D2;
  5543  000D16  EE20 F008          	lfsr	2,8
  5544  000D1A  5016               	movf	CAN_receive@tempCanMsg^0,w,c
  5545  000D1C  26D9               	addwf	fsr2l,f,c
  5546  000D1E  5017               	movf	(CAN_receive@tempCanMsg+1)^0,w,c
  5547  000D20  22DA               	addwfc	fsr2h,f,c
  5548  000D22  CF38 FFDF          	movff	3896,indf2	;volatile
  5549  000D26                     
  5550                           ;mcc_generated_files/ecan.c: 372:         tempCanMsg->frame.data3 = RXB1D3;
  5551  000D26  EE20 F009          	lfsr	2,9
  5552  000D2A  5016               	movf	CAN_receive@tempCanMsg^0,w,c
  5553  000D2C  26D9               	addwf	fsr2l,f,c
  5554  000D2E  5017               	movf	(CAN_receive@tempCanMsg+1)^0,w,c
  5555  000D30  22DA               	addwfc	fsr2h,f,c
  5556  000D32  CF39 FFDF          	movff	3897,indf2	;volatile
  5557  000D36                     
  5558                           ;mcc_generated_files/ecan.c: 373:         tempCanMsg->frame.data4 = RXB1D4;
  5559  000D36  EE20 F00A          	lfsr	2,10
  5560  000D3A  5016               	movf	CAN_receive@tempCanMsg^0,w,c
  5561  000D3C  26D9               	addwf	fsr2l,f,c
  5562  000D3E  5017               	movf	(CAN_receive@tempCanMsg+1)^0,w,c
  5563  000D40  22DA               	addwfc	fsr2h,f,c
  5564  000D42  CF3A FFDF          	movff	3898,indf2	;volatile
  5565  000D46                     
  5566                           ;mcc_generated_files/ecan.c: 374:         tempCanMsg->frame.data5 = RXB1D5;
  5567  000D46  EE20 F00B          	lfsr	2,11
  5568  000D4A  5016               	movf	CAN_receive@tempCanMsg^0,w,c
  5569  000D4C  26D9               	addwf	fsr2l,f,c
  5570  000D4E  5017               	movf	(CAN_receive@tempCanMsg+1)^0,w,c
  5571  000D50  22DA               	addwfc	fsr2h,f,c
  5572  000D52  CF3B FFDF          	movff	3899,indf2	;volatile
  5573  000D56                     
  5574                           ;mcc_generated_files/ecan.c: 375:         tempCanMsg->frame.data6 = RXB1D6;
  5575  000D56  EE20 F00C          	lfsr	2,12
  5576  000D5A  5016               	movf	CAN_receive@tempCanMsg^0,w,c
  5577  000D5C  26D9               	addwf	fsr2l,f,c
  5578  000D5E  5017               	movf	(CAN_receive@tempCanMsg+1)^0,w,c
  5579  000D60  22DA               	addwfc	fsr2h,f,c
  5580  000D62  CF3C FFDF          	movff	3900,indf2	;volatile
  5581  000D66                     
  5582                           ;mcc_generated_files/ecan.c: 376:         tempCanMsg->frame.data7 = RXB1D7;
  5583  000D66  EE20 F00D          	lfsr	2,13
  5584  000D6A  5016               	movf	CAN_receive@tempCanMsg^0,w,c
  5585  000D6C  26D9               	addwf	fsr2l,f,c
  5586  000D6E  5017               	movf	(CAN_receive@tempCanMsg+1)^0,w,c
  5587  000D70  22DA               	addwfc	fsr2h,f,c
  5588  000D72  CF3D FFDF          	movff	3901,indf2	;volatile
  5589  000D76                     
  5590                           ;mcc_generated_files/ecan.c: 377:         RXB1CONbits.RXFUL = 0;
  5591  000D76  010F               	movlb	15	; () banked
  5592  000D78  9F30               	bcf	48,7,b	;volatile
  5593  000D7A  EF28  F006         	goto	l3889
  5594  000D7E                     l3923:
  5595                           
  5596                           ;mcc_generated_files/ecan.c: 380:     return (returnValue);
  5597  000D7E  5018               	movf	CAN_receive@returnValue^0,w,c
  5598  000D80  0012               	return		;funcret
  5599  000D82                     __end_of_CAN_receive:
  5600                           	callstack 0
  5601                           
  5602 ;; *************** function _convertReg2StandardCANid *****************
  5603 ;; Defined at:
  5604 ;;		line 459 in file "mcc_generated_files/ecan.c"
  5605 ;; Parameters:    Size  Location     Type
  5606 ;;  tempRXBn_SID    1    wreg     unsigned char 
  5607 ;;  tempRXBn_SID    1    2[COMRAM] unsigned char 
  5608 ;; Auto vars:     Size  Location     Type
  5609 ;;  tempRXBn_SID    1    8[COMRAM] unsigned char 
  5610 ;;  ConvertedID     4   13[COMRAM] unsigned long 
  5611 ;;  returnValue     4    9[COMRAM] unsigned long 
  5612 ;; Return value:  Size  Location     Type
  5613 ;;                  4    2[COMRAM] unsigned long 
  5614 ;; Registers used:
  5615 ;;		wreg, status,2, status,0
  5616 ;; Tracked objects:
  5617 ;;		On entry : 0/0
  5618 ;;		On exit  : 0/0
  5619 ;;		Unchanged: 0/0
  5620 ;; Data sizes:     COMRAM   BANK0   BANK1   BANK2   BANK3   BANK4   BANK5   BANK6   BANK7   BANK8   BANK9  BANK10  BANK1
      +1  BANK12  BANK13  BANK14
  5621 ;;      Params:         4       0       0       0       0       0       0       0       0       0       0       0       
      +0       0       0       0
  5622 ;;      Locals:         9       0       0       0       0       0       0       0       0       0       0       0       
      +0       0       0       0
  5623 ;;      Temps:          2       0       0       0       0       0       0       0       0       0       0       0       
      +0       0       0       0
  5624 ;;      Totals:        15       0       0       0       0       0       0       0       0       0       0       0       
      +0       0       0       0
  5625 ;;Total ram usage:       15 bytes
  5626 ;; Hardware stack levels used: 1
  5627 ;; Hardware stack levels required when called: 3
  5628 ;; This function calls:
  5629 ;;		Nothing
  5630 ;; This function is called by:
  5631 ;;		_CAN_receive
  5632 ;; This function uses a non-reentrant model
  5633 ;;
  5634                           
  5635                           	psect	text30
  5636  0019C2                     __ptext30:
  5637                           	callstack 0
  5638  0019C2                     _convertReg2StandardCANid:
  5639                           	callstack 26
  5640                           
  5641                           ;incstack = 0
  5642                           ;convertReg2StandardCANid@tempRXBn_SIDH stored from wreg
  5643  0019C2  6E09               	movwf	convertReg2StandardCANid@tempRXBn_SIDH^0,c
  5644  0019C4                     
  5645                           ;mcc_generated_files/ecan.c: 461:     uint32_t ConvertedID;;mcc_generated_files/ecan.c: 
      +                          465:     ConvertedID = (uint32_t)(tempRXBn_SIDH << 3);
  5646  0019C4  5009               	movf	convertReg2StandardCANid@tempRXBn_SIDH^0,w,c
  5647  0019C6  6E07               	movwf	??_convertReg2StandardCANid^0,c
  5648  0019C8  6A08               	clrf	(??_convertReg2StandardCANid+1)^0,c
  5649  0019CA  90D8               	bcf	status,0,c
  5650  0019CC  3607               	rlcf	??_convertReg2StandardCANid^0,f,c
  5651  0019CE  3608               	rlcf	(??_convertReg2StandardCANid+1)^0,f,c
  5652  0019D0  90D8               	bcf	status,0,c
  5653  0019D2  3607               	rlcf	??_convertReg2StandardCANid^0,f,c
  5654  0019D4  3608               	rlcf	(??_convertReg2StandardCANid+1)^0,f,c
  5655  0019D6  90D8               	bcf	status,0,c
  5656  0019D8  3607               	rlcf	??_convertReg2StandardCANid^0,f,c
  5657  0019DA  3608               	rlcf	(??_convertReg2StandardCANid+1)^0,f,c
  5658  0019DC  C007  F00E         	movff	??_convertReg2StandardCANid,convertReg2StandardCANid@ConvertedID
  5659  0019E0  C008  F00F         	movff	??_convertReg2StandardCANid+1,convertReg2StandardCANid@ConvertedID+1
  5660  0019E4  0E00               	movlw	0
  5661  0019E6  BE0F               	btfsc	(convertReg2StandardCANid@ConvertedID+1)^0,7,c
  5662  0019E8  0EFF               	movlw	-1
  5663  0019EA  6E10               	movwf	(convertReg2StandardCANid@ConvertedID+2)^0,c
  5664  0019EC  6E11               	movwf	(convertReg2StandardCANid@ConvertedID+3)^0,c
  5665  0019EE                     
  5666                           ;mcc_generated_files/ecan.c: 466:     ConvertedID = ConvertedID + (uint32_t)(tempRXBn_SI
      +                          DL >> 5);
  5667  0019EE  C003  F007         	movff	convertReg2StandardCANid@tempRXBn_SIDL,??_convertReg2StandardCANid
  5668  0019F2  0E05               	movlw	5
  5669  0019F4  6E08               	movwf	(??_convertReg2StandardCANid+1)^0,c
  5670  0019F6                     u2655:
  5671  0019F6  90D8               	bcf	status,0,c
  5672  0019F8  3207               	rrcf	??_convertReg2StandardCANid^0,f,c
  5673  0019FA  2E08               	decfsz	(??_convertReg2StandardCANid+1)^0,f,c
  5674  0019FC  EFFB  F00C         	goto	u2655
  5675  001A00  5007               	movf	??_convertReg2StandardCANid^0,w,c
  5676  001A02  240E               	addwf	convertReg2StandardCANid@ConvertedID^0,w,c
  5677  001A04  6E0E               	movwf	convertReg2StandardCANid@ConvertedID^0,c
  5678  001A06  0E00               	movlw	0
  5679  001A08  200F               	addwfc	(convertReg2StandardCANid@ConvertedID+1)^0,w,c
  5680  001A0A  6E0F               	movwf	(convertReg2StandardCANid@ConvertedID+1)^0,c
  5681  001A0C  0E00               	movlw	0
  5682  001A0E  2010               	addwfc	(convertReg2StandardCANid@ConvertedID+2)^0,w,c
  5683  001A10  6E10               	movwf	(convertReg2StandardCANid@ConvertedID+2)^0,c
  5684  001A12  0E00               	movlw	0
  5685  001A14  2011               	addwfc	(convertReg2StandardCANid@ConvertedID+3)^0,w,c
  5686  001A16  6E11               	movwf	(convertReg2StandardCANid@ConvertedID+3)^0,c
  5687  001A18                     
  5688                           ;mcc_generated_files/ecan.c: 467:     returnValue = ConvertedID;
  5689  001A18  C00E  F00A         	movff	convertReg2StandardCANid@ConvertedID,convertReg2StandardCANid@returnValue
  5690  001A1C  C00F  F00B         	movff	convertReg2StandardCANid@ConvertedID+1,convertReg2StandardCANid@returnValue+1
  5691  001A20  C010  F00C         	movff	convertReg2StandardCANid@ConvertedID+2,convertReg2StandardCANid@returnValue+2
  5692  001A24  C011  F00D         	movff	convertReg2StandardCANid@ConvertedID+3,convertReg2StandardCANid@returnValue+3
  5693  001A28                     
  5694                           ;mcc_generated_files/ecan.c: 468:     return (returnValue);
  5695  001A28  C00A  F003         	movff	convertReg2StandardCANid@returnValue,?_convertReg2StandardCANid
  5696  001A2C  C00B  F004         	movff	convertReg2StandardCANid@returnValue+1,?_convertReg2StandardCANid+1
  5697  001A30  C00C  F005         	movff	convertReg2StandardCANid@returnValue+2,?_convertReg2StandardCANid+2
  5698  001A34  C00D  F006         	movff	convertReg2StandardCANid@returnValue+3,?_convertReg2StandardCANid+3
  5699  001A38  0012               	return		;funcret
  5700  001A3A                     __end_of_convertReg2StandardCANid:
  5701                           	callstack 0
  5702                           
  5703 ;; *************** function _convertReg2ExtendedCANid *****************
  5704 ;; Defined at:
  5705 ;;		line 439 in file "mcc_generated_files/ecan.c"
  5706 ;; Parameters:    Size  Location     Type
  5707 ;;  tempRXBn_EID    1    wreg     unsigned char 
  5708 ;;  tempRXBn_EID    1    2[COMRAM] unsigned char 
  5709 ;;  tempRXBn_SID    1    3[COMRAM] unsigned char 
  5710 ;;  tempRXBn_SID    1    4[COMRAM] unsigned char 
  5711 ;; Auto vars:     Size  Location     Type
  5712 ;;  tempRXBn_EID    1   10[COMRAM] unsigned char 
  5713 ;;  ConvertedID     4   17[COMRAM] unsigned long 
  5714 ;;  returnValue     4   11[COMRAM] unsigned long 
  5715 ;;  CAN_standard    1   16[COMRAM] unsigned char 
  5716 ;;  CAN_standard    1   15[COMRAM] unsigned char 
  5717 ;; Return value:  Size  Location     Type
  5718 ;;                  4    2[COMRAM] unsigned long 
  5719 ;; Registers used:
  5720 ;;		wreg, status,2, status,0
  5721 ;; Tracked objects:
  5722 ;;		On entry : 0/0
  5723 ;;		On exit  : 0/0
  5724 ;;		Unchanged: 0/0
  5725 ;; Data sizes:     COMRAM   BANK0   BANK1   BANK2   BANK3   BANK4   BANK5   BANK6   BANK7   BANK8   BANK9  BANK10  BANK1
      +1  BANK12  BANK13  BANK14
  5726 ;;      Params:         4       0       0       0       0       0       0       0       0       0       0       0       
      +0       0       0       0
  5727 ;;      Locals:        11       0       0       0       0       0       0       0       0       0       0       0       
      +0       0       0       0
  5728 ;;      Temps:          4       0       0       0       0       0       0       0       0       0       0       0       
      +0       0       0       0
  5729 ;;      Totals:        19       0       0       0       0       0       0       0       0       0       0       0       
      +0       0       0       0
  5730 ;;Total ram usage:       19 bytes
  5731 ;; Hardware stack levels used: 1
  5732 ;; Hardware stack levels required when called: 3
  5733 ;; This function calls:
  5734 ;;		Nothing
  5735 ;; This function is called by:
  5736 ;;		_CAN_receive
  5737 ;; This function uses a non-reentrant model
  5738 ;;
  5739                           
  5740                           	psect	text31
  5741  0014D0                     __ptext31:
  5742                           	callstack 0
  5743  0014D0                     _convertReg2ExtendedCANid:
  5744                           	callstack 26
  5745                           
  5746                           ;incstack = 0
  5747                           ;convertReg2ExtendedCANid@tempRXBn_EIDH stored from wreg
  5748  0014D0  6E0B               	movwf	convertReg2ExtendedCANid@tempRXBn_EIDH^0,c
  5749  0014D2                     
  5750                           ;mcc_generated_files/ecan.c: 441:     uint32_t ConvertedID = 0;
  5751  0014D2  0E00               	movlw	0
  5752  0014D4  6E12               	movwf	convertReg2ExtendedCANid@ConvertedID^0,c
  5753  0014D6  0E00               	movlw	0
  5754  0014D8  6E13               	movwf	(convertReg2ExtendedCANid@ConvertedID+1)^0,c
  5755  0014DA  0E00               	movlw	0
  5756  0014DC  6E14               	movwf	(convertReg2ExtendedCANid@ConvertedID+2)^0,c
  5757  0014DE  0E00               	movlw	0
  5758  0014E0  6E15               	movwf	(convertReg2ExtendedCANid@ConvertedID+3)^0,c
  5759  0014E2                     
  5760                           ;mcc_generated_files/ecan.c: 442:     uint8_t CAN_standardLo_ID_lo2bits;;mcc_generated_f
      +                          iles/ecan.c: 443:     uint8_t CAN_standardLo_ID_hi3bits;;mcc_generated_files/ecan.c: 445
      +                          :     CAN_standardLo_ID_lo2bits = (uint8_t)(tempRXBn_SIDL & 0x03);
  5761  0014E2  5005               	movf	convertReg2ExtendedCANid@tempRXBn_SIDL^0,w,c
  5762  0014E4  0B03               	andlw	3
  5763  0014E6  6E10               	movwf	convertReg2ExtendedCANid@CAN_standardLo_ID_lo2bits^0,c
  5764  0014E8                     
  5765                           ;mcc_generated_files/ecan.c: 446:     CAN_standardLo_ID_hi3bits = (uint8_t)(tempRXBn_SID
      +                          L >> 5);
  5766  0014E8  3805               	swapf	convertReg2ExtendedCANid@tempRXBn_SIDL^0,w,c
  5767  0014EA  42E8               	rrncf	wreg,f,c
  5768  0014EC  0B07               	andlw	7
  5769  0014EE  6E11               	movwf	convertReg2ExtendedCANid@CAN_standardLo_ID_hi3bits^0,c
  5770  0014F0                     
  5771                           ;mcc_generated_files/ecan.c: 447:     ConvertedID = (uint32_t)(tempRXBn_SIDH << 3);
  5772  0014F0  5004               	movf	convertReg2ExtendedCANid@tempRXBn_SIDH^0,w,c
  5773  0014F2  6E07               	movwf	??_convertReg2ExtendedCANid^0,c
  5774  0014F4  6A08               	clrf	(??_convertReg2ExtendedCANid+1)^0,c
  5775  0014F6  90D8               	bcf	status,0,c
  5776  0014F8  3607               	rlcf	??_convertReg2ExtendedCANid^0,f,c
  5777  0014FA  3608               	rlcf	(??_convertReg2ExtendedCANid+1)^0,f,c
  5778  0014FC  90D8               	bcf	status,0,c
  5779  0014FE  3607               	rlcf	??_convertReg2ExtendedCANid^0,f,c
  5780  001500  3608               	rlcf	(??_convertReg2ExtendedCANid+1)^0,f,c
  5781  001502  90D8               	bcf	status,0,c
  5782  001504  3607               	rlcf	??_convertReg2ExtendedCANid^0,f,c
  5783  001506  3608               	rlcf	(??_convertReg2ExtendedCANid+1)^0,f,c
  5784  001508  C007  F012         	movff	??_convertReg2ExtendedCANid,convertReg2ExtendedCANid@ConvertedID
  5785  00150C  C008  F013         	movff	??_convertReg2ExtendedCANid+1,convertReg2ExtendedCANid@ConvertedID+1
  5786  001510  0E00               	movlw	0
  5787  001512  BE13               	btfsc	(convertReg2ExtendedCANid@ConvertedID+1)^0,7,c
  5788  001514  0EFF               	movlw	-1
  5789  001516  6E14               	movwf	(convertReg2ExtendedCANid@ConvertedID+2)^0,c
  5790  001518  6E15               	movwf	(convertReg2ExtendedCANid@ConvertedID+3)^0,c
  5791  00151A                     
  5792                           ;mcc_generated_files/ecan.c: 448:     ConvertedID = ConvertedID + CAN_standardLo_ID_hi3b
      +                          its;
  5793  00151A  5011               	movf	convertReg2ExtendedCANid@CAN_standardLo_ID_hi3bits^0,w,c
  5794  00151C  2412               	addwf	convertReg2ExtendedCANid@ConvertedID^0,w,c
  5795  00151E  6E12               	movwf	convertReg2ExtendedCANid@ConvertedID^0,c
  5796  001520  0E00               	movlw	0
  5797  001522  2013               	addwfc	(convertReg2ExtendedCANid@ConvertedID+1)^0,w,c
  5798  001524  6E13               	movwf	(convertReg2ExtendedCANid@ConvertedID+1)^0,c
  5799  001526  0E00               	movlw	0
  5800  001528  2014               	addwfc	(convertReg2ExtendedCANid@ConvertedID+2)^0,w,c
  5801  00152A  6E14               	movwf	(convertReg2ExtendedCANid@ConvertedID+2)^0,c
  5802  00152C  0E00               	movlw	0
  5803  00152E  2015               	addwfc	(convertReg2ExtendedCANid@ConvertedID+3)^0,w,c
  5804  001530  6E15               	movwf	(convertReg2ExtendedCANid@ConvertedID+3)^0,c
  5805  001532                     
  5806                           ;mcc_generated_files/ecan.c: 449:     ConvertedID = (ConvertedID << 2);
  5807  001532  C012  F007         	movff	convertReg2ExtendedCANid@ConvertedID,??_convertReg2ExtendedCANid
  5808  001536  C013  F008         	movff	convertReg2ExtendedCANid@ConvertedID+1,??_convertReg2ExtendedCANid+1
  5809  00153A  C014  F009         	movff	convertReg2ExtendedCANid@ConvertedID+2,??_convertReg2ExtendedCANid+2
  5810  00153E  C015  F00A         	movff	convertReg2ExtendedCANid@ConvertedID+3,??_convertReg2ExtendedCANid+3
  5811  001542  0E02               	movlw	2
  5812  001544                     u2645:
  5813  001544  90D8               	bcf	status,0,c
  5814  001546  3607               	rlcf	??_convertReg2ExtendedCANid^0,f,c
  5815  001548  3608               	rlcf	(??_convertReg2ExtendedCANid+1)^0,f,c
  5816  00154A  3609               	rlcf	(??_convertReg2ExtendedCANid+2)^0,f,c
  5817  00154C  360A               	rlcf	(??_convertReg2ExtendedCANid+3)^0,f,c
  5818  00154E  2EE8               	decfsz	wreg,f,c
  5819  001550  EFA2  F00A         	goto	u2645
  5820  001554  C007  F012         	movff	??_convertReg2ExtendedCANid,convertReg2ExtendedCANid@ConvertedID
  5821  001558  C008  F013         	movff	??_convertReg2ExtendedCANid+1,convertReg2ExtendedCANid@ConvertedID+1
  5822  00155C  C009  F014         	movff	??_convertReg2ExtendedCANid+2,convertReg2ExtendedCANid@ConvertedID+2
  5823  001560  C00A  F015         	movff	??_convertReg2ExtendedCANid+3,convertReg2ExtendedCANid@ConvertedID+3
  5824  001564                     
  5825                           ;mcc_generated_files/ecan.c: 450:     ConvertedID = ConvertedID + CAN_standardLo_ID_lo2b
      +                          its;
  5826  001564  5010               	movf	convertReg2ExtendedCANid@CAN_standardLo_ID_lo2bits^0,w,c
  5827  001566  2412               	addwf	convertReg2ExtendedCANid@ConvertedID^0,w,c
  5828  001568  6E12               	movwf	convertReg2ExtendedCANid@ConvertedID^0,c
  5829  00156A  0E00               	movlw	0
  5830  00156C  2013               	addwfc	(convertReg2ExtendedCANid@ConvertedID+1)^0,w,c
  5831  00156E  6E13               	movwf	(convertReg2ExtendedCANid@ConvertedID+1)^0,c
  5832  001570  0E00               	movlw	0
  5833  001572  2014               	addwfc	(convertReg2ExtendedCANid@ConvertedID+2)^0,w,c
  5834  001574  6E14               	movwf	(convertReg2ExtendedCANid@ConvertedID+2)^0,c
  5835  001576  0E00               	movlw	0
  5836  001578  2015               	addwfc	(convertReg2ExtendedCANid@ConvertedID+3)^0,w,c
  5837  00157A  6E15               	movwf	(convertReg2ExtendedCANid@ConvertedID+3)^0,c
  5838                           
  5839                           ;mcc_generated_files/ecan.c: 451:     ConvertedID = (ConvertedID << 8);
  5840  00157C  C012  F008         	movff	convertReg2ExtendedCANid@ConvertedID,??_convertReg2ExtendedCANid+1
  5841  001580  C013  F009         	movff	convertReg2ExtendedCANid@ConvertedID+1,??_convertReg2ExtendedCANid+2
  5842  001584  C014  F00A         	movff	convertReg2ExtendedCANid@ConvertedID+2,??_convertReg2ExtendedCANid+3
  5843  001588  6A07               	clrf	??_convertReg2ExtendedCANid^0,c
  5844  00158A  C007  F012         	movff	??_convertReg2ExtendedCANid,convertReg2ExtendedCANid@ConvertedID
  5845  00158E  C008  F013         	movff	??_convertReg2ExtendedCANid+1,convertReg2ExtendedCANid@ConvertedID+1
  5846  001592  C009  F014         	movff	??_convertReg2ExtendedCANid+2,convertReg2ExtendedCANid@ConvertedID+2
  5847  001596  C00A  F015         	movff	??_convertReg2ExtendedCANid+3,convertReg2ExtendedCANid@ConvertedID+3
  5848  00159A                     
  5849                           ;mcc_generated_files/ecan.c: 452:     ConvertedID = ConvertedID + tempRXBn_EIDH;
  5850  00159A  500B               	movf	convertReg2ExtendedCANid@tempRXBn_EIDH^0,w,c
  5851  00159C  2412               	addwf	convertReg2ExtendedCANid@ConvertedID^0,w,c
  5852  00159E  6E12               	movwf	convertReg2ExtendedCANid@ConvertedID^0,c
  5853  0015A0  0E00               	movlw	0
  5854  0015A2  2013               	addwfc	(convertReg2ExtendedCANid@ConvertedID+1)^0,w,c
  5855  0015A4  6E13               	movwf	(convertReg2ExtendedCANid@ConvertedID+1)^0,c
  5856  0015A6  0E00               	movlw	0
  5857  0015A8  2014               	addwfc	(convertReg2ExtendedCANid@ConvertedID+2)^0,w,c
  5858  0015AA  6E14               	movwf	(convertReg2ExtendedCANid@ConvertedID+2)^0,c
  5859  0015AC  0E00               	movlw	0
  5860  0015AE  2015               	addwfc	(convertReg2ExtendedCANid@ConvertedID+3)^0,w,c
  5861  0015B0  6E15               	movwf	(convertReg2ExtendedCANid@ConvertedID+3)^0,c
  5862  0015B2                     
  5863                           ;mcc_generated_files/ecan.c: 453:     ConvertedID = (ConvertedID << 8);
  5864  0015B2  C012  F008         	movff	convertReg2ExtendedCANid@ConvertedID,??_convertReg2ExtendedCANid+1
  5865  0015B6  C013  F009         	movff	convertReg2ExtendedCANid@ConvertedID+1,??_convertReg2ExtendedCANid+2
  5866  0015BA  C014  F00A         	movff	convertReg2ExtendedCANid@ConvertedID+2,??_convertReg2ExtendedCANid+3
  5867  0015BE  6A07               	clrf	??_convertReg2ExtendedCANid^0,c
  5868  0015C0  C007  F012         	movff	??_convertReg2ExtendedCANid,convertReg2ExtendedCANid@ConvertedID
  5869  0015C4  C008  F013         	movff	??_convertReg2ExtendedCANid+1,convertReg2ExtendedCANid@ConvertedID+1
  5870  0015C8  C009  F014         	movff	??_convertReg2ExtendedCANid+2,convertReg2ExtendedCANid@ConvertedID+2
  5871  0015CC  C00A  F015         	movff	??_convertReg2ExtendedCANid+3,convertReg2ExtendedCANid@ConvertedID+3
  5872                           
  5873                           ;mcc_generated_files/ecan.c: 454:     ConvertedID = ConvertedID + tempRXBn_EIDL;
  5874  0015D0  5003               	movf	convertReg2ExtendedCANid@tempRXBn_EIDL^0,w,c
  5875  0015D2  2412               	addwf	convertReg2ExtendedCANid@ConvertedID^0,w,c
  5876  0015D4  6E12               	movwf	convertReg2ExtendedCANid@ConvertedID^0,c
  5877  0015D6  0E00               	movlw	0
  5878  0015D8  2013               	addwfc	(convertReg2ExtendedCANid@ConvertedID+1)^0,w,c
  5879  0015DA  6E13               	movwf	(convertReg2ExtendedCANid@ConvertedID+1)^0,c
  5880  0015DC  0E00               	movlw	0
  5881  0015DE  2014               	addwfc	(convertReg2ExtendedCANid@ConvertedID+2)^0,w,c
  5882  0015E0  6E14               	movwf	(convertReg2ExtendedCANid@ConvertedID+2)^0,c
  5883  0015E2  0E00               	movlw	0
  5884  0015E4  2015               	addwfc	(convertReg2ExtendedCANid@ConvertedID+3)^0,w,c
  5885  0015E6  6E15               	movwf	(convertReg2ExtendedCANid@ConvertedID+3)^0,c
  5886  0015E8                     
  5887                           ;mcc_generated_files/ecan.c: 455:     returnValue = ConvertedID;
  5888  0015E8  C012  F00C         	movff	convertReg2ExtendedCANid@ConvertedID,convertReg2ExtendedCANid@returnValue
  5889  0015EC  C013  F00D         	movff	convertReg2ExtendedCANid@ConvertedID+1,convertReg2ExtendedCANid@returnValue+1
  5890  0015F0  C014  F00E         	movff	convertReg2ExtendedCANid@ConvertedID+2,convertReg2ExtendedCANid@returnValue+2
  5891  0015F4  C015  F00F         	movff	convertReg2ExtendedCANid@ConvertedID+3,convertReg2ExtendedCANid@returnValue+3
  5892  0015F8                     
  5893                           ;mcc_generated_files/ecan.c: 456:     return (returnValue);
  5894  0015F8  C00C  F003         	movff	convertReg2ExtendedCANid@returnValue,?_convertReg2ExtendedCANid
  5895  0015FC  C00D  F004         	movff	convertReg2ExtendedCANid@returnValue+1,?_convertReg2ExtendedCANid+1
  5896  001600  C00E  F005         	movff	convertReg2ExtendedCANid@returnValue+2,?_convertReg2ExtendedCANid+2
  5897  001604  C00F  F006         	movff	convertReg2ExtendedCANid@returnValue+3,?_convertReg2ExtendedCANid+3
  5898  001608  0012               	return		;funcret
  5899  00160A                     __end_of_convertReg2ExtendedCANid:
  5900                           	callstack 0
  5901                           
  5902 ;; *************** function _INTERRUPT_InterruptManager *****************
  5903 ;; Defined at:
  5904 ;;		line 58 in file "mcc_generated_files/interrupt_manager.c"
  5905 ;; Parameters:    Size  Location     Type
  5906 ;;		None
  5907 ;; Auto vars:     Size  Location     Type
  5908 ;;		None
  5909 ;; Return value:  Size  Location     Type
  5910 ;;                  1    wreg      void 
  5911 ;; Registers used:
  5912 ;;		wreg, pcl, pclath, pclatu, tosl, cstack
  5913 ;; Tracked objects:
  5914 ;;		On entry : 0/0
  5915 ;;		On exit  : 0/0
  5916 ;;		Unchanged: 0/0
  5917 ;; Data sizes:     COMRAM   BANK0   BANK1   BANK2   BANK3   BANK4   BANK5   BANK6   BANK7   BANK8   BANK9  BANK10  BANK1
      +1  BANK12  BANK13  BANK14
  5918 ;;      Params:         0       0       0       0       0       0       0       0       0       0       0       0       
      +0       0       0       0
  5919 ;;      Locals:         0       0       0       0       0       0       0       0       0       0       0       0       
      +0       0       0       0
  5920 ;;      Temps:          2       0       0       0       0       0       0       0       0       0       0       0       
      +0       0       0       0
  5921 ;;      Totals:         2       0       0       0       0       0       0       0       0       0       0       0       
      +0       0       0       0
  5922 ;;Total ram usage:        2 bytes
  5923 ;; Hardware stack levels used: 1
  5924 ;; Hardware stack levels required when called: 2
  5925 ;; This function calls:
  5926 ;;		_ECAN_WAKI_ISR
  5927 ;; This function is called by:
  5928 ;;		Interrupt level 2
  5929 ;; This function uses a non-reentrant model
  5930 ;;
  5931                           
  5932                           	psect	intcode
  5933  000008                     __pintcode:
  5934                           	callstack 0
  5935  000008                     _INTERRUPT_InterruptManager:
  5936                           	callstack 24
  5937                           
  5938                           ;incstack = 0
  5939  000008  825D               	bsf	int$flags,1,c	;set compiler interrupt flag (level 2)
  5940  00000A  CFFA F001          	movff	pclath,??_INTERRUPT_InterruptManager
  5941  00000E  CFFB F002          	movff	pclatu,??_INTERRUPT_InterruptManager+1
  5942  000012                     
  5943                           ;mcc_generated_files/interrupt_manager.c: 61:     if(INTCONbits.PEIE == 1)
  5944  000012  ACF2               	btfss	242,6,c	;volatile
  5945  000014  EF0E  F000         	goto	i2u91_41
  5946  000018  EF10  F000         	goto	i2u91_40
  5947  00001C                     i2u91_41:
  5948  00001C  EF20  F000         	goto	i2l496
  5949  000020                     i2u91_40:
  5950  000020                     
  5951                           ;mcc_generated_files/interrupt_manager.c: 62:     {;mcc_generated_files/interrupt_manage
      +                          r.c: 63:         if(PIE5bits.WAKIE == 1 && PIR5bits.WAKIF == 1)
  5952  000020  AC76               	btfss	118,6,c	;volatile
  5953  000022  EF15  F000         	goto	i2u92_41
  5954  000026  EF17  F000         	goto	i2u92_40
  5955  00002A                     i2u92_41:
  5956  00002A  EF20  F000         	goto	i2l496
  5957  00002E                     i2u92_40:
  5958  00002E  AC77               	btfss	119,6,c	;volatile
  5959  000030  EF1C  F000         	goto	i2u93_41
  5960  000034  EF1E  F000         	goto	i2u93_40
  5961  000038                     i2u93_41:
  5962  000038  EF20  F000         	goto	i2l496
  5963  00003C                     i2u93_40:
  5964  00003C                     
  5965                           ;mcc_generated_files/interrupt_manager.c: 64:         {;mcc_generated_files/interrupt_ma
      +                          nager.c: 65:             ECAN_WAKI_ISR();
  5966  00003C  EC18  F00E         	call	_ECAN_WAKI_ISR	;wreg free
  5967  000040                     i2l496:
  5968  000040  C002  FFFB         	movff	??_INTERRUPT_InterruptManager+1,pclatu
  5969  000044  C001  FFFA         	movff	??_INTERRUPT_InterruptManager,pclath
  5970  000048  925D               	bcf	int$flags,1,c	;clear compiler interrupt flag (level 2)
  5971  00004A  0011               	retfie		f
  5972  00004C                     __end_of_INTERRUPT_InterruptManager:
  5973                           	callstack 0
  5974                           
  5975 ;; *************** function _ECAN_WAKI_ISR *****************
  5976 ;; Defined at:
  5977 ;;		line 511 in file "mcc_generated_files/ecan.c"
  5978 ;; Parameters:    Size  Location     Type
  5979 ;;		None
  5980 ;; Auto vars:     Size  Location     Type
  5981 ;;		None
  5982 ;; Return value:  Size  Location     Type
  5983 ;;                  1    wreg      void 
  5984 ;; Registers used:
  5985 ;;		wreg, pcl, pclath, pclatu, tosl, cstack
  5986 ;; Tracked objects:
  5987 ;;		On entry : 0/0
  5988 ;;		On exit  : 0/0
  5989 ;;		Unchanged: 0/0
  5990 ;; Data sizes:     COMRAM   BANK0   BANK1   BANK2   BANK3   BANK4   BANK5   BANK6   BANK7   BANK8   BANK9  BANK10  BANK1
      +1  BANK12  BANK13  BANK14
  5991 ;;      Params:         0       0       0       0       0       0       0       0       0       0       0       0       
      +0       0       0       0
  5992 ;;      Locals:         0       0       0       0       0       0       0       0       0       0       0       0       
      +0       0       0       0
  5993 ;;      Temps:          0       0       0       0       0       0       0       0       0       0       0       0       
      +0       0       0       0
  5994 ;;      Totals:         0       0       0       0       0       0       0       0       0       0       0       0       
      +0       0       0       0
  5995 ;;Total ram usage:        0 bytes
  5996 ;; Hardware stack levels used: 1
  5997 ;; Hardware stack levels required when called: 1
  5998 ;; This function calls:
  5999 ;;		Absolute function
  6000 ;;		_WakeUpDefaultInterruptHandler
  6001 ;; This function is called by:
  6002 ;;		_INTERRUPT_InterruptManager
  6003 ;; This function uses a non-reentrant model
  6004 ;;
  6005                           
  6006                           	psect	text33
  6007  001C30                     __ptext33:
  6008                           	callstack 0
  6009  001C30                     _ECAN_WAKI_ISR:
  6010                           	callstack 24
  6011  001C30                     
  6012                           ;mcc_generated_files/ecan.c: 513:     WakeUpInterruptHandler();
  6013  001C30  D802               	call	i2u82_48
  6014  001C32  EF25  F00E         	goto	i2u82_49
  6015  001C36                     i2u82_48:
  6016  001C36  0005               	push	
  6017  001C38  6EFA               	movwf	pclath,c
  6018  001C3A  5049               	movf	_WakeUpInterruptHandler^0,w,c
  6019  001C3C  6EFD               	movwf	tosl,c
  6020  001C3E  504A               	movf	(_WakeUpInterruptHandler+1)^0,w,c
  6021  001C40  6EFE               	movwf	tosh,c
  6022  001C42  50F8               	movf	tblptru,w,c
  6023  001C44  6EFF               	movwf	tosu,c
  6024  001C46  50FA               	movf	pclath,w,c
  6025  001C48  0012               	return		;indir
  6026  001C4A                     i2u82_49:
  6027  001C4A                     
  6028                           ;mcc_generated_files/ecan.c: 514:     PIR5bits.WAKIF = 0;
  6029  001C4A  9C77               	bcf	119,6,c	;volatile
  6030  001C4C  0012               	return		;funcret
  6031  001C4E                     __end_of_ECAN_WAKI_ISR:
  6032                           	callstack 0
  6033                           
  6034 ;; *************** function _WakeUpDefaultInterruptHandler *****************
  6035 ;; Defined at:
  6036 ;;		line 63 in file "mcc_generated_files/ecan.c"
  6037 ;; Parameters:    Size  Location     Type
  6038 ;;		None
  6039 ;; Auto vars:     Size  Location     Type
  6040 ;;		None
  6041 ;; Return value:  Size  Location     Type
  6042 ;;                  1    wreg      void 
  6043 ;; Registers used:
  6044 ;;		None
  6045 ;; Tracked objects:
  6046 ;;		On entry : 0/0
  6047 ;;		On exit  : 0/0
  6048 ;;		Unchanged: 0/0
  6049 ;; Data sizes:     COMRAM   BANK0   BANK1   BANK2   BANK3   BANK4   BANK5   BANK6   BANK7   BANK8   BANK9  BANK10  BANK1
      +1  BANK12  BANK13  BANK14
  6050 ;;      Params:         0       0       0       0       0       0       0       0       0       0       0       0       
      +0       0       0       0
  6051 ;;      Locals:         0       0       0       0       0       0       0       0       0       0       0       0       
      +0       0       0       0
  6052 ;;      Temps:          0       0       0       0       0       0       0       0       0       0       0       0       
      +0       0       0       0
  6053 ;;      Totals:         0       0       0       0       0       0       0       0       0       0       0       0       
      +0       0       0       0
  6054 ;;Total ram usage:        0 bytes
  6055 ;; Hardware stack levels used: 1
  6056 ;; This function calls:
  6057 ;;		Nothing
  6058 ;; This function is called by:
  6059 ;;		_ECAN_Initialize
  6060 ;;		_ECAN_WAKI_ISR
  6061 ;; This function uses a non-reentrant model
  6062 ;;
  6063                           
  6064                           	psect	text34
  6065  001CCC                     __ptext34:
  6066                           	callstack 0
  6067  001CCC                     _WakeUpDefaultInterruptHandler:
  6068                           	callstack 24
  6069  001CCC  0012               	return		;funcret
  6070  001CCE                     __end_of_WakeUpDefaultInterruptHandler:
  6071                           	callstack 0
  6072  0000                     
  6073                           	psect	text35
  6074  000000                     __ptext35:
  6075                           	callstack 0
  6076  000000                     
  6077                           	psect	rparam
  6078  0000                     
  6079                           	psect	temp
  6080  00005D                     btemp:
  6081                           	callstack 0
  6082  00005D                     	ds	1
  6083  0000                     int$flags	set	btemp
  6084  0000                     wtemp8	set	btemp+1
  6085  0000                     ttemp5	set	btemp+1
  6086  0000                     ttemp6	set	btemp+4
  6087  0000                     ttemp7	set	btemp+8
  6088                           
  6089                           	psect	idloc
  6090                           
  6091                           ;Config register IDLOC0 @ 0x200000
  6092                           ;	unspecified, using default values
  6093  200000                     	org	2097152
  6094  200000  FF                 	db	255
  6095                           
  6096                           ;Config register IDLOC1 @ 0x200001
  6097                           ;	unspecified, using default values
  6098  200001                     	org	2097153
  6099  200001  FF                 	db	255
  6100                           
  6101                           ;Config register IDLOC2 @ 0x200002
  6102                           ;	unspecified, using default values
  6103  200002                     	org	2097154
  6104  200002  FF                 	db	255
  6105                           
  6106                           ;Config register IDLOC3 @ 0x200003
  6107                           ;	unspecified, using default values
  6108  200003                     	org	2097155
  6109  200003  FF                 	db	255
  6110                           
  6111                           ;Config register IDLOC4 @ 0x200004
  6112                           ;	unspecified, using default values
  6113  200004                     	org	2097156
  6114  200004  FF                 	db	255
  6115                           
  6116                           ;Config register IDLOC5 @ 0x200005
  6117                           ;	unspecified, using default values
  6118  200005                     	org	2097157
  6119  200005  FF                 	db	255
  6120                           
  6121                           ;Config register IDLOC6 @ 0x200006
  6122                           ;	unspecified, using default values
  6123  200006                     	org	2097158
  6124  200006  FF                 	db	255
  6125                           
  6126                           ;Config register IDLOC7 @ 0x200007
  6127                           ;	unspecified, using default values
  6128  200007                     	org	2097159
  6129  200007  FF                 	db	255
  6130                           
  6131                           	psect	config
  6132                           
  6133                           ;Config register CONFIG1L @ 0x300000
  6134                           ;	VREG Sleep Enable bit
  6135                           ;	RETEN = OFF, Ultra low-power regulator is Disabled (Controlled by REGSLP bit)
  6136                           ;	LF-INTOSC Low-power Enable bit
  6137                           ;	INTOSCSEL = HIGH, LF-INTOSC in High-power mode during Sleep
  6138                           ;	SOSC Power Selection and mode Configuration bits
  6139                           ;	SOSCSEL = DIG, Digital (SCLKI) mode
  6140                           ;	Extended Instruction Set
  6141                           ;	XINST = OFF, Disabled
  6142  300000                     	org	3145728
  6143  300000  15                 	db	21
  6144                           
  6145                           ;Config register CONFIG1H @ 0x300001
  6146                           ;	Oscillator
  6147                           ;	FOSC = HS2, HS oscillator (High power, 16 MHz - 25 MHz)
  6148                           ;	PLL x4 Enable bit
  6149                           ;	PLLCFG = OFF, Disabled
  6150                           ;	Fail-Safe Clock Monitor
  6151                           ;	FCMEN = OFF, Disabled
  6152                           ;	Internal External Oscillator Switch Over Mode
  6153                           ;	IESO = OFF, Disabled
  6154  300001                     	org	3145729
  6155  300001  02                 	db	2
  6156                           
  6157                           ;Config register CONFIG2L @ 0x300002
  6158                           ;	Power Up Timer
  6159                           ;	PWRTEN = OFF, Disabled
  6160                           ;	Brown Out Detect
  6161                           ;	BOREN = SBORDIS, Enabled in hardware, SBOREN disabled
  6162                           ;	Brown-out Reset Voltage bits
  6163                           ;	BORV = 3, 1.8V
  6164                           ;	BORMV Power level
  6165                           ;	BORPWR = ZPBORMV, ZPBORMV instead of BORMV is selected
  6166  300002                     	org	3145730
  6167  300002  7F                 	db	127
  6168                           
  6169                           ;Config register CONFIG2H @ 0x300003
  6170                           ;	Watchdog Timer
  6171                           ;	WDTEN = OFF, WDT disabled in hardware; SWDTEN bit disabled
  6172                           ;	Watchdog Postscaler
  6173                           ;	WDTPS = 1048576, 1:1048576
  6174  300003                     	org	3145731
  6175  300003  7C                 	db	124
  6176                           
  6177                           ; Padding undefined space
  6178  300004                     	org	3145732
  6179  300004  FF                 	db	255
  6180                           
  6181                           ;Config register CONFIG3H @ 0x300005
  6182                           ;	ECAN Mux bit
  6183                           ;	CANMX = PORTB, ECAN TX and RX pins are located on RB2 and RB3, respectively
  6184                           ;	MSSP address masking
  6185                           ;	MSSPMSK = MSK7, 7 Bit address masking mode
  6186                           ;	Master Clear Enable
  6187                           ;	MCLRE = ON, MCLR Enabled, RE3 Disabled
  6188  300005                     	org	3145733
  6189  300005  89                 	db	137
  6190                           
  6191                           ;Config register CONFIG4L @ 0x300006
  6192                           ;	Stack Overflow Reset
  6193                           ;	STVREN = ON, Enabled
  6194                           ;	Boot Block Size
  6195                           ;	BBSIZ = BB2K, 2K word Boot Block size
  6196  300006                     	org	3145734
  6197  300006  91                 	db	145
  6198                           
  6199                           ; Padding undefined space
  6200  300007                     	org	3145735
  6201  300007  FF                 	db	255
  6202                           
  6203                           ;Config register CONFIG5L @ 0x300008
  6204                           ;	Code Protect 00800-03FFF
  6205                           ;	CP0 = OFF, Disabled
  6206                           ;	Code Protect 04000-07FFF
  6207                           ;	CP1 = OFF, Disabled
  6208                           ;	Code Protect 08000-0BFFF
  6209                           ;	CP2 = OFF, Disabled
  6210                           ;	Code Protect 0C000-0FFFF
  6211                           ;	CP3 = OFF, Disabled
  6212  300008                     	org	3145736
  6213  300008  0F                 	db	15
  6214                           
  6215                           ;Config register CONFIG5H @ 0x300009
  6216                           ;	Code Protect Boot
  6217                           ;	CPB = OFF, Disabled
  6218                           ;	Data EE Read Protect
  6219                           ;	CPD = OFF, Disabled
  6220  300009                     	org	3145737
  6221  300009  C0                 	db	192
  6222                           
  6223                           ;Config register CONFIG6L @ 0x30000A
  6224                           ;	Table Write Protect 00800-03FFF
  6225                           ;	WRT0 = OFF, Disabled
  6226                           ;	Table Write Protect 04000-07FFF
  6227                           ;	WRT1 = OFF, Disabled
  6228                           ;	Table Write Protect 08000-0BFFF
  6229                           ;	WRT2 = OFF, Disabled
  6230                           ;	Table Write Protect 0C000-0FFFF
  6231                           ;	WRT3 = OFF, Disabled
  6232  30000A                     	org	3145738
  6233  30000A  0F                 	db	15
  6234                           
  6235                           ;Config register CONFIG6H @ 0x30000B
  6236                           ;	Config. Write Protect
  6237                           ;	WRTC = OFF, Disabled
  6238                           ;	Table Write Protect Boot
  6239                           ;	WRTB = OFF, Disabled
  6240                           ;	Data EE Write Protect
  6241                           ;	WRTD = OFF, Disabled
  6242  30000B                     	org	3145739
  6243  30000B  E0                 	db	224
  6244                           
  6245                           ;Config register CONFIG7L @ 0x30000C
  6246                           ;	Table Read Protect 00800-03FFF
  6247                           ;	EBTR0 = OFF, Disabled
  6248                           ;	Table Read Protect 04000-07FFF
  6249                           ;	EBTR1 = OFF, Disabled
  6250                           ;	Table Read Protect 08000-0BFFF
  6251                           ;	EBTR2 = OFF, Disabled
  6252                           ;	Table Read Protect 0C000-0FFFF
  6253                           ;	EBTR3 = OFF, Disabled
  6254  30000C                     	org	3145740
  6255  30000C  0F                 	db	15
  6256                           
  6257                           ;Config register CONFIG7H @ 0x30000D
  6258                           ;	Table Read Protect Boot
  6259                           ;	EBTRB = OFF, Disabled
  6260  30000D                     	org	3145741
  6261  30000D  40                 	db	64
  6262                           tosu	equ	0xFFF
  6263                           tosh	equ	0xFFE
  6264                           tosl	equ	0xFFD
  6265                           stkptr	equ	0xFFC
  6266                           pclatu	equ	0xFFB
  6267                           pclath	equ	0xFFA
  6268                           pcl	equ	0xFF9
  6269                           tblptru	equ	0xFF8
  6270                           tblptrh	equ	0xFF7
  6271                           tblptrl	equ	0xFF6
  6272                           tablat	equ	0xFF5
  6273                           prodh	equ	0xFF4
  6274                           prodl	equ	0xFF3
  6275                           indf0	equ	0xFEF
  6276                           postinc0	equ	0xFEE
  6277                           postdec0	equ	0xFED
  6278                           preinc0	equ	0xFEC
  6279                           plusw0	equ	0xFEB
  6280                           fsr0h	equ	0xFEA
  6281                           fsr0l	equ	0xFE9
  6282                           wreg	equ	0xFE8
  6283                           indf1	equ	0xFE7
  6284                           postinc1	equ	0xFE6
  6285                           postdec1	equ	0xFE5
  6286                           preinc1	equ	0xFE4
  6287                           plusw1	equ	0xFE3
  6288                           fsr1h	equ	0xFE2
  6289                           fsr1l	equ	0xFE1
  6290                           bsr	equ	0xFE0
  6291                           indf2	equ	0xFDF
  6292                           postinc2	equ	0xFDE
  6293                           postdec2	equ	0xFDD
  6294                           preinc2	equ	0xFDC
  6295                           plusw2	equ	0xFDB
  6296                           fsr2h	equ	0xFDA
  6297                           fsr2l	equ	0xFD9
  6298                           status	equ	0xFD8

Data Sizes:
    Strings     0
    Constant    0
    Data        4
    BSS         204
    Persistent  0
    Stack       0

Auto Spaces:
    Space          Size  Autos    Used
    COMRAM           94     66      92
    BANK0           160      2     156
    BANK1           256      0      28
    BANK2           256      0       0
    BANK3           256      0       0
    BANK4           256      0       0
    BANK5           256      0       0
    BANK6           256      0       0
    BANK7           256      0       0
    BANK8           256      0       0
    BANK9           256      0       0
    BANK10          256      0       0
    BANK11          256      0       0
    BANK12          256      0       0
    BANK13          256      0       0
    BANK14           65      0       0

Pointer List with Targets:

    ADC_InterruptHandler	PTR FTN()void  size(2) Largest target is 1
		 -> Absolute function(), 

    ECAN_SetWakeUpInterruptHandler@handler	PTR FTN()void  size(2) Largest target is 1
		 -> WakeUpDefaultInterruptHandler(), 

    WakeUpInterruptHandler	PTR FTN()void  size(2) Largest target is 1
		 -> Absolute function(), WakeUpDefaultInterruptHandler(), 

    convertCANid2Reg@passedInSIDH	PTR unsigned char  size(2) Largest target is 1
		 -> CAN_transmit@tempSIDH(COMRAM[1]), 

    convertCANid2Reg@passedInSIDL	PTR unsigned char  size(2) Largest target is 1
		 -> CAN_transmit@tempSIDL(COMRAM[1]), 

    convertCANid2Reg@passedInEIDH	PTR unsigned char  size(2) Largest target is 1
		 -> CAN_transmit@tempEIDH(COMRAM[1]), 

    convertCANid2Reg@passedInEIDL	PTR unsigned char  size(2) Largest target is 1
		 -> CAN_transmit@tempEIDL(COMRAM[1]), 

    CAN_receive@tempCanMsg	PTR struct . size(2) Largest target is 14
		 -> rx(BANK0[14]), 

    CAN_transmit@tempCanMsg	PTR struct . size(2) Largest target is 14
		 -> tx8(BANK0[14]), tx10(BANK0[14]), tx9(BANK0[14]), tx7(BANK0[14]), 
		 -> tx6(BANK0[14]), tx5(BANK0[14]), tx4(BANK0[14]), tx3(BANK0[14]), 
		 -> tx21(COMRAM[14]), 


Critical Paths under _main in COMRAM

    _main->_start_up_seq
    _start_up_seq->_ADC_Conv_pinNine
    _start_up_seq->_ADC_Conv_pinSeven
    _canbus_msg_startupfail->_CAN_transmit
    _canbus_msg_startup_success->_CAN_transmit
    _canbus_latch_shutdown->_CAN_transmit
    _ADC_Conv_pinSeven->___flmul
    _ADC_Conv_pinNine->___flmul
    ___xxtofl->_ADC_GetConversion
    ___flmul->___fldiv
    _shutdown_seq->_canbus_shutdown_success
    _canbus_shutdown_success->_CAN_transmit
    _e_stop_seq->_canbus_msg_bps
    _canbus_msg_bps->_CAN_transmit
    _canbus_msg_ok->_CAN_transmit
    _aux_battery_LV->_canbus_msg_auxlow
    _canbus_msg_auxlow->_CAN_transmit
    _CAN_transmit->_convertCANid2Reg
    _SYSTEM_Initialize->_ECAN_Initialize
    _ECAN_Initialize->_ECAN_SetWakeUpInterruptHandler
    _CAN_receive->_convertReg2ExtendedCANid

Critical Paths under _INTERRUPT_InterruptManager in COMRAM

    None.

Critical Paths under _main in BANK0

    None.

Critical Paths under _INTERRUPT_InterruptManager in BANK0

    None.

Critical Paths under _main in BANK1

    None.

Critical Paths under _INTERRUPT_InterruptManager in BANK1

    None.

Critical Paths under _main in BANK2

    None.

Critical Paths under _INTERRUPT_InterruptManager in BANK2

    None.

Critical Paths under _main in BANK3

    None.

Critical Paths under _INTERRUPT_InterruptManager in BANK3

    None.

Critical Paths under _main in BANK4

    None.

Critical Paths under _INTERRUPT_InterruptManager in BANK4

    None.

Critical Paths under _main in BANK5

    None.

Critical Paths under _INTERRUPT_InterruptManager in BANK5

    None.

Critical Paths under _main in BANK6

    None.

Critical Paths under _INTERRUPT_InterruptManager in BANK6

    None.

Critical Paths under _main in BANK7

    None.

Critical Paths under _INTERRUPT_InterruptManager in BANK7

    None.

Critical Paths under _main in BANK8

    None.

Critical Paths under _INTERRUPT_InterruptManager in BANK8

    None.

Critical Paths under _main in BANK9

    None.

Critical Paths under _INTERRUPT_InterruptManager in BANK9

    None.

Critical Paths under _main in BANK10

    None.

Critical Paths under _INTERRUPT_InterruptManager in BANK10

    None.

Critical Paths under _main in BANK11

    None.

Critical Paths under _INTERRUPT_InterruptManager in BANK11

    None.

Critical Paths under _main in BANK12

    None.

Critical Paths under _INTERRUPT_InterruptManager in BANK12

    None.

Critical Paths under _main in BANK13

    None.

Critical Paths under _INTERRUPT_InterruptManager in BANK13

    None.

Critical Paths under _main in BANK14

    None.

Critical Paths under _INTERRUPT_InterruptManager in BANK14

    None.

Call Graph Tables:

 ---------------------------------------------------------------------------------
 (Depth) Function   	        Calls       Base Space   Used Autos Params    Refs
 ---------------------------------------------------------------------------------
 (0) _main                                                 2     2      0   94741
                                              0 BANK0      2     2      0
                   _ADC_Conv_pinNine
                  _ADC_Conv_pinSeven
                        _CAN_receive
                  _SYSTEM_Initialize
                     _aux_battery_LV
                      _canbus_msg_ok
                         _e_stop_seq
                       _shutdown_seq
                       _start_up_seq
 ---------------------------------------------------------------------------------
 (1) _start_up_seq                                         2     2      0   46156
                                             64 COMRAM     2     2      0
                   _ADC_Conv_pinNine
                  _ADC_Conv_pinSeven
              _canbus_latch_shutdown
                  _canbus_msg_auxlow
         _canbus_msg_startup_success
             _canbus_msg_startupfail
 ---------------------------------------------------------------------------------
 (2) _canbus_msg_startupfail                               2     0      2    5292
                                             26 COMRAM     2     0      2
                       _CAN_transmit
 ---------------------------------------------------------------------------------
 (2) _canbus_msg_startup_success                           2     0      2    5292
                                             26 COMRAM     2     0      2
                       _CAN_transmit
 ---------------------------------------------------------------------------------
 (2) _canbus_latch_shutdown                                2     0      2    5382
                                             26 COMRAM     2     0      2
                       _CAN_transmit
 ---------------------------------------------------------------------------------
 (2) _ADC_Conv_pinSeven                                   12    10      2   12404
                                             52 COMRAM    12    10      2
                  _ADC_GetConversion
                       _CAN_transmit
                            ___fldiv
                             ___flge
                            ___flmul
                            ___fltol
                           ___xxtofl
 ---------------------------------------------------------------------------------
 (2) _ADC_Conv_pinNine                                    12    10      2   12404
                                             52 COMRAM    12    10      2
                  _ADC_GetConversion
                       _CAN_transmit
                            ___fldiv
                             ___flge
                            ___flmul
                            ___fltol
                           ___xxtofl
 ---------------------------------------------------------------------------------
 (3) ___xxtofl                                            14    10      4     656
                                              7 COMRAM    14    10      4
                  _ADC_GetConversion (ARG)
 ---------------------------------------------------------------------------------
 (3) ___fltol                                             10     6      4     517
                                              2 COMRAM    10     6      4
 ---------------------------------------------------------------------------------
 (3) ___flmul                                             25    17      8    3053
                                             27 COMRAM    25    17      8
                            ___fldiv (ARG)
 ---------------------------------------------------------------------------------
 (3) ___flge                                              12     4      8     626
                                              2 COMRAM    12     4      8
 ---------------------------------------------------------------------------------
 (3) ___fldiv                                             25    17      8    2183
                                              2 COMRAM    25    17      8
 ---------------------------------------------------------------------------------
 (3) _ADC_GetConversion                                    5     3      2      31
                                              2 COMRAM     5     3      2
 ---------------------------------------------------------------------------------
 (1) _shutdown_seq                                         0     0      0    5292
            _canbus_shutdown_success
 ---------------------------------------------------------------------------------
 (2) _canbus_shutdown_success                              2     0      2    5292
                                             26 COMRAM     2     0      2
                       _CAN_transmit
 ---------------------------------------------------------------------------------
 (1) _e_stop_seq                                           0     0      0    5292
                     _canbus_msg_bps
 ---------------------------------------------------------------------------------
 (2) _canbus_msg_bps                                       2     0      2    5292
                                             26 COMRAM     2     0      2
                       _CAN_transmit
 ---------------------------------------------------------------------------------
 (1) _canbus_msg_ok                                        2     0      2    5292
                                             26 COMRAM     2     0      2
                       _CAN_transmit
 ---------------------------------------------------------------------------------
 (1) _aux_battery_LV                                       0     0      0    5382
                  _canbus_msg_auxlow
 ---------------------------------------------------------------------------------
 (2) _canbus_msg_auxlow                                    2     0      2    5382
                                             26 COMRAM     2     0      2
                       _CAN_transmit
 ---------------------------------------------------------------------------------
 (3) _CAN_transmit                                         7     5      2    5171
                                             20 COMRAM     6     4      2
                   _convertCANid2Reg
 ---------------------------------------------------------------------------------
 (4) _convertCANid2Reg                                    18     5     13    2425
                                              2 COMRAM    18     5     13
 ---------------------------------------------------------------------------------
 (1) _SYSTEM_Initialize                                    0     0      0     121
                     _ADC_Initialize
                    _ECAN_Initialize
               _INTERRUPT_Initialize
              _OSCILLATOR_Initialize
             _PIN_MANAGER_Initialize
 ---------------------------------------------------------------------------------
 (2) _PIN_MANAGER_Initialize                               0     0      0       0
 ---------------------------------------------------------------------------------
 (2) _OSCILLATOR_Initialize                                0     0      0       0
 ---------------------------------------------------------------------------------
 (2) _INTERRUPT_Initialize                                 0     0      0       0
 ---------------------------------------------------------------------------------
 (2) _ECAN_Initialize                                      1     1      0     121
                                              4 COMRAM     1     1      0
     _ECAN_SetWakeUpInterruptHandler
 ---------------------------------------------------------------------------------
 (3) _ECAN_SetWakeUpInterruptHandler                       2     0      2     121
                                              2 COMRAM     2     0      2
 ---------------------------------------------------------------------------------
 (2) _ADC_Initialize                                       0     0      0       0
 ---------------------------------------------------------------------------------
 (1) _CAN_receive                                          3     1      2    2358
                                             21 COMRAM     3     1      2
           _convertReg2ExtendedCANid
           _convertReg2StandardCANid
 ---------------------------------------------------------------------------------
 (2) _convertReg2StandardCANid                            15    11      4     347
                                              2 COMRAM    15    11      4
 ---------------------------------------------------------------------------------
 (2) _convertReg2ExtendedCANid                            19    15      4    1075
                                              2 COMRAM    19    15      4
 ---------------------------------------------------------------------------------
 Estimated maximum stack depth 4
 ---------------------------------------------------------------------------------
 (Depth) Function   	        Calls       Base Space   Used Autos Params    Refs
 ---------------------------------------------------------------------------------
 (5) _INTERRUPT_InterruptManager                           2     2      0       0
                                              0 COMRAM     2     2      0
                      _ECAN_WAKI_ISR
 ---------------------------------------------------------------------------------
 (6) _ECAN_WAKI_ISR                                        0     0      0       0
                   Absolute function *
      _WakeUpDefaultInterruptHandler *
 ---------------------------------------------------------------------------------
 (7) _WakeUpDefaultInterruptHandler                        0     0      0       0
 ---------------------------------------------------------------------------------
 (7) Absolute function(Fake)                               0     0      0       0
 ---------------------------------------------------------------------------------
 Estimated maximum stack depth 7
 ---------------------------------------------------------------------------------

 Call Graph Graphs:

 _main (ROOT)
   _ADC_Conv_pinNine
     _ADC_GetConversion
     _CAN_transmit
       _convertCANid2Reg
     ___fldiv
     ___flge
     ___flmul
       ___fldiv (ARG)
     ___fltol
     ___xxtofl
       _ADC_GetConversion (ARG)
   _ADC_Conv_pinSeven
     _ADC_GetConversion
     _CAN_transmit
     ___fldiv
     ___flge
     ___flmul
     ___fltol
     ___xxtofl
   _CAN_receive
     _convertReg2ExtendedCANid
     _convertReg2StandardCANid
   _SYSTEM_Initialize
     _ADC_Initialize
     _ECAN_Initialize
       _ECAN_SetWakeUpInterruptHandler
     _INTERRUPT_Initialize
     _OSCILLATOR_Initialize
     _PIN_MANAGER_Initialize
   _aux_battery_LV
     _canbus_msg_auxlow
       _CAN_transmit
   _canbus_msg_ok
     _CAN_transmit
   _e_stop_seq
     _canbus_msg_bps
       _CAN_transmit
   _shutdown_seq
     _canbus_shutdown_success
       _CAN_transmit
   _start_up_seq
     _ADC_Conv_pinNine
     _ADC_Conv_pinSeven
     _canbus_latch_shutdown
       _CAN_transmit
     _canbus_msg_auxlow
     _canbus_msg_startup_success
       _CAN_transmit
     _canbus_msg_startupfail
       _CAN_transmit

 _INTERRUPT_InterruptManager (ROOT)
   _ECAN_WAKI_ISR
     Absolute function(Fake) *
     _WakeUpDefaultInterruptHandler *

 Address spaces:
Name               Size   Autos  Total    Cost      Usage
BIGRAM             E40      0       0      52        0.0%
EEDATA             400      0       0       0        0.0%
BITBANK13          100      0       0      49        0.0%
BANK13             100      0       0      22        0.0%
BITBANK12          100      0       0      48        0.0%
BANK12             100      0       0      21        0.0%
BITBANK11          100      0       0      47        0.0%
BANK11             100      0       0      20        0.0%
BITBANK10          100      0       0      46        0.0%
BANK10             100      0       0      19        0.0%
BITBANK9           100      0       0      45        0.0%
BANK9              100      0       0      18        0.0%
BITBANK8           100      0       0      44        0.0%
BANK8              100      0       0      17        0.0%
BITBANK7           100      0       0      43        0.0%
BANK7              100      0       0      16        0.0%
BITBANK6           100      0       0      42        0.0%
BANK6              100      0       0      15        0.0%
BITBANK5           100      0       0      41        0.0%
BANK5              100      0       0      14        0.0%
BITBANK4           100      0       0      12        0.0%
BANK4              100      0       0      13        0.0%
BITBANK3           100      0       0      10        0.0%
BANK3              100      0       0      11        0.0%
BITBANK2           100      0       0       8        0.0%
BANK2              100      0       0       9        0.0%
BITBANK1           100      0       0       6        0.0%
BANK1              100      0      1C       7       10.9%
BITBANK0            A0      0       0       4        0.0%
BANK0               A0      2      9C       5       97.5%
BITBIGSFRlllhll     62      0       0      37        0.0%
BITCOMRAM           5E      0       0       0        0.0%
COMRAM              5E     42      5C       1       97.9%
BITBANK14           41      0       0      50        0.0%
BANK14              41      0       0      51        0.0%
BITBIGSFRhhllhl     24      0       0      27        0.0%
BITBIGSFRlllhhh     1D      0       0      33        0.0%
BITBIGSFRhhlh       1D      0       0      24        0.0%
BITBIGSFRllhhhh     11      0       0      30        0.0%
BITBIGSFRhhh         D      0       0      23        0.0%
BITBIGSFRhhllhl      B      0       0      26        0.0%
BITBIGSFRhll         4      0       0      29        0.0%
BITBIGSFRllhhhl      3      0       0      31        0.0%
BITBIGSFRhhlll       3      0       0      28        0.0%
BITBIGSFRlllhhh      2      0       0      36        0.0%
BITBIGSFRlllhhh      2      0       0      35        0.0%
BITBIGSFRlllhhh      2      0       0      34        0.0%
BITBIGSFRllhll       2      0       0      32        0.0%
BITBIGSFRllllll      2      0       0      39        0.0%
BITBIGSFRhhllhh      1      0       0      25        0.0%
BITBIGSFRllllhl      1      0       0      38        0.0%
BIGSFR               0      0       0     200        0.0%
BITSFR_2             0      0       0     200        0.0%
SFR_2                0      0       0     200        0.0%
BITSFR_1             0      0       0     200        0.0%
SFR_1                0      0       0     200        0.0%
BITSFR               0      0       0     200        0.0%
SFR                  0      0       0     200        0.0%
STACK                0      0       0       2        0.0%
NULL                 0      0       0       0        0.0%
ABS                  0      0     114      40        0.0%
DATA                 0      0     114       3        0.0%
CODE                 0      0       0       0        0.0%


Microchip Technology PIC18 Macro Assembler V2.36 build 20220127204148 
Symbol Table                                                                                   Thu Oct 05 18:23:41 2023

                                     ___fldiv@aexp 001B                                       ___fldiv@bexp 001A  
                                     ___fldiv@sign 0013                                                 l33 1AFA  
                                               l60 1C9C                                                 l57 1C62  
                                               _rx 00EC                                       _shutdown_seq 1C9E  
                        __end_of_canbus_msg_auxlow 1C30                                                l430 0B2C  
                                              l440 0D80                                                l416 10DA  
                                              l433 0C58                                                l425 0928  
                                              l426 0B2C                                                l530 1AC4  
                                              l515 1C78                                                l427 0A2A  
                                              l603 1C2E                                                l460 1608  
                                              l612 1C02                                                l621 1920  
                                              l606 1BAA                                                l630 1956  
                                              l463 1A38                                                l471 1CC2  
                                              l527 1AA4                                                l615 1B7E  
                                              l640 19C0                                                l632 1958  
                                              l609 1B52                                                l650 1C8A  
                                              l643 1CAA                                                l635 1972  
                                              l619 191E                                                l468 124E  
                                              l653 1CB8                                                l637 1974  
                                              l590 14CE                                                l487 1CCA  
                                              l585 138E                                                l594 1B26  
                                              l597 1BD6                                                l942 1812  
                                              l937 17CC                                                l969 170E  
            ECAN_SetWakeUpInterruptHandler@handler 0003                                                _tx1 006E  
                                              _tx2 0060                                                _tx3 00DE  
                                              _tx4 00D0                                                _tx5 00C2  
                                              _tx6 00B4                                                _tx7 00A6  
                                              _tx8 0098                                                _tx9 008A  
                            __end_of_canbus_msg_ok 1C04                                                tosl 000FFD  
                                              wreg 000FE8                                       ___flmul@aexp 0029  
                                     ___flmul@bexp 002E                                       ___flmul@sign 0028  
                                     ___flmul@temp 0033                                       ___flmul@prod 002F  
                       ??_convertReg2StandardCANid 0007                                       ___fltol@exp1 000C  
                                             l1303 043A                                               l1330 0F34  
                                             l1341 0ECC                                               l1254 0812  
                                             l1334 0E70                                               l1327 0DD8  
                                             l1256 0672                                               l3201 08D2  
                                             l1265 06B8                                               l4001 18E4  
                                             l1290 0478                                               l3211 0922  
                                             l3203 08E2                                               l1267 0730  
                                             l1259 0636                                               l4003 18F0  
                                             l1268 071E                                               l3221 098A  
                                             l3213 0924                                               l3205 08F2  
                                             l3301 04B6                                               l1293 030A  
                                             l4005 18FA                                               l1286 0114  
                                             l3151 1128                                               l3143 10DC  
                                             l3231 09C4                                               l3223 098E  
                                             l3215 0936                                               l3207 0902  
                                             l3311 04E6                                               l3303 04C6  
                                             l1295 0382                                               l1296 0370  
                                             l3161 11A8                                               l3153 1162  
                                             l3145 10DC                                               l3241 0A14  
                                             l3233 09D4                                               l3225 0992  
                                             l3217 0982                                               l3209 0912  
                                             l3401 075A                                               l3321 051C  
                                             l3313 04EC                                               l3305 04C8  
                                             l3171 123E                                               l3163 11B6  
                                             l3155 1168                                               l3147 10EE  
                                             l3251 0A88                                               l3243 0A24  
                                             l3235 09E4                                               l3227 09A4  
                                             l3219 0986                                               l3411 07D2  
                                             l3403 0784                                               l3331 055C  
                                             l3323 052C                                               l3315 04FA  
                                             l3307 04D0                                               l3165 11E4  
                                             l3157 119A                                               l3149 10FA  
                                             l3261 0AB6                                               l3253 0A8C  
                                             l3237 09F4                                               l3229 09B4  
                                             l3181 0824                                               l3421 0808  
                                             l3413 07EE                                               l3405 0788  
                                             l3333 056C                                               l3341 058C  
                                             l3325 052E                                               l3317 04FC  
                                             l3309 04E0                                               l3501 0248  
                                             l3159 11A2                                               l3167 11F4  
                                             l3271 0B06                                               l3263 0AC6  
                                             l3255 0A90                                               l3247 0A38  
                                             l3239 0A04                                               l3191 088C  
                                             l3183 0834                                               l3415 07F2  
                                             l3407 07A2                                               l3351 05CA  
                                             l3343 059C                                               l3335 0574  
                                             l3319 050C                                               l3327 0536  
                                             l3511 02F0                                               l3503 0264  
                                             l3431 005C                                               l3177 1CBA  
                                             l3169 120C                                               l3273 0B16  
                                             l3265 0AD6                                               l3257 0A94  
                                             l3249 0A84                                               l3193 0890  
                                             l3185 0880                                               l3281 1A8E  
                                             l3417 0800                                               l3409 07B8  
                                             l3361 0612                                               l3353 05DA  
                                             l3345 059C                                               l3337 0578  
                                             l3329 0546                                               l3521 032C  
                                             l3513 02FA                                               l3505 028E  
                                             l3441 009C                                               l3433 006A  
                                             l3275 0B26                                               l3267 0AE6  
                                             l3259 0AA6                                               l3195 08A2  
                                             l3187 0884                                               l3179 0814  
                                             l3283 1AA0                                               l3419 0806  
                                             l3371 0660                                               l3363 0626  
                                             l3355 05EA                                               l3291 047A  
                                             l3531 039E                                               l3523 033A  
                                             l3515 0308                                               l3507 02C4  
                                             l3451 00CC                                               l3443 00A2  
                                             l3435 006C                                               l3603 169A  
                                             l3701 109A                                               l3269 0AF6  
                                             l3197 08B2                                               l3189 0888  
                                             l3285 1AA2                                               l3381 06A8  
                                             l3373 0670                                               l3365 0634  
                                             l3357 05FA                                               l3349 05B0  
                                             l3293 0486                                               l3541 0408  
                                             l3533 03AC                                               l3525 0368  
                                             l3517 031A                                               l3509 02D2  
                                             l3461 0104                                               l3453 00CE  
                                             l3445 00B2                                               l3437 007C  
                                             l3429 0050                                               l3621 16FE  
                                             l3613 16C2                                               l3605 16A4  
                                             l3711 10BE                                               l3703 109C  
                                             l3199 08C2                                               l3287 1AB2  
                                             l3391 06E8                                               l3383 06B6  
                                             l3375 0682                                               l3367 0640  
                                             l3359 0602                                               l3295 0494  
                                             l3551 045E                                               l3543 0422  
                                             l3535 03D6                                               l3519 0328  
                                             l3471 0154                                               l3463 0124  
                                             l3455 00DE                                               l3447 00B8  
                                             l3439 008C                                               l3615 16CE  
                                             l3607 16AE                                               l3631 0DE8  
                                             l3721 14E8                                               l3713 10C0  
                                             l3705 109E                                               l3393 0716  
                                             l3377 0698                                               l3385 06C8  
                                             l3369 065E                                               l3297 0496  
                                             l3561 173E                                               l3545 043E  
                                             l3553 0464                                               l3529 0392  
                                             l3537 03DA                                               l3481 01A4  
                                             l3473 015E                                               l3465 0134  
                                             l3457 00EE                                               l3449 00BE  
                                             l3617 16DE                                               l3641 0E26  
                                             l3633 0DFE                                               l3625 0D84  
                                             l3731 159A                                               l3723 14F0  
                                             l3715 10C4                                               l3707 10B0  
                                             l3387 06D6                                               l3379 069E  
                                             l3299 04A6                                               l3571 17AC  
                                             l3563 174E                                               l3555 0468  
                                             l3547 044E                                               l3539 03F4  
                                             l3491 01E6                                               l3483 01B0  
                                             l3475 0174                                               l3459 00FE  
                                             l3619 16EE                                               l3651 0EAE  
                                             l3643 0E58                                               l3627 0D94  
                                             l3811 1B16                                               l3733 15B2  
                                             l3725 151A                                               l3717 14D2  
                                             l3741 19C4                                               l3901 0CE6  
                                             l3709 10BC                                               l3821 1C04  
                                             l3397 0740                                               l3389 06DA  
                                             l3573 17BA                                               l3565 177C  
                                             l3549 045C                                               l3493 01F6  
                                             l3485 01BE                                               l3477 0180  
                                             l3469 0148                                               l3581 160A  
                                             l3661 0F04                                               l3653 0EBC  
                                             l3645 0E5A                                               l3637 0E12  
                                             l3629 0DA2                                               l3805 14C6  
                                             l3813 1B1A                                               l3735 15E8  
                                             l3727 1532                                               l3719 14E2  
                                             l3743 19C4                                               l3911 0D36  
                                             l3903 0CF6                                               l3671 1AC6  
                                             l3823 1C1E                                               l3815 1BAC  
                                             l3831 1B9E                                               l3399 074C  
                                             l3575 180A                                               l3567 178C  
                                             l3559 1710                                               l3495 0210  
                                             l3487 01CA                                               l3479 0198  
                                             l3591 1660                                               l3583 1620  
                                             l3663 0F14                                               l3655 0EDA  
                                             l3647 0E66                                               l3639 0E1A  
                                             l3737 15F8                                               l3729 1564  
                                             l3745 19EE                                               l3913 0D46  
                                             l3905 0D06                                               l3681 1C8C  
                                             l3673 1AEA                                               l3825 1C22  
                                             l3817 1BC6                                               l3577 1810  
                                             l3569 179A                                               l3497 0220  
                                             l3489 01DA                                               l3593 1670  
                                             l3665 0F22                                               l3657 0EDC  
                                             l3649 0EA2                                               l3761 1330  
                                             l3753 1250                                               l3841 1B6E  
                                             l3833 1B28                                               l3809 1AFC  
                                             l3747 1A18                                               l3915 0D56  
                                             l3907 0D16                                               l3923 0D7E  
                                             l3683 1C64                                               l3691 0F5C  
                                             l3675 1AEC                                               l3851 1C5A  
                                             l3931 1BF6                                               l3819 1BCA  
                                             l3827 1B80                                               l3499 023C  
                                             l3595 1674                                               l3587 1634  
                                             l3667 0F24                                               l3659 0EE0  
                                             l3771 137A                                               l3763 1334  
                                             l3755 1278                                               l3843 1B72  
                                             l3835 1B42                                               l3749 1A28  
                                             l3917 0D66                                               l3909 0D26  
                                             l3861 0B4E                                               l3693 0F5E  
                                             l3685 0F36                                               l3677 1AF8  
                                             l3853 1C5E                                               l3845 1C4E  
                                             l3829 1B9A                                               l3597 1682  
                                             l3589 165E                                               l3781 1390  
                                             l3765 1338                                               l3757 12D0  
                                             l3837 1B46                                               l3941 193E  
                                             l3933 1908                                               l3919 0D76  
                                             l3871 0BCE                                               l3863 0B5A  
                                             l3855 0B2E                                               l3695 0F68  
                                             l3687 0F3A                                               l3679 1CC8  
                                             l3847 1C52                                               l3927 1BD8  
                                             l3791 1474                                               l3783 13B8  
                                             l3767 133C                                               l3759 1320  
                                             l3839 1B54                                               l3943 1940  
                                             l3935 1922                                               l3951 1992  
                                             l3881 0C1E                                               l3873 0BDE  
                                             l3865 0B8C                                               l3857 0B32  
                                             l3697 0F6A                                               l3689 0F4E  
                                             l3849 1C56                                               l3929 1BF2  
                                             l3961 1C86                                               l3793 1478  
                                             l3785 1410                                               l3777 1386  
                                             l3769 1348                                               l3953 19A8  
                                             l3945 195A                                               l3937 193A  
                                             l3891 0C68                                               l3883 0C2E  
                                             l3875 0BEE                                               l3867 0B98  
                                             l3859 0B40                                               l3699 0F6C  
                                             l3963 1C88                                               l3795 147C  
                                             l3787 1460                                               l3955 19B4  
                                             l3947 1962                                               l3939 193C  
                    ADC_Conv_pinNine@input_voltage 0039                                               l3893 0C76  
                                             l3885 0C3E                                               l3877 0BFE  
                                             l3869 0BBE                                               l3965 1CAC  
                                             l3957 1C9E                                               l3797 1488  
                                             l3789 1470                                               l3949 1976  
                                             l3981 183C                                               l3973 1814  
                                             l3895 0C82                                               l3887 0C4E  
                                             l3879 0C0E                                               l3959 1C7A  
                                             l3799 14BA                                               l3991 1892  
                                             l3983 1844                                               l3975 1818  
                           _canbus_msg_startupfail 1AFC                                               l3897 0CB4  
                                             l3889 0C50                                               l3993 18A8  
                                             l3985 1860                                               l3977 1820  
                                             l3899 0CC0                                               l3995 18AC  
                                             l3987 1872                                               l3979 182A  
                                             l3997 18C2                                               l3989 188E  
                                             l3999 18C6                                               u2000 04B6  
                                             u2001 04B2                                               u2010 04FA  
                                             u2011 04F6                                               u2100 0698  
                                             u2020 050C                                               u2101 0694  
                                             u2021 0508                                               u2110 06B6  
                                             u2030 051C                                               u2111 06B2  
                                             u2031 0518                                               u2200 0800  
                                             u2120 06D6                                               u2040 055C  
                                             u2201 07FC                                               u2121 06D2  
                                             u2041 0558                                               u2130 06E8  
                                             u2050 059C                                               u2210 006A  
                                             u2131 06E4                                               u2051 0598  
                                             u2211 0066                                               u2140 0716  
                                             u2060 0612                                               u2300 0308  
                                             u2220 007C                                               u2141 0712  
                                             u2061 060E                                               u2301 0304  
                                             u2221 0078                                               _LATA 000F89  
                                             u2150 072C                                               u2070 0634  
                                             u2310 0328                                               u2230 008C  
                                             _LATB 000F8A                                               u2151 0728  
                                             u2071 0630                                               u2311 0324  
                                             u2231 0088                                               _LATC 000F8B  
                                             u2160 0740                                               u2080 065E  
                                             u2400 173E                                               u2320 033A  
                                             u2240 00CC                                               _LATD 000F8C  
                                             u2161 073C                                               u2081 065A  
                                             u2401 173A                                               u2321 0336  
                                             u2241 00C8                                               _LATE 000F8D  
                                             u2170 075A                                               u2090 0682  
                                             u2410 177C                                               u2330 0368  
                                             u2250 00DE                                               u2171 0756  
                                             u2091 067E                                               u2411 1778  
                                             u2331 0364                                               u2251 00DA  
                                             u2180 07A2                                               u2420 179A  
                                             u2340 037E                                               u2260 00EE  
                                             u2500 16DE                                               u2181 079E  
                                             u2421 1796                                               u2341 037A  
                                             u2261 00EA                                               u2501 16DA  
                                             u2190 07D2                                               u2430 17BA  
                                             u2350 0392                                               u2270 0124  
                                             u2510 16EE                                               u2191 07CE  
                                             u2431 17B6                                               u2351 038E  
                                             u2271 0120                                               u2511 16EA  
                                             u2440 180A                                               u2360 03AC  
                                             u2280 0134                                               u2600 0F14  
                                             u2520 0D94                                               u2441 1806  
                                             u2361 03A8                                               u2281 0130  
                                             u2601 0F10                                               u2521 0D90  
                                             u2370 03F4                                               u2290 02AE  
                                             u2450 1620                                               u2610 0F22  
                                             u2530 0DA2                                               u2371 03F0  
                                             u2451 161C                                               u2611 0F1E  
                                             u2531 0D9E                                               u2700 0C68  
                                             u2620 0F4E                                               u2380 0422  
                                             u2460 1654                                               u2540 0DFE  
                                             u2701 0C64                                               u2621 0F4A  
                                             u2381 041E                                               u2541 0DFA  
                                             u2710 0C76                                               u2630 10DA  
                                             u1910 10EE                                               u2390 045C  
                                             u2470 1682                                               u2550 0E54  
                                             u2711 0C72                                               u2631 10D6  
                                             u1911 10EA                                               u2391 0458  
                                             u2295 02A4                                               u2471 167E  
                                             u2551 0E50                                               u2480 1696  
                                             u2560 0E9E                                               u2720 191E  
                                             u2800 18E4                                               u2481 1692  
                                             u2465 164A                                               u2561 0E9A  
                                             u2721 191A                                               u2801 18E0  
                                             u2490 16BE                                               u2570 0EBC  
                                             u2730 1956                                               u2491 16BA  
                                             u2571 0EB8                                               u2731 1952  
                                             u1940 0834                                               u2580 0ECC  
                                             u2660 137A                                               u2740 183C  
                                             u2645 1544                                               u1925 117A  
                                             u1941 0830                                               u2581 0EC8  
                                             u2661 1376                                               u2741 1838  
                                             u1950 0936                                               u2590 0EDA  
                                             u2670 14BA                                               u2750 1860  
                                             u2655 19F6                                               u1935 121E  
                                             u1951 0932                                               u2591 0ED6  
                                             u2671 14B6                                               u2751 185C  
                                             u2680 0B40                                               u1960 0A38  
                                             u2760 1872                                               u2681 0B3C  
                                             u1961 0A34                                               u2817 192C  
                                             u2761 186E                                               u2690 0B4E  
                                             u1970 1AB2                                               u2770 188E  
                                             u2691 0B4A                                               u1971 1AAE  
                                             u2827 199C                                               u2771 188A  
                                             u1980 0494                                               u2780 18A8  
                                             u1981 0490                                               u2781 18A4  
                                             u1990 04A6                                               u2790 18C2  
                                             u1991 04A2                                               u2791 18BE  
                                             _WPUB 000F5B                                               _tx10 007C  
                                             _tx20 0100                                               _tx13 010E  
                                             _tx21 004B                                               _main 1814  
                     convertCANid2Reg@passedInEIDH 0008                       convertCANid2Reg@passedInEIDL 000A  
                           __end_of_canbus_msg_bps 1BD8                                               fsr2h 000FDA  
                                             indf2 000FDF                                               fsr1l 000FE1  
                                             fsr2l 000FD9                                               btemp 005D  
                     convertCANid2Reg@passedInSIDH 000C                       convertCANid2Reg@passedInSIDL 000E  
                                     _start_up_seq 1908                                   _ADC_Conv_pinNine 1390  
                                             prodh 000FF4                                               prodl 000FF3  
                                             start 004C                                    ___fldiv@new_exp 0014  
                                     ___param_bank 000000                           ADC_Conv_pinSeven@adc_val 003D  
                    __end_of_OSCILLATOR_Initialize 1C9E                                      ___fltol@sign1 000B  
                                            ?_main 0001                                    __end_of___fldiv 0814  
                                  __end_of___flmul 047A                                    __end_of___fltol 1710  
                                            _BSEL0 000E7D                                              i2l407 1CCC  
                                            i2l474 1C4C                                              i2l496 0040  
                                            _MSEL0 000E79                                              _MSEL1 000E7A  
                                            _MSEL2 000E7B                                              _MSEL3 000E7C  
                                            _TRISA 000F92                                              _TRISB 000F93  
                                            _TRISC 000F94                                              _TRISD 000F95  
                                            _TRISE 000F96                              CAN_receive@tempCanMsg 0016  
                             __end_of_CAN_transmit 0B2E                           ADC_Conv_pinSeven@voltage 0037  
                                            pclath 000FFA                                              pclatu 000FFB  
                                            tablat 000FF5                                  _ADC_Conv_pinSeven 1250  
                                            ttemp5 005E                                              ttemp6 0061  
                                            ttemp7 0065                convertReg2ExtendedCANid@ConvertedID 0012  
                                            status 000FD8                                              wtemp8 005E  
                                  ?_canbus_msg_bps 001B                               CAN_transmit@tempEIDH 0017  
                             CAN_transmit@tempEIDL 0018                               CAN_transmit@tempSIDH 0019  
                             CAN_transmit@tempSIDL 001A                                 ?_ADC_Conv_pinSeven 0035  
                                  __initialization 1A3A                                       __end_of_main 1908  
                              ??_ADC_Conv_pinSeven 0037                        ?_INTERRUPT_InterruptManager 0001  
                                           ??_main 0043                                      __activetblptr 000002  
                  ??_WakeUpDefaultInterruptHandler 0001                                  ??_ECAN_Initialize 0005  
                                           _ADCON0 000FC2                                             _ADCON1 000FC1  
                                           _ADCON2 000FC0                                             _CANCON 000F6F  
                                           _ADRESH 000FC4                                             _ADRESL 000FC3  
                                           _ANCON0 000F5D                                             _ANCON1 000F5C  
                                           _CIOCON 000F70                          __end_of_ADC_Conv_pinSeven 1390  
                                   _aux_battery_LV 1CAC                      __end_of_canbus_latch_shutdown 1B80  
                                           i2l2131 1C4A                                             i2l2221 003C  
                                           i2l2215 0012                                             i2l2129 1C30  
                                           i2l2217 0020                                             i2l2219 002E  
                                           _OSCCON 000FD3                                             _RXB0D0 000F66  
                                           _RXB0D1 000F67                                             _RXB0D2 000F68  
                                           _RXB0D3 000F69                                             _RXB1D0 000F36  
                                           _RXB0D4 000F6A                                             _RXB1D1 000F37  
                                           _RXB0D5 000F6B                                             _RXB1D2 000F38  
                                           _RXB0D6 000F6C                                             _RXB1D3 000F39  
                                           _RXB0D7 000F6D                                             _RXB1D4 000F3A  
                                           _RXB1D5 000F3B                                             _RXB1D6 000F3C  
                                           _RXB1D7 000F3D                                             _TXB0D0 000F26  
                                           _TXB0D1 000F27                                             _TXB0D2 000F28  
                                           _TXB0D3 000F29                                             _TXB1D0 000F16  
                                           _TXB0D4 000F2A                                             _TXB1D1 000F17  
                                           _TXB0D5 000F2B                                             _TXB1D2 000F18  
                                           _TXB0D6 000F2C                                             _TXB1D3 000F19  
                                           _TXB0D7 000F2D                                             _TXB2D0 000F06  
                                           _TXB1D4 000F1A                                             _TXB2D1 000F07  
                                           _TXB1D5 000F1B                                             _TXB2D2 000F08  
                                           _TXB1D6 000F1C                                             _TXB2D3 000F09  
                                           _TXB1D7 000F1D                                             _TXB2D4 000F0A  
                                           _TXB2D5 000F0B                                             _TXB2D6 000F0C  
                                           _TXB2D7 000F0D                                   __end_of___xxtofl 0F36  
                      canbus_latch_shutdown@number 001B                                             ___flge 1710  
                                        ??___fldiv 000B                                          ??___flmul 0024  
                                        ??___fltol 0007                            _canbus_shutdown_success 1B80  
                                           clear_0 1A60                                             clear_1 1A6C  
                                           clear_2 1A78                                             isa$std 000001  
                                     __pdataCOMRAM 0059                     ADC_Conv_pinSeven@input_voltage 0039  
                 __end_of_convertReg2StandardCANid 1A3A                                             tblptrh 000FF7  
                                           tblptrl 000FF6                                             tblptru 000FF8  
                         ADC_GetConversion@channel 0007                             __end_of_aux_battery_LV 1CBA  
                                       ___flge@ff1 0003                                         ___flge@ff2 0007  
                                     ___xxtofl@arg 0012                                       ___xxtofl@exp 0011  
                                _SYSTEM_Initialize 1C4E                                       ___xxtofl@val 0008  
                                       __accesstop 0060                            __end_of__initialization 1A7E  
                               ?_SYSTEM_Initialize 0001                           _convertReg2ExtendedCANid 14D0  
                           CAN_receive@returnValue 0018                                      ___rparam_used 000001  
                                       ___fltol@f1 0003                                     __pcstackCOMRAM 0001  
                              ??_SYSTEM_Initialize 0006                           __end_of_ADC_Conv_pinNine 14D0  
                          ?_canbus_msg_startupfail 001B                                      _ECAN_WAKI_ISR 1C30  
                                  ?_aux_battery_LV 0001              convertReg2StandardCANid@tempRXBn_SIDH 0009  
            convertReg2StandardCANid@tempRXBn_SIDL 0003                          __end_of_SYSTEM_Initialize 1C64  
                          ADC_Conv_pinNine@adc_val 003D                                         __pbssBANK0 0060  
                                       __pbssBANK1 0100              __end_of_WakeUpDefaultInterruptHandler 1CCE  
                    _WakeUpDefaultInterruptHandler 1CCC                          ??_canbus_shutdown_success 001D  
                                          ?___flge 0003                                       _CAN_transmit 0814  
                          ADC_Conv_pinNine@voltage 0037                                    _STARTUP_SUCCESS 0045  
                                       _e_stop_seq 1C7A                                            _ECANCON 000F72  
                                          _CANSTAT 000F6E                   ??_ECAN_SetWakeUpInterruptHandler 0005  
                  ?_ECAN_SetWakeUpInterruptHandler 0003                                            _BRGCON1 000E43  
                                          _BRGCON2 000E44                                            _BRGCON3 000E45  
                   __end_of_canbus_msg_startupfail 1B28                                          ?___xxtofl 0008  
                                          _REFOCON 000F9A                                            _OSCCON2 000FD2  
                                   ?_ECAN_WAKI_ISR 0001                                            _RXB0DLC 000F65  
                                          _RXB1DLC 000F35                                            _OSCTUNE 000F9B  
                                          i2u82_48 1C36                                            i2u91_40 0020  
                                          i2u82_49 1C4A                                            i2u91_41 001C  
                                          i2u92_40 002E                                            i2u92_41 002A  
                                          i2u93_40 003C                                            i2u93_41 0038  
                                          _TXB0DLC 000F25                                            _TXB1DLC 000F15  
                                          _TXB2DLC 000F05                                            _RXFCON0 000E46  
                                          _RXFCON1 000E47                                   ??_canbus_msg_bps 001D  
                    canbus_shutdown_success@number 001B                               _ADC_InterruptHandler 0047  
                                          __Hparam 0000                                            __Lparam 0000  
                        ?_convertReg2StandardCANid 0003                                            ___fldiv 047A  
                                          ___flmul 0050                                            ___fltol 160A  
                                  _ECAN_Initialize 0F36                                            __pcinit 1A3A  
                                          __ramtop 0F00                                            __ptext0 1814  
                                          __ptext1 1908                                            __ptext2 1AFC  
                                          __ptext3 1B28                                            __ptext4 1B54  
                                          __ptext5 1250                                            __ptext6 1390  
                                          __ptext7 0D82                                            __ptext8 160A  
                                          __ptext9 0050                              _OSCILLATOR_Initialize 1C8C  
                                       ??___xxtofl 000C                    __end_of_canbus_shutdown_success 1BAC  
                                 _convertCANid2Reg 10DC                           ??_PIN_MANAGER_Initialize 0003  
                             end_of_initialization 1A7E                             _WakeUpInterruptHandler 0049  
                                    __Lmediumconst 0000                                      ??_CAN_receive 0018  
                 fp__WakeUpDefaultInterruptHandler 0000                     ?_WakeUpDefaultInterruptHandler 0001  
                                        _RXF10EIDH 000E5A                                          _RXF10EIDL 000E5B  
                                        _RXF11EIDH 000E5E                                          _RXF11EIDL 000E5F  
                                        _RXF12EIDH 000E62                                          _RXF12EIDL 000E63  
                                        _RXF13EIDH 000E66                                          _RXF13EIDL 000E67  
                                        _RXF14EIDH 000E6A                                          _RXF14EIDL 000E6B  
                                        _RXF15EIDH 000E6E                                          _RXF15EIDL 000E6F  
                                        _RXF10SIDH 000E58                                          _RXF10SIDL 000E59  
                                        _RXF11SIDH 000E5C                                          _RXF11SIDL 000E5D  
                                        _RXF12SIDH 000E60                                          _RXF12SIDL 000E61  
                                          postdec1 000FE5                                          _RXF13SIDH 000E64  
                                        _RXF13SIDL 000E65                                          _RXF14SIDH 000E68  
                                        _RXF14SIDL 000E69                                          _RXF15SIDH 000E6C  
                                        _RXF15SIDL 000E6D                                            postinc0 000FEE  
                                          postinc2 000FDE                 __end_of_canbus_msg_startup_success 1B54  
                       _canbus_msg_startup_success 1B28                                          _THRESVOLT 0059  
                                      ?_e_stop_seq 0001                                    ??_ECAN_WAKI_ISR 0001  
                                    ___xxtofl@sign 0010                                      _canbus_msg_ok 1BD8  
                           CAN_transmit@tempCanMsg 0015                                        ___fldiv@grs 0016  
                                      ___fldiv@rem 000F                         ??_convertReg2ExtendedCANid 0007  
                                      ___flmul@grs 002A                              _canbus_latch_shutdown 1B54  
                          __end_of_ECAN_Initialize 10DC                       __end_of_INTERRUPT_Initialize 1CCC  
                              __end_of_CAN_receive 0D82                                     __end_of___flge 1814  
                                    ?_shutdown_seq 0001                                      __pidataCOMRAM 1CC4  
                                   _ADC_Initialize 1C64                             ?_OSCILLATOR_Initialize 0001  
                                 ??_aux_battery_LV 001D                                     ?_canbus_msg_ok 001B  
                                ?_ADC_Conv_pinNine 0035                                start_initialization 1A3A  
                               ??_ADC_Conv_pinNine 0037                                      ?_start_up_seq 0001  
              convertReg2StandardCANid@returnValue 000A                                           ??___flge 000B  
                           __end_of_ADC_Initialize 1C7A                                     ??_shutdown_seq 001D  
                     canbus_msg_startupfail@number 001B                                          ___fldiv@a 0007  
                                        ___fldiv@b 0003                                          ___flmul@a 0020  
                                        ___flmul@b 001C                                        __pbssCOMRAM 0043  
                                    __pcstackBANK0 00FA             __end_of_ECAN_SetWakeUpInterruptHandler 1CC4  
                   _ECAN_SetWakeUpInterruptHandler 1CBA                             ?_canbus_latch_shutdown 001B  
                                   ??_start_up_seq 0041                                        _CAN_receive 0B2E  
                                 ?_ECAN_Initialize 0001                             _PIN_MANAGER_Initialize 1AC6  
                         __end_of_convertCANid2Reg 1250                                          __pintcode 0008  
                                         ?___fldiv 0003                                           ?___flmul 001C  
                                         ?___fltol 0003                                    ?_ADC_Initialize 0001  
                     ??_INTERRUPT_InterruptManager 0001                                    ??_canbus_msg_ok 001D  
                     ??_canbus_msg_startup_success 001D                                        _COMSTATbits 000F71  
                 __end_of_convertReg2ExtendedCANid 160A                     convertCANid2Reg@tempPassedInID 0003  
                             _INTERRUPT_Initialize 1CC8                           ?_canbus_shutdown_success 001B  
                                         _LATAbits 000F89                                           _LATCbits 000F8B  
                                         _PIE5bits 000F76                                           _PIR5bits 000F77  
                                         _RXB0EIDH 000F63                                           _RXB0EIDL 000F64  
                                         _RXB1EIDH 000F33                                           _RXB1EIDL 000F34  
                                         _RCONbits 000FD0                                           _RXB0SIDH 000F61  
                                         _RXB0SIDL 000F62                                           _RXF0EIDH 000EE2  
                                         _RXB1SIDH 000F31                                           _RXF0EIDL 000EE3  
                                         _RXB1SIDL 000F32                                           _RXF1EIDH 000EE6  
                                         _RXF1EIDL 000EE7                                           _RXF2EIDH 000EEA  
                                         _RXF2EIDL 000EEB                                           _RXF3EIDH 000EEE  
                                         _RXF3EIDL 000EEF                                           _RXF4EIDH 000EF2  
                                         _RXF4EIDL 000EF3                                           _RXF5EIDH 000EF6  
                                         _RXF5EIDL 000EF7                                           _RXF6EIDH 000E4A  
                                         _RXF6EIDL 000E4B                                           _RXF0SIDH 000EE0  
                                         _RXF7EIDH 000E4E                                           _RXF0SIDL 000EE1  
                                         _RXF7EIDL 000E4F                                           _RXF1SIDH 000EE4  
                                         _RXF8EIDH 000E52                                           _TXB0EIDH 000F23  
                                         _TXB0EIDL 000F24                                           _RXF1SIDL 000EE5  
                                         _RXF8EIDL 000E53                                           _RXF2SIDH 000EE8  
                                         _RXF9EIDH 000E56                                           _TXB1EIDH 000F13  
                                         _TXB1EIDL 000F14                                           _RXF2SIDL 000EE9  
                                         _RXF9EIDL 000E57                                           _RXF3SIDH 000EEC  
                                         _TXB2EIDH 000F03                                           _TXB2EIDL 000F04  
                                         _RXF3SIDL 000EED                                           _RXF4SIDH 000EF0  
                                         _RXF4SIDL 000EF1                                           _RXF5SIDH 000EF4  
                                         _RXF5SIDL 000EF5                                           _RXF6SIDH 000E48  
                                         _RXF6SIDL 000E49                                           _RXM0EIDH 000EFA  
                                         _RXF7SIDH 000E4C                                           _RXM0EIDL 000EFB  
                                         _RXF7SIDL 000E4D                                           _RXM1EIDH 000EFE  
                                         _RXF8SIDH 000E50                                           _TXB0SIDH 000F21  
                                         _RXM1EIDL 000EFF                                           _RXF8SIDL 000E51  
                                         _TXB0SIDL 000F22                                           _RXF9SIDH 000E54  
                                         _TXB1SIDH 000F11                                           _RXF9SIDL 000E55  
                                         _TXB1SIDL 000F12                                           _TXB2SIDH 000F01  
                                         _TXB2SIDL 000F02                                           _RXFBCON0 000E71  
                                         _RXFBCON1 000E72                                           _RXFBCON2 000E73  
                                         _RXFBCON3 000E74                                           _RXFBCON4 000E75  
                                         _RXFBCON5 000E76                                           _RXFBCON6 000E77  
                                         _RXFBCON7 000E78                        ?_canbus_msg_startup_success 001B  
                                         _RXM0SIDH 000EF8                                           _RXM0SIDL 000EF9  
                                         _RXM1SIDH 000EFC                                           _RXM1SIDL 000EFD  
                                     ??_e_stop_seq 001D                                         _ADCON0bits 000FC2  
                                      _INTCON2bits 000FF1                                          copy_data0 1A4E  
                            ?_INTERRUPT_Initialize 0001                               __end_of_shutdown_seq 1CAC  
                               __end_of_e_stop_seq 1C8C                           _convertReg2StandardCANid 19C2  
            convertReg2ExtendedCANid@tempRXBn_EIDH 000B              convertReg2ExtendedCANid@tempRXBn_EIDL 0003  
            convertReg2ExtendedCANid@tempRXBn_SIDH 0004              convertReg2ExtendedCANid@tempRXBn_SIDL 0005  
                                         __Hrparam 0000                                           __Lrparam 0000  
                                _ADC_GetConversion 1A8C                          convertCANid2Reg@canIdType 0007  
                          ??_OSCILLATOR_Initialize 0003                                 ?_ADC_GetConversion 0003  
                         ??_canbus_msg_startupfail 001D  convertReg2ExtendedCANid@CAN_standardLo_ID_hi3bits 0011  
                 canbus_msg_startup_success@number 001B                               __end_of_start_up_seq 19C2  
                              ??_ADC_GetConversion 0005  convertReg2ExtendedCANid@CAN_standardLo_ID_lo2bits 0010  
                                         ___xxtofl 0D82                            convertCANid2Reg@wipSIDL 0014  
                            __end_of_ECAN_WAKI_ISR 1C4E                            canbus_msg_auxlow@number 001B  
                                         __ptext10 1710                                           __ptext11 047A  
                                         __ptext20 0814                                           __ptext12 1A8C  
                                         __ptext21 10DC                                           __ptext13 1C9E  
                                         __ptext30 19C2                                           __ptext22 1C4E  
                                         __ptext14 1B80                                           __ptext31 14D0  
                                         __ptext23 1AC6                                           __ptext15 1C7A  
                                         __ptext24 1C8C                                           __ptext16 1BAC  
                                         __ptext33 1C30                                           __ptext25 1CC8  
                                         __ptext17 1BD8                                           __ptext34 1CCC  
                                         __ptext26 0F36                                           __ptext18 1CAC  
                                         __ptext35 0000                                           __ptext27 1CBA  
                                         __ptext19 1C04                                           __ptext28 1C64  
                                         __ptext29 0B2E                convertReg2StandardCANid@ConvertedID 000E  
                                         _iterator 0043                convertReg2ExtendedCANid@returnValue 000C  
                        __end_of_ADC_GetConversion 1AC6                                           isa$xinst 000000  
                        ?_convertReg2ExtendedCANid 0003                                      ?_CAN_transmit 0015  
                                         int$flags 005D                 __end_of_INTERRUPT_InterruptManager 004C  
                       _INTERRUPT_InterruptManager 0008                                           main@iter 00FA  
                                      _RXB0CONbits 000F60                                        _RXB1CONbits 000F30  
                                       _INTCONbits 000FF2                             ??_INTERRUPT_Initialize 0003  
                          ??_canbus_latch_shutdown 001D                                           intlevel2 0000  
                             canbus_msg_bps@number 001B                            ?_PIN_MANAGER_Initialize 0001  
                                      _TXB0CONbits 000F20                                       ?_CAN_receive 0016  
                                      _TXB1CONbits 000F10                                        _TXB2CONbits 000F00  
                                 ??_ADC_Initialize 0003                                     ??_CAN_transmit 0017  
                                ?_convertCANid2Reg 0003                                 ??_convertCANid2Reg 0010  
                                _canbus_msg_auxlow 1C04                                 ?_canbus_msg_auxlow 001B  
                              canbus_msg_ok@number 001B                     __end_of_PIN_MANAGER_Initialize 1AFC  
                              ??_canbus_msg_auxlow 001D                                     _canbus_msg_bps 1BAC  
