

Microchip MPLAB XC8 Assembler V2.45 build 20230818022343 
                                                                                               Thu Nov 30 20:23:39 2023

Microchip MPLAB XC8 C Compiler v2.45 (Free license) build 20230818022343 Og1 
     1                           	processor	18F46K80
     2                           	fnconf	rparam,??,?,0
     3                           	pagewidth 120
     4                           	opt	flic
     5                           	psect	idataBANK0,global,class=CODE,delta=1,noexec
     6                           	psect	cinit,global,reloc=2,class=CODE,delta=1
     7                           	psect	bssCOMRAM,global,class=COMRAM,space=1,delta=1,lowdata,noexec
     8                           	psect	bssBANK0,global,class=BANK0,space=1,delta=1,lowdata,noexec
     9                           	psect	dataBANK0,global,class=BANK0,space=1,delta=1,lowdata,noexec
    10                           	psect	cstackBANK0,global,class=BANK0,space=1,delta=1,lowdata,noexec
    11                           	psect	cstackCOMRAM,global,class=COMRAM,space=1,delta=1,lowdata,noexec
    12                           	psect	text0,global,reloc=2,class=CODE,delta=1
    13                           	psect	text1,global,reloc=2,class=CODE,delta=1
    14                           	psect	text2,global,reloc=2,class=CODE,delta=1
    15                           	psect	text3,global,reloc=2,class=CODE,delta=1
    16                           	psect	text4,global,reloc=2,class=CODE,delta=1
    17                           	psect	text5,global,reloc=2,class=CODE,delta=1
    18                           	psect	text6,global,reloc=2,class=CODE,delta=1
    19                           	psect	text7,global,reloc=2,class=CODE,delta=1,group=1
    20                           	psect	text8,global,reloc=2,class=CODE,delta=1,group=1
    21                           	psect	text9,global,reloc=2,class=CODE,delta=1,group=1
    22                           	psect	text10,global,reloc=2,class=CODE,delta=1,group=1
    23                           	psect	text11,global,reloc=2,class=CODE,delta=1,group=1
    24                           	psect	text12,global,reloc=2,class=CODE,delta=1
    25                           	psect	text13,global,reloc=2,class=CODE,delta=1
    26                           	psect	text14,global,reloc=2,class=CODE,delta=1
    27                           	psect	text15,global,reloc=2,class=CODE,delta=1
    28                           	psect	text16,global,reloc=2,class=CODE,delta=1
    29                           	psect	text17,global,reloc=2,class=CODE,delta=1
    30                           	psect	text18,global,reloc=2,class=CODE,delta=1
    31                           	psect	text19,global,reloc=2,class=CODE,delta=1
    32                           	psect	text20,global,reloc=2,class=CODE,delta=1
    33                           	psect	text21,global,reloc=2,class=CODE,delta=1
    34                           	psect	text22,global,reloc=2,class=CODE,delta=1
    35                           	psect	text23,global,reloc=2,class=CODE,delta=1
    36                           	psect	text24,global,reloc=2,class=CODE,delta=1
    37                           	psect	text25,global,reloc=2,class=CODE,delta=1
    38                           	psect	text26,global,reloc=2,class=CODE,delta=1
    39                           	psect	text27,global,reloc=2,class=CODE,delta=1
    40                           	psect	text28,global,reloc=2,class=CODE,delta=1
    41                           	psect	text29,global,reloc=2,class=CODE,delta=1
    42                           	psect	text30,global,reloc=2,class=CODE,delta=1
    43                           	psect	text31,global,reloc=2,class=CODE,delta=1
    44                           	psect	intcode,global,reloc=2,class=CODE,delta=1
    45                           	psect	text33,global,reloc=2,class=CODE,delta=1
    46                           	psect	text34,global,reloc=2,class=CODE,delta=1
    47                           	psect	smallconst,global,reloc=2,class=SMALLCONST,delta=1,noexec
    48                           	psect	intsave_regs,global,class=BIGRAM,space=1,delta=1,noexec
    49                           	psect	text35,global,reloc=2,class=CODE,delta=1
    50                           	psect	rparam,global,class=COMRAM,space=1,delta=1,noexec
    51                           	psect	temp,global,ovrld,common,class=COMRAM,space=1,delta=1
    52                           	psect	idloc,global,abs,ovrld,class=IDLOC,space=5,delta=1,noexec
    53                           	psect	config,global,abs,ovrld,class=CONFIG,space=4,delta=1,noexec
    54   000000                     
    55                           ; Version 2.35
    56                           ; Generated 05/05/2021 GMT
    57                           ; 
    58                           ; Copyright © 2021, Microchip Technology Inc. and its subsidiaries ("Microchip")
    59                           ; All rights reserved.
    60                           ; 
    61                           ; This software is developed by Microchip Technology Inc. and its subsidiaries ("Microch
      +                          ip").
    62                           ; 
    63                           ; Redistribution and use in source and binary forms, with or without modification, are
    64                           ; permitted provided that the following conditions are met:
    65                           ; 
    66                           ;     1. Redistributions of source code must retain the above copyright notice, this lis
      +                          t of
    67                           ;        conditions and the following disclaimer.
    68                           ; 
    69                           ;     2. Redistributions in binary form must reproduce the above copyright notice, this 
      +                          list
    70                           ;        of conditions and the following disclaimer in the documentation and/or other
    71                           ;        materials provided with the distribution. Publication is not required when
    72                           ;        this file is used in an embedded application.
    73                           ; 
    74                           ;     3. Microchip's name may not be used to endorse or promote products derived from th
      +                          is
    75                           ;        software without specific prior written permission.
    76                           ; 
    77                           ; THIS SOFTWARE IS PROVIDED BY MICROCHIP "AS IS" AND ANY EXPRESS OR IMPLIED WARRANTIES,
    78                           ; INCLUDING, BUT NOT LIMITED TO, THE IMPLIED WARRANTIES OF MERCHANTABILITY AND FITNESS F
      +                          OR
    79                           ; PURPOSE ARE DISCLAIMED.  IN NO EVENT SHALL MICROCHIP BE LIABLE FOR ANY DIRECT, INDIREC
      +                          T,
    80                           ; INCIDENTAL, SPECIAL, EXEMPLARY, OR CONSEQUENTIAL DAMAGES (INCLUDING BUT NOT LIMITED TO
    81                           ; PROCUREMENT OF SUBSTITUTE GOODS OR SERVICES; LOSS OF USE, DATA OR PROFITS; OR BUSINESS
    82                           ; INTERRUPTION) HOWSOEVER CAUSED AND ON ANY THEORY OF LIABILITY, WHETHER IN CONTRACT, ST
      +                          RICT
    83                           ; LIABILITY, OR TORT (INCLUDING NEGLIGENCE OR OTHERWISE) ARISING IN ANY WAY OUT OF THE U
      +                          SE OF
    84                           ; THIS SOFTWARE, EVEN IF ADVISED OF THE POSSIBILITY OF SUCH DAMAGE.
    85                           ; 
    86                           ; 
    87                           ; Code-generator required, PIC18F46K80 Definitions
    88                           ; 
    89                           ; SFR Addresses
    90   000000                     
    91                           	psect	idataBANK0
    92   002806                     __pidataBANK0:
    93                           	callstack 0
    94                           
    95                           ;initializer for _THRESVOLT
    96   002806  3333               	dw	13107
    97   002808  4123               	dw	16675
    98   000000                     _ADRESL	set	4035
    99   000000                     _ADRESH	set	4036
   100   000000                     _COMSTATbits	set	3953
   101   000000                     _RXB1SIDH	set	3889
   102   000000                     _RXB1SIDL	set	3890
   103   000000                     _RXB0D7	set	3949
   104   000000                     _RXB0D6	set	3948
   105   000000                     _RXB0D5	set	3947
   106   000000                     _RXB0D4	set	3946
   107   000000                     _RXB0D3	set	3945
   108   000000                     _RXB0D2	set	3944
   109   000000                     _RXB0D1	set	3943
   110   000000                     _RXB0D0	set	3942
   111   000000                     _RXB0DLC	set	3941
   112   000000                     _RXB0SIDH	set	3937
   113   000000                     _RXB0EIDL	set	3940
   114   000000                     _RXB0EIDH	set	3939
   115   000000                     _RXB0SIDL	set	3938
   116   000000                     _TXB2SIDL	set	3842
   117   000000                     _TXB2SIDH	set	3841
   118   000000                     _TXB2EIDH	set	3843
   119   000000                     _TXB2CONbits	set	3840
   120   000000                     _TXB1SIDL	set	3858
   121   000000                     _TXB1SIDH	set	3857
   122   000000                     _TXB1EIDH	set	3859
   123   000000                     _TXB1CONbits	set	3856
   124   000000                     _TXB0SIDL	set	3874
   125   000000                     _TXB0SIDH	set	3873
   126   000000                     _TXB0EIDH	set	3875
   127   000000                     _TXB0CONbits	set	3872
   128   000000                     _BRGCON3	set	3653
   129   000000                     _BRGCON2	set	3652
   130   000000                     _RXF15SIDL	set	3693
   131   000000                     _RXF15SIDH	set	3692
   132   000000                     _RXF15EIDH	set	3694
   133   000000                     _RXF14SIDL	set	3689
   134   000000                     _RXF14SIDH	set	3688
   135   000000                     _RXF14EIDL	set	3691
   136   000000                     _RXF14EIDH	set	3690
   137   000000                     _RXF13SIDL	set	3685
   138   000000                     _RXF13SIDH	set	3684
   139   000000                     _RXF13EIDL	set	3687
   140   000000                     _RXF13EIDH	set	3686
   141   000000                     _RXF12SIDL	set	3681
   142   000000                     _RXF12SIDH	set	3680
   143   000000                     _RXF12EIDL	set	3683
   144   000000                     _RXF12EIDH	set	3682
   145   000000                     _RXF11SIDL	set	3677
   146   000000                     _RXF11SIDH	set	3676
   147   000000                     _RXF11EIDL	set	3679
   148   000000                     _RXF11EIDH	set	3678
   149   000000                     _RXF10SIDL	set	3673
   150   000000                     _RXF10SIDH	set	3672
   151   000000                     _RXF10EIDL	set	3675
   152   000000                     _RXF10EIDH	set	3674
   153   000000                     _RXF9SIDL	set	3669
   154   000000                     _RXF9SIDH	set	3668
   155   000000                     _RXF9EIDL	set	3671
   156   000000                     _RXF9EIDH	set	3670
   157   000000                     _RXF8SIDL	set	3665
   158   000000                     _RXF8SIDH	set	3664
   159   000000                     _RXF8EIDL	set	3667
   160   000000                     _RXF8EIDH	set	3666
   161   000000                     _RXF7SIDL	set	3661
   162   000000                     _RXF7SIDH	set	3660
   163   000000                     _RXF7EIDL	set	3663
   164   000000                     _RXF7EIDH	set	3662
   165   000000                     _RXF6SIDL	set	3657
   166   000000                     _RXF6SIDH	set	3656
   167   000000                     _RXF6EIDL	set	3659
   168   000000                     _RXF6EIDH	set	3658
   169   000000                     _RXF5SIDL	set	3829
   170   000000                     _RXF5SIDH	set	3828
   171   000000                     _RXF5EIDL	set	3831
   172   000000                     _RXF5EIDH	set	3830
   173   000000                     _RXF4SIDL	set	3825
   174   000000                     _RXF4SIDH	set	3824
   175   000000                     _RXF4EIDL	set	3827
   176   000000                     _RXF4EIDH	set	3826
   177   000000                     _RXF3SIDL	set	3821
   178   000000                     _RXF3SIDH	set	3820
   179   000000                     _RXF3EIDL	set	3823
   180   000000                     _RXF3EIDH	set	3822
   181   000000                     _RXF2SIDL	set	3817
   182   000000                     _RXF2SIDH	set	3816
   183   000000                     _RXF2EIDL	set	3819
   184   000000                     _RXF2EIDH	set	3818
   185   000000                     _RXF1SIDL	set	3813
   186   000000                     _RXF1SIDH	set	3812
   187   000000                     _RXF1EIDL	set	3815
   188   000000                     _RXF1EIDH	set	3814
   189   000000                     _RXF0SIDL	set	3809
   190   000000                     _RXF0EIDL	set	3811
   191   000000                     _RXFBCON7	set	3704
   192   000000                     _RXFBCON6	set	3703
   193   000000                     _RXFBCON5	set	3702
   194   000000                     _RXFBCON4	set	3701
   195   000000                     _RXFBCON3	set	3700
   196   000000                     _RXFBCON2	set	3699
   197   000000                     _RXFBCON1	set	3698
   198   000000                     _RXFBCON0	set	3697
   199   000000                     _MSEL3	set	3708
   200   000000                     _MSEL2	set	3707
   201   000000                     _MSEL1	set	3706
   202   000000                     _MSEL0	set	3705
   203   000000                     _RXFCON1	set	3655
   204   000000                     _RXM1SIDL	set	3837
   205   000000                     _RXM1SIDH	set	3836
   206   000000                     _RXM1EIDL	set	3839
   207   000000                     _RXM1EIDH	set	3838
   208   000000                     _RXM0SIDL	set	3833
   209   000000                     _RXM0EIDL	set	3835
   210   000000                     _CIOCON	set	3952
   211   000000                     _ECANCON	set	3954
   212   000000                     _TRISD	set	3989
   213   000000                     _TRISC	set	3988
   214   000000                     _TRISB	set	3987
   215   000000                     _LATC	set	3979
   216   000000                     _LATB	set	3978
   217   000000                     _LATAbits	set	3977
   218   000000                     _LATCbits	set	3979
   219   000000                     _ADCON0bits	set	4034
   220   000000                     _BRGCON1	set	3651
   221   000000                     _RXFCON0	set	3654
   222   000000                     _BSEL0	set	3709
   223   000000                     _WPUB	set	3931
   224   000000                     _ANCON1	set	3932
   225   000000                     _ANCON0	set	3933
   226   000000                     _LATA	set	3977
   227   000000                     _LATD	set	3980
   228   000000                     _LATE	set	3981
   229   000000                     _TRISA	set	3986
   230   000000                     _TRISE	set	3990
   231   000000                     _REFOCON	set	3994
   232   000000                     _OSCTUNE	set	3995
   233   000000                     _OSCCON2	set	4050
   234   000000                     _OSCCON	set	4051
   235   000000                     _INTCON2bits	set	4081
   236   000000                     _RXB0CONbits	set	3936
   237   000000                     _CANSTAT	set	3950
   238   000000                     _CANCON	set	3951
   239   000000                     _INTCONbits	set	4082
   240   000000                     _ADCON2	set	4032
   241   000000                     _ADCON1	set	4033
   242   000000                     _ADCON0	set	4034
   243   000000                     _RCONbits	set	4048
   244   000000                     _PIE5bits	set	3958
   245   000000                     _PIR5bits	set	3959
   246   000000                     _RXF0SIDH	set	3808
   247   000000                     _RXF0EIDH	set	3810
   248   000000                     _RXM0SIDH	set	3832
   249   000000                     _RXM0EIDH	set	3834
   250   000000                     _RXF15EIDL	set	3695
   251   000000                     _PORTAbits	set	3968
   252   000000                     _RXB1CONbits	set	3888
   253   000000                     _TXB0D7	set	3885
   254   000000                     _TXB0D6	set	3884
   255   000000                     _TXB0D5	set	3883
   256   000000                     _TXB0D4	set	3882
   257   000000                     _TXB0D3	set	3881
   258   000000                     _TXB0D2	set	3880
   259   000000                     _TXB0D1	set	3879
   260   000000                     _TXB0D0	set	3878
   261   000000                     _TXB0DLC	set	3877
   262   000000                     _TXB0EIDL	set	3876
   263   000000                     _TXB1D7	set	3869
   264   000000                     _TXB1D6	set	3868
   265   000000                     _TXB1D5	set	3867
   266   000000                     _TXB1D4	set	3866
   267   000000                     _TXB1D3	set	3865
   268   000000                     _TXB1D2	set	3864
   269   000000                     _TXB1D1	set	3863
   270   000000                     _TXB1D0	set	3862
   271   000000                     _TXB1DLC	set	3861
   272   000000                     _TXB1EIDL	set	3860
   273   000000                     _TXB2D7	set	3853
   274   000000                     _TXB2D6	set	3852
   275   000000                     _TXB2D5	set	3851
   276   000000                     _TXB2D4	set	3850
   277   000000                     _TXB2D3	set	3849
   278   000000                     _TXB2D2	set	3848
   279   000000                     _TXB2D1	set	3847
   280   000000                     _TXB2D0	set	3846
   281   000000                     _TXB2DLC	set	3845
   282   000000                     _TXB2EIDL	set	3844
   283   000000                     _RXB1D7	set	3901
   284   000000                     _RXB1D6	set	3900
   285   000000                     _RXB1D5	set	3899
   286   000000                     _RXB1D4	set	3898
   287   000000                     _RXB1D3	set	3897
   288   000000                     _RXB1D2	set	3896
   289   000000                     _RXB1D1	set	3895
   290   000000                     _RXB1D0	set	3894
   291   000000                     _RXB1DLC	set	3893
   292   000000                     _RXB1EIDL	set	3892
   293   000000                     _RXB1EIDH	set	3891
   294   000000                     _PORTEbits	set	3972
   295                           
   296                           ; #config settings
   297                           
   298                           	psect	cinit
   299   0025EC                     __pcinit:
   300                           	callstack 0
   301   0025EC                     start_initialization:
   302                           	callstack 0
   303   0025EC                     __initialization:
   304                           	callstack 0
   305                           
   306                           ; Initialize objects allocated to BANK0 (4 bytes)
   307                           ; load TBLPTR registers with __pidataBANK0
   308   0025EC  0E06               	movlw	low __pidataBANK0
   309   0025EE  6EF6               	movwf	tblptrl,c
   310   0025F0  0E28               	movlw	high __pidataBANK0
   311   0025F2  6EF7               	movwf	tblptrh,c
   312   0025F4  0E00               	movlw	low (__pidataBANK0 shr (0+16))
   313   0025F6  6EF8               	movwf	tblptru,c
   314   0025F8  EE00  F09C         	lfsr	0,__pdataBANK0
   315   0025FC  EE10 F004          	lfsr	1,4
   316   002600                     copy_data0:
   317   002600  0009               	tblrd		*+
   318   002602  CFF5 FFEE          	movff	tablat,postinc0
   319   002606  50E5               	movf	postdec1,w,c
   320   002608  50E1               	movf	fsr1l,w,c
   321   00260A  E1FA               	bnz	copy_data0
   322                           
   323                           ; Clear objects allocated to BANK0 (60 bytes)
   324   00260C  EE00  F060         	lfsr	0,__pbssBANK0
   325   002610  0E3C               	movlw	60
   326   002612                     clear_0:
   327   002612  6AEE               	clrf	postinc0,c
   328   002614  06E8               	decf	wreg,f,c
   329   002616  E1FD               	bnz	clear_0
   330                           
   331                           ; Clear objects allocated to COMRAM (4 bytes)
   332   002618  6A5B               	clrf	(__pbssCOMRAM+3)& (0+255),c
   333   00261A  6A5A               	clrf	(__pbssCOMRAM+2)& (0+255),c
   334   00261C  6A59               	clrf	(__pbssCOMRAM+1)& (0+255),c
   335   00261E  6A58               	clrf	__pbssCOMRAM& (0+255),c
   336   002620                     end_of_initialization:
   337                           	callstack 0
   338   002620                     __end_of__initialization:
   339                           	callstack 0
   340   002620  905C               	bcf	int$flags,0,c	;clear compiler interrupt flag (level 1)
   341   002622  925C               	bcf	int$flags,1,c	;clear compiler interrupt flag (level 2)
   342   002624  0E00               	movlw	low (__Lmediumconst shr (0+16))
   343   002626  6EF8               	movwf	tblptru,c
   344   002628  0100               	movlb	0
   345   00262A  EFC7  F011         	goto	_main	;jump to C main() function
   346                           
   347                           	psect	bssCOMRAM
   348   000058                     __pbssCOMRAM:
   349                           	callstack 0
   350   000058                     _STARTUP_SUCCESS:
   351                           	callstack 0
   352   000058                     	ds	2
   353   00005A                     _WakeUpInterruptHandler:
   354                           	callstack 0
   355   00005A                     	ds	2
   356                           
   357                           	psect	bssBANK0
   358   000060                     __pbssBANK0:
   359                           	callstack 0
   360   000060                     	ds	2
   361   000062                     _ADC_InterruptHandler:
   362                           	callstack 0
   363   000062                     	ds	2
   364   000064                     _tx:
   365                           	callstack 0
   366   000064                     	ds	14
   367   000072                     _tx20:
   368                           	callstack 0
   369   000072                     	ds	14
   370   000080                     _tx21:
   371                           	callstack 0
   372   000080                     	ds	14
   373   00008E                     _rx:
   374                           	callstack 0
   375   00008E                     	ds	14
   376                           
   377                           	psect	dataBANK0
   378   00009C                     __pdataBANK0:
   379                           	callstack 0
   380   00009C                     	ds	4
   381                           
   382                           	psect	cstackBANK0
   383   0000A0                     __pcstackBANK0:
   384                           	callstack 0
   385   0000A0                     main@iter:
   386                           	callstack 0
   387                           
   388                           ; 2 bytes @ 0x0
   389   0000A0                     	ds	2
   390                           
   391                           	psect	cstackCOMRAM
   392   000001                     __pcstackCOMRAM:
   393                           	callstack 0
   394   000001                     ??_INTERRUPT_InterruptManager:
   395   000001                     
   396                           ; 1 bytes @ 0x0
   397   000001                     	ds	2
   398   000003                     ?_convertReg2ExtendedCANid:
   399                           	callstack 0
   400   000003                     ?_convertReg2StandardCANid:
   401                           	callstack 0
   402   000003                     ?___xxtofl:
   403                           	callstack 0
   404   000003                     convertReg2ExtendedCANid@tempRXBn_EIDL:
   405                           	callstack 0
   406   000003                     convertReg2StandardCANid@tempRXBn_SIDL:
   407                           	callstack 0
   408   000003                     ECAN_SetWakeUpInterruptHandler@handler:
   409                           	callstack 0
   410   000003                     convertCANid2Reg@tempPassedInID:
   411                           	callstack 0
   412   000003                     ___xxtofl@val:
   413                           	callstack 0
   414                           
   415                           ; 4 bytes @ 0x2
   416   000003                     	ds	1
   417   000004                     convertReg2ExtendedCANid@tempRXBn_SIDH:
   418                           	callstack 0
   419                           
   420                           ; 1 bytes @ 0x3
   421   000004                     	ds	1
   422   000005                     ??_ECAN_Initialize:
   423   000005                     convertReg2ExtendedCANid@tempRXBn_SIDL:
   424                           	callstack 0
   425                           
   426                           ; 1 bytes @ 0x4
   427   000005                     	ds	1
   428   000006                     
   429                           ; 1 bytes @ 0x5
   430   000006                     	ds	1
   431   000007                     ??_convertReg2ExtendedCANid:
   432   000007                     ??_convertReg2StandardCANid:
   433   000007                     ??___xxtofl:
   434   000007                     convertCANid2Reg@canIdType:
   435                           	callstack 0
   436                           
   437                           ; 1 bytes @ 0x6
   438   000007                     	ds	1
   439   000008                     convertCANid2Reg@passedInEIDH:
   440                           	callstack 0
   441                           
   442                           ; 1 bytes @ 0x7
   443   000008                     	ds	1
   444   000009                     convertReg2StandardCANid@tempRXBn_SIDH:
   445                           	callstack 0
   446   000009                     convertCANid2Reg@passedInEIDL:
   447                           	callstack 0
   448                           
   449                           ; 1 bytes @ 0x8
   450   000009                     	ds	1
   451   00000A                     convertCANid2Reg@passedInSIDH:
   452                           	callstack 0
   453   00000A                     convertReg2StandardCANid@returnValue:
   454                           	callstack 0
   455                           
   456                           ; 4 bytes @ 0x9
   457   00000A                     	ds	1
   458   00000B                     convertReg2ExtendedCANid@tempRXBn_EIDH:
   459                           	callstack 0
   460   00000B                     convertCANid2Reg@passedInSIDL:
   461                           	callstack 0
   462   00000B                     ___xxtofl@sign:
   463                           	callstack 0
   464                           
   465                           ; 1 bytes @ 0xA
   466   00000B                     	ds	1
   467   00000C                     ??_convertCANid2Reg:
   468   00000C                     ___xxtofl@exp:
   469                           	callstack 0
   470   00000C                     convertReg2ExtendedCANid@returnValue:
   471                           	callstack 0
   472                           
   473                           ; 4 bytes @ 0xB
   474   00000C                     	ds	1
   475   00000D                     ___xxtofl@arg:
   476                           	callstack 0
   477                           
   478                           ; 4 bytes @ 0xC
   479   00000D                     	ds	1
   480   00000E                     convertReg2StandardCANid@ConvertedID:
   481                           	callstack 0
   482                           
   483                           ; 4 bytes @ 0xD
   484   00000E                     	ds	2
   485   000010                     convertReg2ExtendedCANid@CAN_standardLo_ID_lo2bits:
   486                           	callstack 0
   487   000010                     convertCANid2Reg@wipSIDL:
   488                           	callstack 0
   489                           
   490                           ; 1 bytes @ 0xF
   491   000010                     	ds	1
   492   000011                     ?___fldiv:
   493                           	callstack 0
   494   000011                     CAN_transmit@tempCanMsg:
   495                           	callstack 0
   496   000011                     convertReg2ExtendedCANid@CAN_standardLo_ID_hi3bits:
   497                           	callstack 0
   498   000011                     ___fldiv@b:
   499                           	callstack 0
   500                           
   501                           ; 4 bytes @ 0x10
   502   000011                     	ds	1
   503   000012                     CAN_transmit@tempEIDH:
   504                           	callstack 0
   505   000012                     convertReg2ExtendedCANid@ConvertedID:
   506                           	callstack 0
   507                           
   508                           ; 4 bytes @ 0x11
   509   000012                     	ds	1
   510   000013                     CAN_transmit@tempEIDL:
   511                           	callstack 0
   512                           
   513                           ; 1 bytes @ 0x12
   514   000013                     	ds	1
   515   000014                     CAN_transmit@tempSIDH:
   516                           	callstack 0
   517                           
   518                           ; 1 bytes @ 0x13
   519   000014                     	ds	1
   520   000015                     CAN_transmit@tempSIDL:
   521                           	callstack 0
   522   000015                     ___fldiv@a:
   523                           	callstack 0
   524                           
   525                           ; 4 bytes @ 0x14
   526   000015                     	ds	1
   527   000016                     CAN_receive@tempCanMsg:
   528                           	callstack 0
   529   000016                     canbusSend@id:
   530                           	callstack 0
   531                           
   532                           ; 2 bytes @ 0x15
   533   000016                     	ds	1
   534   000017                     CAN_receive@returnValue:
   535                           	callstack 0
   536                           
   537                           ; 1 bytes @ 0x16
   538   000017                     	ds	1
   539   000018                     canbusSend@data:
   540                           	callstack 0
   541                           
   542                           ; 2 bytes @ 0x17
   543   000018                     	ds	1
   544   000019                     ??___fldiv:
   545                           
   546                           ; 1 bytes @ 0x18
   547   000019                     	ds	1
   548   00001A                     canbus_msg_startupfail@number:
   549                           	callstack 0
   550   00001A                     canbus_msg_bps@number:
   551                           	callstack 0
   552   00001A                     canbus_msg_auxlow@number:
   553                           	callstack 0
   554   00001A                     canbus_shutdown_success@number:
   555                           	callstack 0
   556   00001A                     canbus_msg_startup_success@number:
   557                           	callstack 0
   558   00001A                     canbus_msg_ok@number:
   559                           	callstack 0
   560   00001A                     canbus_latch_shutdown@number:
   561                           	callstack 0
   562                           
   563                           ; 2 bytes @ 0x19
   564   00001A                     	ds	2
   565   00001C                     
   566                           ; 1 bytes @ 0x1B
   567   00001C                     	ds	1
   568   00001D                     ___fldiv@rem:
   569                           	callstack 0
   570                           
   571                           ; 4 bytes @ 0x1C
   572   00001D                     	ds	4
   573   000021                     ___fldiv@sign:
   574                           	callstack 0
   575                           
   576                           ; 1 bytes @ 0x20
   577   000021                     	ds	1
   578   000022                     ___fldiv@new_exp:
   579                           	callstack 0
   580                           
   581                           ; 2 bytes @ 0x21
   582   000022                     	ds	2
   583   000024                     ___fldiv@grs:
   584                           	callstack 0
   585                           
   586                           ; 4 bytes @ 0x23
   587   000024                     	ds	4
   588   000028                     ___fldiv@bexp:
   589                           	callstack 0
   590                           
   591                           ; 1 bytes @ 0x27
   592   000028                     	ds	1
   593   000029                     ___fldiv@aexp:
   594                           	callstack 0
   595                           
   596                           ; 1 bytes @ 0x28
   597   000029                     	ds	1
   598   00002A                     ?___flmul:
   599                           	callstack 0
   600   00002A                     ___flmul@b:
   601                           	callstack 0
   602                           
   603                           ; 4 bytes @ 0x29
   604   00002A                     	ds	4
   605   00002E                     ___flmul@a:
   606                           	callstack 0
   607                           
   608                           ; 4 bytes @ 0x2D
   609   00002E                     	ds	4
   610   000032                     ??___flmul:
   611                           
   612                           ; 1 bytes @ 0x31
   613   000032                     	ds	4
   614   000036                     ___flmul@sign:
   615                           	callstack 0
   616                           
   617                           ; 1 bytes @ 0x35
   618   000036                     	ds	1
   619   000037                     ___flmul@aexp:
   620                           	callstack 0
   621                           
   622                           ; 1 bytes @ 0x36
   623   000037                     	ds	1
   624   000038                     ___flmul@grs:
   625                           	callstack 0
   626                           
   627                           ; 4 bytes @ 0x37
   628   000038                     	ds	4
   629   00003C                     ___flmul@bexp:
   630                           	callstack 0
   631                           
   632                           ; 1 bytes @ 0x3B
   633   00003C                     	ds	1
   634   00003D                     ___flmul@prod:
   635                           	callstack 0
   636                           
   637                           ; 4 bytes @ 0x3C
   638   00003D                     	ds	4
   639   000041                     ___flmul@temp:
   640                           	callstack 0
   641                           
   642                           ; 2 bytes @ 0x40
   643   000041                     	ds	2
   644   000043                     ?___fltol:
   645                           	callstack 0
   646   000043                     ___flge@ff1:
   647                           	callstack 0
   648   000043                     ___fltol@f1:
   649                           	callstack 0
   650                           
   651                           ; 4 bytes @ 0x42
   652   000043                     	ds	4
   653   000047                     ??___fltol:
   654   000047                     ___flge@ff2:
   655                           	callstack 0
   656                           
   657                           ; 4 bytes @ 0x46
   658   000047                     	ds	4
   659   00004B                     ??___flge:
   660   00004B                     ___fltol@sign1:
   661                           	callstack 0
   662                           
   663                           ; 1 bytes @ 0x4A
   664   00004B                     	ds	1
   665   00004C                     ___fltol@exp1:
   666                           	callstack 0
   667                           
   668                           ; 1 bytes @ 0x4B
   669   00004C                     	ds	3
   670   00004F                     ?_ADC_Conv_pinSeven:
   671                           	callstack 0
   672   00004F                     ?_ADC_Conv_pinNine:
   673                           	callstack 0
   674                           
   675                           ; 2 bytes @ 0x4E
   676   00004F                     	ds	2
   677   000051                     ??_ADC_Conv_pinSeven:
   678   000051                     ??_ADC_Conv_pinNine:
   679                           
   680                           ; 1 bytes @ 0x50
   681   000051                     	ds	1
   682   000052                     ADC_Conv_pinSeven@adc_val:
   683                           	callstack 0
   684   000052                     ADC_Conv_pinNine@adc_val:
   685                           	callstack 0
   686                           
   687                           ; 2 bytes @ 0x51
   688   000052                     	ds	2
   689   000054                     ??_start_up_seq:
   690                           
   691                           ; 1 bytes @ 0x53
   692   000054                     	ds	2
   693   000056                     ??_main:
   694                           
   695                           ; 1 bytes @ 0x55
   696   000056                     	ds	2
   697                           
   698 ;;
   699 ;;Main: autosize = 0, tempsize = 2, incstack = 0, save=0
   700 ;;
   701 ;; *************** function _main *****************
   702 ;; Defined at:
   703 ;;		line 165 in file "main.c"
   704 ;; Parameters:    Size  Location     Type
   705 ;;		None
   706 ;; Auto vars:     Size  Location     Type
   707 ;;  iter            2    0[BANK0 ] int 
   708 ;; Return value:  Size  Location     Type
   709 ;;                  1    wreg      void 
   710 ;; Registers used:
   711 ;;		wreg, fsr2l, fsr2h, status,2, status,0, cstack
   712 ;; Tracked objects:
   713 ;;		On entry : 0/0
   714 ;;		On exit  : 0/0
   715 ;;		Unchanged: 0/0
   716 ;; Data sizes:     COMRAM   BANK0   BANK1   BANK2   BANK3   BANK4   BANK5   BANK6   BANK7   BANK8   BANK9  BANK10  BANK1
      +1  BANK12  BANK13  BANK14
   717 ;;      Params:         0       0       0       0       0       0       0       0       0       0       0       0       
      +0       0       0       0
   718 ;;      Locals:         0       2       0       0       0       0       0       0       0       0       0       0       
      +0       0       0       0
   719 ;;      Temps:          2       0       0       0       0       0       0       0       0       0       0       0       
      +0       0       0       0
   720 ;;      Totals:         2       2       0       0       0       0       0       0       0       0       0       0       
      +0       0       0       0
   721 ;;Total ram usage:        4 bytes
   722 ;; Hardware stack levels required when called: 8
   723 ;; This function calls:
   724 ;;		_ADC_Conv_pinNine
   725 ;;		_ADC_Conv_pinSeven
   726 ;;		_CAN_receive
   727 ;;		_SYSTEM_Initialize
   728 ;;		_aux_battery_LV
   729 ;;		_canbus_msg_ok
   730 ;;		_e_stop_seq
   731 ;;		_shutdown_seq
   732 ;;		_start_up_seq
   733 ;; This function is called by:
   734 ;;		Startup code after reset
   735 ;; This function uses a non-reentrant model
   736 ;;
   737                           
   738                           	psect	text0
   739   00238E                     __ptext0:
   740                           	callstack 0
   741   00238E                     _main:
   742                           	callstack 23
   743   00238E                     
   744                           ;main.c: 167:     SYSTEM_Initialize();
   745   00238E  ECC8  F013         	call	_SYSTEM_Initialize	;wreg free
   746   002392                     
   747                           ;main.c: 168:     int iter = 0;
   748   002392  0E00               	movlw	0
   749   002394  0100               	movlb	0	; () banked
   750   002396  6FA1               	movwf	(main@iter+1)& (0+255),b
   751   002398  0E00               	movlw	0
   752   00239A  6FA0               	movwf	main@iter& (0+255),b
   753   00239C                     l3882:
   754                           
   755                           ; BSR set to: 0
   756                           ;main.c: 170:         if (STARTUP_SUCCESS == 0){
   757   00239C  5058               	movf	_STARTUP_SUCCESS^0,w,c
   758   00239E  1059               	iorwf	(_STARTUP_SUCCESS+1)^0,w,c
   759   0023A0  A4D8               	btfss	status,2,c
   760   0023A2  EFD5  F011         	goto	u2721
   761   0023A6  EFD7  F011         	goto	u2720
   762   0023AA                     u2721:
   763   0023AA  EFDB  F011         	goto	l3886
   764   0023AE                     u2720:
   765   0023AE                     
   766                           ; BSR set to: 0
   767                           ;main.c: 171:                 start_up_seq();
   768   0023AE  EC47  F012         	call	_start_up_seq	;wreg free
   769                           
   770                           ;main.c: 172:         }
   771   0023B2  EF40  F012         	goto	l3910
   772   0023B6                     l3886:
   773                           
   774                           ; BSR set to: 0
   775                           ;main.c: 174:             if (CAN_receive(&rx)){
   776   0023B6  0E8E               	movlw	low _rx
   777   0023B8  6E16               	movwf	CAN_receive@tempCanMsg^0,c
   778   0023BA  ECB7  F00C         	call	_CAN_receive	;wreg free
   779   0023BE  0900               	iorlw	0
   780   0023C0  B4D8               	btfsc	status,2,c
   781   0023C2  EFE5  F011         	goto	u2731
   782   0023C6  EFE7  F011         	goto	u2730
   783   0023CA                     u2731:
   784   0023CA  EF00  F012         	goto	l3894
   785   0023CE                     u2730:
   786   0023CE                     
   787                           ;main.c: 175:                 if (rx.frame.idType == 1){
   788   0023CE  0100               	movlb	0	; () banked
   789   0023D0  058E               	decf	_rx& (0+255),w,b
   790   0023D2  A4D8               	btfss	status,2,c
   791   0023D4  EFEE  F011         	goto	u2741
   792   0023D8  EFF0  F011         	goto	u2740
   793   0023DC                     u2741:
   794   0023DC  EF00  F012         	goto	l3894
   795   0023E0                     u2740:
   796   0023E0                     
   797                           ; BSR set to: 0
   798                           ;main.c: 176:                     if (rx.frame.id == 0x255){
   799   0023E0  0E55               	movlw	85
   800   0023E2  198F               	xorwf	(_rx+1)& (0+255),w,b
   801   0023E4  E109               	bnz	u2751
   802   0023E6  0E02               	movlw	2
   803   0023E8  1990               	xorwf	(_rx+2)& (0+255),w,b
   804   0023EA  1191               	iorwf	(_rx+3)& (0+255),w,b
   805   0023EC  1192               	iorwf	(_rx+4)& (0+255),w,b
   806   0023EE  A4D8               	btfss	status,2,c
   807   0023F0  EFFC  F011         	goto	u2751
   808   0023F4  EFFE  F011         	goto	u2750
   809   0023F8                     u2751:
   810   0023F8  EF00  F012         	goto	l3894
   811   0023FC                     u2750:
   812   0023FC                     
   813                           ; BSR set to: 0
   814                           ;main.c: 177:                         shutdown_seq();
   815   0023FC  ECF0  F013         	call	_shutdown_seq	;wreg free
   816   002400                     l3894:
   817                           
   818                           ;main.c: 181:             if (ADC_Conv_pinSeven() == 0){
   819   002400  EC48  F013         	call	_ADC_Conv_pinSeven	;wreg free
   820   002404  504F               	movf	?_ADC_Conv_pinSeven^0,w,c
   821   002406  1050               	iorwf	(?_ADC_Conv_pinSeven+1)^0,w,c
   822   002408  A4D8               	btfss	status,2,c
   823   00240A  EF09  F012         	goto	u2761
   824   00240E  EF0B  F012         	goto	u2760
   825   002412                     u2761:
   826   002412  EF0D  F012         	goto	l3898
   827   002416                     u2760:
   828   002416                     
   829                           ;main.c: 182:                 aux_battery_LV();
   830   002416  ECF7  F013         	call	_aux_battery_LV	;wreg free
   831   00241A                     l3898:
   832                           
   833                           ;main.c: 184:             if (ADC_Conv_pinNine() == 0){
   834   00241A  EC5A  F013         	call	_ADC_Conv_pinNine	;wreg free
   835   00241E  504F               	movf	?_ADC_Conv_pinNine^0,w,c
   836   002420  1050               	iorwf	(?_ADC_Conv_pinNine+1)^0,w,c
   837   002422  A4D8               	btfss	status,2,c
   838   002424  EF16  F012         	goto	u2771
   839   002428  EF18  F012         	goto	u2770
   840   00242C                     u2771:
   841   00242C  EF1A  F012         	goto	l3902
   842   002430                     u2770:
   843   002430                     
   844                           ;main.c: 185:                 e_stop_seq();
   845   002430  ECDE  F013         	call	_e_stop_seq	;wreg free
   846   002434                     l3902:
   847                           
   848                           ;main.c: 187:             if (iter >= 10000){
   849   002434  0100               	movlb	0	; () banked
   850   002436  BFA1               	btfsc	(main@iter+1)& (0+255),7,b
   851   002438  EF27  F012         	goto	u2781
   852   00243C  0E10               	movlw	16
   853   00243E  5DA0               	subwf	main@iter& (0+255),w,b
   854   002440  0E27               	movlw	39
   855   002442  59A1               	subwfb	(main@iter+1)& (0+255),w,b
   856   002444  A0D8               	btfss	status,0,c
   857   002446  EF27  F012         	goto	u2781
   858   00244A  EF29  F012         	goto	u2780
   859   00244E                     u2781:
   860   00244E  EF40  F012         	goto	l3910
   861   002452                     u2780:
   862   002452                     
   863                           ; BSR set to: 0
   864                           ;main.c: 188:                 canbus_msg_ok(1);
   865   002452  0E00               	movlw	0
   866   002454  6E1B               	movwf	(canbus_msg_ok@number+1)^0,c
   867   002456  0E01               	movlw	1
   868   002458  6E1A               	movwf	canbus_msg_ok@number^0,c
   869   00245A  ECB2  F013         	call	_canbus_msg_ok	;wreg free
   870   00245E                     
   871                           ;main.c: 189:                 _delay((unsigned long)((1000)*(20000000/4000.0)));
   872   00245E  0E1A               	movlw	26
   873   002460  6E57               	movwf	(??_main+1)^0,c
   874   002462  0E5E               	movlw	94
   875   002464  6E56               	movwf	??_main^0,c
   876   002466  0E6E               	movlw	110
   877   002468                     u2797:
   878   002468  2EE8               	decfsz	wreg,f,c
   879   00246A  D7FE               	bra	u2797
   880   00246C  2E56               	decfsz	??_main^0,f,c
   881   00246E  D7FC               	bra	u2797
   882   002470  2E57               	decfsz	(??_main+1)^0,f,c
   883   002472  D7FA               	bra	u2797
   884   002474  D000               	nop2	
   885   002476                     
   886                           ;main.c: 190:                 iter = 0;
   887   002476  0E00               	movlw	0
   888   002478  0100               	movlb	0	; () banked
   889   00247A  6FA1               	movwf	(main@iter+1)& (0+255),b
   890   00247C  0E00               	movlw	0
   891   00247E  6FA0               	movwf	main@iter& (0+255),b
   892   002480                     l3910:
   893                           
   894                           ;main.c: 194:         iter += 1;
   895   002480  0100               	movlb	0	; () banked
   896   002482  4BA0               	infsnz	main@iter& (0+255),f,b
   897   002484  2BA1               	incf	(main@iter+1)& (0+255),f,b
   898   002486  EFCE  F011         	goto	l3882
   899   00248A  EF26  F000         	goto	start
   900   00248E                     __end_of_main:
   901                           	callstack 0
   902                           
   903 ;; *************** function _start_up_seq *****************
   904 ;; Defined at:
   905 ;;		line 115 in file "main.c"
   906 ;; Parameters:    Size  Location     Type
   907 ;;		None
   908 ;; Auto vars:     Size  Location     Type
   909 ;;		None
   910 ;; Return value:  Size  Location     Type
   911 ;;                  1    wreg      void 
   912 ;; Registers used:
   913 ;;		wreg, fsr2l, fsr2h, status,2, status,0, cstack
   914 ;; Tracked objects:
   915 ;;		On entry : 0/0
   916 ;;		On exit  : 0/0
   917 ;;		Unchanged: 0/0
   918 ;; Data sizes:     COMRAM   BANK0   BANK1   BANK2   BANK3   BANK4   BANK5   BANK6   BANK7   BANK8   BANK9  BANK10  BANK1
      +1  BANK12  BANK13  BANK14
   919 ;;      Params:         0       0       0       0       0       0       0       0       0       0       0       0       
      +0       0       0       0
   920 ;;      Locals:         0       0       0       0       0       0       0       0       0       0       0       0       
      +0       0       0       0
   921 ;;      Temps:          2       0       0       0       0       0       0       0       0       0       0       0       
      +0       0       0       0
   922 ;;      Totals:         2       0       0       0       0       0       0       0       0       0       0       0       
      +0       0       0       0
   923 ;;Total ram usage:        2 bytes
   924 ;; Hardware stack levels used: 1
   925 ;; Hardware stack levels required when called: 7
   926 ;; This function calls:
   927 ;;		_ADC_Conv_pinNine
   928 ;;		_ADC_Conv_pinSeven
   929 ;;		_canbus_latch_shutdown
   930 ;;		_canbus_msg_auxlow
   931 ;;		_canbus_msg_startup_success
   932 ;;		_canbus_msg_startupfail
   933 ;; This function is called by:
   934 ;;		_main
   935 ;; This function uses a non-reentrant model
   936 ;;
   937                           
   938                           	psect	text1
   939   00248E                     __ptext1:
   940                           	callstack 0
   941   00248E                     _start_up_seq:
   942                           	callstack 23
   943   00248E                     
   944                           ;main.c: 117:     if (ADC_Conv_pinSeven() == 1){
   945   00248E  EC48  F013         	call	_ADC_Conv_pinSeven	;wreg free
   946   002492  044F               	decf	?_ADC_Conv_pinSeven^0,w,c
   947   002494  1050               	iorwf	(?_ADC_Conv_pinSeven+1)^0,w,c
   948   002496  A4D8               	btfss	status,2,c
   949   002498  EF50  F012         	goto	u2701
   950   00249C  EF52  F012         	goto	u2700
   951   0024A0                     u2701:
   952   0024A0  EF97  F012         	goto	l3860
   953   0024A4                     u2700:
   954   0024A4  828B               	bsf	139,1,c	;volatile
   955   0024A6  848B               	bsf	139,2,c	;volatile
   956   0024A8                     
   957                           ;main.c: 120:         _delay((unsigned long)((1000)*(20000000/4000.0)));
   958   0024A8  0E1A               	movlw	26
   959   0024AA  6E55               	movwf	(??_start_up_seq+1)^0,c
   960   0024AC  0E5E               	movlw	94
   961   0024AE  6E54               	movwf	??_start_up_seq^0,c
   962   0024B0  0E6E               	movlw	110
   963   0024B2                     u2807:
   964   0024B2  2EE8               	decfsz	wreg,f,c
   965   0024B4  D7FE               	bra	u2807
   966   0024B6  2E54               	decfsz	??_start_up_seq^0,f,c
   967   0024B8  D7FC               	bra	u2807
   968   0024BA  2E55               	decfsz	(??_start_up_seq+1)^0,f,c
   969   0024BC  D7FA               	bra	u2807
   970   0024BE  D000               	nop2	
   971   0024C0  808B               	bsf	139,0,c	;volatile
   972   0024C2  948B               	bcf	139,2,c	;volatile
   973   0024C4  8C8B               	bsf	139,6,c	;volatile
   974   0024C6                     
   975                           ;main.c: 126:         if (ADC_Conv_pinNine() == 1){
   976   0024C6  EC5A  F013         	call	_ADC_Conv_pinNine	;wreg free
   977   0024CA  044F               	decf	?_ADC_Conv_pinNine^0,w,c
   978   0024CC  1050               	iorwf	(?_ADC_Conv_pinNine+1)^0,w,c
   979   0024CE  A4D8               	btfss	status,2,c
   980   0024D0  EF6C  F012         	goto	u2711
   981   0024D4  EF6E  F012         	goto	u2710
   982   0024D8                     u2711:
   983   0024D8  EF7C  F012         	goto	l617
   984   0024DC                     u2710:
   985   0024DC  8489               	bsf	137,2,c	;volatile
   986   0024DE  8689               	bsf	137,3,c	;volatile
   987   0024E0                     
   988                           ;main.c: 129:             STARTUP_SUCCESS = 1;
   989   0024E0  0E00               	movlw	0
   990   0024E2  6E59               	movwf	(_STARTUP_SUCCESS+1)^0,c
   991   0024E4  0E01               	movlw	1
   992   0024E6  6E58               	movwf	_STARTUP_SUCCESS^0,c
   993   0024E8                     
   994                           ;main.c: 130:             canbus_msg_startup_success(1);
   995   0024E8  0E00               	movlw	0
   996   0024EA  6E1B               	movwf	(canbus_msg_startup_success@number+1)^0,c
   997   0024EC  0E01               	movlw	1
   998   0024EE  6E1A               	movwf	canbus_msg_startup_success@number^0,c
   999   0024F0  EC86  F013         	call	_canbus_msg_startup_success	;wreg free
  1000                           
  1001                           ;main.c: 131:         }
  1002   0024F4  EFB9  F012         	goto	l622
  1003   0024F8                     l617:
  1004   0024F8  908B               	bcf	139,0,c	;volatile
  1005   0024FA  928B               	bcf	139,1,c	;volatile
  1006   0024FC                     
  1007                           ;main.c: 136:             canbus_msg_startupfail(1);
  1008   0024FC  0E00               	movlw	0
  1009   0024FE  6E1B               	movwf	(canbus_msg_startupfail@number+1)^0,c
  1010   002500  0E01               	movlw	1
  1011   002502  6E1A               	movwf	canbus_msg_startupfail@number^0,c
  1012   002504  EC7B  F013         	call	_canbus_msg_startupfail	;wreg free
  1013   002508                     
  1014                           ;main.c: 137:             _delay((unsigned long)((200)*(20000000/4000.0)));
  1015   002508  0E06               	movlw	6
  1016   00250A  6E55               	movwf	(??_start_up_seq+1)^0,c
  1017   00250C  0E13               	movlw	19
  1018   00250E  6E54               	movwf	??_start_up_seq^0,c
  1019   002510  0EAE               	movlw	174
  1020   002512                     u2817:
  1021   002512  2EE8               	decfsz	wreg,f,c
  1022   002514  D7FE               	bra	u2817
  1023   002516  2E54               	decfsz	??_start_up_seq^0,f,c
  1024   002518  D7FC               	bra	u2817
  1025   00251A  2E55               	decfsz	(??_start_up_seq+1)^0,f,c
  1026   00251C  D7FA               	bra	u2817
  1027   00251E                     
  1028                           ;main.c: 138:             canbus_latch_shutdown(1);
  1029   00251E  0E00               	movlw	0
  1030   002520  6E1B               	movwf	(canbus_latch_shutdown@number+1)^0,c
  1031   002522  0E01               	movlw	1
  1032   002524  6E1A               	movwf	canbus_latch_shutdown@number^0,c
  1033   002526  EC91  F013         	call	_canbus_latch_shutdown	;wreg free
  1034   00252A  EFB9  F012         	goto	l622
  1035   00252E                     l3860:
  1036                           
  1037                           ;main.c: 143:         _delay((unsigned long)((5000)*(20000000/4000.0)));
  1038   00252E  0E7F               	movlw	127
  1039   002530  6E55               	movwf	(??_start_up_seq+1)^0,c
  1040   002532  0ED4               	movlw	212
  1041   002534  6E54               	movwf	??_start_up_seq^0,c
  1042   002536  0E32               	movlw	50
  1043   002538                     u2827:
  1044   002538  2EE8               	decfsz	wreg,f,c
  1045   00253A  D7FE               	bra	u2827
  1046   00253C  2E54               	decfsz	??_start_up_seq^0,f,c
  1047   00253E  D7FC               	bra	u2827
  1048   002540  2E55               	decfsz	(??_start_up_seq+1)^0,f,c
  1049   002542  D7FA               	bra	u2827
  1050   002544                     
  1051                           ;main.c: 145:         canbus_msg_auxlow(1);
  1052   002544  0E00               	movlw	0
  1053   002546  6E1B               	movwf	(canbus_msg_auxlow@number+1)^0,c
  1054   002548  0E01               	movlw	1
  1055   00254A  6E1A               	movwf	canbus_msg_auxlow@number^0,c
  1056   00254C  ECBD  F013         	call	_canbus_msg_auxlow	;wreg free
  1057   002550                     
  1058                           ;main.c: 146:         _delay((unsigned long)((200)*(20000000/4000.0)));
  1059   002550  0E06               	movlw	6
  1060   002552  6E55               	movwf	(??_start_up_seq+1)^0,c
  1061   002554  0E13               	movlw	19
  1062   002556  6E54               	movwf	??_start_up_seq^0,c
  1063   002558  0EAE               	movlw	174
  1064   00255A                     u2837:
  1065   00255A  2EE8               	decfsz	wreg,f,c
  1066   00255C  D7FE               	bra	u2837
  1067   00255E  2E54               	decfsz	??_start_up_seq^0,f,c
  1068   002560  D7FC               	bra	u2837
  1069   002562  2E55               	decfsz	(??_start_up_seq+1)^0,f,c
  1070   002564  D7FA               	bra	u2837
  1071                           
  1072                           ;main.c: 147:         canbus_latch_shutdown(1);
  1073   002566  0E00               	movlw	0
  1074   002568  6E1B               	movwf	(canbus_latch_shutdown@number+1)^0,c
  1075   00256A  0E01               	movlw	1
  1076   00256C  6E1A               	movwf	canbus_latch_shutdown@number^0,c
  1077   00256E  EC91  F013         	call	_canbus_latch_shutdown	;wreg free
  1078   002572                     l622:
  1079   002572  0012               	return		;funcret
  1080   002574                     __end_of_start_up_seq:
  1081                           	callstack 0
  1082                           
  1083 ;; *************** function _canbus_msg_startupfail *****************
  1084 ;; Defined at:
  1085 ;;		line 79 in file "main.c"
  1086 ;; Parameters:    Size  Location     Type
  1087 ;;  number          2   25[COMRAM] int 
  1088 ;; Auto vars:     Size  Location     Type
  1089 ;;		None
  1090 ;; Return value:  Size  Location     Type
  1091 ;;                  1    wreg      void 
  1092 ;; Registers used:
  1093 ;;		wreg, fsr2l, fsr2h, status,2, status,0, cstack
  1094 ;; Tracked objects:
  1095 ;;		On entry : 0/0
  1096 ;;		On exit  : 0/0
  1097 ;;		Unchanged: 0/0
  1098 ;; Data sizes:     COMRAM   BANK0   BANK1   BANK2   BANK3   BANK4   BANK5   BANK6   BANK7   BANK8   BANK9  BANK10  BANK1
      +1  BANK12  BANK13  BANK14
  1099 ;;      Params:         2       0       0       0       0       0       0       0       0       0       0       0       
      +0       0       0       0
  1100 ;;      Locals:         0       0       0       0       0       0       0       0       0       0       0       0       
      +0       0       0       0
  1101 ;;      Temps:          0       0       0       0       0       0       0       0       0       0       0       0       
      +0       0       0       0
  1102 ;;      Totals:         2       0       0       0       0       0       0       0       0       0       0       0       
      +0       0       0       0
  1103 ;;Total ram usage:        2 bytes
  1104 ;; Hardware stack levels used: 1
  1105 ;; Hardware stack levels required when called: 6
  1106 ;; This function calls:
  1107 ;;		_canbusSend
  1108 ;; This function is called by:
  1109 ;;		_start_up_seq
  1110 ;; This function uses a non-reentrant model
  1111 ;;
  1112                           
  1113                           	psect	text2
  1114   0026F6                     __ptext2:
  1115                           	callstack 0
  1116   0026F6                     _canbus_msg_startupfail:
  1117                           	callstack 23
  1118   0026F6                     
  1119                           ;main.c: 80:     canbusSend(0x122,number);
  1120   0026F6  0E01               	movlw	1
  1121   0026F8  6E17               	movwf	(canbusSend@id+1)^0,c
  1122   0026FA  0E22               	movlw	34
  1123   0026FC  6E16               	movwf	canbusSend@id^0,c
  1124   0026FE  C01A  F018         	movff	canbus_msg_startupfail@number,canbusSend@data
  1125   002702  C01B  F019         	movff	canbus_msg_startupfail@number+1,canbusSend@data+1
  1126   002706  EC33  F013         	call	_canbusSend	;wreg free
  1127   00270A  0012               	return		;funcret
  1128   00270C                     __end_of_canbus_msg_startupfail:
  1129                           	callstack 0
  1130                           
  1131 ;; *************** function _canbus_msg_startup_success *****************
  1132 ;; Defined at:
  1133 ;;		line 103 in file "main.c"
  1134 ;; Parameters:    Size  Location     Type
  1135 ;;  number          2   25[COMRAM] int 
  1136 ;; Auto vars:     Size  Location     Type
  1137 ;;		None
  1138 ;; Return value:  Size  Location     Type
  1139 ;;                  1    wreg      void 
  1140 ;; Registers used:
  1141 ;;		wreg, fsr2l, fsr2h, status,2, status,0, cstack
  1142 ;; Tracked objects:
  1143 ;;		On entry : 0/0
  1144 ;;		On exit  : 0/0
  1145 ;;		Unchanged: 0/0
  1146 ;; Data sizes:     COMRAM   BANK0   BANK1   BANK2   BANK3   BANK4   BANK5   BANK6   BANK7   BANK8   BANK9  BANK10  BANK1
      +1  BANK12  BANK13  BANK14
  1147 ;;      Params:         2       0       0       0       0       0       0       0       0       0       0       0       
      +0       0       0       0
  1148 ;;      Locals:         0       0       0       0       0       0       0       0       0       0       0       0       
      +0       0       0       0
  1149 ;;      Temps:          0       0       0       0       0       0       0       0       0       0       0       0       
      +0       0       0       0
  1150 ;;      Totals:         2       0       0       0       0       0       0       0       0       0       0       0       
      +0       0       0       0
  1151 ;;Total ram usage:        2 bytes
  1152 ;; Hardware stack levels used: 1
  1153 ;; Hardware stack levels required when called: 6
  1154 ;; This function calls:
  1155 ;;		_canbusSend
  1156 ;; This function is called by:
  1157 ;;		_start_up_seq
  1158 ;; This function uses a non-reentrant model
  1159 ;;
  1160                           
  1161                           	psect	text3
  1162   00270C                     __ptext3:
  1163                           	callstack 0
  1164   00270C                     _canbus_msg_startup_success:
  1165                           	callstack 23
  1166   00270C                     
  1167                           ;main.c: 104:     canbusSend(0x22,number);
  1168   00270C  0E00               	movlw	0
  1169   00270E  6E17               	movwf	(canbusSend@id+1)^0,c
  1170   002710  0E22               	movlw	34
  1171   002712  6E16               	movwf	canbusSend@id^0,c
  1172   002714  C01A  F018         	movff	canbus_msg_startup_success@number,canbusSend@data
  1173   002718  C01B  F019         	movff	canbus_msg_startup_success@number+1,canbusSend@data+1
  1174   00271C  EC33  F013         	call	_canbusSend	;wreg free
  1175   002720  0012               	return		;funcret
  1176   002722                     __end_of_canbus_msg_startup_success:
  1177                           	callstack 0
  1178                           
  1179 ;; *************** function _canbus_latch_shutdown *****************
  1180 ;; Defined at:
  1181 ;;		line 111 in file "main.c"
  1182 ;; Parameters:    Size  Location     Type
  1183 ;;  number          2   25[COMRAM] int 
  1184 ;; Auto vars:     Size  Location     Type
  1185 ;;		None
  1186 ;; Return value:  Size  Location     Type
  1187 ;;                  1    wreg      void 
  1188 ;; Registers used:
  1189 ;;		wreg, fsr2l, fsr2h, status,2, status,0, cstack
  1190 ;; Tracked objects:
  1191 ;;		On entry : 0/0
  1192 ;;		On exit  : 0/0
  1193 ;;		Unchanged: 0/0
  1194 ;; Data sizes:     COMRAM   BANK0   BANK1   BANK2   BANK3   BANK4   BANK5   BANK6   BANK7   BANK8   BANK9  BANK10  BANK1
      +1  BANK12  BANK13  BANK14
  1195 ;;      Params:         2       0       0       0       0       0       0       0       0       0       0       0       
      +0       0       0       0
  1196 ;;      Locals:         0       0       0       0       0       0       0       0       0       0       0       0       
      +0       0       0       0
  1197 ;;      Temps:          0       0       0       0       0       0       0       0       0       0       0       0       
      +0       0       0       0
  1198 ;;      Totals:         2       0       0       0       0       0       0       0       0       0       0       0       
      +0       0       0       0
  1199 ;;Total ram usage:        2 bytes
  1200 ;; Hardware stack levels used: 1
  1201 ;; Hardware stack levels required when called: 6
  1202 ;; This function calls:
  1203 ;;		_canbusSend
  1204 ;; This function is called by:
  1205 ;;		_start_up_seq
  1206 ;; This function uses a non-reentrant model
  1207 ;;
  1208                           
  1209                           	psect	text4
  1210   002722                     __ptext4:
  1211                           	callstack 0
  1212   002722                     _canbus_latch_shutdown:
  1213                           	callstack 23
  1214   002722                     
  1215                           ;main.c: 112:     canbusSend(0x17,number);
  1216   002722  0E00               	movlw	0
  1217   002724  6E17               	movwf	(canbusSend@id+1)^0,c
  1218   002726  0E17               	movlw	23
  1219   002728  6E16               	movwf	canbusSend@id^0,c
  1220   00272A  C01A  F018         	movff	canbus_latch_shutdown@number,canbusSend@data
  1221   00272E  C01B  F019         	movff	canbus_latch_shutdown@number+1,canbusSend@data+1
  1222   002732  EC33  F013         	call	_canbusSend	;wreg free
  1223   002736  0012               	return		;funcret
  1224   002738                     __end_of_canbus_latch_shutdown:
  1225                           	callstack 0
  1226                           
  1227 ;; *************** function _ADC_Conv_pinSeven *****************
  1228 ;; Defined at:
  1229 ;;		line 35 in file "main.c"
  1230 ;; Parameters:    Size  Location     Type
  1231 ;;		None
  1232 ;; Auto vars:     Size  Location     Type
  1233 ;;  input_voltag    4    0        float 
  1234 ;;  adc_val         2   81[COMRAM] int 
  1235 ;; Return value:  Size  Location     Type
  1236 ;;                  2   78[COMRAM] int 
  1237 ;; Registers used:
  1238 ;;		wreg, status,2
  1239 ;; Tracked objects:
  1240 ;;		On entry : 0/0
  1241 ;;		On exit  : 0/0
  1242 ;;		Unchanged: 0/0
  1243 ;; Data sizes:     COMRAM   BANK0   BANK1   BANK2   BANK3   BANK4   BANK5   BANK6   BANK7   BANK8   BANK9  BANK10  BANK1
      +1  BANK12  BANK13  BANK14
  1244 ;;      Params:         2       0       0       0       0       0       0       0       0       0       0       0       
      +0       0       0       0
  1245 ;;      Locals:         2       0       0       0       0       0       0       0       0       0       0       0       
      +0       0       0       0
  1246 ;;      Temps:          1       0       0       0       0       0       0       0       0       0       0       0       
      +0       0       0       0
  1247 ;;      Totals:         5       0       0       0       0       0       0       0       0       0       0       0       
      +0       0       0       0
  1248 ;;Total ram usage:        5 bytes
  1249 ;; Hardware stack levels used: 1
  1250 ;; Hardware stack levels required when called: 5
  1251 ;; This function calls:
  1252 ;;		_CAN_transmit
  1253 ;;		___fldiv
  1254 ;;		___flge
  1255 ;;		___flmul
  1256 ;;		___fltol
  1257 ;;		___xxtofl
  1258 ;; This function is called by:
  1259 ;;		_start_up_seq
  1260 ;;		_main
  1261 ;; This function uses a non-reentrant model
  1262 ;;
  1263                           
  1264                           	psect	text5
  1265   002690                     __ptext5:
  1266                           	callstack 0
  1267   002690                     _ADC_Conv_pinSeven:
  1268                           	callstack 24
  1269   002690                     
  1270                           ;main.c: 37:     int adc_val= PORTAbits.RA5;
  1271   002690  BA80               	btfsc	128,5,c	;volatile
  1272   002692  EF4D  F013         	goto	u2641
  1273   002696  EF51  F013         	goto	u2640
  1274   00269A                     u2641:
  1275   00269A  6A51               	clrf	??_ADC_Conv_pinSeven^0,c
  1276   00269C  2A51               	incf	??_ADC_Conv_pinSeven^0,f,c
  1277   00269E  EF52  F013         	goto	u2648
  1278   0026A2                     u2640:
  1279   0026A2  6A51               	clrf	??_ADC_Conv_pinSeven^0,c
  1280   0026A4                     u2648:
  1281   0026A4  5051               	movf	??_ADC_Conv_pinSeven^0,w,c
  1282   0026A6  6E52               	movwf	ADC_Conv_pinSeven@adc_val^0,c
  1283   0026A8  6A53               	clrf	(ADC_Conv_pinSeven@adc_val+1)^0,c
  1284   0026AA                     
  1285                           ;main.c: 38:     return adc_val;
  1286   0026AA  C052  F04F         	movff	ADC_Conv_pinSeven@adc_val,?_ADC_Conv_pinSeven
  1287   0026AE  C053  F050         	movff	ADC_Conv_pinSeven@adc_val+1,?_ADC_Conv_pinSeven+1
  1288   0026B2  0012               	return		;funcret
  1289   0026B4                     __end_of_ADC_Conv_pinSeven:
  1290                           	callstack 0
  1291                           
  1292 ;; *************** function _ADC_Conv_pinNine *****************
  1293 ;; Defined at:
  1294 ;;		line 57 in file "main.c"
  1295 ;; Parameters:    Size  Location     Type
  1296 ;;		None
  1297 ;; Auto vars:     Size  Location     Type
  1298 ;;  adc_val         2   81[COMRAM] int 
  1299 ;; Return value:  Size  Location     Type
  1300 ;;                  2   78[COMRAM] int 
  1301 ;; Registers used:
  1302 ;;		wreg, status,2
  1303 ;; Tracked objects:
  1304 ;;		On entry : 0/0
  1305 ;;		On exit  : 0/0
  1306 ;;		Unchanged: 0/0
  1307 ;; Data sizes:     COMRAM   BANK0   BANK1   BANK2   BANK3   BANK4   BANK5   BANK6   BANK7   BANK8   BANK9  BANK10  BANK1
      +1  BANK12  BANK13  BANK14
  1308 ;;      Params:         2       0       0       0       0       0       0       0       0       0       0       0       
      +0       0       0       0
  1309 ;;      Locals:         2       0       0       0       0       0       0       0       0       0       0       0       
      +0       0       0       0
  1310 ;;      Temps:          1       0       0       0       0       0       0       0       0       0       0       0       
      +0       0       0       0
  1311 ;;      Totals:         5       0       0       0       0       0       0       0       0       0       0       0       
      +0       0       0       0
  1312 ;;Total ram usage:        5 bytes
  1313 ;; Hardware stack levels used: 1
  1314 ;; Hardware stack levels required when called: 5
  1315 ;; This function calls:
  1316 ;;		_CAN_transmit
  1317 ;;		___fldiv
  1318 ;;		___flge
  1319 ;;		___flmul
  1320 ;;		___fltol
  1321 ;;		___xxtofl
  1322 ;; This function is called by:
  1323 ;;		_start_up_seq
  1324 ;;		_main
  1325 ;; This function uses a non-reentrant model
  1326 ;;
  1327                           
  1328                           	psect	text6
  1329   0026B4                     __ptext6:
  1330                           	callstack 0
  1331   0026B4                     _ADC_Conv_pinNine:
  1332                           	callstack 24
  1333   0026B4                     
  1334                           ;main.c: 58:     int adc_val= PORTEbits.RE1;
  1335   0026B4  B284               	btfsc	132,1,c	;volatile
  1336   0026B6  EF5F  F013         	goto	u2651
  1337   0026BA  EF63  F013         	goto	u2650
  1338   0026BE                     u2651:
  1339   0026BE  6A51               	clrf	??_ADC_Conv_pinNine^0,c
  1340   0026C0  2A51               	incf	??_ADC_Conv_pinNine^0,f,c
  1341   0026C2  EF64  F013         	goto	u2658
  1342   0026C6                     u2650:
  1343   0026C6  6A51               	clrf	??_ADC_Conv_pinNine^0,c
  1344   0026C8                     u2658:
  1345   0026C8  5051               	movf	??_ADC_Conv_pinNine^0,w,c
  1346   0026CA  6E52               	movwf	ADC_Conv_pinNine@adc_val^0,c
  1347   0026CC  6A53               	clrf	(ADC_Conv_pinNine@adc_val+1)^0,c
  1348   0026CE                     
  1349                           ;main.c: 59:     return adc_val;
  1350   0026CE  C052  F04F         	movff	ADC_Conv_pinNine@adc_val,?_ADC_Conv_pinNine
  1351   0026D2  C053  F050         	movff	ADC_Conv_pinNine@adc_val+1,?_ADC_Conv_pinNine+1
  1352   0026D6  0012               	return		;funcret
  1353   0026D8                     __end_of_ADC_Conv_pinNine:
  1354                           	callstack 0
  1355                           
  1356 ;; *************** function ___xxtofl *****************
  1357 ;; Defined at:
  1358 ;;		line 10 in file "C:\Program Files\Microchip\xc8\v2.45\pic\sources\c99\common\xxtofl.c"
  1359 ;; Parameters:    Size  Location     Type
  1360 ;;  sign            1    wreg     unsigned char 
  1361 ;;  val             4    2[COMRAM] long 
  1362 ;; Auto vars:     Size  Location     Type
  1363 ;;  sign            1   10[COMRAM] unsigned char 
  1364 ;;  arg             4   12[COMRAM] unsigned long 
  1365 ;;  exp             1   11[COMRAM] unsigned char 
  1366 ;; Return value:  Size  Location     Type
  1367 ;;                  4    2[COMRAM] unsigned char 
  1368 ;; Registers used:
  1369 ;;		wreg, status,2, status,0
  1370 ;; Tracked objects:
  1371 ;;		On entry : 0/0
  1372 ;;		On exit  : 0/0
  1373 ;;		Unchanged: 0/0
  1374 ;; Data sizes:     COMRAM   BANK0   BANK1   BANK2   BANK3   BANK4   BANK5   BANK6   BANK7   BANK8   BANK9  BANK10  BANK1
      +1  BANK12  BANK13  BANK14
  1375 ;;      Params:         4       0       0       0       0       0       0       0       0       0       0       0       
      +0       0       0       0
  1376 ;;      Locals:         6       0       0       0       0       0       0       0       0       0       0       0       
      +0       0       0       0
  1377 ;;      Temps:          4       0       0       0       0       0       0       0       0       0       0       0       
      +0       0       0       0
  1378 ;;      Totals:        14       0       0       0       0       0       0       0       0       0       0       0       
      +0       0       0       0
  1379 ;;Total ram usage:       14 bytes
  1380 ;; Hardware stack levels used: 1
  1381 ;; Hardware stack levels required when called: 3
  1382 ;; This function calls:
  1383 ;;		Nothing
  1384 ;; This function is called by:
  1385 ;;		_ADC_Conv_pinSeven
  1386 ;;		_ADC_Conv_pinNine
  1387 ;; This function uses a non-reentrant model
  1388 ;;
  1389                           
  1390                           	psect	text7
  1391   001B8E                     __ptext7:
  1392                           	callstack 0
  1393   001B8E                     ___xxtofl:
  1394                           	callstack 25
  1395                           
  1396                           ;incstack = 0
  1397                           ;___xxtofl@sign stored from wreg
  1398   001B8E  6E0B               	movwf	___xxtofl@sign^0,c
  1399   001B90  500B               	movf	___xxtofl@sign^0,w,c
  1400   001B92  B4D8               	btfsc	status,2,c
  1401   001B94  EFCE  F00D         	goto	u2501
  1402   001B98  EFD0  F00D         	goto	u2500
  1403   001B9C                     u2501:
  1404   001B9C  EFF2  F00D         	goto	l1318
  1405   001BA0                     u2500:
  1406   001BA0  BE06               	btfsc	(___xxtofl@val+3)^0,7,c
  1407   001BA2  EFD7  F00D         	goto	u2510
  1408   001BA6  EFD5  F00D         	goto	u2511
  1409   001BAA                     u2511:
  1410   001BAA  EFF2  F00D         	goto	l1318
  1411   001BAE                     u2510:
  1412   001BAE  C003  F007         	movff	___xxtofl@val,??___xxtofl
  1413   001BB2  C004  F008         	movff	___xxtofl@val+1,??___xxtofl+1
  1414   001BB6  C005  F009         	movff	___xxtofl@val+2,??___xxtofl+2
  1415   001BBA  C006  F00A         	movff	___xxtofl@val+3,??___xxtofl+3
  1416   001BBE  1E07               	comf	??___xxtofl^0,f,c
  1417   001BC0  1E08               	comf	(??___xxtofl+1)^0,f,c
  1418   001BC2  1E09               	comf	(??___xxtofl+2)^0,f,c
  1419   001BC4  1E0A               	comf	(??___xxtofl+3)^0,f,c
  1420   001BC6  2A07               	incf	??___xxtofl^0,f,c
  1421   001BC8  0E00               	movlw	0
  1422   001BCA  2208               	addwfc	(??___xxtofl+1)^0,f,c
  1423   001BCC  2209               	addwfc	(??___xxtofl+2)^0,f,c
  1424   001BCE  220A               	addwfc	(??___xxtofl+3)^0,f,c
  1425   001BD0  C007  F00D         	movff	??___xxtofl,___xxtofl@arg
  1426   001BD4  C008  F00E         	movff	??___xxtofl+1,___xxtofl@arg+1
  1427   001BD8  C009  F00F         	movff	??___xxtofl+2,___xxtofl@arg+2
  1428   001BDC  C00A  F010         	movff	??___xxtofl+3,___xxtofl@arg+3
  1429   001BE0  EFFA  F00D         	goto	l3568
  1430   001BE4                     l1318:
  1431   001BE4  C003  F00D         	movff	___xxtofl@val,___xxtofl@arg
  1432   001BE8  C004  F00E         	movff	___xxtofl@val+1,___xxtofl@arg+1
  1433   001BEC  C005  F00F         	movff	___xxtofl@val+2,___xxtofl@arg+2
  1434   001BF0  C006  F010         	movff	___xxtofl@val+3,___xxtofl@arg+3
  1435   001BF4                     l3568:
  1436   001BF4  5003               	movf	___xxtofl@val^0,w,c
  1437   001BF6  1004               	iorwf	(___xxtofl@val+1)^0,w,c
  1438   001BF8  1005               	iorwf	(___xxtofl@val+2)^0,w,c
  1439   001BFA  1006               	iorwf	(___xxtofl@val+3)^0,w,c
  1440   001BFC  A4D8               	btfss	status,2,c
  1441   001BFE  EF03  F00E         	goto	u2521
  1442   001C02  EF05  F00E         	goto	u2520
  1443   001C06                     u2521:
  1444   001C06  EF0F  F00E         	goto	l3574
  1445   001C0A                     u2520:
  1446   001C0A  0E00               	movlw	0
  1447   001C0C  6E03               	movwf	?___xxtofl^0,c
  1448   001C0E  0E00               	movlw	0
  1449   001C10  6E04               	movwf	(?___xxtofl+1)^0,c
  1450   001C12  0E00               	movlw	0
  1451   001C14  6E05               	movwf	(?___xxtofl+2)^0,c
  1452   001C16  0E00               	movlw	0
  1453   001C18  6E06               	movwf	(?___xxtofl+3)^0,c
  1454   001C1A  EFA0  F00E         	goto	l1321
  1455   001C1E                     l3574:
  1456   001C1E  0E96               	movlw	150
  1457   001C20  6E0C               	movwf	___xxtofl@exp^0,c
  1458   001C22  EF19  F00E         	goto	l3578
  1459   001C26                     l3576:
  1460   001C26  2A0C               	incf	___xxtofl@exp^0,f,c
  1461   001C28  90D8               	bcf	status,0,c
  1462   001C2A  3210               	rrcf	(___xxtofl@arg+3)^0,f,c
  1463   001C2C  320F               	rrcf	(___xxtofl@arg+2)^0,f,c
  1464   001C2E  320E               	rrcf	(___xxtofl@arg+1)^0,f,c
  1465   001C30  320D               	rrcf	___xxtofl@arg^0,f,c
  1466   001C32                     l3578:
  1467   001C32  0E00               	movlw	0
  1468   001C34  140D               	andwf	___xxtofl@arg^0,w,c
  1469   001C36  6E07               	movwf	??___xxtofl^0,c
  1470   001C38  0E00               	movlw	0
  1471   001C3A  140E               	andwf	(___xxtofl@arg+1)^0,w,c
  1472   001C3C  6E08               	movwf	(??___xxtofl+1)^0,c
  1473   001C3E  0E00               	movlw	0
  1474   001C40  140F               	andwf	(___xxtofl@arg+2)^0,w,c
  1475   001C42  6E09               	movwf	(??___xxtofl+2)^0,c
  1476   001C44  0EFE               	movlw	254
  1477   001C46  1410               	andwf	(___xxtofl@arg+3)^0,w,c
  1478   001C48  6E0A               	movwf	(??___xxtofl+3)^0,c
  1479   001C4A  5007               	movf	??___xxtofl^0,w,c
  1480   001C4C  1008               	iorwf	(??___xxtofl+1)^0,w,c
  1481   001C4E  1009               	iorwf	(??___xxtofl+2)^0,w,c
  1482   001C50  100A               	iorwf	(??___xxtofl+3)^0,w,c
  1483   001C52  A4D8               	btfss	status,2,c
  1484   001C54  EF2E  F00E         	goto	u2531
  1485   001C58  EF30  F00E         	goto	u2530
  1486   001C5C                     u2531:
  1487   001C5C  EF13  F00E         	goto	l3576
  1488   001C60                     u2530:
  1489   001C60  EF3E  F00E         	goto	l1325
  1490   001C64                     l3580:
  1491   001C64  2A0C               	incf	___xxtofl@exp^0,f,c
  1492   001C66  0E01               	movlw	1
  1493   001C68  260D               	addwf	___xxtofl@arg^0,f,c
  1494   001C6A  0E00               	movlw	0
  1495   001C6C  220E               	addwfc	(___xxtofl@arg+1)^0,f,c
  1496   001C6E  220F               	addwfc	(___xxtofl@arg+2)^0,f,c
  1497   001C70  2210               	addwfc	(___xxtofl@arg+3)^0,f,c
  1498   001C72  90D8               	bcf	status,0,c
  1499   001C74  3210               	rrcf	(___xxtofl@arg+3)^0,f,c
  1500   001C76  320F               	rrcf	(___xxtofl@arg+2)^0,f,c
  1501   001C78  320E               	rrcf	(___xxtofl@arg+1)^0,f,c
  1502   001C7A  320D               	rrcf	___xxtofl@arg^0,f,c
  1503   001C7C                     l1325:
  1504   001C7C  0E00               	movlw	0
  1505   001C7E  140D               	andwf	___xxtofl@arg^0,w,c
  1506   001C80  6E07               	movwf	??___xxtofl^0,c
  1507   001C82  0E00               	movlw	0
  1508   001C84  140E               	andwf	(___xxtofl@arg+1)^0,w,c
  1509   001C86  6E08               	movwf	(??___xxtofl+1)^0,c
  1510   001C88  0E00               	movlw	0
  1511   001C8A  140F               	andwf	(___xxtofl@arg+2)^0,w,c
  1512   001C8C  6E09               	movwf	(??___xxtofl+2)^0,c
  1513   001C8E  0EFF               	movlw	255
  1514   001C90  1410               	andwf	(___xxtofl@arg+3)^0,w,c
  1515   001C92  6E0A               	movwf	(??___xxtofl+3)^0,c
  1516   001C94  5007               	movf	??___xxtofl^0,w,c
  1517   001C96  1008               	iorwf	(??___xxtofl+1)^0,w,c
  1518   001C98  1009               	iorwf	(??___xxtofl+2)^0,w,c
  1519   001C9A  100A               	iorwf	(??___xxtofl+3)^0,w,c
  1520   001C9C  A4D8               	btfss	status,2,c
  1521   001C9E  EF53  F00E         	goto	u2541
  1522   001CA2  EF55  F00E         	goto	u2540
  1523   001CA6                     u2541:
  1524   001CA6  EF32  F00E         	goto	l3580
  1525   001CAA                     u2540:
  1526   001CAA  EF5D  F00E         	goto	l3588
  1527   001CAE                     l3586:
  1528   001CAE  060C               	decf	___xxtofl@exp^0,f,c
  1529   001CB0  90D8               	bcf	status,0,c
  1530   001CB2  360D               	rlcf	___xxtofl@arg^0,f,c
  1531   001CB4  360E               	rlcf	(___xxtofl@arg+1)^0,f,c
  1532   001CB6  360F               	rlcf	(___xxtofl@arg+2)^0,f,c
  1533   001CB8  3610               	rlcf	(___xxtofl@arg+3)^0,f,c
  1534   001CBA                     l3588:
  1535   001CBA  BE0F               	btfsc	(___xxtofl@arg+2)^0,7,c
  1536   001CBC  EF62  F00E         	goto	u2551
  1537   001CC0  EF64  F00E         	goto	u2550
  1538   001CC4                     u2551:
  1539   001CC4  EF6C  F00E         	goto	l1332
  1540   001CC8                     u2550:
  1541   001CC8  0E02               	movlw	2
  1542   001CCA  600C               	cpfslt	___xxtofl@exp^0,c
  1543   001CCC  EF6A  F00E         	goto	u2561
  1544   001CD0  EF6C  F00E         	goto	u2560
  1545   001CD4                     u2561:
  1546   001CD4  EF57  F00E         	goto	l3586
  1547   001CD8                     u2560:
  1548   001CD8                     l1332:
  1549   001CD8  B00C               	btfsc	___xxtofl@exp^0,0,c
  1550   001CDA  EF71  F00E         	goto	u2571
  1551   001CDE  EF73  F00E         	goto	u2570
  1552   001CE2                     u2571:
  1553   001CE2  EF74  F00E         	goto	l3594
  1554   001CE6                     u2570:
  1555   001CE6  9E0F               	bcf	(___xxtofl@arg+2)^0,7,c
  1556   001CE8                     l3594:
  1557   001CE8  90D8               	bcf	status,0,c
  1558   001CEA  320C               	rrcf	___xxtofl@exp^0,f,c
  1559   001CEC  C00C  F007         	movff	___xxtofl@exp,??___xxtofl
  1560   001CF0  6A08               	clrf	(??___xxtofl+1)^0,c
  1561   001CF2  6A09               	clrf	(??___xxtofl+2)^0,c
  1562   001CF4  6A0A               	clrf	(??___xxtofl+3)^0,c
  1563   001CF6  C007  F00A         	movff	??___xxtofl,??___xxtofl+3
  1564   001CFA  6A09               	clrf	(??___xxtofl+2)^0,c
  1565   001CFC  6A08               	clrf	(??___xxtofl+1)^0,c
  1566   001CFE  6A07               	clrf	??___xxtofl^0,c
  1567   001D00  5007               	movf	??___xxtofl^0,w,c
  1568   001D02  120D               	iorwf	___xxtofl@arg^0,f,c
  1569   001D04  5008               	movf	(??___xxtofl+1)^0,w,c
  1570   001D06  120E               	iorwf	(___xxtofl@arg+1)^0,f,c
  1571   001D08  5009               	movf	(??___xxtofl+2)^0,w,c
  1572   001D0A  120F               	iorwf	(___xxtofl@arg+2)^0,f,c
  1573   001D0C  500A               	movf	(??___xxtofl+3)^0,w,c
  1574   001D0E  1210               	iorwf	(___xxtofl@arg+3)^0,f,c
  1575   001D10  500B               	movf	___xxtofl@sign^0,w,c
  1576   001D12  B4D8               	btfsc	status,2,c
  1577   001D14  EF8E  F00E         	goto	u2581
  1578   001D18  EF90  F00E         	goto	u2580
  1579   001D1C                     u2581:
  1580   001D1C  EF98  F00E         	goto	l3604
  1581   001D20                     u2580:
  1582   001D20  BE06               	btfsc	(___xxtofl@val+3)^0,7,c
  1583   001D22  EF97  F00E         	goto	u2590
  1584   001D26  EF95  F00E         	goto	u2591
  1585   001D2A                     u2591:
  1586   001D2A  EF98  F00E         	goto	l3604
  1587   001D2E                     u2590:
  1588   001D2E  8E10               	bsf	(___xxtofl@arg+3)^0,7,c
  1589   001D30                     l3604:
  1590   001D30  C00D  F003         	movff	___xxtofl@arg,?___xxtofl
  1591   001D34  C00E  F004         	movff	___xxtofl@arg+1,?___xxtofl+1
  1592   001D38  C00F  F005         	movff	___xxtofl@arg+2,?___xxtofl+2
  1593   001D3C  C010  F006         	movff	___xxtofl@arg+3,?___xxtofl+3
  1594   001D40                     l1321:
  1595   001D40  0012               	return		;funcret
  1596   001D42                     __end_of___xxtofl:
  1597                           	callstack 0
  1598                           
  1599 ;; *************** function ___fltol *****************
  1600 ;; Defined at:
  1601 ;;		line 43 in file "C:\Program Files\Microchip\xc8\v2.45\pic\sources\c99\common\fltol.c"
  1602 ;; Parameters:    Size  Location     Type
  1603 ;;  f1              4   66[COMRAM] unsigned char 
  1604 ;; Auto vars:     Size  Location     Type
  1605 ;;  exp1            1   75[COMRAM] unsigned char 
  1606 ;;  sign1           1   74[COMRAM] unsigned char 
  1607 ;; Return value:  Size  Location     Type
  1608 ;;                  4   66[COMRAM] long 
  1609 ;; Registers used:
  1610 ;;		wreg, status,2, status,0
  1611 ;; Tracked objects:
  1612 ;;		On entry : 0/0
  1613 ;;		On exit  : 0/0
  1614 ;;		Unchanged: 0/0
  1615 ;; Data sizes:     COMRAM   BANK0   BANK1   BANK2   BANK3   BANK4   BANK5   BANK6   BANK7   BANK8   BANK9  BANK10  BANK1
      +1  BANK12  BANK13  BANK14
  1616 ;;      Params:         4       0       0       0       0       0       0       0       0       0       0       0       
      +0       0       0       0
  1617 ;;      Locals:         2       0       0       0       0       0       0       0       0       0       0       0       
      +0       0       0       0
  1618 ;;      Temps:          4       0       0       0       0       0       0       0       0       0       0       0       
      +0       0       0       0
  1619 ;;      Totals:        10       0       0       0       0       0       0       0       0       0       0       0       
      +0       0       0       0
  1620 ;;Total ram usage:       10 bytes
  1621 ;; Hardware stack levels used: 1
  1622 ;; Hardware stack levels required when called: 3
  1623 ;; This function calls:
  1624 ;;		Nothing
  1625 ;; This function is called by:
  1626 ;;		_ADC_Conv_pinSeven
  1627 ;;		_ADC_Conv_pinNine
  1628 ;; This function uses a non-reentrant model
  1629 ;;
  1630                           
  1631                           	psect	text8
  1632   002184                     __ptext8:
  1633                           	callstack 0
  1634   002184                     ___fltol:
  1635                           	callstack 25
  1636   002184  3445               	rlcf	(___fltol@f1+2)^0,w,c
  1637   002186  3446               	rlcf	(___fltol@f1+3)^0,w,c
  1638   002188  6E4C               	movwf	___fltol@exp1^0,c
  1639   00218A  504C               	movf	___fltol@exp1^0,w,c
  1640   00218C  A4D8               	btfss	status,2,c
  1641   00218E  EFCB  F010         	goto	u2431
  1642   002192  EFCD  F010         	goto	u2430
  1643   002196                     u2431:
  1644   002196  EFD7  F010         	goto	l3524
  1645   00219A                     u2430:
  1646   00219A                     l3520:
  1647   00219A  0E00               	movlw	0
  1648   00219C  6E43               	movwf	?___fltol^0,c
  1649   00219E  0E00               	movlw	0
  1650   0021A0  6E44               	movwf	(?___fltol+1)^0,c
  1651   0021A2  0E00               	movlw	0
  1652   0021A4  6E45               	movwf	(?___fltol+2)^0,c
  1653   0021A6  0E00               	movlw	0
  1654   0021A8  6E46               	movwf	(?___fltol+3)^0,c
  1655   0021AA  EF44  F011         	goto	l960
  1656   0021AE                     l3524:
  1657   0021AE  C043  F047         	movff	___fltol@f1,??___fltol
  1658   0021B2  C044  F048         	movff	___fltol@f1+1,??___fltol+1
  1659   0021B6  C045  F049         	movff	___fltol@f1+2,??___fltol+2
  1660   0021BA  C046  F04A         	movff	___fltol@f1+3,??___fltol+3
  1661   0021BE  0E20               	movlw	32
  1662   0021C0  EFE7  F010         	goto	u2440
  1663   0021C4                     u2445:
  1664   0021C4  90D8               	bcf	status,0,c
  1665   0021C6  324A               	rrcf	(??___fltol+3)^0,f,c
  1666   0021C8  3249               	rrcf	(??___fltol+2)^0,f,c
  1667   0021CA  3248               	rrcf	(??___fltol+1)^0,f,c
  1668   0021CC  3247               	rrcf	??___fltol^0,f,c
  1669   0021CE                     u2440:
  1670   0021CE  2EE8               	decfsz	wreg,f,c
  1671   0021D0  EFE2  F010         	goto	u2445
  1672   0021D4  5047               	movf	??___fltol^0,w,c
  1673   0021D6  6E4B               	movwf	___fltol@sign1^0,c
  1674   0021D8  8E45               	bsf	(___fltol@f1+2)^0,7,c
  1675   0021DA  0EFF               	movlw	255
  1676   0021DC  1643               	andwf	___fltol@f1^0,f,c
  1677   0021DE  0EFF               	movlw	255
  1678   0021E0  1644               	andwf	(___fltol@f1+1)^0,f,c
  1679   0021E2  0EFF               	movlw	255
  1680   0021E4  1645               	andwf	(___fltol@f1+2)^0,f,c
  1681   0021E6  0E00               	movlw	0
  1682   0021E8  1646               	andwf	(___fltol@f1+3)^0,f,c
  1683   0021EA  0E96               	movlw	150
  1684   0021EC  5E4C               	subwf	___fltol@exp1^0,f,c
  1685   0021EE  BE4C               	btfsc	___fltol@exp1^0,7,c
  1686   0021F0  EFFE  F010         	goto	u2450
  1687   0021F4  EFFC  F010         	goto	u2451
  1688   0021F8                     u2451:
  1689   0021F8  EF14  F011         	goto	l3544
  1690   0021FC                     u2450:
  1691   0021FC  504C               	movf	___fltol@exp1^0,w,c
  1692   0021FE  0A80               	xorlw	128
  1693   002200  0F97               	addlw	151
  1694   002202  B0D8               	btfsc	status,0,c
  1695   002204  EF06  F011         	goto	u2461
  1696   002208  EF08  F011         	goto	u2460
  1697   00220C                     u2461:
  1698   00220C  EF0A  F011         	goto	l3540
  1699   002210                     u2460:
  1700   002210  EFCD  F010         	goto	l3520
  1701   002214                     l3540:
  1702   002214  90D8               	bcf	status,0,c
  1703   002216  3246               	rrcf	(___fltol@f1+3)^0,f,c
  1704   002218  3245               	rrcf	(___fltol@f1+2)^0,f,c
  1705   00221A  3244               	rrcf	(___fltol@f1+1)^0,f,c
  1706   00221C  3243               	rrcf	___fltol@f1^0,f,c
  1707   00221E  3E4C               	incfsz	___fltol@exp1^0,f,c
  1708   002220  EF0A  F011         	goto	l3540
  1709   002224  EF2C  F011         	goto	l3554
  1710   002228                     l3544:
  1711   002228  0E1F               	movlw	31
  1712   00222A  644C               	cpfsgt	___fltol@exp1^0,c
  1713   00222C  EF1A  F011         	goto	u2471
  1714   002230  EF1C  F011         	goto	u2470
  1715   002234                     u2471:
  1716   002234  EF24  F011         	goto	l3552
  1717   002238                     u2470:
  1718   002238  EFCD  F010         	goto	l3520
  1719   00223C                     l3550:
  1720   00223C  90D8               	bcf	status,0,c
  1721   00223E  3643               	rlcf	___fltol@f1^0,f,c
  1722   002240  3644               	rlcf	(___fltol@f1+1)^0,f,c
  1723   002242  3645               	rlcf	(___fltol@f1+2)^0,f,c
  1724   002244  3646               	rlcf	(___fltol@f1+3)^0,f,c
  1725   002246  064C               	decf	___fltol@exp1^0,f,c
  1726   002248                     l3552:
  1727   002248  504C               	movf	___fltol@exp1^0,w,c
  1728   00224A  A4D8               	btfss	status,2,c
  1729   00224C  EF2A  F011         	goto	u2481
  1730   002250  EF2C  F011         	goto	u2480
  1731   002254                     u2481:
  1732   002254  EF1E  F011         	goto	l3550
  1733   002258                     u2480:
  1734   002258                     l3554:
  1735   002258  504B               	movf	___fltol@sign1^0,w,c
  1736   00225A  B4D8               	btfsc	status,2,c
  1737   00225C  EF32  F011         	goto	u2491
  1738   002260  EF34  F011         	goto	u2490
  1739   002264                     u2491:
  1740   002264  EF3C  F011         	goto	l3558
  1741   002268                     u2490:
  1742   002268  1E46               	comf	(___fltol@f1+3)^0,f,c
  1743   00226A  1E45               	comf	(___fltol@f1+2)^0,f,c
  1744   00226C  1E44               	comf	(___fltol@f1+1)^0,f,c
  1745   00226E  6C43               	negf	___fltol@f1^0,c
  1746   002270  0E00               	movlw	0
  1747   002272  2244               	addwfc	(___fltol@f1+1)^0,f,c
  1748   002274  2245               	addwfc	(___fltol@f1+2)^0,f,c
  1749   002276  2246               	addwfc	(___fltol@f1+3)^0,f,c
  1750   002278                     l3558:
  1751   002278  C043  F043         	movff	___fltol@f1,?___fltol
  1752   00227C  C044  F044         	movff	___fltol@f1+1,?___fltol+1
  1753   002280  C045  F045         	movff	___fltol@f1+2,?___fltol+2
  1754   002284  C046  F046         	movff	___fltol@f1+3,?___fltol+3
  1755   002288                     l960:
  1756   002288  0012               	return		;funcret
  1757   00228A                     __end_of___fltol:
  1758                           	callstack 0
  1759                           
  1760 ;; *************** function ___flmul *****************
  1761 ;; Defined at:
  1762 ;;		line 8 in file "C:\Program Files\Microchip\xc8\v2.45\pic\sources\c99\common\sprcmul.c"
  1763 ;; Parameters:    Size  Location     Type
  1764 ;;  b               4   41[COMRAM] long 
  1765 ;;  a               4   45[COMRAM] long 
  1766 ;; Auto vars:     Size  Location     Type
  1767 ;;  prod            4   60[COMRAM] struct .
  1768 ;;  grs             4   55[COMRAM] unsigned long 
  1769 ;;  temp            2   64[COMRAM] struct .
  1770 ;;  bexp            1   59[COMRAM] unsigned char 
  1771 ;;  aexp            1   54[COMRAM] unsigned char 
  1772 ;;  sign            1   53[COMRAM] unsigned char 
  1773 ;; Return value:  Size  Location     Type
  1774 ;;                  4   41[COMRAM] unsigned char 
  1775 ;; Registers used:
  1776 ;;		wreg, status,2, status,0, prodl, prodh
  1777 ;; Tracked objects:
  1778 ;;		On entry : 0/0
  1779 ;;		On exit  : 0/0
  1780 ;;		Unchanged: 0/0
  1781 ;; Data sizes:     COMRAM   BANK0   BANK1   BANK2   BANK3   BANK4   BANK5   BANK6   BANK7   BANK8   BANK9  BANK10  BANK1
      +1  BANK12  BANK13  BANK14
  1782 ;;      Params:         8       0       0       0       0       0       0       0       0       0       0       0       
      +0       0       0       0
  1783 ;;      Locals:        13       0       0       0       0       0       0       0       0       0       0       0       
      +0       0       0       0
  1784 ;;      Temps:          4       0       0       0       0       0       0       0       0       0       0       0       
      +0       0       0       0
  1785 ;;      Totals:        25       0       0       0       0       0       0       0       0       0       0       0       
      +0       0       0       0
  1786 ;;Total ram usage:       25 bytes
  1787 ;; Hardware stack levels used: 1
  1788 ;; Hardware stack levels required when called: 3
  1789 ;; This function calls:
  1790 ;;		Nothing
  1791 ;; This function is called by:
  1792 ;;		_ADC_Conv_pinSeven
  1793 ;;		_ADC_Conv_pinNine
  1794 ;; This function uses a non-reentrant model
  1795 ;;
  1796                           
  1797                           	psect	text9
  1798   000F02                     __ptext9:
  1799                           	callstack 0
  1800   000F02                     ___flmul:
  1801                           	callstack 25
  1802   000F02  502D               	movf	(___flmul@b+3)^0,w,c
  1803   000F04  0B80               	andlw	128
  1804   000F06  6E36               	movwf	___flmul@sign^0,c
  1805   000F08  502D               	movf	(___flmul@b+3)^0,w,c
  1806   000F0A  242D               	addwf	(___flmul@b+3)^0,w,c
  1807   000F0C  6E3C               	movwf	___flmul@bexp^0,c
  1808   000F0E  AE2C               	btfss	(___flmul@b+2)^0,7,c
  1809   000F10  EF8C  F007         	goto	u2191
  1810   000F14  EF8E  F007         	goto	u2190
  1811   000F18                     u2191:
  1812   000F18  EF8F  F007         	goto	l3372
  1813   000F1C                     u2190:
  1814   000F1C  803C               	bsf	___flmul@bexp^0,0,c
  1815   000F1E                     l3372:
  1816   000F1E  503C               	movf	___flmul@bexp^0,w,c
  1817   000F20  B4D8               	btfsc	status,2,c
  1818   000F22  EF95  F007         	goto	u2201
  1819   000F26  EF97  F007         	goto	u2200
  1820   000F2A                     u2201:
  1821   000F2A  EFAA  F007         	goto	l3380
  1822   000F2E                     u2200:
  1823   000F2E  283C               	incf	___flmul@bexp^0,w,c
  1824   000F30  A4D8               	btfss	status,2,c
  1825   000F32  EF9D  F007         	goto	u2211
  1826   000F36  EF9F  F007         	goto	u2210
  1827   000F3A                     u2211:
  1828   000F3A  EFA7  F007         	goto	l3378
  1829   000F3E                     u2210:
  1830   000F3E  0E00               	movlw	0
  1831   000F40  6E2A               	movwf	___flmul@b^0,c
  1832   000F42  0E00               	movlw	0
  1833   000F44  6E2B               	movwf	(___flmul@b+1)^0,c
  1834   000F46  0E00               	movlw	0
  1835   000F48  6E2C               	movwf	(___flmul@b+2)^0,c
  1836   000F4A  0E00               	movlw	0
  1837   000F4C  6E2D               	movwf	(___flmul@b+3)^0,c
  1838   000F4E                     l3378:
  1839   000F4E  8E2C               	bsf	(___flmul@b+2)^0,7,c
  1840   000F50  EFB2  F007         	goto	l3382
  1841   000F54                     l3380:
  1842   000F54  0E00               	movlw	0
  1843   000F56  6E2A               	movwf	___flmul@b^0,c
  1844   000F58  0E00               	movlw	0
  1845   000F5A  6E2B               	movwf	(___flmul@b+1)^0,c
  1846   000F5C  0E00               	movlw	0
  1847   000F5E  6E2C               	movwf	(___flmul@b+2)^0,c
  1848   000F60  0E00               	movlw	0
  1849   000F62  6E2D               	movwf	(___flmul@b+3)^0,c
  1850   000F64                     l3382:
  1851   000F64  5031               	movf	(___flmul@a+3)^0,w,c
  1852   000F66  0B80               	andlw	128
  1853   000F68  1A36               	xorwf	___flmul@sign^0,f,c
  1854   000F6A  5031               	movf	(___flmul@a+3)^0,w,c
  1855   000F6C  2431               	addwf	(___flmul@a+3)^0,w,c
  1856   000F6E  6E37               	movwf	___flmul@aexp^0,c
  1857   000F70  AE30               	btfss	(___flmul@a+2)^0,7,c
  1858   000F72  EFBD  F007         	goto	u2221
  1859   000F76  EFBF  F007         	goto	u2220
  1860   000F7A                     u2221:
  1861   000F7A  EFC0  F007         	goto	l3390
  1862   000F7E                     u2220:
  1863   000F7E  8037               	bsf	___flmul@aexp^0,0,c
  1864   000F80                     l3390:
  1865   000F80  5037               	movf	___flmul@aexp^0,w,c
  1866   000F82  B4D8               	btfsc	status,2,c
  1867   000F84  EFC6  F007         	goto	u2231
  1868   000F88  EFC8  F007         	goto	u2230
  1869   000F8C                     u2231:
  1870   000F8C  EFDB  F007         	goto	l3398
  1871   000F90                     u2230:
  1872   000F90  2837               	incf	___flmul@aexp^0,w,c
  1873   000F92  A4D8               	btfss	status,2,c
  1874   000F94  EFCE  F007         	goto	u2241
  1875   000F98  EFD0  F007         	goto	u2240
  1876   000F9C                     u2241:
  1877   000F9C  EFD8  F007         	goto	l3396
  1878   000FA0                     u2240:
  1879   000FA0  0E00               	movlw	0
  1880   000FA2  6E2E               	movwf	___flmul@a^0,c
  1881   000FA4  0E00               	movlw	0
  1882   000FA6  6E2F               	movwf	(___flmul@a+1)^0,c
  1883   000FA8  0E00               	movlw	0
  1884   000FAA  6E30               	movwf	(___flmul@a+2)^0,c
  1885   000FAC  0E00               	movlw	0
  1886   000FAE  6E31               	movwf	(___flmul@a+3)^0,c
  1887   000FB0                     l3396:
  1888   000FB0  8E30               	bsf	(___flmul@a+2)^0,7,c
  1889   000FB2  EFE3  F007         	goto	l1277
  1890   000FB6                     l3398:
  1891   000FB6  0E00               	movlw	0
  1892   000FB8  6E2E               	movwf	___flmul@a^0,c
  1893   000FBA  0E00               	movlw	0
  1894   000FBC  6E2F               	movwf	(___flmul@a+1)^0,c
  1895   000FBE  0E00               	movlw	0
  1896   000FC0  6E30               	movwf	(___flmul@a+2)^0,c
  1897   000FC2  0E00               	movlw	0
  1898   000FC4  6E31               	movwf	(___flmul@a+3)^0,c
  1899   000FC6                     l1277:
  1900   000FC6  5037               	movf	___flmul@aexp^0,w,c
  1901   000FC8  B4D8               	btfsc	status,2,c
  1902   000FCA  EFE9  F007         	goto	u2251
  1903   000FCE  EFEB  F007         	goto	u2250
  1904   000FD2                     u2251:
  1905   000FD2  EFF3  F007         	goto	l3402
  1906   000FD6                     u2250:
  1907   000FD6  503C               	movf	___flmul@bexp^0,w,c
  1908   000FD8  A4D8               	btfss	status,2,c
  1909   000FDA  EFF1  F007         	goto	u2261
  1910   000FDE  EFF3  F007         	goto	u2260
  1911   000FE2                     u2261:
  1912   000FE2  EFFD  F007         	goto	l3406
  1913   000FE6                     u2260:
  1914   000FE6                     l3402:
  1915   000FE6  0E00               	movlw	0
  1916   000FE8  6E2A               	movwf	?___flmul^0,c
  1917   000FEA  0E00               	movlw	0
  1918   000FEC  6E2B               	movwf	(?___flmul+1)^0,c
  1919   000FEE  0E00               	movlw	0
  1920   000FF0  6E2C               	movwf	(?___flmul+2)^0,c
  1921   000FF2  0E00               	movlw	0
  1922   000FF4  6E2D               	movwf	(?___flmul+3)^0,c
  1923   000FF6  EF95  F009         	goto	l1281
  1924   000FFA                     l3406:
  1925   000FFA  5030               	movf	(___flmul@a+2)^0,w,c
  1926   000FFC  022A               	mulwf	___flmul@b^0,c
  1927   000FFE  CFF3 F041          	movff	prodl,___flmul@temp
  1928   001002  CFF4 F042          	movff	prodh,___flmul@temp+1
  1929   001006  5041               	movf	___flmul@temp^0,w,c
  1930   001008  6E38               	movwf	___flmul@grs^0,c
  1931   00100A  6A39               	clrf	(___flmul@grs+1)^0,c
  1932   00100C  6A3A               	clrf	(___flmul@grs+2)^0,c
  1933   00100E  6A3B               	clrf	(___flmul@grs+3)^0,c
  1934   001010  5042               	movf	(___flmul@temp+1)^0,w,c
  1935   001012  6E3D               	movwf	___flmul@prod^0,c
  1936   001014  6A3E               	clrf	(___flmul@prod+1)^0,c
  1937   001016  6A3F               	clrf	(___flmul@prod+2)^0,c
  1938   001018  6A40               	clrf	(___flmul@prod+3)^0,c
  1939   00101A  502F               	movf	(___flmul@a+1)^0,w,c
  1940   00101C  022B               	mulwf	(___flmul@b+1)^0,c
  1941   00101E  CFF3 F041          	movff	prodl,___flmul@temp
  1942   001022  CFF4 F042          	movff	prodh,___flmul@temp+1
  1943   001026  5041               	movf	___flmul@temp^0,w,c
  1944   001028  2638               	addwf	___flmul@grs^0,f,c
  1945   00102A  0E00               	movlw	0
  1946   00102C  2239               	addwfc	(___flmul@grs+1)^0,f,c
  1947   00102E  223A               	addwfc	(___flmul@grs+2)^0,f,c
  1948   001030  223B               	addwfc	(___flmul@grs+3)^0,f,c
  1949   001032  5042               	movf	(___flmul@temp+1)^0,w,c
  1950   001034  263D               	addwf	___flmul@prod^0,f,c
  1951   001036  0E00               	movlw	0
  1952   001038  223E               	addwfc	(___flmul@prod+1)^0,f,c
  1953   00103A  223F               	addwfc	(___flmul@prod+2)^0,f,c
  1954   00103C  2240               	addwfc	(___flmul@prod+3)^0,f,c
  1955   00103E  502E               	movf	___flmul@a^0,w,c
  1956   001040  022C               	mulwf	(___flmul@b+2)^0,c
  1957   001042  CFF3 F041          	movff	prodl,___flmul@temp
  1958   001046  CFF4 F042          	movff	prodh,___flmul@temp+1
  1959   00104A  5041               	movf	___flmul@temp^0,w,c
  1960   00104C  2638               	addwf	___flmul@grs^0,f,c
  1961   00104E  0E00               	movlw	0
  1962   001050  2239               	addwfc	(___flmul@grs+1)^0,f,c
  1963   001052  223A               	addwfc	(___flmul@grs+2)^0,f,c
  1964   001054  223B               	addwfc	(___flmul@grs+3)^0,f,c
  1965   001056  5042               	movf	(___flmul@temp+1)^0,w,c
  1966   001058  263D               	addwf	___flmul@prod^0,f,c
  1967   00105A  0E00               	movlw	0
  1968   00105C  223E               	addwfc	(___flmul@prod+1)^0,f,c
  1969   00105E  223F               	addwfc	(___flmul@prod+2)^0,f,c
  1970   001060  2240               	addwfc	(___flmul@prod+3)^0,f,c
  1971   001062  C03A  F03B         	movff	___flmul@grs+2,___flmul@grs+3
  1972   001066  C039  F03A         	movff	___flmul@grs+1,___flmul@grs+2
  1973   00106A  C038  F039         	movff	___flmul@grs,___flmul@grs+1
  1974   00106E  6A38               	clrf	___flmul@grs^0,c
  1975   001070  502E               	movf	___flmul@a^0,w,c
  1976   001072  022B               	mulwf	(___flmul@b+1)^0,c
  1977   001074  CFF3 F041          	movff	prodl,___flmul@temp
  1978   001078  CFF4 F042          	movff	prodh,___flmul@temp+1
  1979   00107C  5041               	movf	___flmul@temp^0,w,c
  1980   00107E  2638               	addwf	___flmul@grs^0,f,c
  1981   001080  5042               	movf	(___flmul@temp+1)^0,w,c
  1982   001082  2239               	addwfc	(___flmul@grs+1)^0,f,c
  1983   001084  0E00               	movlw	0
  1984   001086  223A               	addwfc	(___flmul@grs+2)^0,f,c
  1985   001088  0E00               	movlw	0
  1986   00108A  223B               	addwfc	(___flmul@grs+3)^0,f,c
  1987   00108C  502F               	movf	(___flmul@a+1)^0,w,c
  1988   00108E  022A               	mulwf	___flmul@b^0,c
  1989   001090  CFF3 F041          	movff	prodl,___flmul@temp
  1990   001094  CFF4 F042          	movff	prodh,___flmul@temp+1
  1991   001098  5041               	movf	___flmul@temp^0,w,c
  1992   00109A  2638               	addwf	___flmul@grs^0,f,c
  1993   00109C  5042               	movf	(___flmul@temp+1)^0,w,c
  1994   00109E  2239               	addwfc	(___flmul@grs+1)^0,f,c
  1995   0010A0  0E00               	movlw	0
  1996   0010A2  223A               	addwfc	(___flmul@grs+2)^0,f,c
  1997   0010A4  0E00               	movlw	0
  1998   0010A6  223B               	addwfc	(___flmul@grs+3)^0,f,c
  1999   0010A8  C03A  F03B         	movff	___flmul@grs+2,___flmul@grs+3
  2000   0010AC  C039  F03A         	movff	___flmul@grs+1,___flmul@grs+2
  2001   0010B0  C038  F039         	movff	___flmul@grs,___flmul@grs+1
  2002   0010B4  6A38               	clrf	___flmul@grs^0,c
  2003   0010B6  502E               	movf	___flmul@a^0,w,c
  2004   0010B8  022A               	mulwf	___flmul@b^0,c
  2005   0010BA  CFF3 F041          	movff	prodl,___flmul@temp
  2006   0010BE  CFF4 F042          	movff	prodh,___flmul@temp+1
  2007   0010C2  5041               	movf	___flmul@temp^0,w,c
  2008   0010C4  2638               	addwf	___flmul@grs^0,f,c
  2009   0010C6  5042               	movf	(___flmul@temp+1)^0,w,c
  2010   0010C8  2239               	addwfc	(___flmul@grs+1)^0,f,c
  2011   0010CA  0E00               	movlw	0
  2012   0010CC  223A               	addwfc	(___flmul@grs+2)^0,f,c
  2013   0010CE  0E00               	movlw	0
  2014   0010D0  223B               	addwfc	(___flmul@grs+3)^0,f,c
  2015   0010D2  5030               	movf	(___flmul@a+2)^0,w,c
  2016   0010D4  022B               	mulwf	(___flmul@b+1)^0,c
  2017   0010D6  CFF3 F041          	movff	prodl,___flmul@temp
  2018   0010DA  CFF4 F042          	movff	prodh,___flmul@temp+1
  2019   0010DE  5041               	movf	___flmul@temp^0,w,c
  2020   0010E0  263D               	addwf	___flmul@prod^0,f,c
  2021   0010E2  5042               	movf	(___flmul@temp+1)^0,w,c
  2022   0010E4  223E               	addwfc	(___flmul@prod+1)^0,f,c
  2023   0010E6  0E00               	movlw	0
  2024   0010E8  223F               	addwfc	(___flmul@prod+2)^0,f,c
  2025   0010EA  0E00               	movlw	0
  2026   0010EC  2240               	addwfc	(___flmul@prod+3)^0,f,c
  2027   0010EE  502F               	movf	(___flmul@a+1)^0,w,c
  2028   0010F0  022C               	mulwf	(___flmul@b+2)^0,c
  2029   0010F2  CFF3 F041          	movff	prodl,___flmul@temp
  2030   0010F6  CFF4 F042          	movff	prodh,___flmul@temp+1
  2031   0010FA  5041               	movf	___flmul@temp^0,w,c
  2032   0010FC  263D               	addwf	___flmul@prod^0,f,c
  2033   0010FE  5042               	movf	(___flmul@temp+1)^0,w,c
  2034   001100  223E               	addwfc	(___flmul@prod+1)^0,f,c
  2035   001102  0E00               	movlw	0
  2036   001104  223F               	addwfc	(___flmul@prod+2)^0,f,c
  2037   001106  0E00               	movlw	0
  2038   001108  2240               	addwfc	(___flmul@prod+3)^0,f,c
  2039   00110A  5030               	movf	(___flmul@a+2)^0,w,c
  2040   00110C  022C               	mulwf	(___flmul@b+2)^0,c
  2041   00110E  CFF3 F041          	movff	prodl,___flmul@temp
  2042   001112  CFF4 F042          	movff	prodh,___flmul@temp+1
  2043   001116  5041               	movf	___flmul@temp^0,w,c
  2044   001118  6E32               	movwf	??___flmul^0,c
  2045   00111A  5042               	movf	(___flmul@temp+1)^0,w,c
  2046   00111C  6E33               	movwf	(??___flmul+1)^0,c
  2047   00111E  6A34               	clrf	(??___flmul+2)^0,c
  2048   001120  6A35               	clrf	(??___flmul+3)^0,c
  2049   001122  C034  F035         	movff	??___flmul+2,??___flmul+3
  2050   001126  C033  F034         	movff	??___flmul+1,??___flmul+2
  2051   00112A  C032  F033         	movff	??___flmul,??___flmul+1
  2052   00112E  6A32               	clrf	??___flmul^0,c
  2053   001130  5032               	movf	??___flmul^0,w,c
  2054   001132  263D               	addwf	___flmul@prod^0,f,c
  2055   001134  5033               	movf	(??___flmul+1)^0,w,c
  2056   001136  223E               	addwfc	(___flmul@prod+1)^0,f,c
  2057   001138  5034               	movf	(??___flmul+2)^0,w,c
  2058   00113A  223F               	addwfc	(___flmul@prod+2)^0,f,c
  2059   00113C  5035               	movf	(??___flmul+3)^0,w,c
  2060   00113E  2240               	addwfc	(___flmul@prod+3)^0,f,c
  2061   001140  C038  F032         	movff	___flmul@grs,??___flmul
  2062   001144  C039  F033         	movff	___flmul@grs+1,??___flmul+1
  2063   001148  C03A  F034         	movff	___flmul@grs+2,??___flmul+2
  2064   00114C  C03B  F035         	movff	___flmul@grs+3,??___flmul+3
  2065   001150  0E19               	movlw	25
  2066   001152  EFB0  F008         	goto	u2270
  2067   001156                     u2275:
  2068   001156  90D8               	bcf	status,0,c
  2069   001158  3235               	rrcf	(??___flmul+3)^0,f,c
  2070   00115A  3234               	rrcf	(??___flmul+2)^0,f,c
  2071   00115C  3233               	rrcf	(??___flmul+1)^0,f,c
  2072   00115E  3232               	rrcf	??___flmul^0,f,c
  2073   001160                     u2270:
  2074   001160  2EE8               	decfsz	wreg,f,c
  2075   001162  EFAB  F008         	goto	u2275
  2076   001166  5032               	movf	??___flmul^0,w,c
  2077   001168  263D               	addwf	___flmul@prod^0,f,c
  2078   00116A  5033               	movf	(??___flmul+1)^0,w,c
  2079   00116C  223E               	addwfc	(___flmul@prod+1)^0,f,c
  2080   00116E  5034               	movf	(??___flmul+2)^0,w,c
  2081   001170  223F               	addwfc	(___flmul@prod+2)^0,f,c
  2082   001172  5035               	movf	(??___flmul+3)^0,w,c
  2083   001174  2240               	addwfc	(___flmul@prod+3)^0,f,c
  2084   001176  C03A  F03B         	movff	___flmul@grs+2,___flmul@grs+3
  2085   00117A  C039  F03A         	movff	___flmul@grs+1,___flmul@grs+2
  2086   00117E  C038  F039         	movff	___flmul@grs,___flmul@grs+1
  2087   001182  6A38               	clrf	___flmul@grs^0,c
  2088   001184  5037               	movf	___flmul@aexp^0,w,c
  2089   001186  C03C  F032         	movff	___flmul@bexp,??___flmul
  2090   00118A  6A33               	clrf	(??___flmul+1)^0,c
  2091   00118C  2632               	addwf	??___flmul^0,f,c
  2092   00118E  0E00               	movlw	0
  2093   001190  2233               	addwfc	(??___flmul+1)^0,f,c
  2094   001192  0E82               	movlw	130
  2095   001194  2432               	addwf	??___flmul^0,w,c
  2096   001196  6E41               	movwf	___flmul@temp^0,c
  2097   001198  0EFF               	movlw	255
  2098   00119A  2033               	addwfc	(??___flmul+1)^0,w,c
  2099   00119C  6E42               	movwf	(___flmul@temp+1)^0,c
  2100   00119E  EFE6  F008         	goto	l3454
  2101   0011A2                     l3448:
  2102   0011A2  90D8               	bcf	status,0,c
  2103   0011A4  363D               	rlcf	___flmul@prod^0,f,c
  2104   0011A6  363E               	rlcf	(___flmul@prod+1)^0,f,c
  2105   0011A8  363F               	rlcf	(___flmul@prod+2)^0,f,c
  2106   0011AA  3640               	rlcf	(___flmul@prod+3)^0,f,c
  2107   0011AC  AE3B               	btfss	(___flmul@grs+3)^0,7,c
  2108   0011AE  EFDB  F008         	goto	u2281
  2109   0011B2  EFDD  F008         	goto	u2280
  2110   0011B6                     u2281:
  2111   0011B6  EFDE  F008         	goto	l1284
  2112   0011BA                     u2280:
  2113   0011BA  803D               	bsf	___flmul@prod^0,0,c
  2114   0011BC                     l1284:
  2115   0011BC  90D8               	bcf	status,0,c
  2116   0011BE  3638               	rlcf	___flmul@grs^0,f,c
  2117   0011C0  3639               	rlcf	(___flmul@grs+1)^0,f,c
  2118   0011C2  363A               	rlcf	(___flmul@grs+2)^0,f,c
  2119   0011C4  363B               	rlcf	(___flmul@grs+3)^0,f,c
  2120   0011C6  0641               	decf	___flmul@temp^0,f,c
  2121   0011C8  A0D8               	btfss	status,0,c
  2122   0011CA  0642               	decf	(___flmul@temp+1)^0,f,c
  2123   0011CC                     l3454:
  2124   0011CC  AE3F               	btfss	(___flmul@prod+2)^0,7,c
  2125   0011CE  EFEB  F008         	goto	u2291
  2126   0011D2  EFED  F008         	goto	u2290
  2127   0011D6                     u2291:
  2128   0011D6  EFD1  F008         	goto	l3448
  2129   0011DA                     u2290:
  2130   0011DA  0E00               	movlw	0
  2131   0011DC  6E37               	movwf	___flmul@aexp^0,c
  2132   0011DE  AE3B               	btfss	(___flmul@grs+3)^0,7,c
  2133   0011E0  EFF4  F008         	goto	u2301
  2134   0011E4  EFF6  F008         	goto	u2300
  2135   0011E8                     u2301:
  2136   0011E8  EF1A  F009         	goto	l1286
  2137   0011EC                     u2300:
  2138   0011EC  0EFF               	movlw	255
  2139   0011EE  1438               	andwf	___flmul@grs^0,w,c
  2140   0011F0  6E32               	movwf	??___flmul^0,c
  2141   0011F2  0EFF               	movlw	255
  2142   0011F4  1439               	andwf	(___flmul@grs+1)^0,w,c
  2143   0011F6  6E33               	movwf	(??___flmul+1)^0,c
  2144   0011F8  0EFF               	movlw	255
  2145   0011FA  143A               	andwf	(___flmul@grs+2)^0,w,c
  2146   0011FC  6E34               	movwf	(??___flmul+2)^0,c
  2147   0011FE  0E7F               	movlw	127
  2148   001200  143B               	andwf	(___flmul@grs+3)^0,w,c
  2149   001202  6E35               	movwf	(??___flmul+3)^0,c
  2150   001204  5032               	movf	??___flmul^0,w,c
  2151   001206  1033               	iorwf	(??___flmul+1)^0,w,c
  2152   001208  1034               	iorwf	(??___flmul+2)^0,w,c
  2153   00120A  1035               	iorwf	(??___flmul+3)^0,w,c
  2154   00120C  B4D8               	btfsc	status,2,c
  2155   00120E  EF0B  F009         	goto	u2311
  2156   001212  EF0D  F009         	goto	u2310
  2157   001216                     u2311:
  2158   001216  EF11  F009         	goto	l1287
  2159   00121A                     u2310:
  2160   00121A                     l3462:
  2161   00121A  0E01               	movlw	1
  2162   00121C  6E37               	movwf	___flmul@aexp^0,c
  2163   00121E  EF1A  F009         	goto	l1286
  2164   001222                     l1287:
  2165   001222  A03D               	btfss	___flmul@prod^0,0,c
  2166   001224  EF16  F009         	goto	u2321
  2167   001228  EF18  F009         	goto	u2320
  2168   00122C                     u2321:
  2169   00122C  EF1A  F009         	goto	l1286
  2170   001230                     u2320:
  2171   001230  EF0D  F009         	goto	l3462
  2172   001234                     l1286:
  2173   001234  5037               	movf	___flmul@aexp^0,w,c
  2174   001236  B4D8               	btfsc	status,2,c
  2175   001238  EF20  F009         	goto	u2331
  2176   00123C  EF22  F009         	goto	u2330
  2177   001240                     u2331:
  2178   001240  EF46  F009         	goto	l3474
  2179   001244                     u2330:
  2180   001244  0E01               	movlw	1
  2181   001246  263D               	addwf	___flmul@prod^0,f,c
  2182   001248  0E00               	movlw	0
  2183   00124A  223E               	addwfc	(___flmul@prod+1)^0,f,c
  2184   00124C  223F               	addwfc	(___flmul@prod+2)^0,f,c
  2185   00124E  2240               	addwfc	(___flmul@prod+3)^0,f,c
  2186   001250  A040               	btfss	(___flmul@prod+3)^0,0,c
  2187   001252  EF2D  F009         	goto	u2341
  2188   001256  EF2F  F009         	goto	u2340
  2189   00125A                     u2341:
  2190   00125A  EF46  F009         	goto	l3474
  2191   00125E                     u2340:
  2192   00125E  C03D  F032         	movff	___flmul@prod,??___flmul
  2193   001262  C03E  F033         	movff	___flmul@prod+1,??___flmul+1
  2194   001266  C03F  F034         	movff	___flmul@prod+2,??___flmul+2
  2195   00126A  C040  F035         	movff	___flmul@prod+3,??___flmul+3
  2196   00126E  3435               	rlcf	(??___flmul+3)^0,w,c
  2197   001270  3235               	rrcf	(??___flmul+3)^0,f,c
  2198   001272  3234               	rrcf	(??___flmul+2)^0,f,c
  2199   001274  3233               	rrcf	(??___flmul+1)^0,f,c
  2200   001276  3232               	rrcf	??___flmul^0,f,c
  2201   001278  C032  F03D         	movff	??___flmul,___flmul@prod
  2202   00127C  C033  F03E         	movff	??___flmul+1,___flmul@prod+1
  2203   001280  C034  F03F         	movff	??___flmul+2,___flmul@prod+2
  2204   001284  C035  F040         	movff	??___flmul+3,___flmul@prod+3
  2205   001288  4A41               	infsnz	___flmul@temp^0,f,c
  2206   00128A  2A42               	incf	(___flmul@temp+1)^0,f,c
  2207   00128C                     l3474:
  2208   00128C  BE42               	btfsc	(___flmul@temp+1)^0,7,c
  2209   00128E  EF51  F009         	goto	u2351
  2210   001292  5042               	movf	(___flmul@temp+1)^0,w,c
  2211   001294  E108               	bnz	u2350
  2212   001296  2841               	incf	___flmul@temp^0,w,c
  2213   001298  A0D8               	btfss	status,0,c
  2214   00129A  EF51  F009         	goto	u2351
  2215   00129E  EF53  F009         	goto	u2350
  2216   0012A2                     u2351:
  2217   0012A2  EF5D  F009         	goto	l3478
  2218   0012A6                     u2350:
  2219   0012A6  0E00               	movlw	0
  2220   0012A8  6E3D               	movwf	___flmul@prod^0,c
  2221   0012AA  0E00               	movlw	0
  2222   0012AC  6E3E               	movwf	(___flmul@prod+1)^0,c
  2223   0012AE  0E80               	movlw	128
  2224   0012B0  6E3F               	movwf	(___flmul@prod+2)^0,c
  2225   0012B2  0E7F               	movlw	127
  2226   0012B4  6E40               	movwf	(___flmul@prod+3)^0,c
  2227   0012B6  EF8B  F009         	goto	l3490
  2228   0012BA                     l3478:
  2229   0012BA  BE42               	btfsc	(___flmul@temp+1)^0,7,c
  2230   0012BC  EF6A  F009         	goto	u2360
  2231   0012C0  5042               	movf	(___flmul@temp+1)^0,w,c
  2232   0012C2  E106               	bnz	u2361
  2233   0012C4  0441               	decf	___flmul@temp^0,w,c
  2234   0012C6  B0D8               	btfsc	status,0,c
  2235   0012C8  EF68  F009         	goto	u2361
  2236   0012CC  EF6A  F009         	goto	u2360
  2237   0012D0                     u2361:
  2238   0012D0  EF76  F009         	goto	l1294
  2239   0012D4                     u2360:
  2240   0012D4  0E00               	movlw	0
  2241   0012D6  6E3D               	movwf	___flmul@prod^0,c
  2242   0012D8  0E00               	movlw	0
  2243   0012DA  6E3E               	movwf	(___flmul@prod+1)^0,c
  2244   0012DC  0E00               	movlw	0
  2245   0012DE  6E3F               	movwf	(___flmul@prod+2)^0,c
  2246   0012E0  0E00               	movlw	0
  2247   0012E2  6E40               	movwf	(___flmul@prod+3)^0,c
  2248   0012E4  0E00               	movlw	0
  2249   0012E6  6E36               	movwf	___flmul@sign^0,c
  2250   0012E8  EF8B  F009         	goto	l3490
  2251   0012EC                     l1294:
  2252   0012EC  C041  F03C         	movff	___flmul@temp,___flmul@bexp
  2253   0012F0  0EFF               	movlw	255
  2254   0012F2  163D               	andwf	___flmul@prod^0,f,c
  2255   0012F4  0EFF               	movlw	255
  2256   0012F6  163E               	andwf	(___flmul@prod+1)^0,f,c
  2257   0012F8  0E7F               	movlw	127
  2258   0012FA  163F               	andwf	(___flmul@prod+2)^0,f,c
  2259   0012FC  0E00               	movlw	0
  2260   0012FE  1640               	andwf	(___flmul@prod+3)^0,f,c
  2261   001300  A03C               	btfss	___flmul@bexp^0,0,c
  2262   001302  EF85  F009         	goto	u2371
  2263   001306  EF87  F009         	goto	u2370
  2264   00130A                     u2371:
  2265   00130A  EF88  F009         	goto	l3488
  2266   00130E                     u2370:
  2267   00130E  8E3F               	bsf	(___flmul@prod+2)^0,7,c
  2268   001310                     l3488:
  2269   001310  90D8               	bcf	status,0,c
  2270   001312  303C               	rrcf	___flmul@bexp^0,w,c
  2271   001314  6E40               	movwf	(___flmul@prod+3)^0,c
  2272   001316                     l3490:
  2273   001316  5036               	movf	___flmul@sign^0,w,c
  2274   001318  1240               	iorwf	(___flmul@prod+3)^0,f,c
  2275   00131A  C03D  F02A         	movff	___flmul@prod,?___flmul
  2276   00131E  C03E  F02B         	movff	___flmul@prod+1,?___flmul+1
  2277   001322  C03F  F02C         	movff	___flmul@prod+2,?___flmul+2
  2278   001326  C040  F02D         	movff	___flmul@prod+3,?___flmul+3
  2279   00132A                     l1281:
  2280   00132A  0012               	return		;funcret
  2281   00132C                     __end_of___flmul:
  2282                           	callstack 0
  2283                           
  2284 ;; *************** function ___flge *****************
  2285 ;; Defined at:
  2286 ;;		line 4 in file "C:\Program Files\Microchip\xc8\v2.45\pic\sources\c99\common\flge.c"
  2287 ;; Parameters:    Size  Location     Type
  2288 ;;  ff1             4   66[COMRAM] unsigned char 
  2289 ;;  ff2             4   70[COMRAM] unsigned char 
  2290 ;; Auto vars:     Size  Location     Type
  2291 ;;		None
  2292 ;; Return value:  Size  Location     Type
  2293 ;;		None               void
  2294 ;; Registers used:
  2295 ;;		wreg, status,2, status,0
  2296 ;; Tracked objects:
  2297 ;;		On entry : 0/0
  2298 ;;		On exit  : 0/0
  2299 ;;		Unchanged: 0/0
  2300 ;; Data sizes:     COMRAM   BANK0   BANK1   BANK2   BANK3   BANK4   BANK5   BANK6   BANK7   BANK8   BANK9  BANK10  BANK1
      +1  BANK12  BANK13  BANK14
  2301 ;;      Params:         8       0       0       0       0       0       0       0       0       0       0       0       
      +0       0       0       0
  2302 ;;      Locals:         0       0       0       0       0       0       0       0       0       0       0       0       
      +0       0       0       0
  2303 ;;      Temps:          4       0       0       0       0       0       0       0       0       0       0       0       
      +0       0       0       0
  2304 ;;      Totals:        12       0       0       0       0       0       0       0       0       0       0       0       
      +0       0       0       0
  2305 ;;Total ram usage:       12 bytes
  2306 ;; Hardware stack levels used: 1
  2307 ;; Hardware stack levels required when called: 3
  2308 ;; This function calls:
  2309 ;;		Nothing
  2310 ;; This function is called by:
  2311 ;;		_ADC_Conv_pinSeven
  2312 ;;		_ADC_Conv_pinNine
  2313 ;; This function uses a non-reentrant model
  2314 ;;
  2315                           
  2316                           	psect	text10
  2317   00228A                     __ptext10:
  2318                           	callstack 0
  2319   00228A                     ___flge:
  2320                           	callstack 25
  2321   00228A  0E00               	movlw	0
  2322   00228C  1443               	andwf	___flge@ff1^0,w,c
  2323   00228E  6E4B               	movwf	??___flge^0,c
  2324   002290  0E00               	movlw	0
  2325   002292  1444               	andwf	(___flge@ff1+1)^0,w,c
  2326   002294  6E4C               	movwf	(??___flge+1)^0,c
  2327   002296  0E80               	movlw	128
  2328   002298  1445               	andwf	(___flge@ff1+2)^0,w,c
  2329   00229A  6E4D               	movwf	(??___flge+2)^0,c
  2330   00229C  0E7F               	movlw	127
  2331   00229E  1446               	andwf	(___flge@ff1+3)^0,w,c
  2332   0022A0  6E4E               	movwf	(??___flge+3)^0,c
  2333   0022A2  504B               	movf	??___flge^0,w,c
  2334   0022A4  104C               	iorwf	(??___flge+1)^0,w,c
  2335   0022A6  104D               	iorwf	(??___flge+2)^0,w,c
  2336   0022A8  104E               	iorwf	(??___flge+3)^0,w,c
  2337   0022AA  A4D8               	btfss	status,2,c
  2338   0022AC  EF5A  F011         	goto	u2381
  2339   0022B0  EF5C  F011         	goto	u2380
  2340   0022B4                     u2381:
  2341   0022B4  EF64  F011         	goto	l3500
  2342   0022B8                     u2380:
  2343   0022B8  0E00               	movlw	0
  2344   0022BA  6E43               	movwf	___flge@ff1^0,c
  2345   0022BC  0E00               	movlw	0
  2346   0022BE  6E44               	movwf	(___flge@ff1+1)^0,c
  2347   0022C0  0E00               	movlw	0
  2348   0022C2  6E45               	movwf	(___flge@ff1+2)^0,c
  2349   0022C4  0E00               	movlw	0
  2350   0022C6  6E46               	movwf	(___flge@ff1+3)^0,c
  2351   0022C8                     l3500:
  2352   0022C8  0E00               	movlw	0
  2353   0022CA  1447               	andwf	___flge@ff2^0,w,c
  2354   0022CC  6E4B               	movwf	??___flge^0,c
  2355   0022CE  0E00               	movlw	0
  2356   0022D0  1448               	andwf	(___flge@ff2+1)^0,w,c
  2357   0022D2  6E4C               	movwf	(??___flge+1)^0,c
  2358   0022D4  0E80               	movlw	128
  2359   0022D6  1449               	andwf	(___flge@ff2+2)^0,w,c
  2360   0022D8  6E4D               	movwf	(??___flge+2)^0,c
  2361   0022DA  0E7F               	movlw	127
  2362   0022DC  144A               	andwf	(___flge@ff2+3)^0,w,c
  2363   0022DE  6E4E               	movwf	(??___flge+3)^0,c
  2364   0022E0  504B               	movf	??___flge^0,w,c
  2365   0022E2  104C               	iorwf	(??___flge+1)^0,w,c
  2366   0022E4  104D               	iorwf	(??___flge+2)^0,w,c
  2367   0022E6  104E               	iorwf	(??___flge+3)^0,w,c
  2368   0022E8  A4D8               	btfss	status,2,c
  2369   0022EA  EF79  F011         	goto	u2391
  2370   0022EE  EF7B  F011         	goto	u2390
  2371   0022F2                     u2391:
  2372   0022F2  EF83  F011         	goto	l3504
  2373   0022F6                     u2390:
  2374   0022F6  0E00               	movlw	0
  2375   0022F8  6E47               	movwf	___flge@ff2^0,c
  2376   0022FA  0E00               	movlw	0
  2377   0022FC  6E48               	movwf	(___flge@ff2+1)^0,c
  2378   0022FE  0E00               	movlw	0
  2379   002300  6E49               	movwf	(___flge@ff2+2)^0,c
  2380   002302  0E00               	movlw	0
  2381   002304  6E4A               	movwf	(___flge@ff2+3)^0,c
  2382   002306                     l3504:
  2383   002306  AE46               	btfss	(___flge@ff1+3)^0,7,c
  2384   002308  EF88  F011         	goto	u2401
  2385   00230C  EF8A  F011         	goto	u2400
  2386   002310                     u2401:
  2387   002310  EF93  F011         	goto	l3508
  2388   002314                     u2400:
  2389   002314  6C43               	negf	___flge@ff1^0,c
  2390   002316  1E44               	comf	(___flge@ff1+1)^0,f,c
  2391   002318  B0D8               	btfsc	status,0,c
  2392   00231A  2A44               	incf	(___flge@ff1+1)^0,f,c
  2393   00231C  1E45               	comf	(___flge@ff1+2)^0,f,c
  2394   00231E  B0D8               	btfsc	status,0,c
  2395   002320  2A45               	incf	(___flge@ff1+2)^0,f,c
  2396   002322  0E80               	movlw	128
  2397   002324  5646               	subfwb	(___flge@ff1+3)^0,f,c
  2398   002326                     l3508:
  2399   002326  AE4A               	btfss	(___flge@ff2+3)^0,7,c
  2400   002328  EF98  F011         	goto	u2411
  2401   00232C  EF9A  F011         	goto	u2410
  2402   002330                     u2411:
  2403   002330  EFA3  F011         	goto	l928
  2404   002334                     u2410:
  2405   002334  6C47               	negf	___flge@ff2^0,c
  2406   002336  1E48               	comf	(___flge@ff2+1)^0,f,c
  2407   002338  B0D8               	btfsc	status,0,c
  2408   00233A  2A48               	incf	(___flge@ff2+1)^0,f,c
  2409   00233C  1E49               	comf	(___flge@ff2+2)^0,f,c
  2410   00233E  B0D8               	btfsc	status,0,c
  2411   002340  2A49               	incf	(___flge@ff2+2)^0,f,c
  2412   002342  0E80               	movlw	128
  2413   002344  564A               	subfwb	(___flge@ff2+3)^0,f,c
  2414   002346                     l928:
  2415   002346  0E00               	movlw	0
  2416   002348  1A43               	xorwf	___flge@ff1^0,f,c
  2417   00234A  0E00               	movlw	0
  2418   00234C  1A44               	xorwf	(___flge@ff1+1)^0,f,c
  2419   00234E  0E00               	movlw	0
  2420   002350  1A45               	xorwf	(___flge@ff1+2)^0,f,c
  2421   002352  0E80               	movlw	128
  2422   002354  1A46               	xorwf	(___flge@ff1+3)^0,f,c
  2423   002356  0E00               	movlw	0
  2424   002358  1A47               	xorwf	___flge@ff2^0,f,c
  2425   00235A  0E00               	movlw	0
  2426   00235C  1A48               	xorwf	(___flge@ff2+1)^0,f,c
  2427   00235E  0E00               	movlw	0
  2428   002360  1A49               	xorwf	(___flge@ff2+2)^0,f,c
  2429   002362  0E80               	movlw	128
  2430   002364  1A4A               	xorwf	(___flge@ff2+3)^0,f,c
  2431   002366  5047               	movf	___flge@ff2^0,w,c
  2432   002368  5C43               	subwf	___flge@ff1^0,w,c
  2433   00236A  5048               	movf	(___flge@ff2+1)^0,w,c
  2434   00236C  5844               	subwfb	(___flge@ff1+1)^0,w,c
  2435   00236E  5049               	movf	(___flge@ff2+2)^0,w,c
  2436   002370  5845               	subwfb	(___flge@ff1+2)^0,w,c
  2437   002372  504A               	movf	(___flge@ff2+3)^0,w,c
  2438   002374  5846               	subwfb	(___flge@ff1+3)^0,w,c
  2439   002376  B0D8               	btfsc	status,0,c
  2440   002378  EFC0  F011         	goto	u2421
  2441   00237C  EFC2  F011         	goto	u2420
  2442   002380                     u2421:
  2443   002380  EFC5  F011         	goto	l3514
  2444   002384                     u2420:
  2445   002384  90D8               	bcf	status,0,c
  2446   002386  EFC6  F011         	goto	l933
  2447   00238A                     l3514:
  2448   00238A  80D8               	bsf	status,0,c
  2449   00238C                     l933:
  2450   00238C  0012               	return		;funcret
  2451   00238E                     __end_of___flge:
  2452                           	callstack 0
  2453                           
  2454 ;; *************** function ___fldiv *****************
  2455 ;; Defined at:
  2456 ;;		line 11 in file "C:\Program Files\Microchip\xc8\v2.45\pic\sources\c99\common\sprcdiv.c"
  2457 ;; Parameters:    Size  Location     Type
  2458 ;;  b               4   16[COMRAM] unsigned char 
  2459 ;;  a               4   20[COMRAM] unsigned char 
  2460 ;; Auto vars:     Size  Location     Type
  2461 ;;  grs             4   35[COMRAM] unsigned long 
  2462 ;;  rem             4   28[COMRAM] unsigned long 
  2463 ;;  new_exp         2   33[COMRAM] short 
  2464 ;;  aexp            1   40[COMRAM] unsigned char 
  2465 ;;  bexp            1   39[COMRAM] unsigned char 
  2466 ;;  sign            1   32[COMRAM] unsigned char 
  2467 ;; Return value:  Size  Location     Type
  2468 ;;                  4   16[COMRAM] unsigned char 
  2469 ;; Registers used:
  2470 ;;		wreg, status,2, status,0
  2471 ;; Tracked objects:
  2472 ;;		On entry : 0/0
  2473 ;;		On exit  : 0/0
  2474 ;;		Unchanged: 0/0
  2475 ;; Data sizes:     COMRAM   BANK0   BANK1   BANK2   BANK3   BANK4   BANK5   BANK6   BANK7   BANK8   BANK9  BANK10  BANK1
      +1  BANK12  BANK13  BANK14
  2476 ;;      Params:         8       0       0       0       0       0       0       0       0       0       0       0       
      +0       0       0       0
  2477 ;;      Locals:        13       0       0       0       0       0       0       0       0       0       0       0       
      +0       0       0       0
  2478 ;;      Temps:          4       0       0       0       0       0       0       0       0       0       0       0       
      +0       0       0       0
  2479 ;;      Totals:        25       0       0       0       0       0       0       0       0       0       0       0       
      +0       0       0       0
  2480 ;;Total ram usage:       25 bytes
  2481 ;; Hardware stack levels used: 1
  2482 ;; Hardware stack levels required when called: 3
  2483 ;; This function calls:
  2484 ;;		Nothing
  2485 ;; This function is called by:
  2486 ;;		_ADC_Conv_pinSeven
  2487 ;;		_ADC_Conv_pinNine
  2488 ;; This function uses a non-reentrant model
  2489 ;;
  2490                           
  2491                           	psect	text11
  2492   00132C                     __ptext11:
  2493                           	callstack 0
  2494   00132C                     ___fldiv:
  2495                           	callstack 25
  2496   00132C  5014               	movf	(___fldiv@b+3)^0,w,c
  2497   00132E  0B80               	andlw	128
  2498   001330  6E21               	movwf	___fldiv@sign^0,c
  2499   001332  5014               	movf	(___fldiv@b+3)^0,w,c
  2500   001334  2414               	addwf	(___fldiv@b+3)^0,w,c
  2501   001336  6E28               	movwf	___fldiv@bexp^0,c
  2502   001338  AE13               	btfss	(___fldiv@b+2)^0,7,c
  2503   00133A  EFA1  F009         	goto	u1961
  2504   00133E  EFA3  F009         	goto	u1960
  2505   001342                     u1961:
  2506   001342  EFA4  F009         	goto	l3234
  2507   001346                     u1960:
  2508   001346  8028               	bsf	___fldiv@bexp^0,0,c
  2509   001348                     l3234:
  2510   001348  5028               	movf	___fldiv@bexp^0,w,c
  2511   00134A  B4D8               	btfsc	status,2,c
  2512   00134C  EFAA  F009         	goto	u1971
  2513   001350  EFAC  F009         	goto	u1970
  2514   001354                     u1971:
  2515   001354  EFC1  F009         	goto	l3244
  2516   001358                     u1970:
  2517   001358  2828               	incf	___fldiv@bexp^0,w,c
  2518   00135A  A4D8               	btfss	status,2,c
  2519   00135C  EFB2  F009         	goto	u1981
  2520   001360  EFB4  F009         	goto	u1980
  2521   001364                     u1981:
  2522   001364  EFBC  F009         	goto	l3240
  2523   001368                     u1980:
  2524   001368  0E00               	movlw	0
  2525   00136A  6E11               	movwf	___fldiv@b^0,c
  2526   00136C  0E00               	movlw	0
  2527   00136E  6E12               	movwf	(___fldiv@b+1)^0,c
  2528   001370  0E00               	movlw	0
  2529   001372  6E13               	movwf	(___fldiv@b+2)^0,c
  2530   001374  0E00               	movlw	0
  2531   001376  6E14               	movwf	(___fldiv@b+3)^0,c
  2532   001378                     l3240:
  2533   001378  8E13               	bsf	(___fldiv@b+2)^0,7,c
  2534   00137A  0E00               	movlw	0
  2535   00137C  6E14               	movwf	(___fldiv@b+3)^0,c
  2536   00137E  EFC9  F009         	goto	l3246
  2537   001382                     l3244:
  2538   001382  0E00               	movlw	0
  2539   001384  6E11               	movwf	___fldiv@b^0,c
  2540   001386  0E00               	movlw	0
  2541   001388  6E12               	movwf	(___fldiv@b+1)^0,c
  2542   00138A  0E00               	movlw	0
  2543   00138C  6E13               	movwf	(___fldiv@b+2)^0,c
  2544   00138E  0E00               	movlw	0
  2545   001390  6E14               	movwf	(___fldiv@b+3)^0,c
  2546   001392                     l3246:
  2547   001392  5018               	movf	(___fldiv@a+3)^0,w,c
  2548   001394  0B80               	andlw	128
  2549   001396  1A21               	xorwf	___fldiv@sign^0,f,c
  2550   001398  5018               	movf	(___fldiv@a+3)^0,w,c
  2551   00139A  2418               	addwf	(___fldiv@a+3)^0,w,c
  2552   00139C  6E29               	movwf	___fldiv@aexp^0,c
  2553   00139E  AE17               	btfss	(___fldiv@a+2)^0,7,c
  2554   0013A0  EFD4  F009         	goto	u1991
  2555   0013A4  EFD6  F009         	goto	u1990
  2556   0013A8                     u1991:
  2557   0013A8  EFD7  F009         	goto	l3254
  2558   0013AC                     u1990:
  2559   0013AC  8029               	bsf	___fldiv@aexp^0,0,c
  2560   0013AE                     l3254:
  2561   0013AE  5029               	movf	___fldiv@aexp^0,w,c
  2562   0013B0  B4D8               	btfsc	status,2,c
  2563   0013B2  EFDD  F009         	goto	u2001
  2564   0013B6  EFDF  F009         	goto	u2000
  2565   0013BA                     u2001:
  2566   0013BA  EFF4  F009         	goto	l3264
  2567   0013BE                     u2000:
  2568   0013BE  2829               	incf	___fldiv@aexp^0,w,c
  2569   0013C0  A4D8               	btfss	status,2,c
  2570   0013C2  EFE5  F009         	goto	u2011
  2571   0013C6  EFE7  F009         	goto	u2010
  2572   0013CA                     u2011:
  2573   0013CA  EFEF  F009         	goto	l3260
  2574   0013CE                     u2010:
  2575   0013CE  0E00               	movlw	0
  2576   0013D0  6E15               	movwf	___fldiv@a^0,c
  2577   0013D2  0E00               	movlw	0
  2578   0013D4  6E16               	movwf	(___fldiv@a+1)^0,c
  2579   0013D6  0E00               	movlw	0
  2580   0013D8  6E17               	movwf	(___fldiv@a+2)^0,c
  2581   0013DA  0E00               	movlw	0
  2582   0013DC  6E18               	movwf	(___fldiv@a+3)^0,c
  2583   0013DE                     l3260:
  2584   0013DE  8E17               	bsf	(___fldiv@a+2)^0,7,c
  2585   0013E0  0E00               	movlw	0
  2586   0013E2  6E18               	movwf	(___fldiv@a+3)^0,c
  2587   0013E4  EFFC  F009         	goto	l3266
  2588   0013E8                     l3264:
  2589   0013E8  0E00               	movlw	0
  2590   0013EA  6E15               	movwf	___fldiv@a^0,c
  2591   0013EC  0E00               	movlw	0
  2592   0013EE  6E16               	movwf	(___fldiv@a+1)^0,c
  2593   0013F0  0E00               	movlw	0
  2594   0013F2  6E17               	movwf	(___fldiv@a+2)^0,c
  2595   0013F4  0E00               	movlw	0
  2596   0013F6  6E18               	movwf	(___fldiv@a+3)^0,c
  2597   0013F8                     l3266:
  2598   0013F8  5015               	movf	___fldiv@a^0,w,c
  2599   0013FA  1016               	iorwf	(___fldiv@a+1)^0,w,c
  2600   0013FC  1017               	iorwf	(___fldiv@a+2)^0,w,c
  2601   0013FE  1018               	iorwf	(___fldiv@a+3)^0,w,c
  2602   001400  A4D8               	btfss	status,2,c
  2603   001402  EF05  F00A         	goto	u2021
  2604   001406  EF07  F00A         	goto	u2020
  2605   00140A                     u2021:
  2606   00140A  EF1F  F00A         	goto	l3278
  2607   00140E                     u2020:
  2608   00140E  0E00               	movlw	0
  2609   001410  6E11               	movwf	___fldiv@b^0,c
  2610   001412  0E00               	movlw	0
  2611   001414  6E12               	movwf	(___fldiv@b+1)^0,c
  2612   001416  0E00               	movlw	0
  2613   001418  6E13               	movwf	(___fldiv@b+2)^0,c
  2614   00141A  0E00               	movlw	0
  2615   00141C  6E14               	movwf	(___fldiv@b+3)^0,c
  2616   00141E  0E80               	movlw	128
  2617   001420  1213               	iorwf	(___fldiv@b+2)^0,f,c
  2618   001422  0E7F               	movlw	127
  2619   001424  1214               	iorwf	(___fldiv@b+3)^0,f,c
  2620   001426                     l3272:
  2621   001426  5021               	movf	___fldiv@sign^0,w,c
  2622   001428  1214               	iorwf	(___fldiv@b+3)^0,f,c
  2623   00142A  C011  F011         	movff	___fldiv@b,?___fldiv
  2624   00142E  C012  F012         	movff	___fldiv@b+1,?___fldiv+1
  2625   001432  C013  F013         	movff	___fldiv@b+2,?___fldiv+2
  2626   001436  C014  F014         	movff	___fldiv@b+3,?___fldiv+3
  2627   00143A  EF62  F00B         	goto	l1245
  2628   00143E                     l3278:
  2629   00143E  5028               	movf	___fldiv@bexp^0,w,c
  2630   001440  A4D8               	btfss	status,2,c
  2631   001442  EF25  F00A         	goto	u2031
  2632   001446  EF27  F00A         	goto	u2030
  2633   00144A                     u2031:
  2634   00144A  EF31  F00A         	goto	l3286
  2635   00144E                     u2030:
  2636   00144E  0E00               	movlw	0
  2637   001450  6E11               	movwf	?___fldiv^0,c
  2638   001452  0E00               	movlw	0
  2639   001454  6E12               	movwf	(?___fldiv+1)^0,c
  2640   001456  0E00               	movlw	0
  2641   001458  6E13               	movwf	(?___fldiv+2)^0,c
  2642   00145A  0E00               	movlw	0
  2643   00145C  6E14               	movwf	(?___fldiv+3)^0,c
  2644   00145E  EF62  F00B         	goto	l1245
  2645   001462                     l3286:
  2646   001462  5029               	movf	___fldiv@aexp^0,w,c
  2647   001464  C028  F019         	movff	___fldiv@bexp,??___fldiv
  2648   001468  6A1A               	clrf	(??___fldiv+1)^0,c
  2649   00146A  5E19               	subwf	??___fldiv^0,f,c
  2650   00146C  0E00               	movlw	0
  2651   00146E  5A1A               	subwfb	(??___fldiv+1)^0,f,c
  2652   001470  0E7F               	movlw	127
  2653   001472  2419               	addwf	??___fldiv^0,w,c
  2654   001474  6E22               	movwf	___fldiv@new_exp^0,c
  2655   001476  0E00               	movlw	0
  2656   001478  201A               	addwfc	(??___fldiv+1)^0,w,c
  2657   00147A  6E23               	movwf	(___fldiv@new_exp+1)^0,c
  2658   00147C  C011  F01D         	movff	___fldiv@b,___fldiv@rem
  2659   001480  C012  F01E         	movff	___fldiv@b+1,___fldiv@rem+1
  2660   001484  C013  F01F         	movff	___fldiv@b+2,___fldiv@rem+2
  2661   001488  C014  F020         	movff	___fldiv@b+3,___fldiv@rem+3
  2662   00148C  0E00               	movlw	0
  2663   00148E  6E11               	movwf	___fldiv@b^0,c
  2664   001490  0E00               	movlw	0
  2665   001492  6E12               	movwf	(___fldiv@b+1)^0,c
  2666   001494  0E00               	movlw	0
  2667   001496  6E13               	movwf	(___fldiv@b+2)^0,c
  2668   001498  0E00               	movlw	0
  2669   00149A  6E14               	movwf	(___fldiv@b+3)^0,c
  2670   00149C  0E00               	movlw	0
  2671   00149E  6E24               	movwf	___fldiv@grs^0,c
  2672   0014A0  0E00               	movlw	0
  2673   0014A2  6E25               	movwf	(___fldiv@grs+1)^0,c
  2674   0014A4  0E00               	movlw	0
  2675   0014A6  6E26               	movwf	(___fldiv@grs+2)^0,c
  2676   0014A8  0E00               	movlw	0
  2677   0014AA  6E27               	movwf	(___fldiv@grs+3)^0,c
  2678   0014AC  0E00               	movlw	0
  2679   0014AE  6E29               	movwf	___fldiv@aexp^0,c
  2680   0014B0  EF92  F00A         	goto	l1247
  2681   0014B4                     l3296:
  2682   0014B4  5029               	movf	___fldiv@aexp^0,w,c
  2683   0014B6  B4D8               	btfsc	status,2,c
  2684   0014B8  EF60  F00A         	goto	u2041
  2685   0014BC  EF62  F00A         	goto	u2040
  2686   0014C0                     u2041:
  2687   0014C0  EF79  F00A         	goto	l3304
  2688   0014C4                     u2040:
  2689   0014C4  90D8               	bcf	status,0,c
  2690   0014C6  361D               	rlcf	___fldiv@rem^0,f,c
  2691   0014C8  361E               	rlcf	(___fldiv@rem+1)^0,f,c
  2692   0014CA  361F               	rlcf	(___fldiv@rem+2)^0,f,c
  2693   0014CC  3620               	rlcf	(___fldiv@rem+3)^0,f,c
  2694   0014CE  90D8               	bcf	status,0,c
  2695   0014D0  3611               	rlcf	___fldiv@b^0,f,c
  2696   0014D2  3612               	rlcf	(___fldiv@b+1)^0,f,c
  2697   0014D4  3613               	rlcf	(___fldiv@b+2)^0,f,c
  2698   0014D6  3614               	rlcf	(___fldiv@b+3)^0,f,c
  2699   0014D8  AE27               	btfss	(___fldiv@grs+3)^0,7,c
  2700   0014DA  EF71  F00A         	goto	u2051
  2701   0014DE  EF73  F00A         	goto	u2050
  2702   0014E2                     u2051:
  2703   0014E2  EF74  F00A         	goto	l1250
  2704   0014E6                     u2050:
  2705   0014E6  8011               	bsf	___fldiv@b^0,0,c
  2706   0014E8                     l1250:
  2707   0014E8  90D8               	bcf	status,0,c
  2708   0014EA  3624               	rlcf	___fldiv@grs^0,f,c
  2709   0014EC  3625               	rlcf	(___fldiv@grs+1)^0,f,c
  2710   0014EE  3626               	rlcf	(___fldiv@grs+2)^0,f,c
  2711   0014F0  3627               	rlcf	(___fldiv@grs+3)^0,f,c
  2712   0014F2                     l3304:
  2713   0014F2  5015               	movf	___fldiv@a^0,w,c
  2714   0014F4  5C1D               	subwf	___fldiv@rem^0,w,c
  2715   0014F6  5016               	movf	(___fldiv@a+1)^0,w,c
  2716   0014F8  581E               	subwfb	(___fldiv@rem+1)^0,w,c
  2717   0014FA  5017               	movf	(___fldiv@a+2)^0,w,c
  2718   0014FC  581F               	subwfb	(___fldiv@rem+2)^0,w,c
  2719   0014FE  5018               	movf	(___fldiv@a+3)^0,w,c
  2720   001500  5820               	subwfb	(___fldiv@rem+3)^0,w,c
  2721   001502  A0D8               	btfss	status,0,c
  2722   001504  EF86  F00A         	goto	u2061
  2723   001508  EF88  F00A         	goto	u2060
  2724   00150C                     u2061:
  2725   00150C  EF91  F00A         	goto	l3310
  2726   001510                     u2060:
  2727   001510  8C27               	bsf	(___fldiv@grs+3)^0,6,c
  2728   001512  5015               	movf	___fldiv@a^0,w,c
  2729   001514  5E1D               	subwf	___fldiv@rem^0,f,c
  2730   001516  5016               	movf	(___fldiv@a+1)^0,w,c
  2731   001518  5A1E               	subwfb	(___fldiv@rem+1)^0,f,c
  2732   00151A  5017               	movf	(___fldiv@a+2)^0,w,c
  2733   00151C  5A1F               	subwfb	(___fldiv@rem+2)^0,f,c
  2734   00151E  5018               	movf	(___fldiv@a+3)^0,w,c
  2735   001520  5A20               	subwfb	(___fldiv@rem+3)^0,f,c
  2736   001522                     l3310:
  2737   001522  2A29               	incf	___fldiv@aexp^0,f,c
  2738   001524                     l1247:
  2739   001524  0E19               	movlw	25
  2740   001526  6429               	cpfsgt	___fldiv@aexp^0,c
  2741   001528  EF98  F00A         	goto	u2071
  2742   00152C  EF9A  F00A         	goto	u2070
  2743   001530                     u2071:
  2744   001530  EF5A  F00A         	goto	l3296
  2745   001534                     u2070:
  2746   001534  501D               	movf	___fldiv@rem^0,w,c
  2747   001536  101E               	iorwf	(___fldiv@rem+1)^0,w,c
  2748   001538  101F               	iorwf	(___fldiv@rem+2)^0,w,c
  2749   00153A  1020               	iorwf	(___fldiv@rem+3)^0,w,c
  2750   00153C  B4D8               	btfsc	status,2,c
  2751   00153E  EFA3  F00A         	goto	u2081
  2752   001542  EFA5  F00A         	goto	u2080
  2753   001546                     u2081:
  2754   001546  EFBD  F00A         	goto	l3322
  2755   00154A                     u2080:
  2756   00154A  8024               	bsf	___fldiv@grs^0,0,c
  2757   00154C  EFBD  F00A         	goto	l3322
  2758   001550                     l3316:
  2759   001550  90D8               	bcf	status,0,c
  2760   001552  3611               	rlcf	___fldiv@b^0,f,c
  2761   001554  3612               	rlcf	(___fldiv@b+1)^0,f,c
  2762   001556  3613               	rlcf	(___fldiv@b+2)^0,f,c
  2763   001558  3614               	rlcf	(___fldiv@b+3)^0,f,c
  2764   00155A  AE27               	btfss	(___fldiv@grs+3)^0,7,c
  2765   00155C  EFB2  F00A         	goto	u2091
  2766   001560  EFB4  F00A         	goto	u2090
  2767   001564                     u2091:
  2768   001564  EFB5  F00A         	goto	l1256
  2769   001568                     u2090:
  2770   001568  8011               	bsf	___fldiv@b^0,0,c
  2771   00156A                     l1256:
  2772   00156A  90D8               	bcf	status,0,c
  2773   00156C  3624               	rlcf	___fldiv@grs^0,f,c
  2774   00156E  3625               	rlcf	(___fldiv@grs+1)^0,f,c
  2775   001570  3626               	rlcf	(___fldiv@grs+2)^0,f,c
  2776   001572  3627               	rlcf	(___fldiv@grs+3)^0,f,c
  2777   001574  0622               	decf	___fldiv@new_exp^0,f,c
  2778   001576  A0D8               	btfss	status,0,c
  2779   001578  0623               	decf	(___fldiv@new_exp+1)^0,f,c
  2780   00157A                     l3322:
  2781   00157A  AE13               	btfss	(___fldiv@b+2)^0,7,c
  2782   00157C  EFC2  F00A         	goto	u2101
  2783   001580  EFC4  F00A         	goto	u2100
  2784   001584                     u2101:
  2785   001584  EFA8  F00A         	goto	l3316
  2786   001588                     u2100:
  2787   001588  0E00               	movlw	0
  2788   00158A  6E29               	movwf	___fldiv@aexp^0,c
  2789   00158C  AE27               	btfss	(___fldiv@grs+3)^0,7,c
  2790   00158E  EFCB  F00A         	goto	u2111
  2791   001592  EFCD  F00A         	goto	u2110
  2792   001596                     u2111:
  2793   001596  EFF1  F00A         	goto	l1258
  2794   00159A                     u2110:
  2795   00159A  0EFF               	movlw	255
  2796   00159C  1424               	andwf	___fldiv@grs^0,w,c
  2797   00159E  6E19               	movwf	??___fldiv^0,c
  2798   0015A0  0EFF               	movlw	255
  2799   0015A2  1425               	andwf	(___fldiv@grs+1)^0,w,c
  2800   0015A4  6E1A               	movwf	(??___fldiv+1)^0,c
  2801   0015A6  0EFF               	movlw	255
  2802   0015A8  1426               	andwf	(___fldiv@grs+2)^0,w,c
  2803   0015AA  6E1B               	movwf	(??___fldiv+2)^0,c
  2804   0015AC  0E7F               	movlw	127
  2805   0015AE  1427               	andwf	(___fldiv@grs+3)^0,w,c
  2806   0015B0  6E1C               	movwf	(??___fldiv+3)^0,c
  2807   0015B2  5019               	movf	??___fldiv^0,w,c
  2808   0015B4  101A               	iorwf	(??___fldiv+1)^0,w,c
  2809   0015B6  101B               	iorwf	(??___fldiv+2)^0,w,c
  2810   0015B8  101C               	iorwf	(??___fldiv+3)^0,w,c
  2811   0015BA  B4D8               	btfsc	status,2,c
  2812   0015BC  EFE2  F00A         	goto	u2121
  2813   0015C0  EFE4  F00A         	goto	u2120
  2814   0015C4                     u2121:
  2815   0015C4  EFE8  F00A         	goto	l1259
  2816   0015C8                     u2120:
  2817   0015C8                     l3330:
  2818   0015C8  0E01               	movlw	1
  2819   0015CA  6E29               	movwf	___fldiv@aexp^0,c
  2820   0015CC  EFF1  F00A         	goto	l1258
  2821   0015D0                     l1259:
  2822   0015D0  A011               	btfss	___fldiv@b^0,0,c
  2823   0015D2  EFED  F00A         	goto	u2131
  2824   0015D6  EFEF  F00A         	goto	u2130
  2825   0015DA                     u2131:
  2826   0015DA  EFF1  F00A         	goto	l1258
  2827   0015DE                     u2130:
  2828   0015DE  EFE4  F00A         	goto	l3330
  2829   0015E2                     l1258:
  2830   0015E2  5029               	movf	___fldiv@aexp^0,w,c
  2831   0015E4  B4D8               	btfsc	status,2,c
  2832   0015E6  EFF7  F00A         	goto	u2141
  2833   0015EA  EFF9  F00A         	goto	u2140
  2834   0015EE                     u2141:
  2835   0015EE  EF1D  F00B         	goto	l3342
  2836   0015F2                     u2140:
  2837   0015F2  0E01               	movlw	1
  2838   0015F4  2611               	addwf	___fldiv@b^0,f,c
  2839   0015F6  0E00               	movlw	0
  2840   0015F8  2212               	addwfc	(___fldiv@b+1)^0,f,c
  2841   0015FA  2213               	addwfc	(___fldiv@b+2)^0,f,c
  2842   0015FC  2214               	addwfc	(___fldiv@b+3)^0,f,c
  2843   0015FE  A014               	btfss	(___fldiv@b+3)^0,0,c
  2844   001600  EF04  F00B         	goto	u2151
  2845   001604  EF06  F00B         	goto	u2150
  2846   001608                     u2151:
  2847   001608  EF1D  F00B         	goto	l3342
  2848   00160C                     u2150:
  2849   00160C  C011  F019         	movff	___fldiv@b,??___fldiv
  2850   001610  C012  F01A         	movff	___fldiv@b+1,??___fldiv+1
  2851   001614  C013  F01B         	movff	___fldiv@b+2,??___fldiv+2
  2852   001618  C014  F01C         	movff	___fldiv@b+3,??___fldiv+3
  2853   00161C  341C               	rlcf	(??___fldiv+3)^0,w,c
  2854   00161E  321C               	rrcf	(??___fldiv+3)^0,f,c
  2855   001620  321B               	rrcf	(??___fldiv+2)^0,f,c
  2856   001622  321A               	rrcf	(??___fldiv+1)^0,f,c
  2857   001624  3219               	rrcf	??___fldiv^0,f,c
  2858   001626  C019  F011         	movff	??___fldiv,___fldiv@b
  2859   00162A  C01A  F012         	movff	??___fldiv+1,___fldiv@b+1
  2860   00162E  C01B  F013         	movff	??___fldiv+2,___fldiv@b+2
  2861   001632  C01C  F014         	movff	??___fldiv+3,___fldiv@b+3
  2862   001636  4A22               	infsnz	___fldiv@new_exp^0,f,c
  2863   001638  2A23               	incf	(___fldiv@new_exp+1)^0,f,c
  2864   00163A                     l3342:
  2865   00163A  BE23               	btfsc	(___fldiv@new_exp+1)^0,7,c
  2866   00163C  EF28  F00B         	goto	u2161
  2867   001640  5023               	movf	(___fldiv@new_exp+1)^0,w,c
  2868   001642  E108               	bnz	u2160
  2869   001644  2822               	incf	___fldiv@new_exp^0,w,c
  2870   001646  A0D8               	btfss	status,0,c
  2871   001648  EF28  F00B         	goto	u2161
  2872   00164C  EF2A  F00B         	goto	u2160
  2873   001650                     u2161:
  2874   001650  EF35  F00B         	goto	l3346
  2875   001654                     u2160:
  2876   001654  0E00               	movlw	0
  2877   001656  6E23               	movwf	(___fldiv@new_exp+1)^0,c
  2878   001658  6822               	setf	___fldiv@new_exp^0,c
  2879   00165A  0E00               	movlw	0
  2880   00165C  6E11               	movwf	___fldiv@b^0,c
  2881   00165E  0E00               	movlw	0
  2882   001660  6E12               	movwf	(___fldiv@b+1)^0,c
  2883   001662  0E00               	movlw	0
  2884   001664  6E13               	movwf	(___fldiv@b+2)^0,c
  2885   001666  0E00               	movlw	0
  2886   001668  6E14               	movwf	(___fldiv@b+3)^0,c
  2887   00166A                     l3346:
  2888   00166A  BE23               	btfsc	(___fldiv@new_exp+1)^0,7,c
  2889   00166C  EF42  F00B         	goto	u2170
  2890   001670  5023               	movf	(___fldiv@new_exp+1)^0,w,c
  2891   001672  E106               	bnz	u2171
  2892   001674  0422               	decf	___fldiv@new_exp^0,w,c
  2893   001676  B0D8               	btfsc	status,0,c
  2894   001678  EF40  F00B         	goto	u2171
  2895   00167C  EF42  F00B         	goto	u2170
  2896   001680                     u2171:
  2897   001680  EF50  F00B         	goto	l3350
  2898   001684                     u2170:
  2899   001684  0E00               	movlw	0
  2900   001686  6E23               	movwf	(___fldiv@new_exp+1)^0,c
  2901   001688  0E00               	movlw	0
  2902   00168A  6E22               	movwf	___fldiv@new_exp^0,c
  2903   00168C  0E00               	movlw	0
  2904   00168E  6E11               	movwf	___fldiv@b^0,c
  2905   001690  0E00               	movlw	0
  2906   001692  6E12               	movwf	(___fldiv@b+1)^0,c
  2907   001694  0E00               	movlw	0
  2908   001696  6E13               	movwf	(___fldiv@b+2)^0,c
  2909   001698  0E00               	movlw	0
  2910   00169A  6E14               	movwf	(___fldiv@b+3)^0,c
  2911   00169C  0E00               	movlw	0
  2912   00169E  6E21               	movwf	___fldiv@sign^0,c
  2913   0016A0                     l3350:
  2914   0016A0  C022  F028         	movff	___fldiv@new_exp,___fldiv@bexp
  2915   0016A4  A028               	btfss	___fldiv@bexp^0,0,c
  2916   0016A6  EF57  F00B         	goto	u2181
  2917   0016AA  EF59  F00B         	goto	u2180
  2918   0016AE                     u2181:
  2919   0016AE  EF5C  F00B         	goto	l3356
  2920   0016B2                     u2180:
  2921   0016B2  8E13               	bsf	(___fldiv@b+2)^0,7,c
  2922   0016B4  EF5D  F00B         	goto	l3358
  2923   0016B8                     l3356:
  2924   0016B8  9E13               	bcf	(___fldiv@b+2)^0,7,c
  2925   0016BA                     l3358:
  2926   0016BA  90D8               	bcf	status,0,c
  2927   0016BC  3028               	rrcf	___fldiv@bexp^0,w,c
  2928   0016BE  6E14               	movwf	(___fldiv@b+3)^0,c
  2929   0016C0  EF13  F00A         	goto	l3272
  2930   0016C4                     l1245:
  2931   0016C4  0012               	return		;funcret
  2932   0016C6                     __end_of___fldiv:
  2933                           	callstack 0
  2934                           
  2935 ;; *************** function _shutdown_seq *****************
  2936 ;; Defined at:
  2937 ;;		line 151 in file "main.c"
  2938 ;; Parameters:    Size  Location     Type
  2939 ;;		None
  2940 ;; Auto vars:     Size  Location     Type
  2941 ;;		None
  2942 ;; Return value:  Size  Location     Type
  2943 ;;                  1    wreg      void 
  2944 ;; Registers used:
  2945 ;;		wreg, fsr2l, fsr2h, status,2, status,0, cstack
  2946 ;; Tracked objects:
  2947 ;;		On entry : 0/0
  2948 ;;		On exit  : 0/0
  2949 ;;		Unchanged: 0/0
  2950 ;; Data sizes:     COMRAM   BANK0   BANK1   BANK2   BANK3   BANK4   BANK5   BANK6   BANK7   BANK8   BANK9  BANK10  BANK1
      +1  BANK12  BANK13  BANK14
  2951 ;;      Params:         0       0       0       0       0       0       0       0       0       0       0       0       
      +0       0       0       0
  2952 ;;      Locals:         0       0       0       0       0       0       0       0       0       0       0       0       
      +0       0       0       0
  2953 ;;      Temps:          0       0       0       0       0       0       0       0       0       0       0       0       
      +0       0       0       0
  2954 ;;      Totals:         0       0       0       0       0       0       0       0       0       0       0       0       
      +0       0       0       0
  2955 ;;Total ram usage:        0 bytes
  2956 ;; Hardware stack levels used: 1
  2957 ;; Hardware stack levels required when called: 7
  2958 ;; This function calls:
  2959 ;;		_canbus_shutdown_success
  2960 ;; This function is called by:
  2961 ;;		_main
  2962 ;; This function uses a non-reentrant model
  2963 ;;
  2964                           
  2965                           	psect	text12
  2966   0027E0                     __ptext12:
  2967                           	callstack 0
  2968   0027E0                     _shutdown_seq:
  2969                           	callstack 23
  2970   0027E0                     
  2971                           ;main.c: 152:     canbus_shutdown_success(1);
  2972   0027E0  0E00               	movlw	0
  2973   0027E2  6E1B               	movwf	(canbus_shutdown_success@number+1)^0,c
  2974   0027E4  0E01               	movlw	1
  2975   0027E6  6E1A               	movwf	canbus_shutdown_success@number^0,c
  2976   0027E8  EC9C  F013         	call	_canbus_shutdown_success	;wreg free
  2977   0027EC  0012               	return		;funcret
  2978   0027EE                     __end_of_shutdown_seq:
  2979                           	callstack 0
  2980                           
  2981 ;; *************** function _canbus_shutdown_success *****************
  2982 ;; Defined at:
  2983 ;;		line 99 in file "main.c"
  2984 ;; Parameters:    Size  Location     Type
  2985 ;;  number          2   25[COMRAM] int 
  2986 ;; Auto vars:     Size  Location     Type
  2987 ;;		None
  2988 ;; Return value:  Size  Location     Type
  2989 ;;                  1    wreg      void 
  2990 ;; Registers used:
  2991 ;;		wreg, fsr2l, fsr2h, status,2, status,0, cstack
  2992 ;; Tracked objects:
  2993 ;;		On entry : 0/0
  2994 ;;		On exit  : 0/0
  2995 ;;		Unchanged: 0/0
  2996 ;; Data sizes:     COMRAM   BANK0   BANK1   BANK2   BANK3   BANK4   BANK5   BANK6   BANK7   BANK8   BANK9  BANK10  BANK1
      +1  BANK12  BANK13  BANK14
  2997 ;;      Params:         2       0       0       0       0       0       0       0       0       0       0       0       
      +0       0       0       0
  2998 ;;      Locals:         0       0       0       0       0       0       0       0       0       0       0       0       
      +0       0       0       0
  2999 ;;      Temps:          0       0       0       0       0       0       0       0       0       0       0       0       
      +0       0       0       0
  3000 ;;      Totals:         2       0       0       0       0       0       0       0       0       0       0       0       
      +0       0       0       0
  3001 ;;Total ram usage:        2 bytes
  3002 ;; Hardware stack levels used: 1
  3003 ;; Hardware stack levels required when called: 6
  3004 ;; This function calls:
  3005 ;;		_canbusSend
  3006 ;; This function is called by:
  3007 ;;		_shutdown_seq
  3008 ;; This function uses a non-reentrant model
  3009 ;;
  3010                           
  3011                           	psect	text13
  3012   002738                     __ptext13:
  3013                           	callstack 0
  3014   002738                     _canbus_shutdown_success:
  3015                           	callstack 23
  3016   002738                     
  3017                           ;main.c: 100:     canbusSend(0x18,number);
  3018   002738  0E00               	movlw	0
  3019   00273A  6E17               	movwf	(canbusSend@id+1)^0,c
  3020   00273C  0E18               	movlw	24
  3021   00273E  6E16               	movwf	canbusSend@id^0,c
  3022   002740  C01A  F018         	movff	canbus_shutdown_success@number,canbusSend@data
  3023   002744  C01B  F019         	movff	canbus_shutdown_success@number+1,canbusSend@data+1
  3024   002748  EC33  F013         	call	_canbusSend	;wreg free
  3025   00274C  0012               	return		;funcret
  3026   00274E                     __end_of_canbus_shutdown_success:
  3027                           	callstack 0
  3028                           
  3029 ;; *************** function _e_stop_seq *****************
  3030 ;; Defined at:
  3031 ;;		line 155 in file "main.c"
  3032 ;; Parameters:    Size  Location     Type
  3033 ;;		None
  3034 ;; Auto vars:     Size  Location     Type
  3035 ;;		None
  3036 ;; Return value:  Size  Location     Type
  3037 ;;                  1    wreg      void 
  3038 ;; Registers used:
  3039 ;;		wreg, fsr2l, fsr2h, status,2, status,0, cstack
  3040 ;; Tracked objects:
  3041 ;;		On entry : 0/0
  3042 ;;		On exit  : 0/0
  3043 ;;		Unchanged: 0/0
  3044 ;; Data sizes:     COMRAM   BANK0   BANK1   BANK2   BANK3   BANK4   BANK5   BANK6   BANK7   BANK8   BANK9  BANK10  BANK1
      +1  BANK12  BANK13  BANK14
  3045 ;;      Params:         0       0       0       0       0       0       0       0       0       0       0       0       
      +0       0       0       0
  3046 ;;      Locals:         0       0       0       0       0       0       0       0       0       0       0       0       
      +0       0       0       0
  3047 ;;      Temps:          0       0       0       0       0       0       0       0       0       0       0       0       
      +0       0       0       0
  3048 ;;      Totals:         0       0       0       0       0       0       0       0       0       0       0       0       
      +0       0       0       0
  3049 ;;Total ram usage:        0 bytes
  3050 ;; Hardware stack levels used: 1
  3051 ;; Hardware stack levels required when called: 7
  3052 ;; This function calls:
  3053 ;;		_canbus_msg_bps
  3054 ;; This function is called by:
  3055 ;;		_main
  3056 ;; This function uses a non-reentrant model
  3057 ;;
  3058                           
  3059                           	psect	text14
  3060   0027BC                     __ptext14:
  3061                           	callstack 0
  3062   0027BC                     _e_stop_seq:
  3063                           	callstack 23
  3064   0027BC                     
  3065                           ;main.c: 156:     canbus_msg_bps(1);
  3066   0027BC  0E00               	movlw	0
  3067   0027BE  6E1B               	movwf	(canbus_msg_bps@number+1)^0,c
  3068   0027C0  0E01               	movlw	1
  3069   0027C2  6E1A               	movwf	canbus_msg_bps@number^0,c
  3070   0027C4  ECA7  F013         	call	_canbus_msg_bps	;wreg free
  3071   0027C8  9689               	bcf	137,3,c	;volatile
  3072   0027CA  9489               	bcf	137,2,c	;volatile
  3073   0027CC  0012               	return		;funcret
  3074   0027CE                     __end_of_e_stop_seq:
  3075                           	callstack 0
  3076                           
  3077 ;; *************** function _canbus_msg_bps *****************
  3078 ;; Defined at:
  3079 ;;		line 84 in file "main.c"
  3080 ;; Parameters:    Size  Location     Type
  3081 ;;  number          2   25[COMRAM] int 
  3082 ;; Auto vars:     Size  Location     Type
  3083 ;;		None
  3084 ;; Return value:  Size  Location     Type
  3085 ;;                  1    wreg      void 
  3086 ;; Registers used:
  3087 ;;		wreg, fsr2l, fsr2h, status,2, status,0, cstack
  3088 ;; Tracked objects:
  3089 ;;		On entry : 0/0
  3090 ;;		On exit  : 0/0
  3091 ;;		Unchanged: 0/0
  3092 ;; Data sizes:     COMRAM   BANK0   BANK1   BANK2   BANK3   BANK4   BANK5   BANK6   BANK7   BANK8   BANK9  BANK10  BANK1
      +1  BANK12  BANK13  BANK14
  3093 ;;      Params:         2       0       0       0       0       0       0       0       0       0       0       0       
      +0       0       0       0
  3094 ;;      Locals:         0       0       0       0       0       0       0       0       0       0       0       0       
      +0       0       0       0
  3095 ;;      Temps:          0       0       0       0       0       0       0       0       0       0       0       0       
      +0       0       0       0
  3096 ;;      Totals:         2       0       0       0       0       0       0       0       0       0       0       0       
      +0       0       0       0
  3097 ;;Total ram usage:        2 bytes
  3098 ;; Hardware stack levels used: 1
  3099 ;; Hardware stack levels required when called: 6
  3100 ;; This function calls:
  3101 ;;		_canbusSend
  3102 ;; This function is called by:
  3103 ;;		_e_stop_seq
  3104 ;; This function uses a non-reentrant model
  3105 ;;
  3106                           
  3107                           	psect	text15
  3108   00274E                     __ptext15:
  3109                           	callstack 0
  3110   00274E                     _canbus_msg_bps:
  3111                           	callstack 23
  3112   00274E                     
  3113                           ;main.c: 85:     canbusSend(0x12,number);
  3114   00274E  0E00               	movlw	0
  3115   002750  6E17               	movwf	(canbusSend@id+1)^0,c
  3116   002752  0E12               	movlw	18
  3117   002754  6E16               	movwf	canbusSend@id^0,c
  3118   002756  C01A  F018         	movff	canbus_msg_bps@number,canbusSend@data
  3119   00275A  C01B  F019         	movff	canbus_msg_bps@number+1,canbusSend@data+1
  3120   00275E  EC33  F013         	call	_canbusSend	;wreg free
  3121   002762  0012               	return		;funcret
  3122   002764                     __end_of_canbus_msg_bps:
  3123                           	callstack 0
  3124                           
  3125 ;; *************** function _canbus_msg_ok *****************
  3126 ;; Defined at:
  3127 ;;		line 107 in file "main.c"
  3128 ;; Parameters:    Size  Location     Type
  3129 ;;  number          2   25[COMRAM] int 
  3130 ;; Auto vars:     Size  Location     Type
  3131 ;;		None
  3132 ;; Return value:  Size  Location     Type
  3133 ;;                  1    wreg      void 
  3134 ;; Registers used:
  3135 ;;		wreg, fsr2l, fsr2h, status,2, status,0, cstack
  3136 ;; Tracked objects:
  3137 ;;		On entry : 0/0
  3138 ;;		On exit  : 0/0
  3139 ;;		Unchanged: 0/0
  3140 ;; Data sizes:     COMRAM   BANK0   BANK1   BANK2   BANK3   BANK4   BANK5   BANK6   BANK7   BANK8   BANK9  BANK10  BANK1
      +1  BANK12  BANK13  BANK14
  3141 ;;      Params:         2       0       0       0       0       0       0       0       0       0       0       0       
      +0       0       0       0
  3142 ;;      Locals:         0       0       0       0       0       0       0       0       0       0       0       0       
      +0       0       0       0
  3143 ;;      Temps:          0       0       0       0       0       0       0       0       0       0       0       0       
      +0       0       0       0
  3144 ;;      Totals:         2       0       0       0       0       0       0       0       0       0       0       0       
      +0       0       0       0
  3145 ;;Total ram usage:        2 bytes
  3146 ;; Hardware stack levels used: 1
  3147 ;; Hardware stack levels required when called: 6
  3148 ;; This function calls:
  3149 ;;		_canbusSend
  3150 ;; This function is called by:
  3151 ;;		_main
  3152 ;; This function uses a non-reentrant model
  3153 ;;
  3154                           
  3155                           	psect	text16
  3156   002764                     __ptext16:
  3157                           	callstack 0
  3158   002764                     _canbus_msg_ok:
  3159                           	callstack 24
  3160   002764                     
  3161                           ;main.c: 108:     canbusSend(0x111,number);
  3162   002764  0E01               	movlw	1
  3163   002766  6E17               	movwf	(canbusSend@id+1)^0,c
  3164   002768  0E11               	movlw	17
  3165   00276A  6E16               	movwf	canbusSend@id^0,c
  3166   00276C  C01A  F018         	movff	canbus_msg_ok@number,canbusSend@data
  3167   002770  C01B  F019         	movff	canbus_msg_ok@number+1,canbusSend@data+1
  3168   002774  EC33  F013         	call	_canbusSend	;wreg free
  3169   002778  0012               	return		;funcret
  3170   00277A                     __end_of_canbus_msg_ok:
  3171                           	callstack 0
  3172                           
  3173 ;; *************** function _aux_battery_LV *****************
  3174 ;; Defined at:
  3175 ;;		line 161 in file "main.c"
  3176 ;; Parameters:    Size  Location     Type
  3177 ;;		None
  3178 ;; Auto vars:     Size  Location     Type
  3179 ;;		None
  3180 ;; Return value:  Size  Location     Type
  3181 ;;                  1    wreg      void 
  3182 ;; Registers used:
  3183 ;;		wreg, fsr2l, fsr2h, status,2, status,0, cstack
  3184 ;; Tracked objects:
  3185 ;;		On entry : 0/0
  3186 ;;		On exit  : 0/0
  3187 ;;		Unchanged: 0/0
  3188 ;; Data sizes:     COMRAM   BANK0   BANK1   BANK2   BANK3   BANK4   BANK5   BANK6   BANK7   BANK8   BANK9  BANK10  BANK1
      +1  BANK12  BANK13  BANK14
  3189 ;;      Params:         0       0       0       0       0       0       0       0       0       0       0       0       
      +0       0       0       0
  3190 ;;      Locals:         0       0       0       0       0       0       0       0       0       0       0       0       
      +0       0       0       0
  3191 ;;      Temps:          0       0       0       0       0       0       0       0       0       0       0       0       
      +0       0       0       0
  3192 ;;      Totals:         0       0       0       0       0       0       0       0       0       0       0       0       
      +0       0       0       0
  3193 ;;Total ram usage:        0 bytes
  3194 ;; Hardware stack levels used: 1
  3195 ;; Hardware stack levels required when called: 7
  3196 ;; This function calls:
  3197 ;;		_canbus_msg_auxlow
  3198 ;; This function is called by:
  3199 ;;		_main
  3200 ;; This function uses a non-reentrant model
  3201 ;;
  3202                           
  3203                           	psect	text17
  3204   0027EE                     __ptext17:
  3205                           	callstack 0
  3206   0027EE                     _aux_battery_LV:
  3207                           	callstack 23
  3208   0027EE                     
  3209                           ;main.c: 162:     canbus_msg_auxlow(1);
  3210   0027EE  0E00               	movlw	0
  3211   0027F0  6E1B               	movwf	(canbus_msg_auxlow@number+1)^0,c
  3212   0027F2  0E01               	movlw	1
  3213   0027F4  6E1A               	movwf	canbus_msg_auxlow@number^0,c
  3214   0027F6  ECBD  F013         	call	_canbus_msg_auxlow	;wreg free
  3215   0027FA  0012               	return		;funcret
  3216   0027FC                     __end_of_aux_battery_LV:
  3217                           	callstack 0
  3218                           
  3219 ;; *************** function _canbus_msg_auxlow *****************
  3220 ;; Defined at:
  3221 ;;		line 94 in file "main.c"
  3222 ;; Parameters:    Size  Location     Type
  3223 ;;  number          2   25[COMRAM] int 
  3224 ;; Auto vars:     Size  Location     Type
  3225 ;;		None
  3226 ;; Return value:  Size  Location     Type
  3227 ;;                  1    wreg      void 
  3228 ;; Registers used:
  3229 ;;		wreg, fsr2l, fsr2h, status,2, status,0, cstack
  3230 ;; Tracked objects:
  3231 ;;		On entry : 0/0
  3232 ;;		On exit  : 0/0
  3233 ;;		Unchanged: 0/0
  3234 ;; Data sizes:     COMRAM   BANK0   BANK1   BANK2   BANK3   BANK4   BANK5   BANK6   BANK7   BANK8   BANK9  BANK10  BANK1
      +1  BANK12  BANK13  BANK14
  3235 ;;      Params:         2       0       0       0       0       0       0       0       0       0       0       0       
      +0       0       0       0
  3236 ;;      Locals:         0       0       0       0       0       0       0       0       0       0       0       0       
      +0       0       0       0
  3237 ;;      Temps:          0       0       0       0       0       0       0       0       0       0       0       0       
      +0       0       0       0
  3238 ;;      Totals:         2       0       0       0       0       0       0       0       0       0       0       0       
      +0       0       0       0
  3239 ;;Total ram usage:        2 bytes
  3240 ;; Hardware stack levels used: 1
  3241 ;; Hardware stack levels required when called: 6
  3242 ;; This function calls:
  3243 ;;		_canbusSend
  3244 ;; This function is called by:
  3245 ;;		_start_up_seq
  3246 ;;		_aux_battery_LV
  3247 ;; This function uses a non-reentrant model
  3248 ;;
  3249                           
  3250                           	psect	text18
  3251   00277A                     __ptext18:
  3252                           	callstack 0
  3253   00277A                     _canbus_msg_auxlow:
  3254                           	callstack 23
  3255   00277A                     
  3256                           ;main.c: 95:     canbusSend(0x123,number);
  3257   00277A  0E01               	movlw	1
  3258   00277C  6E17               	movwf	(canbusSend@id+1)^0,c
  3259   00277E  0E23               	movlw	35
  3260   002780  6E16               	movwf	canbusSend@id^0,c
  3261   002782  C01A  F018         	movff	canbus_msg_auxlow@number,canbusSend@data
  3262   002786  C01B  F019         	movff	canbus_msg_auxlow@number+1,canbusSend@data+1
  3263   00278A  EC33  F013         	call	_canbusSend	;wreg free
  3264   00278E  0012               	return		;funcret
  3265   002790                     __end_of_canbus_msg_auxlow:
  3266                           	callstack 0
  3267                           
  3268 ;; *************** function _canbusSend *****************
  3269 ;; Defined at:
  3270 ;;		line 7 in file "canbus_sys_utils.c"
  3271 ;; Parameters:    Size  Location     Type
  3272 ;;  id              2   21[COMRAM] int 
  3273 ;;  data            2   23[COMRAM] int 
  3274 ;; Auto vars:     Size  Location     Type
  3275 ;;		None
  3276 ;; Return value:  Size  Location     Type
  3277 ;;                  1    wreg      void 
  3278 ;; Registers used:
  3279 ;;		wreg, fsr2l, fsr2h, status,2, status,0, cstack
  3280 ;; Tracked objects:
  3281 ;;		On entry : 0/0
  3282 ;;		On exit  : 0/0
  3283 ;;		Unchanged: 0/0
  3284 ;; Data sizes:     COMRAM   BANK0   BANK1   BANK2   BANK3   BANK4   BANK5   BANK6   BANK7   BANK8   BANK9  BANK10  BANK1
      +1  BANK12  BANK13  BANK14
  3285 ;;      Params:         4       0       0       0       0       0       0       0       0       0       0       0       
      +0       0       0       0
  3286 ;;      Locals:         0       0       0       0       0       0       0       0       0       0       0       0       
      +0       0       0       0
  3287 ;;      Temps:          0       0       0       0       0       0       0       0       0       0       0       0       
      +0       0       0       0
  3288 ;;      Totals:         4       0       0       0       0       0       0       0       0       0       0       0       
      +0       0       0       0
  3289 ;;Total ram usage:        4 bytes
  3290 ;; Hardware stack levels used: 1
  3291 ;; Hardware stack levels required when called: 5
  3292 ;; This function calls:
  3293 ;;		_CAN_transmit
  3294 ;; This function is called by:
  3295 ;;		_canbus_msg_startupfail
  3296 ;;		_canbus_msg_bps
  3297 ;;		_canbus_msg_auxlow
  3298 ;;		_canbus_shutdown_success
  3299 ;;		_canbus_msg_startup_success
  3300 ;;		_canbus_msg_ok
  3301 ;;		_canbus_latch_shutdown
  3302 ;;		_canbus_msg_auxfail
  3303 ;; This function uses a non-reentrant model
  3304 ;;
  3305                           
  3306                           	psect	text19
  3307   002666                     __ptext19:
  3308                           	callstack 0
  3309   002666                     _canbusSend:
  3310                           	callstack 23
  3311   002666                     
  3312                           ;canbus_sys_utils.c: 8:     tx.frame.idType = 1;
  3313   002666  0E01               	movlw	1
  3314   002668  0100               	movlb	0	; () banked
  3315   00266A  6F64               	movwf	_tx& (0+255),b
  3316   00266C                     
  3317                           ; BSR set to: 0
  3318                           ;canbus_sys_utils.c: 9:  tx.frame.id = id;
  3319   00266C  C016  F065         	movff	canbusSend@id,_tx+1
  3320   002670  C017  F066         	movff	canbusSend@id+1,_tx+2
  3321   002674  0E00               	movlw	0
  3322   002676  BF66               	btfsc	(_tx+2)& (0+255),7,b
  3323   002678  0EFF               	movlw	-1
  3324   00267A  6F67               	movwf	(_tx+3)& (0+255),b
  3325   00267C  6F68               	movwf	(_tx+4)& (0+255),b
  3326   00267E                     
  3327                           ; BSR set to: 0
  3328                           ;canbus_sys_utils.c: 10:  tx.frame.dlc = 0x01;
  3329   00267E  0E01               	movlw	1
  3330   002680  6F69               	movwf	(_tx+5)& (0+255),b
  3331   002682                     
  3332                           ; BSR set to: 0
  3333                           ;canbus_sys_utils.c: 11:  tx.frame.data0 = data;
  3334   002682  C018  F06A         	movff	canbusSend@data,_tx+6
  3335   002686                     
  3336                           ; BSR set to: 0
  3337                           ;canbus_sys_utils.c: 12:  CAN_transmit(&tx);
  3338   002686  0E64               	movlw	low _tx
  3339   002688  6E11               	movwf	CAN_transmit@tempCanMsg^0,c
  3340   00268A  EC63  F00B         	call	_CAN_transmit	;wreg free
  3341   00268E  0012               	return		;funcret
  3342   002690                     __end_of_canbusSend:
  3343                           	callstack 0
  3344                           
  3345 ;; *************** function _CAN_transmit *****************
  3346 ;; Defined at:
  3347 ;;		line 244 in file "mcc_generated_files/ecan.c"
  3348 ;; Parameters:    Size  Location     Type
  3349 ;;  tempCanMsg      1   16[COMRAM] PTR struct .
  3350 ;;		 -> tx(14), tx20(14), tx21(14), 
  3351 ;; Auto vars:     Size  Location     Type
  3352 ;;  tempSIDL        1   20[COMRAM] unsigned char 
  3353 ;;  tempSIDH        1   19[COMRAM] unsigned char 
  3354 ;;  tempEIDL        1   18[COMRAM] unsigned char 
  3355 ;;  tempEIDH        1   17[COMRAM] unsigned char 
  3356 ;;  returnValue     1    0        unsigned char 
  3357 ;; Return value:  Size  Location     Type
  3358 ;;                  1    wreg      unsigned char 
  3359 ;; Registers used:
  3360 ;;		wreg, fsr2l, fsr2h, status,2, status,0, cstack
  3361 ;; Tracked objects:
  3362 ;;		On entry : 0/0
  3363 ;;		On exit  : 0/0
  3364 ;;		Unchanged: 0/0
  3365 ;; Data sizes:     COMRAM   BANK0   BANK1   BANK2   BANK3   BANK4   BANK5   BANK6   BANK7   BANK8   BANK9  BANK10  BANK1
      +1  BANK12  BANK13  BANK14
  3366 ;;      Params:         1       0       0       0       0       0       0       0       0       0       0       0       
      +0       0       0       0
  3367 ;;      Locals:         4       0       0       0       0       0       0       0       0       0       0       0       
      +0       0       0       0
  3368 ;;      Temps:          0       0       0       0       0       0       0       0       0       0       0       0       
      +0       0       0       0
  3369 ;;      Totals:         5       0       0       0       0       0       0       0       0       0       0       0       
      +0       0       0       0
  3370 ;;Total ram usage:        5 bytes
  3371 ;; Hardware stack levels used: 1
  3372 ;; Hardware stack levels required when called: 4
  3373 ;; This function calls:
  3374 ;;		_convertCANid2Reg
  3375 ;; This function is called by:
  3376 ;;		_ADC_Conv_pinSeven
  3377 ;;		_ADC_Conv_pinNine
  3378 ;;		_canbusSend
  3379 ;; This function uses a non-reentrant model
  3380 ;;
  3381                           
  3382                           	psect	text20
  3383   0016C6                     __ptext20:
  3384                           	callstack 0
  3385   0016C6                     _CAN_transmit:
  3386                           	callstack 23
  3387   0016C6                     
  3388                           ;mcc_generated_files/ecan.c: 244: uint8_t CAN_transmit(uCAN_MSG *tempCanMsg);mcc_generat
      +                          ed_files/ecan.c: 245: {;mcc_generated_files/ecan.c: 246:     uint8_t tempEIDH = 0;
  3389   0016C6  0E00               	movlw	0
  3390   0016C8  6E12               	movwf	CAN_transmit@tempEIDH^0,c
  3391                           
  3392                           ;mcc_generated_files/ecan.c: 247:     uint8_t tempEIDL = 0;
  3393   0016CA  0E00               	movlw	0
  3394   0016CC  6E13               	movwf	CAN_transmit@tempEIDL^0,c
  3395                           
  3396                           ;mcc_generated_files/ecan.c: 248:     uint8_t tempSIDH = 0;
  3397   0016CE  0E00               	movlw	0
  3398   0016D0  6E14               	movwf	CAN_transmit@tempSIDH^0,c
  3399                           
  3400                           ;mcc_generated_files/ecan.c: 249:     uint8_t tempSIDL = 0;
  3401   0016D2  0E00               	movlw	0
  3402   0016D4  6E15               	movwf	CAN_transmit@tempSIDL^0,c
  3403   0016D6                     
  3404                           ;mcc_generated_files/ecan.c: 252:     if (TXB0CONbits.TXREQ != 1)
  3405   0016D6  010F               	movlb	15	; () banked
  3406   0016D8  B720               	btfsc	32,3,b	;volatile
  3407   0016DA  EF71  F00B         	goto	u1931
  3408   0016DE  EF73  F00B         	goto	u1930
  3409   0016E2                     u1931:
  3410   0016E2  EFDA  F00B         	goto	l425
  3411   0016E6                     u1930:
  3412   0016E6                     
  3413                           ; BSR set to: 15
  3414                           ;mcc_generated_files/ecan.c: 253:     {;mcc_generated_files/ecan.c: 254:         convert
      +                          CANid2Reg(tempCanMsg->frame.id, tempCanMsg->frame.idType, &tempEIDH, &tempEIDL, &tempSID
      +                          H, &tempSIDL);
  3415   0016E6  5011               	movf	CAN_transmit@tempCanMsg^0,w,c
  3416   0016E8  6ED9               	movwf	fsr2l,c
  3417   0016EA  6ADA               	clrf	fsr2h,c
  3418   0016EC  0E01               	movlw	1
  3419   0016EE  26D9               	addwf	fsr2l,f,c
  3420   0016F0  CFDE F003          	movff	postinc2,convertCANid2Reg@tempPassedInID
  3421   0016F4  CFDE F004          	movff	postinc2,convertCANid2Reg@tempPassedInID+1
  3422   0016F8  CFDE F005          	movff	postinc2,convertCANid2Reg@tempPassedInID+2
  3423   0016FC  CFDE F006          	movff	postinc2,convertCANid2Reg@tempPassedInID+3
  3424   001700  5011               	movf	CAN_transmit@tempCanMsg^0,w,c
  3425   001702  6ED9               	movwf	fsr2l,c
  3426   001704  6ADA               	clrf	fsr2h,c
  3427   001706  50DF               	movf	indf2,w,c
  3428   001708  6E07               	movwf	convertCANid2Reg@canIdType^0,c
  3429   00170A  0E12               	movlw	low CAN_transmit@tempEIDH
  3430   00170C  6E08               	movwf	convertCANid2Reg@passedInEIDH^0,c
  3431   00170E  0E13               	movlw	low CAN_transmit@tempEIDL
  3432   001710  6E09               	movwf	convertCANid2Reg@passedInEIDL^0,c
  3433   001712  0E14               	movlw	low CAN_transmit@tempSIDH
  3434   001714  6E0A               	movwf	convertCANid2Reg@passedInSIDH^0,c
  3435   001716  0E15               	movlw	low CAN_transmit@tempSIDL
  3436   001718  6E0B               	movwf	convertCANid2Reg@passedInSIDL^0,c
  3437   00171A  EC74  F00F         	call	_convertCANid2Reg	;wreg free
  3438   00171E                     
  3439                           ;mcc_generated_files/ecan.c: 256:         TXB0EIDH = tempEIDH;
  3440   00171E  C012  FF23         	movff	CAN_transmit@tempEIDH,3875	;volatile
  3441   001722                     
  3442                           ;mcc_generated_files/ecan.c: 257:         TXB0EIDL = tempEIDL;
  3443   001722  C013  FF24         	movff	CAN_transmit@tempEIDL,3876	;volatile
  3444   001726                     
  3445                           ;mcc_generated_files/ecan.c: 258:         TXB0SIDH = tempSIDH;
  3446   001726  C014  FF21         	movff	CAN_transmit@tempSIDH,3873	;volatile
  3447   00172A                     
  3448                           ;mcc_generated_files/ecan.c: 259:         TXB0SIDL = tempSIDL;
  3449   00172A  C015  FF22         	movff	CAN_transmit@tempSIDL,3874	;volatile
  3450   00172E                     
  3451                           ;mcc_generated_files/ecan.c: 260:         TXB0DLC = tempCanMsg->frame.dlc;
  3452   00172E  5011               	movf	CAN_transmit@tempCanMsg^0,w,c
  3453   001730  6ED9               	movwf	fsr2l,c
  3454   001732  6ADA               	clrf	fsr2h,c
  3455   001734  0E05               	movlw	5
  3456   001736  26D9               	addwf	fsr2l,f,c
  3457   001738  50DF               	movf	indf2,w,c
  3458   00173A  010F               	movlb	15	; () banked
  3459   00173C  6F25               	movwf	37,b	;volatile
  3460   00173E                     
  3461                           ; BSR set to: 15
  3462                           ;mcc_generated_files/ecan.c: 261:         TXB0D0 = tempCanMsg->frame.data0;
  3463   00173E  5011               	movf	CAN_transmit@tempCanMsg^0,w,c
  3464   001740  6ED9               	movwf	fsr2l,c
  3465   001742  6ADA               	clrf	fsr2h,c
  3466   001744  0E06               	movlw	6
  3467   001746  26D9               	addwf	fsr2l,f,c
  3468   001748  50DF               	movf	indf2,w,c
  3469   00174A  6F26               	movwf	38,b	;volatile
  3470   00174C                     
  3471                           ; BSR set to: 15
  3472                           ;mcc_generated_files/ecan.c: 262:         TXB0D1 = tempCanMsg->frame.data1;
  3473   00174C  5011               	movf	CAN_transmit@tempCanMsg^0,w,c
  3474   00174E  6ED9               	movwf	fsr2l,c
  3475   001750  6ADA               	clrf	fsr2h,c
  3476   001752  0E07               	movlw	7
  3477   001754  26D9               	addwf	fsr2l,f,c
  3478   001756  50DF               	movf	indf2,w,c
  3479   001758  6F27               	movwf	39,b	;volatile
  3480   00175A                     
  3481                           ; BSR set to: 15
  3482                           ;mcc_generated_files/ecan.c: 263:         TXB0D2 = tempCanMsg->frame.data2;
  3483   00175A  5011               	movf	CAN_transmit@tempCanMsg^0,w,c
  3484   00175C  6ED9               	movwf	fsr2l,c
  3485   00175E  6ADA               	clrf	fsr2h,c
  3486   001760  0E08               	movlw	8
  3487   001762  26D9               	addwf	fsr2l,f,c
  3488   001764  50DF               	movf	indf2,w,c
  3489   001766  6F28               	movwf	40,b	;volatile
  3490   001768                     
  3491                           ; BSR set to: 15
  3492                           ;mcc_generated_files/ecan.c: 264:         TXB0D3 = tempCanMsg->frame.data3;
  3493   001768  5011               	movf	CAN_transmit@tempCanMsg^0,w,c
  3494   00176A  6ED9               	movwf	fsr2l,c
  3495   00176C  6ADA               	clrf	fsr2h,c
  3496   00176E  0E09               	movlw	9
  3497   001770  26D9               	addwf	fsr2l,f,c
  3498   001772  50DF               	movf	indf2,w,c
  3499   001774  6F29               	movwf	41,b	;volatile
  3500   001776                     
  3501                           ; BSR set to: 15
  3502                           ;mcc_generated_files/ecan.c: 265:         TXB0D4 = tempCanMsg->frame.data4;
  3503   001776  5011               	movf	CAN_transmit@tempCanMsg^0,w,c
  3504   001778  6ED9               	movwf	fsr2l,c
  3505   00177A  6ADA               	clrf	fsr2h,c
  3506   00177C  0E0A               	movlw	10
  3507   00177E  26D9               	addwf	fsr2l,f,c
  3508   001780  50DF               	movf	indf2,w,c
  3509   001782  6F2A               	movwf	42,b	;volatile
  3510   001784                     
  3511                           ; BSR set to: 15
  3512                           ;mcc_generated_files/ecan.c: 266:         TXB0D5 = tempCanMsg->frame.data5;
  3513   001784  5011               	movf	CAN_transmit@tempCanMsg^0,w,c
  3514   001786  6ED9               	movwf	fsr2l,c
  3515   001788  6ADA               	clrf	fsr2h,c
  3516   00178A  0E0B               	movlw	11
  3517   00178C  26D9               	addwf	fsr2l,f,c
  3518   00178E  50DF               	movf	indf2,w,c
  3519   001790  6F2B               	movwf	43,b	;volatile
  3520   001792                     
  3521                           ; BSR set to: 15
  3522                           ;mcc_generated_files/ecan.c: 267:         TXB0D6 = tempCanMsg->frame.data6;
  3523   001792  5011               	movf	CAN_transmit@tempCanMsg^0,w,c
  3524   001794  6ED9               	movwf	fsr2l,c
  3525   001796  6ADA               	clrf	fsr2h,c
  3526   001798  0E0C               	movlw	12
  3527   00179A  26D9               	addwf	fsr2l,f,c
  3528   00179C  50DF               	movf	indf2,w,c
  3529   00179E  6F2C               	movwf	44,b	;volatile
  3530   0017A0                     
  3531                           ; BSR set to: 15
  3532                           ;mcc_generated_files/ecan.c: 268:         TXB0D7 = tempCanMsg->frame.data7;
  3533   0017A0  5011               	movf	CAN_transmit@tempCanMsg^0,w,c
  3534   0017A2  6ED9               	movwf	fsr2l,c
  3535   0017A4  6ADA               	clrf	fsr2h,c
  3536   0017A6  0E0D               	movlw	13
  3537   0017A8  26D9               	addwf	fsr2l,f,c
  3538   0017AA  50DF               	movf	indf2,w,c
  3539   0017AC  6F2D               	movwf	45,b	;volatile
  3540   0017AE                     
  3541                           ; BSR set to: 15
  3542                           ;mcc_generated_files/ecan.c: 270:         TXB0CONbits.TXREQ = 1;
  3543   0017AE  8720               	bsf	32,3,b	;volatile
  3544   0017B0                     l3148:
  3545                           
  3546                           ; BSR set to: 15
  3547                           ;mcc_generated_files/ecan.c: 273:     }
  3548   0017B0  EFB6  F00C         	goto	l430
  3549   0017B4                     l425:
  3550                           
  3551                           ; BSR set to: 15
  3552   0017B4  B710               	btfsc	16,3,b	;volatile
  3553   0017B6  EFDF  F00B         	goto	u1941
  3554   0017BA  EFE1  F00B         	goto	u1940
  3555   0017BE                     u1941:
  3556   0017BE  EF48  F00C         	goto	l427
  3557   0017C2                     u1940:
  3558   0017C2                     
  3559                           ; BSR set to: 15
  3560                           ;mcc_generated_files/ecan.c: 275:     {;mcc_generated_files/ecan.c: 277:         convert
      +                          CANid2Reg(tempCanMsg->frame.id, tempCanMsg->frame.idType, &tempEIDH, &tempEIDL, &tempSID
      +                          H, &tempSIDL);
  3561   0017C2  5011               	movf	CAN_transmit@tempCanMsg^0,w,c
  3562   0017C4  6ED9               	movwf	fsr2l,c
  3563   0017C6  6ADA               	clrf	fsr2h,c
  3564   0017C8  0E01               	movlw	1
  3565   0017CA  26D9               	addwf	fsr2l,f,c
  3566   0017CC  CFDE F003          	movff	postinc2,convertCANid2Reg@tempPassedInID
  3567   0017D0  CFDE F004          	movff	postinc2,convertCANid2Reg@tempPassedInID+1
  3568   0017D4  CFDE F005          	movff	postinc2,convertCANid2Reg@tempPassedInID+2
  3569   0017D8  CFDE F006          	movff	postinc2,convertCANid2Reg@tempPassedInID+3
  3570   0017DC  5011               	movf	CAN_transmit@tempCanMsg^0,w,c
  3571   0017DE  6ED9               	movwf	fsr2l,c
  3572   0017E0  6ADA               	clrf	fsr2h,c
  3573   0017E2  50DF               	movf	indf2,w,c
  3574   0017E4  6E07               	movwf	convertCANid2Reg@canIdType^0,c
  3575   0017E6  0E12               	movlw	low CAN_transmit@tempEIDH
  3576   0017E8  6E08               	movwf	convertCANid2Reg@passedInEIDH^0,c
  3577   0017EA  0E13               	movlw	low CAN_transmit@tempEIDL
  3578   0017EC  6E09               	movwf	convertCANid2Reg@passedInEIDL^0,c
  3579   0017EE  0E14               	movlw	low CAN_transmit@tempSIDH
  3580   0017F0  6E0A               	movwf	convertCANid2Reg@passedInSIDH^0,c
  3581   0017F2  0E15               	movlw	low CAN_transmit@tempSIDL
  3582   0017F4  6E0B               	movwf	convertCANid2Reg@passedInSIDL^0,c
  3583   0017F6  EC74  F00F         	call	_convertCANid2Reg	;wreg free
  3584   0017FA                     
  3585                           ;mcc_generated_files/ecan.c: 279:         TXB1EIDH = tempEIDH;
  3586   0017FA  C012  FF13         	movff	CAN_transmit@tempEIDH,3859	;volatile
  3587   0017FE                     
  3588                           ;mcc_generated_files/ecan.c: 280:         TXB1EIDL = tempEIDL;
  3589   0017FE  C013  FF14         	movff	CAN_transmit@tempEIDL,3860	;volatile
  3590   001802                     
  3591                           ;mcc_generated_files/ecan.c: 281:         TXB1SIDH = tempSIDH;
  3592   001802  C014  FF11         	movff	CAN_transmit@tempSIDH,3857	;volatile
  3593   001806                     
  3594                           ;mcc_generated_files/ecan.c: 282:         TXB1SIDL = tempSIDL;
  3595   001806  C015  FF12         	movff	CAN_transmit@tempSIDL,3858	;volatile
  3596   00180A                     
  3597                           ;mcc_generated_files/ecan.c: 283:         TXB1DLC = tempCanMsg->frame.dlc;
  3598   00180A  5011               	movf	CAN_transmit@tempCanMsg^0,w,c
  3599   00180C  6ED9               	movwf	fsr2l,c
  3600   00180E  6ADA               	clrf	fsr2h,c
  3601   001810  0E05               	movlw	5
  3602   001812  26D9               	addwf	fsr2l,f,c
  3603   001814  50DF               	movf	indf2,w,c
  3604   001816  010F               	movlb	15	; () banked
  3605   001818  6F15               	movwf	21,b	;volatile
  3606   00181A                     
  3607                           ; BSR set to: 15
  3608                           ;mcc_generated_files/ecan.c: 284:         TXB1D0 = tempCanMsg->frame.data0;
  3609   00181A  5011               	movf	CAN_transmit@tempCanMsg^0,w,c
  3610   00181C  6ED9               	movwf	fsr2l,c
  3611   00181E  6ADA               	clrf	fsr2h,c
  3612   001820  0E06               	movlw	6
  3613   001822  26D9               	addwf	fsr2l,f,c
  3614   001824  50DF               	movf	indf2,w,c
  3615   001826  6F16               	movwf	22,b	;volatile
  3616   001828                     
  3617                           ; BSR set to: 15
  3618                           ;mcc_generated_files/ecan.c: 285:         TXB1D1 = tempCanMsg->frame.data1;
  3619   001828  5011               	movf	CAN_transmit@tempCanMsg^0,w,c
  3620   00182A  6ED9               	movwf	fsr2l,c
  3621   00182C  6ADA               	clrf	fsr2h,c
  3622   00182E  0E07               	movlw	7
  3623   001830  26D9               	addwf	fsr2l,f,c
  3624   001832  50DF               	movf	indf2,w,c
  3625   001834  6F17               	movwf	23,b	;volatile
  3626   001836                     
  3627                           ; BSR set to: 15
  3628                           ;mcc_generated_files/ecan.c: 286:         TXB1D2 = tempCanMsg->frame.data2;
  3629   001836  5011               	movf	CAN_transmit@tempCanMsg^0,w,c
  3630   001838  6ED9               	movwf	fsr2l,c
  3631   00183A  6ADA               	clrf	fsr2h,c
  3632   00183C  0E08               	movlw	8
  3633   00183E  26D9               	addwf	fsr2l,f,c
  3634   001840  50DF               	movf	indf2,w,c
  3635   001842  6F18               	movwf	24,b	;volatile
  3636   001844                     
  3637                           ; BSR set to: 15
  3638                           ;mcc_generated_files/ecan.c: 287:         TXB1D3 = tempCanMsg->frame.data3;
  3639   001844  5011               	movf	CAN_transmit@tempCanMsg^0,w,c
  3640   001846  6ED9               	movwf	fsr2l,c
  3641   001848  6ADA               	clrf	fsr2h,c
  3642   00184A  0E09               	movlw	9
  3643   00184C  26D9               	addwf	fsr2l,f,c
  3644   00184E  50DF               	movf	indf2,w,c
  3645   001850  6F19               	movwf	25,b	;volatile
  3646   001852                     
  3647                           ; BSR set to: 15
  3648                           ;mcc_generated_files/ecan.c: 288:         TXB1D4 = tempCanMsg->frame.data4;
  3649   001852  5011               	movf	CAN_transmit@tempCanMsg^0,w,c
  3650   001854  6ED9               	movwf	fsr2l,c
  3651   001856  6ADA               	clrf	fsr2h,c
  3652   001858  0E0A               	movlw	10
  3653   00185A  26D9               	addwf	fsr2l,f,c
  3654   00185C  50DF               	movf	indf2,w,c
  3655   00185E  6F1A               	movwf	26,b	;volatile
  3656   001860                     
  3657                           ; BSR set to: 15
  3658                           ;mcc_generated_files/ecan.c: 289:         TXB1D5 = tempCanMsg->frame.data5;
  3659   001860  5011               	movf	CAN_transmit@tempCanMsg^0,w,c
  3660   001862  6ED9               	movwf	fsr2l,c
  3661   001864  6ADA               	clrf	fsr2h,c
  3662   001866  0E0B               	movlw	11
  3663   001868  26D9               	addwf	fsr2l,f,c
  3664   00186A  50DF               	movf	indf2,w,c
  3665   00186C  6F1B               	movwf	27,b	;volatile
  3666   00186E                     
  3667                           ; BSR set to: 15
  3668                           ;mcc_generated_files/ecan.c: 290:         TXB1D6 = tempCanMsg->frame.data6;
  3669   00186E  5011               	movf	CAN_transmit@tempCanMsg^0,w,c
  3670   001870  6ED9               	movwf	fsr2l,c
  3671   001872  6ADA               	clrf	fsr2h,c
  3672   001874  0E0C               	movlw	12
  3673   001876  26D9               	addwf	fsr2l,f,c
  3674   001878  50DF               	movf	indf2,w,c
  3675   00187A  6F1C               	movwf	28,b	;volatile
  3676   00187C                     
  3677                           ; BSR set to: 15
  3678                           ;mcc_generated_files/ecan.c: 291:         TXB1D7 = tempCanMsg->frame.data7;
  3679   00187C  5011               	movf	CAN_transmit@tempCanMsg^0,w,c
  3680   00187E  6ED9               	movwf	fsr2l,c
  3681   001880  6ADA               	clrf	fsr2h,c
  3682   001882  0E0D               	movlw	13
  3683   001884  26D9               	addwf	fsr2l,f,c
  3684   001886  50DF               	movf	indf2,w,c
  3685   001888  6F1D               	movwf	29,b	;volatile
  3686   00188A                     
  3687                           ; BSR set to: 15
  3688                           ;mcc_generated_files/ecan.c: 293:         TXB1CONbits.TXREQ = 1;
  3689   00188A  8710               	bsf	16,3,b	;volatile
  3690   00188C  EFD8  F00B         	goto	l3148
  3691   001890                     l427:
  3692                           
  3693                           ; BSR set to: 15
  3694   001890  B700               	btfsc	0,3,b	;volatile
  3695   001892  EF4D  F00C         	goto	u1951
  3696   001896  EF4F  F00C         	goto	u1950
  3697   00189A                     u1951:
  3698   00189A  EFB6  F00C         	goto	l426
  3699   00189E                     u1950:
  3700   00189E                     
  3701                           ; BSR set to: 15
  3702                           ;mcc_generated_files/ecan.c: 297:     {;mcc_generated_files/ecan.c: 299:         convert
      +                          CANid2Reg(tempCanMsg->frame.id, tempCanMsg->frame.idType, &tempEIDH, &tempEIDL, &tempSID
      +                          H, &tempSIDL);
  3703   00189E  5011               	movf	CAN_transmit@tempCanMsg^0,w,c
  3704   0018A0  6ED9               	movwf	fsr2l,c
  3705   0018A2  6ADA               	clrf	fsr2h,c
  3706   0018A4  0E01               	movlw	1
  3707   0018A6  26D9               	addwf	fsr2l,f,c
  3708   0018A8  CFDE F003          	movff	postinc2,convertCANid2Reg@tempPassedInID
  3709   0018AC  CFDE F004          	movff	postinc2,convertCANid2Reg@tempPassedInID+1
  3710   0018B0  CFDE F005          	movff	postinc2,convertCANid2Reg@tempPassedInID+2
  3711   0018B4  CFDE F006          	movff	postinc2,convertCANid2Reg@tempPassedInID+3
  3712   0018B8  5011               	movf	CAN_transmit@tempCanMsg^0,w,c
  3713   0018BA  6ED9               	movwf	fsr2l,c
  3714   0018BC  6ADA               	clrf	fsr2h,c
  3715   0018BE  50DF               	movf	indf2,w,c
  3716   0018C0  6E07               	movwf	convertCANid2Reg@canIdType^0,c
  3717   0018C2  0E12               	movlw	low CAN_transmit@tempEIDH
  3718   0018C4  6E08               	movwf	convertCANid2Reg@passedInEIDH^0,c
  3719   0018C6  0E13               	movlw	low CAN_transmit@tempEIDL
  3720   0018C8  6E09               	movwf	convertCANid2Reg@passedInEIDL^0,c
  3721   0018CA  0E14               	movlw	low CAN_transmit@tempSIDH
  3722   0018CC  6E0A               	movwf	convertCANid2Reg@passedInSIDH^0,c
  3723   0018CE  0E15               	movlw	low CAN_transmit@tempSIDL
  3724   0018D0  6E0B               	movwf	convertCANid2Reg@passedInSIDL^0,c
  3725   0018D2  EC74  F00F         	call	_convertCANid2Reg	;wreg free
  3726   0018D6                     
  3727                           ;mcc_generated_files/ecan.c: 301:         TXB2EIDH = tempEIDH;
  3728   0018D6  C012  FF03         	movff	CAN_transmit@tempEIDH,3843	;volatile
  3729   0018DA                     
  3730                           ;mcc_generated_files/ecan.c: 302:         TXB2EIDL = tempEIDL;
  3731   0018DA  C013  FF04         	movff	CAN_transmit@tempEIDL,3844	;volatile
  3732   0018DE                     
  3733                           ;mcc_generated_files/ecan.c: 303:         TXB2SIDH = tempSIDH;
  3734   0018DE  C014  FF01         	movff	CAN_transmit@tempSIDH,3841	;volatile
  3735   0018E2                     
  3736                           ;mcc_generated_files/ecan.c: 304:         TXB2SIDL = tempSIDL;
  3737   0018E2  C015  FF02         	movff	CAN_transmit@tempSIDL,3842	;volatile
  3738   0018E6                     
  3739                           ;mcc_generated_files/ecan.c: 305:         TXB2DLC = tempCanMsg->frame.dlc;
  3740   0018E6  5011               	movf	CAN_transmit@tempCanMsg^0,w,c
  3741   0018E8  6ED9               	movwf	fsr2l,c
  3742   0018EA  6ADA               	clrf	fsr2h,c
  3743   0018EC  0E05               	movlw	5
  3744   0018EE  26D9               	addwf	fsr2l,f,c
  3745   0018F0  50DF               	movf	indf2,w,c
  3746   0018F2  010F               	movlb	15	; () banked
  3747   0018F4  6F05               	movwf	5,b	;volatile
  3748   0018F6                     
  3749                           ; BSR set to: 15
  3750                           ;mcc_generated_files/ecan.c: 306:         TXB2D0 = tempCanMsg->frame.data0;
  3751   0018F6  5011               	movf	CAN_transmit@tempCanMsg^0,w,c
  3752   0018F8  6ED9               	movwf	fsr2l,c
  3753   0018FA  6ADA               	clrf	fsr2h,c
  3754   0018FC  0E06               	movlw	6
  3755   0018FE  26D9               	addwf	fsr2l,f,c
  3756   001900  50DF               	movf	indf2,w,c
  3757   001902  6F06               	movwf	6,b	;volatile
  3758   001904                     
  3759                           ; BSR set to: 15
  3760                           ;mcc_generated_files/ecan.c: 307:         TXB2D1 = tempCanMsg->frame.data1;
  3761   001904  5011               	movf	CAN_transmit@tempCanMsg^0,w,c
  3762   001906  6ED9               	movwf	fsr2l,c
  3763   001908  6ADA               	clrf	fsr2h,c
  3764   00190A  0E07               	movlw	7
  3765   00190C  26D9               	addwf	fsr2l,f,c
  3766   00190E  50DF               	movf	indf2,w,c
  3767   001910  6F07               	movwf	7,b	;volatile
  3768   001912                     
  3769                           ; BSR set to: 15
  3770                           ;mcc_generated_files/ecan.c: 308:         TXB2D2 = tempCanMsg->frame.data2;
  3771   001912  5011               	movf	CAN_transmit@tempCanMsg^0,w,c
  3772   001914  6ED9               	movwf	fsr2l,c
  3773   001916  6ADA               	clrf	fsr2h,c
  3774   001918  0E08               	movlw	8
  3775   00191A  26D9               	addwf	fsr2l,f,c
  3776   00191C  50DF               	movf	indf2,w,c
  3777   00191E  6F08               	movwf	8,b	;volatile
  3778   001920                     
  3779                           ; BSR set to: 15
  3780                           ;mcc_generated_files/ecan.c: 309:         TXB2D3 = tempCanMsg->frame.data3;
  3781   001920  5011               	movf	CAN_transmit@tempCanMsg^0,w,c
  3782   001922  6ED9               	movwf	fsr2l,c
  3783   001924  6ADA               	clrf	fsr2h,c
  3784   001926  0E09               	movlw	9
  3785   001928  26D9               	addwf	fsr2l,f,c
  3786   00192A  50DF               	movf	indf2,w,c
  3787   00192C  6F09               	movwf	9,b	;volatile
  3788   00192E                     
  3789                           ; BSR set to: 15
  3790                           ;mcc_generated_files/ecan.c: 310:         TXB2D4 = tempCanMsg->frame.data4;
  3791   00192E  5011               	movf	CAN_transmit@tempCanMsg^0,w,c
  3792   001930  6ED9               	movwf	fsr2l,c
  3793   001932  6ADA               	clrf	fsr2h,c
  3794   001934  0E0A               	movlw	10
  3795   001936  26D9               	addwf	fsr2l,f,c
  3796   001938  50DF               	movf	indf2,w,c
  3797   00193A  6F0A               	movwf	10,b	;volatile
  3798   00193C                     
  3799                           ; BSR set to: 15
  3800                           ;mcc_generated_files/ecan.c: 311:         TXB2D5 = tempCanMsg->frame.data5;
  3801   00193C  5011               	movf	CAN_transmit@tempCanMsg^0,w,c
  3802   00193E  6ED9               	movwf	fsr2l,c
  3803   001940  6ADA               	clrf	fsr2h,c
  3804   001942  0E0B               	movlw	11
  3805   001944  26D9               	addwf	fsr2l,f,c
  3806   001946  50DF               	movf	indf2,w,c
  3807   001948  6F0B               	movwf	11,b	;volatile
  3808   00194A                     
  3809                           ; BSR set to: 15
  3810                           ;mcc_generated_files/ecan.c: 312:         TXB2D6 = tempCanMsg->frame.data6;
  3811   00194A  5011               	movf	CAN_transmit@tempCanMsg^0,w,c
  3812   00194C  6ED9               	movwf	fsr2l,c
  3813   00194E  6ADA               	clrf	fsr2h,c
  3814   001950  0E0C               	movlw	12
  3815   001952  26D9               	addwf	fsr2l,f,c
  3816   001954  50DF               	movf	indf2,w,c
  3817   001956  6F0C               	movwf	12,b	;volatile
  3818   001958                     
  3819                           ; BSR set to: 15
  3820                           ;mcc_generated_files/ecan.c: 313:         TXB2D7 = tempCanMsg->frame.data7;
  3821   001958  5011               	movf	CAN_transmit@tempCanMsg^0,w,c
  3822   00195A  6ED9               	movwf	fsr2l,c
  3823   00195C  6ADA               	clrf	fsr2h,c
  3824   00195E  0E0D               	movlw	13
  3825   001960  26D9               	addwf	fsr2l,f,c
  3826   001962  50DF               	movf	indf2,w,c
  3827   001964  6F0D               	movwf	13,b	;volatile
  3828   001966                     
  3829                           ; BSR set to: 15
  3830                           ;mcc_generated_files/ecan.c: 315:         TXB2CONbits.TXREQ = 1;
  3831   001966  8700               	bsf	0,3,b	;volatile
  3832   001968  EFD8  F00B         	goto	l3148
  3833   00196C                     l426:
  3834   00196C                     l430:
  3835                           
  3836                           ; BSR set to: 15
  3837   00196C  0012               	return		;funcret
  3838   00196E                     __end_of_CAN_transmit:
  3839                           	callstack 0
  3840                           
  3841 ;; *************** function _convertCANid2Reg *****************
  3842 ;; Defined at:
  3843 ;;		line 471 in file "mcc_generated_files/ecan.c"
  3844 ;; Parameters:    Size  Location     Type
  3845 ;;  tempPassedIn    4    2[COMRAM] unsigned long 
  3846 ;;  canIdType       1    6[COMRAM] unsigned char 
  3847 ;;  passedInEIDH    1    7[COMRAM] PTR unsigned char 
  3848 ;;		 -> CAN_transmit@tempEIDH(1), 
  3849 ;;  passedInEIDL    1    8[COMRAM] PTR unsigned char 
  3850 ;;		 -> CAN_transmit@tempEIDL(1), 
  3851 ;;  passedInSIDH    1    9[COMRAM] PTR unsigned char 
  3852 ;;		 -> CAN_transmit@tempSIDH(1), 
  3853 ;;  passedInSIDL    1   10[COMRAM] PTR unsigned char 
  3854 ;;		 -> CAN_transmit@tempSIDL(1), 
  3855 ;; Auto vars:     Size  Location     Type
  3856 ;;  wipSIDL         1   15[COMRAM] unsigned char 
  3857 ;; Return value:  Size  Location     Type
  3858 ;;                  1    wreg      void 
  3859 ;; Registers used:
  3860 ;;		wreg, fsr2l, fsr2h, status,2, status,0
  3861 ;; Tracked objects:
  3862 ;;		On entry : 0/0
  3863 ;;		On exit  : 0/0
  3864 ;;		Unchanged: 0/0
  3865 ;; Data sizes:     COMRAM   BANK0   BANK1   BANK2   BANK3   BANK4   BANK5   BANK6   BANK7   BANK8   BANK9  BANK10  BANK1
      +1  BANK12  BANK13  BANK14
  3866 ;;      Params:         9       0       0       0       0       0       0       0       0       0       0       0       
      +0       0       0       0
  3867 ;;      Locals:         1       0       0       0       0       0       0       0       0       0       0       0       
      +0       0       0       0
  3868 ;;      Temps:          4       0       0       0       0       0       0       0       0       0       0       0       
      +0       0       0       0
  3869 ;;      Totals:        14       0       0       0       0       0       0       0       0       0       0       0       
      +0       0       0       0
  3870 ;;Total ram usage:       14 bytes
  3871 ;; Hardware stack levels used: 1
  3872 ;; Hardware stack levels required when called: 3
  3873 ;; This function calls:
  3874 ;;		Nothing
  3875 ;; This function is called by:
  3876 ;;		_CAN_transmit
  3877 ;; This function uses a non-reentrant model
  3878 ;;
  3879                           
  3880                           	psect	text21
  3881   001EE8                     __ptext21:
  3882                           	callstack 0
  3883   001EE8                     _convertCANid2Reg:
  3884                           	callstack 23
  3885   001EE8                     
  3886                           ;mcc_generated_files/ecan.c: 474:     if (canIdType == 2) {
  3887   001EE8  0E02               	movlw	2
  3888   001EEA  1807               	xorwf	convertCANid2Reg@canIdType^0,w,c
  3889   001EEC  A4D8               	btfss	status,2,c
  3890   001EEE  EF7B  F00F         	goto	u1901
  3891   001EF2  EF7D  F00F         	goto	u1900
  3892   001EF6                     u1901:
  3893   001EF6  EFFC  F00F         	goto	l3104
  3894   001EFA                     u1900:
  3895   001EFA                     
  3896                           ;mcc_generated_files/ecan.c: 477:         *passedInEIDL = 0xFF & tempPassedInID;
  3897   001EFA  5009               	movf	convertCANid2Reg@passedInEIDL^0,w,c
  3898   001EFC  6ED9               	movwf	fsr2l,c
  3899   001EFE  6ADA               	clrf	fsr2h,c
  3900   001F00  C003  FFDF         	movff	convertCANid2Reg@tempPassedInID,indf2
  3901   001F04                     
  3902                           ;mcc_generated_files/ecan.c: 478:         tempPassedInID = tempPassedInID >> 8;
  3903   001F04  C003  F00C         	movff	convertCANid2Reg@tempPassedInID,??_convertCANid2Reg
  3904   001F08  C004  F00D         	movff	convertCANid2Reg@tempPassedInID+1,??_convertCANid2Reg+1
  3905   001F0C  C005  F00E         	movff	convertCANid2Reg@tempPassedInID+2,??_convertCANid2Reg+2
  3906   001F10  C006  F00F         	movff	convertCANid2Reg@tempPassedInID+3,??_convertCANid2Reg+3
  3907   001F14  C00D  F00C         	movff	??_convertCANid2Reg+1,??_convertCANid2Reg
  3908   001F18  C00E  F00D         	movff	??_convertCANid2Reg+2,??_convertCANid2Reg+1
  3909   001F1C  C00F  F00E         	movff	??_convertCANid2Reg+3,??_convertCANid2Reg+2
  3910   001F20  6A0F               	clrf	(??_convertCANid2Reg+3)^0,c
  3911   001F22  C00C  F003         	movff	??_convertCANid2Reg,convertCANid2Reg@tempPassedInID
  3912   001F26  C00D  F004         	movff	??_convertCANid2Reg+1,convertCANid2Reg@tempPassedInID+1
  3913   001F2A  C00E  F005         	movff	??_convertCANid2Reg+2,convertCANid2Reg@tempPassedInID+2
  3914   001F2E  C00F  F006         	movff	??_convertCANid2Reg+3,convertCANid2Reg@tempPassedInID+3
  3915   001F32                     
  3916                           ;mcc_generated_files/ecan.c: 481:         *passedInEIDH = 0xFF & tempPassedInID;
  3917   001F32  5008               	movf	convertCANid2Reg@passedInEIDH^0,w,c
  3918   001F34  6ED9               	movwf	fsr2l,c
  3919   001F36  6ADA               	clrf	fsr2h,c
  3920   001F38  C003  FFDF         	movff	convertCANid2Reg@tempPassedInID,indf2
  3921                           
  3922                           ;mcc_generated_files/ecan.c: 482:         tempPassedInID = tempPassedInID >> 8;
  3923   001F3C  C003  F00C         	movff	convertCANid2Reg@tempPassedInID,??_convertCANid2Reg
  3924   001F40  C004  F00D         	movff	convertCANid2Reg@tempPassedInID+1,??_convertCANid2Reg+1
  3925   001F44  C005  F00E         	movff	convertCANid2Reg@tempPassedInID+2,??_convertCANid2Reg+2
  3926   001F48  C006  F00F         	movff	convertCANid2Reg@tempPassedInID+3,??_convertCANid2Reg+3
  3927   001F4C  C00D  F00C         	movff	??_convertCANid2Reg+1,??_convertCANid2Reg
  3928   001F50  C00E  F00D         	movff	??_convertCANid2Reg+2,??_convertCANid2Reg+1
  3929   001F54  C00F  F00E         	movff	??_convertCANid2Reg+3,??_convertCANid2Reg+2
  3930   001F58  6A0F               	clrf	(??_convertCANid2Reg+3)^0,c
  3931   001F5A  C00C  F003         	movff	??_convertCANid2Reg,convertCANid2Reg@tempPassedInID
  3932   001F5E  C00D  F004         	movff	??_convertCANid2Reg+1,convertCANid2Reg@tempPassedInID+1
  3933   001F62  C00E  F005         	movff	??_convertCANid2Reg+2,convertCANid2Reg@tempPassedInID+2
  3934   001F66  C00F  F006         	movff	??_convertCANid2Reg+3,convertCANid2Reg@tempPassedInID+3
  3935   001F6A                     
  3936                           ;mcc_generated_files/ecan.c: 486:         wipSIDL = 0x03 & tempPassedInID;
  3937   001F6A  5003               	movf	convertCANid2Reg@tempPassedInID^0,w,c
  3938   001F6C  0B03               	andlw	3
  3939   001F6E  6E10               	movwf	convertCANid2Reg@wipSIDL^0,c
  3940   001F70                     
  3941                           ;mcc_generated_files/ecan.c: 487:         tempPassedInID = tempPassedInID << 3;
  3942   001F70  C003  F00C         	movff	convertCANid2Reg@tempPassedInID,??_convertCANid2Reg
  3943   001F74  C004  F00D         	movff	convertCANid2Reg@tempPassedInID+1,??_convertCANid2Reg+1
  3944   001F78  C005  F00E         	movff	convertCANid2Reg@tempPassedInID+2,??_convertCANid2Reg+2
  3945   001F7C  C006  F00F         	movff	convertCANid2Reg@tempPassedInID+3,??_convertCANid2Reg+3
  3946   001F80  0E03               	movlw	3
  3947   001F82                     u1915:
  3948   001F82  90D8               	bcf	status,0,c
  3949   001F84  360C               	rlcf	??_convertCANid2Reg^0,f,c
  3950   001F86  360D               	rlcf	(??_convertCANid2Reg+1)^0,f,c
  3951   001F88  360E               	rlcf	(??_convertCANid2Reg+2)^0,f,c
  3952   001F8A  360F               	rlcf	(??_convertCANid2Reg+3)^0,f,c
  3953   001F8C  2EE8               	decfsz	wreg,f,c
  3954   001F8E  EFC1  F00F         	goto	u1915
  3955   001F92  C00C  F003         	movff	??_convertCANid2Reg,convertCANid2Reg@tempPassedInID
  3956   001F96  C00D  F004         	movff	??_convertCANid2Reg+1,convertCANid2Reg@tempPassedInID+1
  3957   001F9A  C00E  F005         	movff	??_convertCANid2Reg+2,convertCANid2Reg@tempPassedInID+2
  3958   001F9E  C00F  F006         	movff	??_convertCANid2Reg+3,convertCANid2Reg@tempPassedInID+3
  3959   001FA2                     
  3960                           ;mcc_generated_files/ecan.c: 488:         wipSIDL = (0xE0 & tempPassedInID) + wipSIDL;
  3961   001FA2  5003               	movf	convertCANid2Reg@tempPassedInID^0,w,c
  3962   001FA4  0BE0               	andlw	224
  3963   001FA6  2410               	addwf	convertCANid2Reg@wipSIDL^0,w,c
  3964   001FA8  6E10               	movwf	convertCANid2Reg@wipSIDL^0,c
  3965   001FAA                     
  3966                           ;mcc_generated_files/ecan.c: 489:         wipSIDL = (uint8_t)(wipSIDL + 0x08);
  3967   001FAA  5010               	movf	convertCANid2Reg@wipSIDL^0,w,c
  3968   001FAC  0F08               	addlw	8
  3969   001FAE  6E10               	movwf	convertCANid2Reg@wipSIDL^0,c
  3970   001FB0                     
  3971                           ;mcc_generated_files/ecan.c: 490:         *passedInSIDL = (uint8_t)(0xEB & wipSIDL);
  3972   001FB0  500B               	movf	convertCANid2Reg@passedInSIDL^0,w,c
  3973   001FB2  6ED9               	movwf	fsr2l,c
  3974   001FB4  6ADA               	clrf	fsr2h,c
  3975   001FB6  5010               	movf	convertCANid2Reg@wipSIDL^0,w,c
  3976   001FB8  0BEB               	andlw	235
  3977   001FBA  6EDF               	movwf	indf2,c
  3978   001FBC                     l3100:
  3979                           
  3980                           ;mcc_generated_files/ecan.c: 493:         tempPassedInID = tempPassedInID >> 8;
  3981   001FBC  C003  F00C         	movff	convertCANid2Reg@tempPassedInID,??_convertCANid2Reg
  3982   001FC0  C004  F00D         	movff	convertCANid2Reg@tempPassedInID+1,??_convertCANid2Reg+1
  3983   001FC4  C005  F00E         	movff	convertCANid2Reg@tempPassedInID+2,??_convertCANid2Reg+2
  3984   001FC8  C006  F00F         	movff	convertCANid2Reg@tempPassedInID+3,??_convertCANid2Reg+3
  3985   001FCC  C00D  F00C         	movff	??_convertCANid2Reg+1,??_convertCANid2Reg
  3986   001FD0  C00E  F00D         	movff	??_convertCANid2Reg+2,??_convertCANid2Reg+1
  3987   001FD4  C00F  F00E         	movff	??_convertCANid2Reg+3,??_convertCANid2Reg+2
  3988   001FD8  6A0F               	clrf	(??_convertCANid2Reg+3)^0,c
  3989   001FDA  C00C  F003         	movff	??_convertCANid2Reg,convertCANid2Reg@tempPassedInID
  3990   001FDE  C00D  F004         	movff	??_convertCANid2Reg+1,convertCANid2Reg@tempPassedInID+1
  3991   001FE2  C00E  F005         	movff	??_convertCANid2Reg+2,convertCANid2Reg@tempPassedInID+2
  3992   001FE6  C00F  F006         	movff	??_convertCANid2Reg+3,convertCANid2Reg@tempPassedInID+3
  3993   001FEA                     
  3994                           ;mcc_generated_files/ecan.c: 494:         *passedInSIDH = 0xFF & tempPassedInID;
  3995   001FEA  500A               	movf	convertCANid2Reg@passedInSIDH^0,w,c
  3996   001FEC  6ED9               	movwf	fsr2l,c
  3997   001FEE  6ADA               	clrf	fsr2h,c
  3998   001FF0  C003  FFDF         	movff	convertCANid2Reg@tempPassedInID,indf2
  3999                           
  4000                           ;mcc_generated_files/ecan.c: 495:     } else
  4001   001FF4  EF24  F010         	goto	l468
  4002   001FF8                     l3104:
  4003                           
  4004                           ;mcc_generated_files/ecan.c: 496:     {;mcc_generated_files/ecan.c: 497:         *passed
      +                          InEIDH = 0;
  4005   001FF8  5008               	movf	convertCANid2Reg@passedInEIDH^0,w,c
  4006   001FFA  6ED9               	movwf	fsr2l,c
  4007   001FFC  6ADA               	clrf	fsr2h,c
  4008   001FFE  6ADF               	clrf	indf2,c
  4009                           
  4010                           ;mcc_generated_files/ecan.c: 498:         *passedInEIDL = 0;
  4011   002000  5009               	movf	convertCANid2Reg@passedInEIDL^0,w,c
  4012   002002  6ED9               	movwf	fsr2l,c
  4013   002004  6ADA               	clrf	fsr2h,c
  4014   002006  6ADF               	clrf	indf2,c
  4015   002008                     
  4016                           ;mcc_generated_files/ecan.c: 499:         tempPassedInID = tempPassedInID << 5;
  4017   002008  C003  F00C         	movff	convertCANid2Reg@tempPassedInID,??_convertCANid2Reg
  4018   00200C  C004  F00D         	movff	convertCANid2Reg@tempPassedInID+1,??_convertCANid2Reg+1
  4019   002010  C005  F00E         	movff	convertCANid2Reg@tempPassedInID+2,??_convertCANid2Reg+2
  4020   002014  C006  F00F         	movff	convertCANid2Reg@tempPassedInID+3,??_convertCANid2Reg+3
  4021   002018  0E05               	movlw	5
  4022   00201A                     u1925:
  4023   00201A  90D8               	bcf	status,0,c
  4024   00201C  360C               	rlcf	??_convertCANid2Reg^0,f,c
  4025   00201E  360D               	rlcf	(??_convertCANid2Reg+1)^0,f,c
  4026   002020  360E               	rlcf	(??_convertCANid2Reg+2)^0,f,c
  4027   002022  360F               	rlcf	(??_convertCANid2Reg+3)^0,f,c
  4028   002024  2EE8               	decfsz	wreg,f,c
  4029   002026  EF0D  F010         	goto	u1925
  4030   00202A  C00C  F003         	movff	??_convertCANid2Reg,convertCANid2Reg@tempPassedInID
  4031   00202E  C00D  F004         	movff	??_convertCANid2Reg+1,convertCANid2Reg@tempPassedInID+1
  4032   002032  C00E  F005         	movff	??_convertCANid2Reg+2,convertCANid2Reg@tempPassedInID+2
  4033   002036  C00F  F006         	movff	??_convertCANid2Reg+3,convertCANid2Reg@tempPassedInID+3
  4034   00203A                     
  4035                           ;mcc_generated_files/ecan.c: 500:         *passedInSIDL = 0xFF & tempPassedInID;
  4036   00203A  500B               	movf	convertCANid2Reg@passedInSIDL^0,w,c
  4037   00203C  6ED9               	movwf	fsr2l,c
  4038   00203E  6ADA               	clrf	fsr2h,c
  4039   002040  C003  FFDF         	movff	convertCANid2Reg@tempPassedInID,indf2
  4040   002044  EFDE  F00F         	goto	l3100
  4041   002048                     l468:
  4042   002048  0012               	return		;funcret
  4043   00204A                     __end_of_convertCANid2Reg:
  4044                           	callstack 0
  4045                           
  4046 ;; *************** function _SYSTEM_Initialize *****************
  4047 ;; Defined at:
  4048 ;;		line 50 in file "mcc_generated_files/mcc.c"
  4049 ;; Parameters:    Size  Location     Type
  4050 ;;		None
  4051 ;; Auto vars:     Size  Location     Type
  4052 ;;		None
  4053 ;; Return value:  Size  Location     Type
  4054 ;;                  1    wreg      void 
  4055 ;; Registers used:
  4056 ;;		wreg, status,2, status,0, cstack
  4057 ;; Tracked objects:
  4058 ;;		On entry : 0/0
  4059 ;;		On exit  : 0/0
  4060 ;;		Unchanged: 0/0
  4061 ;; Data sizes:     COMRAM   BANK0   BANK1   BANK2   BANK3   BANK4   BANK5   BANK6   BANK7   BANK8   BANK9  BANK10  BANK1
      +1  BANK12  BANK13  BANK14
  4062 ;;      Params:         0       0       0       0       0       0       0       0       0       0       0       0       
      +0       0       0       0
  4063 ;;      Locals:         0       0       0       0       0       0       0       0       0       0       0       0       
      +0       0       0       0
  4064 ;;      Temps:          0       0       0       0       0       0       0       0       0       0       0       0       
      +0       0       0       0
  4065 ;;      Totals:         0       0       0       0       0       0       0       0       0       0       0       0       
      +0       0       0       0
  4066 ;;Total ram usage:        0 bytes
  4067 ;; Hardware stack levels used: 1
  4068 ;; Hardware stack levels required when called: 5
  4069 ;; This function calls:
  4070 ;;		_ADC_Initialize
  4071 ;;		_ECAN_Initialize
  4072 ;;		_INTERRUPT_Initialize
  4073 ;;		_OSCILLATOR_Initialize
  4074 ;;		_PIN_MANAGER_Initialize
  4075 ;; This function is called by:
  4076 ;;		_main
  4077 ;; This function uses a non-reentrant model
  4078 ;;
  4079                           
  4080                           	psect	text22
  4081   002790                     __ptext22:
  4082                           	callstack 0
  4083   002790                     _SYSTEM_Initialize:
  4084                           	callstack 25
  4085   002790                     
  4086                           ;mcc_generated_files/mcc.c: 53:     INTERRUPT_Initialize();
  4087   002790  EC05  F014         	call	_INTERRUPT_Initialize	;wreg free
  4088   002794                     
  4089                           ;mcc_generated_files/mcc.c: 54:     PIN_MANAGER_Initialize();
  4090   002794  EC17  F013         	call	_PIN_MANAGER_Initialize	;wreg free
  4091   002798                     
  4092                           ;mcc_generated_files/mcc.c: 55:     OSCILLATOR_Initialize();
  4093   002798  ECE7  F013         	call	_OSCILLATOR_Initialize	;wreg free
  4094   00279C                     
  4095                           ;mcc_generated_files/mcc.c: 56:     ADC_Initialize();
  4096   00279C  ECD3  F013         	call	_ADC_Initialize	;wreg free
  4097   0027A0                     
  4098                           ;mcc_generated_files/mcc.c: 57:     ECAN_Initialize();
  4099   0027A0  ECA1  F00E         	call	_ECAN_Initialize	;wreg free
  4100   0027A4  0012               	return		;funcret
  4101   0027A6                     __end_of_SYSTEM_Initialize:
  4102                           	callstack 0
  4103                           
  4104 ;; *************** function _PIN_MANAGER_Initialize *****************
  4105 ;; Defined at:
  4106 ;;		line 55 in file "mcc_generated_files/pin_manager.c"
  4107 ;; Parameters:    Size  Location     Type
  4108 ;;		None
  4109 ;; Auto vars:     Size  Location     Type
  4110 ;;		None
  4111 ;; Return value:  Size  Location     Type
  4112 ;;                  1    wreg      void 
  4113 ;; Registers used:
  4114 ;;		wreg, status,2
  4115 ;; Tracked objects:
  4116 ;;		On entry : 0/0
  4117 ;;		On exit  : 0/0
  4118 ;;		Unchanged: 0/0
  4119 ;; Data sizes:     COMRAM   BANK0   BANK1   BANK2   BANK3   BANK4   BANK5   BANK6   BANK7   BANK8   BANK9  BANK10  BANK1
      +1  BANK12  BANK13  BANK14
  4120 ;;      Params:         0       0       0       0       0       0       0       0       0       0       0       0       
      +0       0       0       0
  4121 ;;      Locals:         0       0       0       0       0       0       0       0       0       0       0       0       
      +0       0       0       0
  4122 ;;      Temps:          0       0       0       0       0       0       0       0       0       0       0       0       
      +0       0       0       0
  4123 ;;      Totals:         0       0       0       0       0       0       0       0       0       0       0       0       
      +0       0       0       0
  4124 ;;Total ram usage:        0 bytes
  4125 ;; Hardware stack levels used: 1
  4126 ;; Hardware stack levels required when called: 3
  4127 ;; This function calls:
  4128 ;;		Nothing
  4129 ;; This function is called by:
  4130 ;;		_SYSTEM_Initialize
  4131 ;; This function uses a non-reentrant model
  4132 ;;
  4133                           
  4134                           	psect	text23
  4135   00262E                     __ptext23:
  4136                           	callstack 0
  4137   00262E                     _PIN_MANAGER_Initialize:
  4138                           	callstack 26
  4139   00262E                     
  4140                           ;mcc_generated_files/pin_manager.c: 60:     LATE = 0x00;
  4141   00262E  0E00               	movlw	0
  4142   002630  6E8D               	movwf	141,c	;volatile
  4143                           
  4144                           ;mcc_generated_files/pin_manager.c: 61:     LATD = 0x00;
  4145   002632  0E00               	movlw	0
  4146   002634  6E8C               	movwf	140,c	;volatile
  4147                           
  4148                           ;mcc_generated_files/pin_manager.c: 62:     LATA = 0x00;
  4149   002636  0E00               	movlw	0
  4150   002638  6E89               	movwf	137,c	;volatile
  4151                           
  4152                           ;mcc_generated_files/pin_manager.c: 63:     LATB = 0x00;
  4153   00263A  0E00               	movlw	0
  4154   00263C  6E8A               	movwf	138,c	;volatile
  4155                           
  4156                           ;mcc_generated_files/pin_manager.c: 64:     LATC = 0x00;
  4157   00263E  0E00               	movlw	0
  4158   002640  6E8B               	movwf	139,c	;volatile
  4159                           
  4160                           ;mcc_generated_files/pin_manager.c: 69:     TRISE = 0x07;
  4161   002642  0E07               	movlw	7
  4162   002644  6E96               	movwf	150,c	;volatile
  4163                           
  4164                           ;mcc_generated_files/pin_manager.c: 70:     TRISA = 0xE3;
  4165   002646  0EE3               	movlw	227
  4166   002648  6E92               	movwf	146,c	;volatile
  4167                           
  4168                           ;mcc_generated_files/pin_manager.c: 71:     TRISB = 0xFB;
  4169   00264A  0EFB               	movlw	251
  4170   00264C  6E93               	movwf	147,c	;volatile
  4171                           
  4172                           ;mcc_generated_files/pin_manager.c: 72:     TRISC = 0xB8;
  4173   00264E  0EB8               	movlw	184
  4174   002650  6E94               	movwf	148,c	;volatile
  4175   002652                     
  4176                           ;mcc_generated_files/pin_manager.c: 73:     TRISD = 0xFF;
  4177   002652  6895               	setf	149,c	;volatile
  4178                           
  4179                           ;mcc_generated_files/pin_manager.c: 78:     ANCON0 = 0xAF;
  4180   002654  0EAF               	movlw	175
  4181   002656  010F               	movlb	15	; () banked
  4182   002658  6F5D               	movwf	93,b	;volatile
  4183                           
  4184                           ;mcc_generated_files/pin_manager.c: 79:     ANCON1 = 0x7F;
  4185   00265A  0E7F               	movlw	127
  4186   00265C  6F5C               	movwf	92,b	;volatile
  4187                           
  4188                           ;mcc_generated_files/pin_manager.c: 84:     WPUB = 0x00;
  4189   00265E  0E00               	movlw	0
  4190   002660  6F5B               	movwf	91,b	;volatile
  4191   002662                     
  4192                           ; BSR set to: 15
  4193                           ;mcc_generated_files/pin_manager.c: 85:     INTCON2bits.nRBPU = 1;
  4194   002662  8EF1               	bsf	241,7,c	;volatile
  4195   002664                     
  4196                           ; BSR set to: 15
  4197   002664  0012               	return		;funcret
  4198   002666                     __end_of_PIN_MANAGER_Initialize:
  4199                           	callstack 0
  4200                           
  4201 ;; *************** function _OSCILLATOR_Initialize *****************
  4202 ;; Defined at:
  4203 ;;		line 60 in file "mcc_generated_files/mcc.c"
  4204 ;; Parameters:    Size  Location     Type
  4205 ;;		None
  4206 ;; Auto vars:     Size  Location     Type
  4207 ;;		None
  4208 ;; Return value:  Size  Location     Type
  4209 ;;                  1    wreg      void 
  4210 ;; Registers used:
  4211 ;;		wreg, status,2
  4212 ;; Tracked objects:
  4213 ;;		On entry : 0/0
  4214 ;;		On exit  : 0/0
  4215 ;;		Unchanged: 0/0
  4216 ;; Data sizes:     COMRAM   BANK0   BANK1   BANK2   BANK3   BANK4   BANK5   BANK6   BANK7   BANK8   BANK9  BANK10  BANK1
      +1  BANK12  BANK13  BANK14
  4217 ;;      Params:         0       0       0       0       0       0       0       0       0       0       0       0       
      +0       0       0       0
  4218 ;;      Locals:         0       0       0       0       0       0       0       0       0       0       0       0       
      +0       0       0       0
  4219 ;;      Temps:          0       0       0       0       0       0       0       0       0       0       0       0       
      +0       0       0       0
  4220 ;;      Totals:         0       0       0       0       0       0       0       0       0       0       0       0       
      +0       0       0       0
  4221 ;;Total ram usage:        0 bytes
  4222 ;; Hardware stack levels used: 1
  4223 ;; Hardware stack levels required when called: 3
  4224 ;; This function calls:
  4225 ;;		Nothing
  4226 ;; This function is called by:
  4227 ;;		_SYSTEM_Initialize
  4228 ;; This function uses a non-reentrant model
  4229 ;;
  4230                           
  4231                           	psect	text24
  4232   0027CE                     __ptext24:
  4233                           	callstack 0
  4234   0027CE                     _OSCILLATOR_Initialize:
  4235                           	callstack 26
  4236   0027CE                     
  4237                           ;mcc_generated_files/mcc.c: 63:     OSCCON = 0x60;
  4238   0027CE  0E60               	movlw	96
  4239   0027D0  6ED3               	movwf	211,c	;volatile
  4240                           
  4241                           ;mcc_generated_files/mcc.c: 65:     OSCCON2 = 0x00;
  4242   0027D2  0E00               	movlw	0
  4243   0027D4  6ED2               	movwf	210,c	;volatile
  4244                           
  4245                           ;mcc_generated_files/mcc.c: 67:     OSCTUNE = 0x00;
  4246   0027D6  0E00               	movlw	0
  4247   0027D8  6E9B               	movwf	155,c	;volatile
  4248                           
  4249                           ;mcc_generated_files/mcc.c: 69:     REFOCON = 0x00;
  4250   0027DA  0E00               	movlw	0
  4251   0027DC  6E9A               	movwf	154,c	;volatile
  4252   0027DE  0012               	return		;funcret
  4253   0027E0                     __end_of_OSCILLATOR_Initialize:
  4254                           	callstack 0
  4255                           
  4256 ;; *************** function _INTERRUPT_Initialize *****************
  4257 ;; Defined at:
  4258 ;;		line 52 in file "mcc_generated_files/interrupt_manager.c"
  4259 ;; Parameters:    Size  Location     Type
  4260 ;;		None
  4261 ;; Auto vars:     Size  Location     Type
  4262 ;;		None
  4263 ;; Return value:  Size  Location     Type
  4264 ;;                  1    wreg      void 
  4265 ;; Registers used:
  4266 ;;		None
  4267 ;; Tracked objects:
  4268 ;;		On entry : 0/0
  4269 ;;		On exit  : 0/0
  4270 ;;		Unchanged: 0/0
  4271 ;; Data sizes:     COMRAM   BANK0   BANK1   BANK2   BANK3   BANK4   BANK5   BANK6   BANK7   BANK8   BANK9  BANK10  BANK1
      +1  BANK12  BANK13  BANK14
  4272 ;;      Params:         0       0       0       0       0       0       0       0       0       0       0       0       
      +0       0       0       0
  4273 ;;      Locals:         0       0       0       0       0       0       0       0       0       0       0       0       
      +0       0       0       0
  4274 ;;      Temps:          0       0       0       0       0       0       0       0       0       0       0       0       
      +0       0       0       0
  4275 ;;      Totals:         0       0       0       0       0       0       0       0       0       0       0       0       
      +0       0       0       0
  4276 ;;Total ram usage:        0 bytes
  4277 ;; Hardware stack levels used: 1
  4278 ;; Hardware stack levels required when called: 3
  4279 ;; This function calls:
  4280 ;;		Nothing
  4281 ;; This function is called by:
  4282 ;;		_SYSTEM_Initialize
  4283 ;; This function uses a non-reentrant model
  4284 ;;
  4285                           
  4286                           	psect	text25
  4287   00280A                     __ptext25:
  4288                           	callstack 0
  4289   00280A                     _INTERRUPT_Initialize:
  4290                           	callstack 26
  4291   00280A                     
  4292                           ;mcc_generated_files/interrupt_manager.c: 55:     RCONbits.IPEN = 0;
  4293   00280A  9ED0               	bcf	208,7,c	;volatile
  4294   00280C  0012               	return		;funcret
  4295   00280E                     __end_of_INTERRUPT_Initialize:
  4296                           	callstack 0
  4297                           
  4298 ;; *************** function _ECAN_Initialize *****************
  4299 ;; Defined at:
  4300 ;;		line 65 in file "mcc_generated_files/ecan.c"
  4301 ;; Parameters:    Size  Location     Type
  4302 ;;		None
  4303 ;; Auto vars:     Size  Location     Type
  4304 ;;		None
  4305 ;; Return value:  Size  Location     Type
  4306 ;;                  1    wreg      void 
  4307 ;; Registers used:
  4308 ;;		wreg, status,2, status,0, cstack
  4309 ;; Tracked objects:
  4310 ;;		On entry : 0/0
  4311 ;;		On exit  : 0/0
  4312 ;;		Unchanged: 0/0
  4313 ;; Data sizes:     COMRAM   BANK0   BANK1   BANK2   BANK3   BANK4   BANK5   BANK6   BANK7   BANK8   BANK9  BANK10  BANK1
      +1  BANK12  BANK13  BANK14
  4314 ;;      Params:         0       0       0       0       0       0       0       0       0       0       0       0       
      +0       0       0       0
  4315 ;;      Locals:         0       0       0       0       0       0       0       0       0       0       0       0       
      +0       0       0       0
  4316 ;;      Temps:          1       0       0       0       0       0       0       0       0       0       0       0       
      +0       0       0       0
  4317 ;;      Totals:         1       0       0       0       0       0       0       0       0       0       0       0       
      +0       0       0       0
  4318 ;;Total ram usage:        1 bytes
  4319 ;; Hardware stack levels used: 1
  4320 ;; Hardware stack levels required when called: 4
  4321 ;; This function calls:
  4322 ;;		_ECAN_SetWakeUpInterruptHandler
  4323 ;; This function is called by:
  4324 ;;		_SYSTEM_Initialize
  4325 ;; This function uses a non-reentrant model
  4326 ;;
  4327                           
  4328                           	psect	text26
  4329   001D42                     __ptext26:
  4330                           	callstack 0
  4331   001D42                     _ECAN_Initialize:
  4332                           	callstack 25
  4333   001D42                     
  4334                           ;mcc_generated_files/ecan.c: 67:     CANCON = 0x80;
  4335   001D42  0E80               	movlw	128
  4336   001D44  6E6F               	movwf	111,c	;volatile
  4337   001D46                     l3622:
  4338   001D46  506E               	movf	110,w,c	;volatile
  4339   001D48  0BE0               	andlw	224
  4340   001D4A  0A80               	xorlw	128
  4341   001D4C  A4D8               	btfss	status,2,c
  4342   001D4E  EFAB  F00E         	goto	u2601
  4343   001D52  EFAD  F00E         	goto	u2600
  4344   001D56                     u2601:
  4345   001D56  EFA3  F00E         	goto	l3622
  4346   001D5A                     u2600:
  4347   001D5A                     
  4348                           ;mcc_generated_files/ecan.c: 73:     ECANCON = 0x40;
  4349   001D5A  0E40               	movlw	64
  4350   001D5C  6E72               	movwf	114,c	;volatile
  4351                           
  4352                           ;mcc_generated_files/ecan.c: 78:     CIOCON = 0x20;
  4353   001D5E  0E20               	movlw	32
  4354   001D60  6E70               	movwf	112,c	;volatile
  4355                           
  4356                           ;mcc_generated_files/ecan.c: 100:     BSEL0 = 0x00;
  4357   001D62  0E00               	movlw	0
  4358   001D64  010E               	movlb	14	; () banked
  4359   001D66  6F7D               	movwf	125,b	;volatile
  4360   001D68                     
  4361                           ; BSR set to: 14
  4362                           ;mcc_generated_files/ecan.c: 105:     RXM0EIDH = 0xFF;
  4363   001D68  69FA               	setf	250,b	;volatile
  4364   001D6A                     
  4365                           ; BSR set to: 14
  4366                           ;mcc_generated_files/ecan.c: 106:     RXM0EIDL = 0xFF;
  4367   001D6A  69FB               	setf	251,b	;volatile
  4368                           
  4369                           ;mcc_generated_files/ecan.c: 107:     RXM0SIDH = 0x01;
  4370   001D6C  0E01               	movlw	1
  4371   001D6E  6FF8               	movwf	248,b	;volatile
  4372                           
  4373                           ;mcc_generated_files/ecan.c: 108:     RXM0SIDL = 0xC3;
  4374   001D70  0EC3               	movlw	195
  4375   001D72  6FF9               	movwf	249,b	;volatile
  4376   001D74                     
  4377                           ; BSR set to: 14
  4378                           ;mcc_generated_files/ecan.c: 109:     RXM1EIDH = 0xFF;
  4379   001D74  69FE               	setf	254,b	;volatile
  4380   001D76                     
  4381                           ; BSR set to: 14
  4382                           ;mcc_generated_files/ecan.c: 110:     RXM1EIDL = 0xFF;
  4383   001D76  69FF               	setf	255,b	;volatile
  4384   001D78                     
  4385                           ; BSR set to: 14
  4386                           ;mcc_generated_files/ecan.c: 111:     RXM1SIDH = 0xFF;
  4387   001D78  69FC               	setf	252,b	;volatile
  4388                           
  4389                           ;mcc_generated_files/ecan.c: 112:     RXM1SIDL = 0xE3;
  4390   001D7A  0EE3               	movlw	227
  4391   001D7C  6FFD               	movwf	253,b	;volatile
  4392                           
  4393                           ;mcc_generated_files/ecan.c: 117:     RXFCON0 = 0x01;
  4394   001D7E  0E01               	movlw	1
  4395   001D80  6F46               	movwf	70,b	;volatile
  4396                           
  4397                           ;mcc_generated_files/ecan.c: 118:     RXFCON1 = 0x00;
  4398   001D82  0E00               	movlw	0
  4399   001D84  6F47               	movwf	71,b	;volatile
  4400                           
  4401                           ;mcc_generated_files/ecan.c: 122:     MSEL0 = 0x00;
  4402   001D86  0E00               	movlw	0
  4403   001D88  6F79               	movwf	121,b	;volatile
  4404                           
  4405                           ;mcc_generated_files/ecan.c: 123:     MSEL1 = 0x00;
  4406   001D8A  0E00               	movlw	0
  4407   001D8C  6F7A               	movwf	122,b	;volatile
  4408                           
  4409                           ;mcc_generated_files/ecan.c: 124:     MSEL2 = 0x00;
  4410   001D8E  0E00               	movlw	0
  4411   001D90  6F7B               	movwf	123,b	;volatile
  4412                           
  4413                           ;mcc_generated_files/ecan.c: 125:     MSEL3 = 0x00;
  4414   001D92  0E00               	movlw	0
  4415   001D94  6F7C               	movwf	124,b	;volatile
  4416                           
  4417                           ;mcc_generated_files/ecan.c: 130:     RXFBCON0 = 0x00;
  4418   001D96  0E00               	movlw	0
  4419   001D98  6F71               	movwf	113,b	;volatile
  4420                           
  4421                           ;mcc_generated_files/ecan.c: 131:     RXFBCON1 = 0x00;
  4422   001D9A  0E00               	movlw	0
  4423   001D9C  6F72               	movwf	114,b	;volatile
  4424                           
  4425                           ;mcc_generated_files/ecan.c: 132:     RXFBCON2 = 0x00;
  4426   001D9E  0E00               	movlw	0
  4427   001DA0  6F73               	movwf	115,b	;volatile
  4428                           
  4429                           ;mcc_generated_files/ecan.c: 133:     RXFBCON3 = 0x00;
  4430   001DA2  0E00               	movlw	0
  4431   001DA4  6F74               	movwf	116,b	;volatile
  4432                           
  4433                           ;mcc_generated_files/ecan.c: 134:     RXFBCON4 = 0x00;
  4434   001DA6  0E00               	movlw	0
  4435   001DA8  6F75               	movwf	117,b	;volatile
  4436                           
  4437                           ;mcc_generated_files/ecan.c: 135:     RXFBCON5 = 0x00;
  4438   001DAA  0E00               	movlw	0
  4439   001DAC  6F76               	movwf	118,b	;volatile
  4440                           
  4441                           ;mcc_generated_files/ecan.c: 136:     RXFBCON6 = 0x00;
  4442   001DAE  0E00               	movlw	0
  4443   001DB0  6F77               	movwf	119,b	;volatile
  4444                           
  4445                           ;mcc_generated_files/ecan.c: 137:     RXFBCON7 = 0x00;
  4446   001DB2  0E00               	movlw	0
  4447   001DB4  6F78               	movwf	120,b	;volatile
  4448                           
  4449                           ;mcc_generated_files/ecan.c: 142:     RXF0EIDH = 0x02;
  4450   001DB6  0E02               	movlw	2
  4451   001DB8  6FE2               	movwf	226,b	;volatile
  4452                           
  4453                           ;mcc_generated_files/ecan.c: 143:     RXF0EIDL = 0x25;
  4454   001DBA  0E25               	movlw	37
  4455   001DBC  6FE3               	movwf	227,b	;volatile
  4456                           
  4457                           ;mcc_generated_files/ecan.c: 144:     RXF0SIDH = 0x44;
  4458   001DBE  0E44               	movlw	68
  4459   001DC0  6FE0               	movwf	224,b	;volatile
  4460                           
  4461                           ;mcc_generated_files/ecan.c: 145:     RXF0SIDL = 0xA9;
  4462   001DC2  0EA9               	movlw	169
  4463   001DC4  6FE1               	movwf	225,b	;volatile
  4464                           
  4465                           ;mcc_generated_files/ecan.c: 146:     RXF1EIDH = 0x00;
  4466   001DC6  0E00               	movlw	0
  4467   001DC8  6FE6               	movwf	230,b	;volatile
  4468                           
  4469                           ;mcc_generated_files/ecan.c: 147:     RXF1EIDL = 0x00;
  4470   001DCA  0E00               	movlw	0
  4471   001DCC  6FE7               	movwf	231,b	;volatile
  4472                           
  4473                           ;mcc_generated_files/ecan.c: 148:     RXF1SIDH = 0x00;
  4474   001DCE  0E00               	movlw	0
  4475   001DD0  6FE4               	movwf	228,b	;volatile
  4476                           
  4477                           ;mcc_generated_files/ecan.c: 149:     RXF1SIDL = 0x00;
  4478   001DD2  0E00               	movlw	0
  4479   001DD4  6FE5               	movwf	229,b	;volatile
  4480                           
  4481                           ;mcc_generated_files/ecan.c: 150:     RXF2EIDH = 0x00;
  4482   001DD6  0E00               	movlw	0
  4483   001DD8  6FEA               	movwf	234,b	;volatile
  4484                           
  4485                           ;mcc_generated_files/ecan.c: 151:     RXF2EIDL = 0x00;
  4486   001DDA  0E00               	movlw	0
  4487   001DDC  6FEB               	movwf	235,b	;volatile
  4488                           
  4489                           ;mcc_generated_files/ecan.c: 152:     RXF2SIDH = 0x00;
  4490   001DDE  0E00               	movlw	0
  4491   001DE0  6FE8               	movwf	232,b	;volatile
  4492                           
  4493                           ;mcc_generated_files/ecan.c: 153:     RXF2SIDL = 0x00;
  4494   001DE2  0E00               	movlw	0
  4495   001DE4  6FE9               	movwf	233,b	;volatile
  4496                           
  4497                           ;mcc_generated_files/ecan.c: 154:     RXF3EIDH = 0x00;
  4498   001DE6  0E00               	movlw	0
  4499   001DE8  6FEE               	movwf	238,b	;volatile
  4500                           
  4501                           ;mcc_generated_files/ecan.c: 155:     RXF3EIDL = 0x00;
  4502   001DEA  0E00               	movlw	0
  4503   001DEC  6FEF               	movwf	239,b	;volatile
  4504                           
  4505                           ;mcc_generated_files/ecan.c: 156:     RXF3SIDH = 0x00;
  4506   001DEE  0E00               	movlw	0
  4507   001DF0  6FEC               	movwf	236,b	;volatile
  4508                           
  4509                           ;mcc_generated_files/ecan.c: 157:     RXF3SIDL = 0x00;
  4510   001DF2  0E00               	movlw	0
  4511   001DF4  6FED               	movwf	237,b	;volatile
  4512                           
  4513                           ;mcc_generated_files/ecan.c: 158:     RXF4EIDH = 0x00;
  4514   001DF6  0E00               	movlw	0
  4515   001DF8  6FF2               	movwf	242,b	;volatile
  4516                           
  4517                           ;mcc_generated_files/ecan.c: 159:     RXF4EIDL = 0x00;
  4518   001DFA  0E00               	movlw	0
  4519   001DFC  6FF3               	movwf	243,b	;volatile
  4520                           
  4521                           ;mcc_generated_files/ecan.c: 160:     RXF4SIDH = 0x00;
  4522   001DFE  0E00               	movlw	0
  4523   001E00  6FF0               	movwf	240,b	;volatile
  4524                           
  4525                           ;mcc_generated_files/ecan.c: 161:     RXF4SIDL = 0x00;
  4526   001E02  0E00               	movlw	0
  4527   001E04  6FF1               	movwf	241,b	;volatile
  4528                           
  4529                           ;mcc_generated_files/ecan.c: 162:     RXF5EIDH = 0x00;
  4530   001E06  0E00               	movlw	0
  4531   001E08  6FF6               	movwf	246,b	;volatile
  4532                           
  4533                           ;mcc_generated_files/ecan.c: 163:     RXF5EIDL = 0x00;
  4534   001E0A  0E00               	movlw	0
  4535   001E0C  6FF7               	movwf	247,b	;volatile
  4536                           
  4537                           ;mcc_generated_files/ecan.c: 164:     RXF5SIDH = 0x00;
  4538   001E0E  0E00               	movlw	0
  4539   001E10  6FF4               	movwf	244,b	;volatile
  4540                           
  4541                           ;mcc_generated_files/ecan.c: 165:     RXF5SIDL = 0x00;
  4542   001E12  0E00               	movlw	0
  4543   001E14  6FF5               	movwf	245,b	;volatile
  4544                           
  4545                           ;mcc_generated_files/ecan.c: 167:     RXF6EIDH = 0x00;
  4546   001E16  0E00               	movlw	0
  4547   001E18  6F4A               	movwf	74,b	;volatile
  4548                           
  4549                           ;mcc_generated_files/ecan.c: 168:     RXF6EIDL = 0x00;
  4550   001E1A  0E00               	movlw	0
  4551   001E1C  6F4B               	movwf	75,b	;volatile
  4552                           
  4553                           ;mcc_generated_files/ecan.c: 169:     RXF6SIDH = 0x00;
  4554   001E1E  0E00               	movlw	0
  4555   001E20  6F48               	movwf	72,b	;volatile
  4556                           
  4557                           ;mcc_generated_files/ecan.c: 170:     RXF6SIDL = 0x00;
  4558   001E22  0E00               	movlw	0
  4559   001E24  6F49               	movwf	73,b	;volatile
  4560                           
  4561                           ;mcc_generated_files/ecan.c: 171:     RXF7EIDH = 0x00;
  4562   001E26  0E00               	movlw	0
  4563   001E28  6F4E               	movwf	78,b	;volatile
  4564                           
  4565                           ;mcc_generated_files/ecan.c: 172:     RXF7EIDL = 0x00;
  4566   001E2A  0E00               	movlw	0
  4567   001E2C  6F4F               	movwf	79,b	;volatile
  4568                           
  4569                           ;mcc_generated_files/ecan.c: 173:     RXF7SIDH = 0x00;
  4570   001E2E  0E00               	movlw	0
  4571   001E30  6F4C               	movwf	76,b	;volatile
  4572                           
  4573                           ;mcc_generated_files/ecan.c: 174:     RXF7SIDL = 0x00;
  4574   001E32  0E00               	movlw	0
  4575   001E34  6F4D               	movwf	77,b	;volatile
  4576                           
  4577                           ;mcc_generated_files/ecan.c: 175:     RXF8EIDH = 0x00;
  4578   001E36  0E00               	movlw	0
  4579   001E38  6F52               	movwf	82,b	;volatile
  4580                           
  4581                           ;mcc_generated_files/ecan.c: 176:     RXF8EIDL = 0x00;
  4582   001E3A  0E00               	movlw	0
  4583   001E3C  6F53               	movwf	83,b	;volatile
  4584                           
  4585                           ;mcc_generated_files/ecan.c: 177:     RXF8SIDH = 0x00;
  4586   001E3E  0E00               	movlw	0
  4587   001E40  6F50               	movwf	80,b	;volatile
  4588                           
  4589                           ;mcc_generated_files/ecan.c: 178:     RXF8SIDL = 0x00;
  4590   001E42  0E00               	movlw	0
  4591   001E44  6F51               	movwf	81,b	;volatile
  4592                           
  4593                           ;mcc_generated_files/ecan.c: 179:     RXF9EIDH = 0x00;
  4594   001E46  0E00               	movlw	0
  4595   001E48  6F56               	movwf	86,b	;volatile
  4596                           
  4597                           ;mcc_generated_files/ecan.c: 180:     RXF9EIDL = 0x00;
  4598   001E4A  0E00               	movlw	0
  4599   001E4C  6F57               	movwf	87,b	;volatile
  4600                           
  4601                           ;mcc_generated_files/ecan.c: 181:     RXF9SIDH = 0x00;
  4602   001E4E  0E00               	movlw	0
  4603   001E50  6F54               	movwf	84,b	;volatile
  4604                           
  4605                           ;mcc_generated_files/ecan.c: 182:     RXF9SIDL = 0x00;
  4606   001E52  0E00               	movlw	0
  4607   001E54  6F55               	movwf	85,b	;volatile
  4608                           
  4609                           ;mcc_generated_files/ecan.c: 183:     RXF10EIDH = 0x00;
  4610   001E56  0E00               	movlw	0
  4611   001E58  6F5A               	movwf	90,b	;volatile
  4612                           
  4613                           ;mcc_generated_files/ecan.c: 184:     RXF10EIDL = 0x00;
  4614   001E5A  0E00               	movlw	0
  4615   001E5C  6F5B               	movwf	91,b	;volatile
  4616                           
  4617                           ;mcc_generated_files/ecan.c: 185:     RXF10SIDH = 0x00;
  4618   001E5E  0E00               	movlw	0
  4619   001E60  6F58               	movwf	88,b	;volatile
  4620                           
  4621                           ;mcc_generated_files/ecan.c: 186:     RXF10SIDL = 0x00;
  4622   001E62  0E00               	movlw	0
  4623   001E64  6F59               	movwf	89,b	;volatile
  4624                           
  4625                           ;mcc_generated_files/ecan.c: 187:     RXF11EIDH = 0x00;
  4626   001E66  0E00               	movlw	0
  4627   001E68  6F5E               	movwf	94,b	;volatile
  4628                           
  4629                           ;mcc_generated_files/ecan.c: 188:     RXF11EIDL = 0x00;
  4630   001E6A  0E00               	movlw	0
  4631   001E6C  6F5F               	movwf	95,b	;volatile
  4632                           
  4633                           ;mcc_generated_files/ecan.c: 189:     RXF11SIDH = 0x00;
  4634   001E6E  0E00               	movlw	0
  4635   001E70  6F5C               	movwf	92,b	;volatile
  4636                           
  4637                           ;mcc_generated_files/ecan.c: 190:     RXF11SIDL = 0x00;
  4638   001E72  0E00               	movlw	0
  4639   001E74  6F5D               	movwf	93,b	;volatile
  4640                           
  4641                           ;mcc_generated_files/ecan.c: 191:     RXF12EIDH = 0x00;
  4642   001E76  0E00               	movlw	0
  4643   001E78  6F62               	movwf	98,b	;volatile
  4644                           
  4645                           ;mcc_generated_files/ecan.c: 192:     RXF12EIDL = 0x00;
  4646   001E7A  0E00               	movlw	0
  4647   001E7C  6F63               	movwf	99,b	;volatile
  4648                           
  4649                           ;mcc_generated_files/ecan.c: 193:     RXF12SIDH = 0x00;
  4650   001E7E  0E00               	movlw	0
  4651   001E80  6F60               	movwf	96,b	;volatile
  4652                           
  4653                           ;mcc_generated_files/ecan.c: 194:     RXF12SIDL = 0x00;
  4654   001E82  0E00               	movlw	0
  4655   001E84  6F61               	movwf	97,b	;volatile
  4656                           
  4657                           ;mcc_generated_files/ecan.c: 195:     RXF13EIDH = 0x00;
  4658   001E86  0E00               	movlw	0
  4659   001E88  6F66               	movwf	102,b	;volatile
  4660                           
  4661                           ;mcc_generated_files/ecan.c: 196:     RXF13EIDL = 0x00;
  4662   001E8A  0E00               	movlw	0
  4663   001E8C  6F67               	movwf	103,b	;volatile
  4664                           
  4665                           ;mcc_generated_files/ecan.c: 197:     RXF13SIDH = 0x00;
  4666   001E8E  0E00               	movlw	0
  4667   001E90  6F64               	movwf	100,b	;volatile
  4668                           
  4669                           ;mcc_generated_files/ecan.c: 198:     RXF13SIDL = 0x00;
  4670   001E92  0E00               	movlw	0
  4671   001E94  6F65               	movwf	101,b	;volatile
  4672                           
  4673                           ;mcc_generated_files/ecan.c: 199:     RXF14EIDH = 0x00;
  4674   001E96  0E00               	movlw	0
  4675   001E98  6F6A               	movwf	106,b	;volatile
  4676                           
  4677                           ;mcc_generated_files/ecan.c: 200:     RXF14EIDL = 0x00;
  4678   001E9A  0E00               	movlw	0
  4679   001E9C  6F6B               	movwf	107,b	;volatile
  4680                           
  4681                           ;mcc_generated_files/ecan.c: 201:     RXF14SIDH = 0x00;
  4682   001E9E  0E00               	movlw	0
  4683   001EA0  6F68               	movwf	104,b	;volatile
  4684                           
  4685                           ;mcc_generated_files/ecan.c: 202:     RXF14SIDL = 0x00;
  4686   001EA2  0E00               	movlw	0
  4687   001EA4  6F69               	movwf	105,b	;volatile
  4688   001EA6                     
  4689                           ; BSR set to: 14
  4690                           ;mcc_generated_files/ecan.c: 203:     RXF15EIDH = 0xFF;
  4691   001EA6  696E               	setf	110,b	;volatile
  4692   001EA8                     
  4693                           ; BSR set to: 14
  4694                           ;mcc_generated_files/ecan.c: 204:     RXF15EIDL = 0xFF;
  4695   001EA8  696F               	setf	111,b	;volatile
  4696   001EAA                     
  4697                           ; BSR set to: 14
  4698                           ;mcc_generated_files/ecan.c: 205:     RXF15SIDH = 0xFF;
  4699   001EAA  696C               	setf	108,b	;volatile
  4700                           
  4701                           ;mcc_generated_files/ecan.c: 206:     RXF15SIDL = 0xE3;
  4702   001EAC  0EE3               	movlw	227
  4703   001EAE  6F6D               	movwf	109,b	;volatile
  4704                           
  4705                           ;mcc_generated_files/ecan.c: 221:     BRGCON1 = 0x03;
  4706   001EB0  0E03               	movlw	3
  4707   001EB2  6F43               	movwf	67,b	;volatile
  4708                           
  4709                           ;mcc_generated_files/ecan.c: 222:     BRGCON2 = 0xA8;
  4710   001EB4  0EA8               	movlw	168
  4711   001EB6  6F44               	movwf	68,b	;volatile
  4712                           
  4713                           ;mcc_generated_files/ecan.c: 223:     BRGCON3 = 0x01;
  4714   001EB8  0E01               	movlw	1
  4715   001EBA  6F45               	movwf	69,b	;volatile
  4716   001EBC                     
  4717                           ; BSR set to: 14
  4718                           ;mcc_generated_files/ecan.c: 225:     ECAN_SetWakeUpInterruptHandler(WakeUpDefaultInterr
      +                          uptHandler);
  4719   001EBC  0E0E               	movlw	low _WakeUpDefaultInterruptHandler
  4720   001EBE  6E03               	movwf	ECAN_SetWakeUpInterruptHandler@handler^0,c
  4721   001EC0  0E28               	movlw	high _WakeUpDefaultInterruptHandler
  4722   001EC2  6E04               	movwf	(ECAN_SetWakeUpInterruptHandler@handler+1)^0,c
  4723   001EC4  ECFE  F013         	call	_ECAN_SetWakeUpInterruptHandler	;wreg free
  4724   001EC8                     
  4725                           ;mcc_generated_files/ecan.c: 226:     PIR5bits.WAKIF = 0;
  4726   001EC8  9C77               	bcf	119,6,c	;volatile
  4727   001ECA                     
  4728                           ;mcc_generated_files/ecan.c: 227:     PIE5bits.WAKIE = 1;
  4729   001ECA  8C76               	bsf	118,6,c	;volatile
  4730   001ECC                     
  4731                           ;mcc_generated_files/ecan.c: 229:     CANCON = 0x00;
  4732   001ECC  0E00               	movlw	0
  4733   001ECE  6E6F               	movwf	111,c	;volatile
  4734   001ED0                     l3650:
  4735   001ED0  CF6E F005          	movff	3950,??_ECAN_Initialize	;volatile
  4736   001ED4  0EE0               	movlw	224
  4737   001ED6  1605               	andwf	??_ECAN_Initialize^0,f,c
  4738   001ED8  A4D8               	btfss	status,2,c
  4739   001EDA  EF71  F00F         	goto	u2611
  4740   001EDE  EF73  F00F         	goto	u2610
  4741   001EE2                     u2611:
  4742   001EE2  EF68  F00F         	goto	l3650
  4743   001EE6                     u2610:
  4744   001EE6  0012               	return		;funcret
  4745   001EE8                     __end_of_ECAN_Initialize:
  4746                           	callstack 0
  4747                           
  4748 ;; *************** function _ECAN_SetWakeUpInterruptHandler *****************
  4749 ;; Defined at:
  4750 ;;		line 506 in file "mcc_generated_files/ecan.c"
  4751 ;; Parameters:    Size  Location     Type
  4752 ;;  handler         2    2[COMRAM] PTR FTN()void 
  4753 ;;		 -> WakeUpDefaultInterruptHandler(1), 
  4754 ;; Auto vars:     Size  Location     Type
  4755 ;;		None
  4756 ;; Return value:  Size  Location     Type
  4757 ;;                  1    wreg      void 
  4758 ;; Registers used:
  4759 ;;		wreg, status,2, status,0
  4760 ;; Tracked objects:
  4761 ;;		On entry : 0/0
  4762 ;;		On exit  : 0/0
  4763 ;;		Unchanged: 0/0
  4764 ;; Data sizes:     COMRAM   BANK0   BANK1   BANK2   BANK3   BANK4   BANK5   BANK6   BANK7   BANK8   BANK9  BANK10  BANK1
      +1  BANK12  BANK13  BANK14
  4765 ;;      Params:         2       0       0       0       0       0       0       0       0       0       0       0       
      +0       0       0       0
  4766 ;;      Locals:         0       0       0       0       0       0       0       0       0       0       0       0       
      +0       0       0       0
  4767 ;;      Temps:          0       0       0       0       0       0       0       0       0       0       0       0       
      +0       0       0       0
  4768 ;;      Totals:         2       0       0       0       0       0       0       0       0       0       0       0       
      +0       0       0       0
  4769 ;;Total ram usage:        2 bytes
  4770 ;; Hardware stack levels used: 1
  4771 ;; Hardware stack levels required when called: 3
  4772 ;; This function calls:
  4773 ;;		Nothing
  4774 ;; This function is called by:
  4775 ;;		_ECAN_Initialize
  4776 ;; This function uses a non-reentrant model
  4777 ;;
  4778                           
  4779                           	psect	text27
  4780   0027FC                     __ptext27:
  4781                           	callstack 0
  4782   0027FC                     _ECAN_SetWakeUpInterruptHandler:
  4783                           	callstack 25
  4784   0027FC                     
  4785                           ;mcc_generated_files/ecan.c: 506: void ECAN_SetWakeUpInterruptHandler(void (*handler)(vo
      +                          id));mcc_generated_files/ecan.c: 507: {;mcc_generated_files/ecan.c: 508:     WakeUpInter
      +                          ruptHandler = handler;
  4786   0027FC  C003  F05A         	movff	ECAN_SetWakeUpInterruptHandler@handler,_WakeUpInterruptHandler
  4787   002800  C004  F05B         	movff	ECAN_SetWakeUpInterruptHandler@handler+1,_WakeUpInterruptHandler+1
  4788   002804  0012               	return		;funcret
  4789   002806                     __end_of_ECAN_SetWakeUpInterruptHandler:
  4790                           	callstack 0
  4791                           
  4792 ;; *************** function _ADC_Initialize *****************
  4793 ;; Defined at:
  4794 ;;		line 62 in file "mcc_generated_files/adc.c"
  4795 ;; Parameters:    Size  Location     Type
  4796 ;;		None
  4797 ;; Auto vars:     Size  Location     Type
  4798 ;;		None
  4799 ;; Return value:  Size  Location     Type
  4800 ;;                  1    wreg      void 
  4801 ;; Registers used:
  4802 ;;		wreg, status,2
  4803 ;; Tracked objects:
  4804 ;;		On entry : 0/0
  4805 ;;		On exit  : 0/0
  4806 ;;		Unchanged: 0/0
  4807 ;; Data sizes:     COMRAM   BANK0   BANK1   BANK2   BANK3   BANK4   BANK5   BANK6   BANK7   BANK8   BANK9  BANK10  BANK1
      +1  BANK12  BANK13  BANK14
  4808 ;;      Params:         0       0       0       0       0       0       0       0       0       0       0       0       
      +0       0       0       0
  4809 ;;      Locals:         0       0       0       0       0       0       0       0       0       0       0       0       
      +0       0       0       0
  4810 ;;      Temps:          0       0       0       0       0       0       0       0       0       0       0       0       
      +0       0       0       0
  4811 ;;      Totals:         0       0       0       0       0       0       0       0       0       0       0       0       
      +0       0       0       0
  4812 ;;Total ram usage:        0 bytes
  4813 ;; Hardware stack levels used: 1
  4814 ;; Hardware stack levels required when called: 3
  4815 ;; This function calls:
  4816 ;;		Nothing
  4817 ;; This function is called by:
  4818 ;;		_SYSTEM_Initialize
  4819 ;; This function uses a non-reentrant model
  4820 ;;
  4821                           
  4822                           	psect	text28
  4823   0027A6                     __ptext28:
  4824                           	callstack 0
  4825   0027A6                     _ADC_Initialize:
  4826                           	callstack 26
  4827   0027A6                     
  4828                           ;mcc_generated_files/adc.c: 67:     ADCON0 = 0x01;
  4829   0027A6  0E01               	movlw	1
  4830   0027A8  6EC2               	movwf	194,c	;volatile
  4831                           
  4832                           ;mcc_generated_files/adc.c: 70:     ADCON1 = 0x00;
  4833   0027AA  0E00               	movlw	0
  4834   0027AC  6EC1               	movwf	193,c	;volatile
  4835                           
  4836                           ;mcc_generated_files/adc.c: 73:     ADCON2 = 0x8A;
  4837   0027AE  0E8A               	movlw	138
  4838   0027B0  6EC0               	movwf	192,c	;volatile
  4839                           
  4840                           ;mcc_generated_files/adc.c: 76:     ADRESH = 0x00;
  4841   0027B2  0E00               	movlw	0
  4842   0027B4  6EC4               	movwf	196,c	;volatile
  4843                           
  4844                           ;mcc_generated_files/adc.c: 79:     ADRESL = 0x00;
  4845   0027B6  0E00               	movlw	0
  4846   0027B8  6EC3               	movwf	195,c	;volatile
  4847   0027BA  0012               	return		;funcret
  4848   0027BC                     __end_of_ADC_Initialize:
  4849                           	callstack 0
  4850                           
  4851 ;; *************** function _CAN_receive *****************
  4852 ;; Defined at:
  4853 ;;		line 321 in file "mcc_generated_files/ecan.c"
  4854 ;; Parameters:    Size  Location     Type
  4855 ;;  tempCanMsg      1   21[COMRAM] PTR struct .
  4856 ;;		 -> rx(14), 
  4857 ;; Auto vars:     Size  Location     Type
  4858 ;;  returnValue     1   22[COMRAM] unsigned char 
  4859 ;; Return value:  Size  Location     Type
  4860 ;;                  1    wreg      unsigned char 
  4861 ;; Registers used:
  4862 ;;		wreg, fsr2l, fsr2h, status,2, status,0, cstack
  4863 ;; Tracked objects:
  4864 ;;		On entry : 0/0
  4865 ;;		On exit  : 0/0
  4866 ;;		Unchanged: 0/0
  4867 ;; Data sizes:     COMRAM   BANK0   BANK1   BANK2   BANK3   BANK4   BANK5   BANK6   BANK7   BANK8   BANK9  BANK10  BANK1
      +1  BANK12  BANK13  BANK14
  4868 ;;      Params:         1       0       0       0       0       0       0       0       0       0       0       0       
      +0       0       0       0
  4869 ;;      Locals:         1       0       0       0       0       0       0       0       0       0       0       0       
      +0       0       0       0
  4870 ;;      Temps:          0       0       0       0       0       0       0       0       0       0       0       0       
      +0       0       0       0
  4871 ;;      Totals:         2       0       0       0       0       0       0       0       0       0       0       0       
      +0       0       0       0
  4872 ;;Total ram usage:        2 bytes
  4873 ;; Hardware stack levels used: 1
  4874 ;; Hardware stack levels required when called: 4
  4875 ;; This function calls:
  4876 ;;		_convertReg2ExtendedCANid
  4877 ;;		_convertReg2StandardCANid
  4878 ;; This function is called by:
  4879 ;;		_main
  4880 ;; This function uses a non-reentrant model
  4881 ;;
  4882                           
  4883                           	psect	text29
  4884   00196E                     __ptext29:
  4885                           	callstack 0
  4886   00196E                     _CAN_receive:
  4887                           	callstack 26
  4888   00196E                     
  4889                           ;mcc_generated_files/ecan.c: 321: uint8_t CAN_receive(uCAN_MSG *tempCanMsg);mcc_generate
      +                          d_files/ecan.c: 322: {;mcc_generated_files/ecan.c: 323:     uint8_t returnValue = 0;
  4890   00196E  0E00               	movlw	0
  4891   001970  6E17               	movwf	CAN_receive@returnValue^0,c
  4892   001972                     
  4893                           ;mcc_generated_files/ecan.c: 326:     if (RXB0CONbits.RXFUL != 0)
  4894   001972  AE60               	btfss	96,7,c	;volatile
  4895   001974  EFBE  F00C         	goto	u2661
  4896   001978  EFC0  F00C         	goto	u2660
  4897   00197C                     u2661:
  4898   00197C  EF3F  F00D         	goto	l433
  4899   001980                     u2660:
  4900   001980                     
  4901                           ;mcc_generated_files/ecan.c: 327:     {;mcc_generated_files/ecan.c: 328:         if ((RX
      +                          B0SIDL & 0x08) == 0x08)
  4902   001980  A662               	btfss	98,3,c	;volatile
  4903   001982  EFC5  F00C         	goto	u2671
  4904   001986  EFC7  F00C         	goto	u2670
  4905   00198A                     u2671:
  4906   00198A  EFE4  F00C         	goto	l3774
  4907   00198E                     u2670:
  4908   00198E                     
  4909                           ;mcc_generated_files/ecan.c: 329:         {;mcc_generated_files/ecan.c: 331:            
      +                           tempCanMsg->frame.idType = (uint8_t) 2;
  4910   00198E  5016               	movf	CAN_receive@tempCanMsg^0,w,c
  4911   001990  6ED9               	movwf	fsr2l,c
  4912   001992  6ADA               	clrf	fsr2h,c
  4913   001994  0E02               	movlw	2
  4914   001996  6EDF               	movwf	indf2,c
  4915   001998                     
  4916                           ;mcc_generated_files/ecan.c: 332:             tempCanMsg->frame.id = convertReg2Extended
      +                          CANid(RXB0EIDH, RXB0EIDL, RXB0SIDH, RXB0SIDL);
  4917   001998  CF64 F003          	movff	3940,convertReg2ExtendedCANid@tempRXBn_EIDL	;volatile
  4918   00199C  CF61 F004          	movff	3937,convertReg2ExtendedCANid@tempRXBn_SIDH	;volatile
  4919   0019A0  CF62 F005          	movff	3938,convertReg2ExtendedCANid@tempRXBn_SIDL	;volatile
  4920   0019A4  5063               	movf	99,w,c	;volatile
  4921   0019A6  EC25  F010         	call	_convertReg2ExtendedCANid
  4922   0019AA  5016               	movf	CAN_receive@tempCanMsg^0,w,c
  4923   0019AC  6ED9               	movwf	fsr2l,c
  4924   0019AE  6ADA               	clrf	fsr2h,c
  4925   0019B0  0E01               	movlw	1
  4926   0019B2  26D9               	addwf	fsr2l,f,c
  4927   0019B4  C003  FFDE         	movff	?_convertReg2ExtendedCANid,postinc2
  4928   0019B8  C004  FFDE         	movff	?_convertReg2ExtendedCANid+1,postinc2
  4929   0019BC  C005  FFDE         	movff	?_convertReg2ExtendedCANid+2,postinc2
  4930   0019C0  C006  FFDE         	movff	?_convertReg2ExtendedCANid+3,postinc2
  4931                           
  4932                           ;mcc_generated_files/ecan.c: 333:         }
  4933   0019C4  EFFB  F00C         	goto	l3778
  4934   0019C8                     l3774:
  4935                           
  4936                           ;mcc_generated_files/ecan.c: 335:         {;mcc_generated_files/ecan.c: 337:            
      +                           tempCanMsg->frame.idType = (uint8_t) 1;
  4937   0019C8  5016               	movf	CAN_receive@tempCanMsg^0,w,c
  4938   0019CA  6ED9               	movwf	fsr2l,c
  4939   0019CC  6ADA               	clrf	fsr2h,c
  4940   0019CE  0E01               	movlw	1
  4941   0019D0  6EDF               	movwf	indf2,c
  4942   0019D2                     
  4943                           ;mcc_generated_files/ecan.c: 338:             tempCanMsg->frame.id = convertReg2Standard
      +                          CANid(RXB0SIDH, RXB0SIDL);
  4944   0019D2  CF62 F003          	movff	3938,convertReg2StandardCANid@tempRXBn_SIDL	;volatile
  4945   0019D6  5061               	movf	97,w,c	;volatile
  4946   0019D8  ECBA  F012         	call	_convertReg2StandardCANid
  4947   0019DC  5016               	movf	CAN_receive@tempCanMsg^0,w,c
  4948   0019DE  6ED9               	movwf	fsr2l,c
  4949   0019E0  6ADA               	clrf	fsr2h,c
  4950   0019E2  0E01               	movlw	1
  4951   0019E4  26D9               	addwf	fsr2l,f,c
  4952   0019E6  C003  FFDE         	movff	?_convertReg2StandardCANid,postinc2
  4953   0019EA  C004  FFDE         	movff	?_convertReg2StandardCANid+1,postinc2
  4954   0019EE  C005  FFDE         	movff	?_convertReg2StandardCANid+2,postinc2
  4955   0019F2  C006  FFDE         	movff	?_convertReg2StandardCANid+3,postinc2
  4956   0019F6                     l3778:
  4957                           
  4958                           ;mcc_generated_files/ecan.c: 341:         tempCanMsg->frame.dlc = RXB0DLC;
  4959   0019F6  5016               	movf	CAN_receive@tempCanMsg^0,w,c
  4960   0019F8  6ED9               	movwf	fsr2l,c
  4961   0019FA  6ADA               	clrf	fsr2h,c
  4962   0019FC  0E05               	movlw	5
  4963   0019FE  26D9               	addwf	fsr2l,f,c
  4964   001A00  CF65 FFDF          	movff	3941,indf2	;volatile
  4965   001A04                     
  4966                           ;mcc_generated_files/ecan.c: 342:         tempCanMsg->frame.data0 = RXB0D0;
  4967   001A04  5016               	movf	CAN_receive@tempCanMsg^0,w,c
  4968   001A06  6ED9               	movwf	fsr2l,c
  4969   001A08  6ADA               	clrf	fsr2h,c
  4970   001A0A  0E06               	movlw	6
  4971   001A0C  26D9               	addwf	fsr2l,f,c
  4972   001A0E  CF66 FFDF          	movff	3942,indf2	;volatile
  4973   001A12                     
  4974                           ;mcc_generated_files/ecan.c: 343:         tempCanMsg->frame.data1 = RXB0D1;
  4975   001A12  5016               	movf	CAN_receive@tempCanMsg^0,w,c
  4976   001A14  6ED9               	movwf	fsr2l,c
  4977   001A16  6ADA               	clrf	fsr2h,c
  4978   001A18  0E07               	movlw	7
  4979   001A1A  26D9               	addwf	fsr2l,f,c
  4980   001A1C  CF67 FFDF          	movff	3943,indf2	;volatile
  4981   001A20                     
  4982                           ;mcc_generated_files/ecan.c: 344:         tempCanMsg->frame.data2 = RXB0D2;
  4983   001A20  5016               	movf	CAN_receive@tempCanMsg^0,w,c
  4984   001A22  6ED9               	movwf	fsr2l,c
  4985   001A24  6ADA               	clrf	fsr2h,c
  4986   001A26  0E08               	movlw	8
  4987   001A28  26D9               	addwf	fsr2l,f,c
  4988   001A2A  CF68 FFDF          	movff	3944,indf2	;volatile
  4989   001A2E                     
  4990                           ;mcc_generated_files/ecan.c: 345:         tempCanMsg->frame.data3 = RXB0D3;
  4991   001A2E  5016               	movf	CAN_receive@tempCanMsg^0,w,c
  4992   001A30  6ED9               	movwf	fsr2l,c
  4993   001A32  6ADA               	clrf	fsr2h,c
  4994   001A34  0E09               	movlw	9
  4995   001A36  26D9               	addwf	fsr2l,f,c
  4996   001A38  CF69 FFDF          	movff	3945,indf2	;volatile
  4997   001A3C                     
  4998                           ;mcc_generated_files/ecan.c: 346:         tempCanMsg->frame.data4 = RXB0D4;
  4999   001A3C  5016               	movf	CAN_receive@tempCanMsg^0,w,c
  5000   001A3E  6ED9               	movwf	fsr2l,c
  5001   001A40  6ADA               	clrf	fsr2h,c
  5002   001A42  0E0A               	movlw	10
  5003   001A44  26D9               	addwf	fsr2l,f,c
  5004   001A46  CF6A FFDF          	movff	3946,indf2	;volatile
  5005   001A4A                     
  5006                           ;mcc_generated_files/ecan.c: 347:         tempCanMsg->frame.data5 = RXB0D5;
  5007   001A4A  5016               	movf	CAN_receive@tempCanMsg^0,w,c
  5008   001A4C  6ED9               	movwf	fsr2l,c
  5009   001A4E  6ADA               	clrf	fsr2h,c
  5010   001A50  0E0B               	movlw	11
  5011   001A52  26D9               	addwf	fsr2l,f,c
  5012   001A54  CF6B FFDF          	movff	3947,indf2	;volatile
  5013   001A58                     
  5014                           ;mcc_generated_files/ecan.c: 348:         tempCanMsg->frame.data6 = RXB0D6;
  5015   001A58  5016               	movf	CAN_receive@tempCanMsg^0,w,c
  5016   001A5A  6ED9               	movwf	fsr2l,c
  5017   001A5C  6ADA               	clrf	fsr2h,c
  5018   001A5E  0E0C               	movlw	12
  5019   001A60  26D9               	addwf	fsr2l,f,c
  5020   001A62  CF6C FFDF          	movff	3948,indf2	;volatile
  5021   001A66                     
  5022                           ;mcc_generated_files/ecan.c: 349:         tempCanMsg->frame.data7 = RXB0D7;
  5023   001A66  5016               	movf	CAN_receive@tempCanMsg^0,w,c
  5024   001A68  6ED9               	movwf	fsr2l,c
  5025   001A6A  6ADA               	clrf	fsr2h,c
  5026   001A6C  0E0D               	movlw	13
  5027   001A6E  26D9               	addwf	fsr2l,f,c
  5028   001A70  CF6D FFDF          	movff	3949,indf2	;volatile
  5029   001A74                     
  5030                           ;mcc_generated_files/ecan.c: 350:         RXB0CONbits.RXFUL = 0;
  5031   001A74  9E60               	bcf	96,7,c	;volatile
  5032   001A76                     l3798:
  5033                           
  5034                           ;mcc_generated_files/ecan.c: 351:         returnValue = 1;
  5035   001A76  0E01               	movlw	1
  5036   001A78  6E17               	movwf	CAN_receive@returnValue^0,c
  5037                           
  5038                           ;mcc_generated_files/ecan.c: 352:     }
  5039   001A7A  EFC5  F00D         	goto	l3832
  5040   001A7E                     l433:
  5041   001A7E  010F               	movlb	15	; () banked
  5042   001A80  AF30               	btfss	48,7,b	;volatile
  5043   001A82  EF45  F00D         	goto	u2681
  5044   001A86  EF47  F00D         	goto	u2680
  5045   001A8A                     u2681:
  5046   001A8A  EFC5  F00D         	goto	l3832
  5047   001A8E                     u2680:
  5048   001A8E                     
  5049                           ; BSR set to: 15
  5050                           ;mcc_generated_files/ecan.c: 354:     {;mcc_generated_files/ecan.c: 355:         if ((RX
      +                          B1SIDL & 0x08) == 0x08)
  5051   001A8E  A732               	btfss	50,3,b	;volatile
  5052   001A90  EF4C  F00D         	goto	u2691
  5053   001A94  EF4E  F00D         	goto	u2690
  5054   001A98                     u2691:
  5055   001A98  EF6B  F00D         	goto	l3806
  5056   001A9C                     u2690:
  5057   001A9C                     
  5058                           ; BSR set to: 15
  5059                           ;mcc_generated_files/ecan.c: 356:         {;mcc_generated_files/ecan.c: 358:            
      +                           tempCanMsg->frame.idType = (uint8_t) 2;
  5060   001A9C  5016               	movf	CAN_receive@tempCanMsg^0,w,c
  5061   001A9E  6ED9               	movwf	fsr2l,c
  5062   001AA0  6ADA               	clrf	fsr2h,c
  5063   001AA2  0E02               	movlw	2
  5064   001AA4  6EDF               	movwf	indf2,c
  5065   001AA6                     
  5066                           ; BSR set to: 15
  5067                           ;mcc_generated_files/ecan.c: 359:             tempCanMsg->frame.id = convertReg2Extended
      +                          CANid(RXB1EIDH, RXB1EIDL, RXB1SIDH, RXB1SIDL);
  5068   001AA6  CF34 F003          	movff	3892,convertReg2ExtendedCANid@tempRXBn_EIDL	;volatile
  5069   001AAA  CF31 F004          	movff	3889,convertReg2ExtendedCANid@tempRXBn_SIDH	;volatile
  5070   001AAE  CF32 F005          	movff	3890,convertReg2ExtendedCANid@tempRXBn_SIDL	;volatile
  5071   001AB2  5133               	movf	51,w,b	;volatile
  5072   001AB4  EC25  F010         	call	_convertReg2ExtendedCANid
  5073   001AB8  5016               	movf	CAN_receive@tempCanMsg^0,w,c
  5074   001ABA  6ED9               	movwf	fsr2l,c
  5075   001ABC  6ADA               	clrf	fsr2h,c
  5076   001ABE  0E01               	movlw	1
  5077   001AC0  26D9               	addwf	fsr2l,f,c
  5078   001AC2  C003  FFDE         	movff	?_convertReg2ExtendedCANid,postinc2
  5079   001AC6  C004  FFDE         	movff	?_convertReg2ExtendedCANid+1,postinc2
  5080   001ACA  C005  FFDE         	movff	?_convertReg2ExtendedCANid+2,postinc2
  5081   001ACE  C006  FFDE         	movff	?_convertReg2ExtendedCANid+3,postinc2
  5082                           
  5083                           ;mcc_generated_files/ecan.c: 360:         }
  5084   001AD2  EF82  F00D         	goto	l3810
  5085   001AD6                     l3806:
  5086                           
  5087                           ; BSR set to: 15
  5088                           ;mcc_generated_files/ecan.c: 362:         {;mcc_generated_files/ecan.c: 364:            
      +                           tempCanMsg->frame.idType = (uint8_t) 1;
  5089   001AD6  5016               	movf	CAN_receive@tempCanMsg^0,w,c
  5090   001AD8  6ED9               	movwf	fsr2l,c
  5091   001ADA  6ADA               	clrf	fsr2h,c
  5092   001ADC  0E01               	movlw	1
  5093   001ADE  6EDF               	movwf	indf2,c
  5094   001AE0                     
  5095                           ; BSR set to: 15
  5096                           ;mcc_generated_files/ecan.c: 365:             tempCanMsg->frame.id = convertReg2Standard
      +                          CANid(RXB1SIDH, RXB1SIDL);
  5097   001AE0  CF32 F003          	movff	3890,convertReg2StandardCANid@tempRXBn_SIDL	;volatile
  5098   001AE4  5131               	movf	49,w,b	;volatile
  5099   001AE6  ECBA  F012         	call	_convertReg2StandardCANid
  5100   001AEA  5016               	movf	CAN_receive@tempCanMsg^0,w,c
  5101   001AEC  6ED9               	movwf	fsr2l,c
  5102   001AEE  6ADA               	clrf	fsr2h,c
  5103   001AF0  0E01               	movlw	1
  5104   001AF2  26D9               	addwf	fsr2l,f,c
  5105   001AF4  C003  FFDE         	movff	?_convertReg2StandardCANid,postinc2
  5106   001AF8  C004  FFDE         	movff	?_convertReg2StandardCANid+1,postinc2
  5107   001AFC  C005  FFDE         	movff	?_convertReg2StandardCANid+2,postinc2
  5108   001B00  C006  FFDE         	movff	?_convertReg2StandardCANid+3,postinc2
  5109   001B04                     l3810:
  5110                           
  5111                           ;mcc_generated_files/ecan.c: 368:         tempCanMsg->frame.dlc = RXB1DLC;
  5112   001B04  5016               	movf	CAN_receive@tempCanMsg^0,w,c
  5113   001B06  6ED9               	movwf	fsr2l,c
  5114   001B08  6ADA               	clrf	fsr2h,c
  5115   001B0A  0E05               	movlw	5
  5116   001B0C  26D9               	addwf	fsr2l,f,c
  5117   001B0E  CF35 FFDF          	movff	3893,indf2	;volatile
  5118   001B12                     
  5119                           ;mcc_generated_files/ecan.c: 369:         tempCanMsg->frame.data0 = RXB1D0;
  5120   001B12  5016               	movf	CAN_receive@tempCanMsg^0,w,c
  5121   001B14  6ED9               	movwf	fsr2l,c
  5122   001B16  6ADA               	clrf	fsr2h,c
  5123   001B18  0E06               	movlw	6
  5124   001B1A  26D9               	addwf	fsr2l,f,c
  5125   001B1C  CF36 FFDF          	movff	3894,indf2	;volatile
  5126   001B20                     
  5127                           ;mcc_generated_files/ecan.c: 370:         tempCanMsg->frame.data1 = RXB1D1;
  5128   001B20  5016               	movf	CAN_receive@tempCanMsg^0,w,c
  5129   001B22  6ED9               	movwf	fsr2l,c
  5130   001B24  6ADA               	clrf	fsr2h,c
  5131   001B26  0E07               	movlw	7
  5132   001B28  26D9               	addwf	fsr2l,f,c
  5133   001B2A  CF37 FFDF          	movff	3895,indf2	;volatile
  5134   001B2E                     
  5135                           ;mcc_generated_files/ecan.c: 371:         tempCanMsg->frame.data2 = RXB1D2;
  5136   001B2E  5016               	movf	CAN_receive@tempCanMsg^0,w,c
  5137   001B30  6ED9               	movwf	fsr2l,c
  5138   001B32  6ADA               	clrf	fsr2h,c
  5139   001B34  0E08               	movlw	8
  5140   001B36  26D9               	addwf	fsr2l,f,c
  5141   001B38  CF38 FFDF          	movff	3896,indf2	;volatile
  5142   001B3C                     
  5143                           ;mcc_generated_files/ecan.c: 372:         tempCanMsg->frame.data3 = RXB1D3;
  5144   001B3C  5016               	movf	CAN_receive@tempCanMsg^0,w,c
  5145   001B3E  6ED9               	movwf	fsr2l,c
  5146   001B40  6ADA               	clrf	fsr2h,c
  5147   001B42  0E09               	movlw	9
  5148   001B44  26D9               	addwf	fsr2l,f,c
  5149   001B46  CF39 FFDF          	movff	3897,indf2	;volatile
  5150   001B4A                     
  5151                           ;mcc_generated_files/ecan.c: 373:         tempCanMsg->frame.data4 = RXB1D4;
  5152   001B4A  5016               	movf	CAN_receive@tempCanMsg^0,w,c
  5153   001B4C  6ED9               	movwf	fsr2l,c
  5154   001B4E  6ADA               	clrf	fsr2h,c
  5155   001B50  0E0A               	movlw	10
  5156   001B52  26D9               	addwf	fsr2l,f,c
  5157   001B54  CF3A FFDF          	movff	3898,indf2	;volatile
  5158   001B58                     
  5159                           ;mcc_generated_files/ecan.c: 374:         tempCanMsg->frame.data5 = RXB1D5;
  5160   001B58  5016               	movf	CAN_receive@tempCanMsg^0,w,c
  5161   001B5A  6ED9               	movwf	fsr2l,c
  5162   001B5C  6ADA               	clrf	fsr2h,c
  5163   001B5E  0E0B               	movlw	11
  5164   001B60  26D9               	addwf	fsr2l,f,c
  5165   001B62  CF3B FFDF          	movff	3899,indf2	;volatile
  5166   001B66                     
  5167                           ;mcc_generated_files/ecan.c: 375:         tempCanMsg->frame.data6 = RXB1D6;
  5168   001B66  5016               	movf	CAN_receive@tempCanMsg^0,w,c
  5169   001B68  6ED9               	movwf	fsr2l,c
  5170   001B6A  6ADA               	clrf	fsr2h,c
  5171   001B6C  0E0C               	movlw	12
  5172   001B6E  26D9               	addwf	fsr2l,f,c
  5173   001B70  CF3C FFDF          	movff	3900,indf2	;volatile
  5174   001B74                     
  5175                           ;mcc_generated_files/ecan.c: 376:         tempCanMsg->frame.data7 = RXB1D7;
  5176   001B74  5016               	movf	CAN_receive@tempCanMsg^0,w,c
  5177   001B76  6ED9               	movwf	fsr2l,c
  5178   001B78  6ADA               	clrf	fsr2h,c
  5179   001B7A  0E0D               	movlw	13
  5180   001B7C  26D9               	addwf	fsr2l,f,c
  5181   001B7E  CF3D FFDF          	movff	3901,indf2	;volatile
  5182   001B82                     
  5183                           ;mcc_generated_files/ecan.c: 377:         RXB1CONbits.RXFUL = 0;
  5184   001B82  010F               	movlb	15	; () banked
  5185   001B84  9F30               	bcf	48,7,b	;volatile
  5186   001B86  EF3B  F00D         	goto	l3798
  5187   001B8A                     l3832:
  5188                           
  5189                           ;mcc_generated_files/ecan.c: 380:     return (returnValue);
  5190   001B8A  5017               	movf	CAN_receive@returnValue^0,w,c
  5191   001B8C  0012               	return		;funcret
  5192   001B8E                     __end_of_CAN_receive:
  5193                           	callstack 0
  5194                           
  5195 ;; *************** function _convertReg2StandardCANid *****************
  5196 ;; Defined at:
  5197 ;;		line 459 in file "mcc_generated_files/ecan.c"
  5198 ;; Parameters:    Size  Location     Type
  5199 ;;  tempRXBn_SID    1    wreg     unsigned char 
  5200 ;;  tempRXBn_SID    1    2[COMRAM] unsigned char 
  5201 ;; Auto vars:     Size  Location     Type
  5202 ;;  tempRXBn_SID    1    8[COMRAM] unsigned char 
  5203 ;;  ConvertedID     4   13[COMRAM] unsigned long 
  5204 ;;  returnValue     4    9[COMRAM] unsigned long 
  5205 ;; Return value:  Size  Location     Type
  5206 ;;                  4    2[COMRAM] unsigned long 
  5207 ;; Registers used:
  5208 ;;		wreg, status,2, status,0
  5209 ;; Tracked objects:
  5210 ;;		On entry : 0/0
  5211 ;;		On exit  : 0/0
  5212 ;;		Unchanged: 0/0
  5213 ;; Data sizes:     COMRAM   BANK0   BANK1   BANK2   BANK3   BANK4   BANK5   BANK6   BANK7   BANK8   BANK9  BANK10  BANK1
      +1  BANK12  BANK13  BANK14
  5214 ;;      Params:         4       0       0       0       0       0       0       0       0       0       0       0       
      +0       0       0       0
  5215 ;;      Locals:         9       0       0       0       0       0       0       0       0       0       0       0       
      +0       0       0       0
  5216 ;;      Temps:          2       0       0       0       0       0       0       0       0       0       0       0       
      +0       0       0       0
  5217 ;;      Totals:        15       0       0       0       0       0       0       0       0       0       0       0       
      +0       0       0       0
  5218 ;;Total ram usage:       15 bytes
  5219 ;; Hardware stack levels used: 1
  5220 ;; Hardware stack levels required when called: 3
  5221 ;; This function calls:
  5222 ;;		Nothing
  5223 ;; This function is called by:
  5224 ;;		_CAN_receive
  5225 ;; This function uses a non-reentrant model
  5226 ;;
  5227                           
  5228                           	psect	text30
  5229   002574                     __ptext30:
  5230                           	callstack 0
  5231   002574                     _convertReg2StandardCANid:
  5232                           	callstack 26
  5233                           
  5234                           ;incstack = 0
  5235                           ;convertReg2StandardCANid@tempRXBn_SIDH stored from wreg
  5236   002574  6E09               	movwf	convertReg2StandardCANid@tempRXBn_SIDH^0,c
  5237   002576                     
  5238                           ;mcc_generated_files/ecan.c: 461:     uint32_t ConvertedID;;mcc_generated_files/ecan.c: 
      +                          465:     ConvertedID = (uint32_t)(tempRXBn_SIDH << 3);
  5239   002576  5009               	movf	convertReg2StandardCANid@tempRXBn_SIDH^0,w,c
  5240   002578  6E07               	movwf	??_convertReg2StandardCANid^0,c
  5241   00257A  6A08               	clrf	(??_convertReg2StandardCANid+1)^0,c
  5242   00257C  90D8               	bcf	status,0,c
  5243   00257E  3607               	rlcf	??_convertReg2StandardCANid^0,f,c
  5244   002580  3608               	rlcf	(??_convertReg2StandardCANid+1)^0,f,c
  5245   002582  90D8               	bcf	status,0,c
  5246   002584  3607               	rlcf	??_convertReg2StandardCANid^0,f,c
  5247   002586  3608               	rlcf	(??_convertReg2StandardCANid+1)^0,f,c
  5248   002588  90D8               	bcf	status,0,c
  5249   00258A  3607               	rlcf	??_convertReg2StandardCANid^0,f,c
  5250   00258C  3608               	rlcf	(??_convertReg2StandardCANid+1)^0,f,c
  5251   00258E  C007  F00E         	movff	??_convertReg2StandardCANid,convertReg2StandardCANid@ConvertedID
  5252   002592  C008  F00F         	movff	??_convertReg2StandardCANid+1,convertReg2StandardCANid@ConvertedID+1
  5253   002596  0E00               	movlw	0
  5254   002598  BE0F               	btfsc	(convertReg2StandardCANid@ConvertedID+1)^0,7,c
  5255   00259A  0EFF               	movlw	-1
  5256   00259C  6E10               	movwf	(convertReg2StandardCANid@ConvertedID+2)^0,c
  5257   00259E  6E11               	movwf	(convertReg2StandardCANid@ConvertedID+3)^0,c
  5258   0025A0                     
  5259                           ;mcc_generated_files/ecan.c: 466:     ConvertedID = ConvertedID + (uint32_t)(tempRXBn_SI
      +                          DL >> 5);
  5260   0025A0  C003  F007         	movff	convertReg2StandardCANid@tempRXBn_SIDL,??_convertReg2StandardCANid
  5261   0025A4  0E05               	movlw	5
  5262   0025A6  6E08               	movwf	(??_convertReg2StandardCANid+1)^0,c
  5263   0025A8                     u2635:
  5264   0025A8  90D8               	bcf	status,0,c
  5265   0025AA  3207               	rrcf	??_convertReg2StandardCANid^0,f,c
  5266   0025AC  2E08               	decfsz	(??_convertReg2StandardCANid+1)^0,f,c
  5267   0025AE  EFD4  F012         	goto	u2635
  5268   0025B2  5007               	movf	??_convertReg2StandardCANid^0,w,c
  5269   0025B4  240E               	addwf	convertReg2StandardCANid@ConvertedID^0,w,c
  5270   0025B6  6E0E               	movwf	convertReg2StandardCANid@ConvertedID^0,c
  5271   0025B8  0E00               	movlw	0
  5272   0025BA  200F               	addwfc	(convertReg2StandardCANid@ConvertedID+1)^0,w,c
  5273   0025BC  6E0F               	movwf	(convertReg2StandardCANid@ConvertedID+1)^0,c
  5274   0025BE  0E00               	movlw	0
  5275   0025C0  2010               	addwfc	(convertReg2StandardCANid@ConvertedID+2)^0,w,c
  5276   0025C2  6E10               	movwf	(convertReg2StandardCANid@ConvertedID+2)^0,c
  5277   0025C4  0E00               	movlw	0
  5278   0025C6  2011               	addwfc	(convertReg2StandardCANid@ConvertedID+3)^0,w,c
  5279   0025C8  6E11               	movwf	(convertReg2StandardCANid@ConvertedID+3)^0,c
  5280   0025CA                     
  5281                           ;mcc_generated_files/ecan.c: 467:     returnValue = ConvertedID;
  5282   0025CA  C00E  F00A         	movff	convertReg2StandardCANid@ConvertedID,convertReg2StandardCANid@returnValue
  5283   0025CE  C00F  F00B         	movff	convertReg2StandardCANid@ConvertedID+1,convertReg2StandardCANid@returnValue+1
  5284   0025D2  C010  F00C         	movff	convertReg2StandardCANid@ConvertedID+2,convertReg2StandardCANid@returnValue+2
  5285   0025D6  C011  F00D         	movff	convertReg2StandardCANid@ConvertedID+3,convertReg2StandardCANid@returnValue+3
  5286   0025DA                     
  5287                           ;mcc_generated_files/ecan.c: 468:     return (returnValue);
  5288   0025DA  C00A  F003         	movff	convertReg2StandardCANid@returnValue,?_convertReg2StandardCANid
  5289   0025DE  C00B  F004         	movff	convertReg2StandardCANid@returnValue+1,?_convertReg2StandardCANid+1
  5290   0025E2  C00C  F005         	movff	convertReg2StandardCANid@returnValue+2,?_convertReg2StandardCANid+2
  5291   0025E6  C00D  F006         	movff	convertReg2StandardCANid@returnValue+3,?_convertReg2StandardCANid+3
  5292   0025EA  0012               	return		;funcret
  5293   0025EC                     __end_of_convertReg2StandardCANid:
  5294                           	callstack 0
  5295                           
  5296 ;; *************** function _convertReg2ExtendedCANid *****************
  5297 ;; Defined at:
  5298 ;;		line 439 in file "mcc_generated_files/ecan.c"
  5299 ;; Parameters:    Size  Location     Type
  5300 ;;  tempRXBn_EID    1    wreg     unsigned char 
  5301 ;;  tempRXBn_EID    1    2[COMRAM] unsigned char 
  5302 ;;  tempRXBn_SID    1    3[COMRAM] unsigned char 
  5303 ;;  tempRXBn_SID    1    4[COMRAM] unsigned char 
  5304 ;; Auto vars:     Size  Location     Type
  5305 ;;  tempRXBn_EID    1   10[COMRAM] unsigned char 
  5306 ;;  ConvertedID     4   17[COMRAM] unsigned long 
  5307 ;;  returnValue     4   11[COMRAM] unsigned long 
  5308 ;;  CAN_standard    1   16[COMRAM] unsigned char 
  5309 ;;  CAN_standard    1   15[COMRAM] unsigned char 
  5310 ;; Return value:  Size  Location     Type
  5311 ;;                  4    2[COMRAM] unsigned long 
  5312 ;; Registers used:
  5313 ;;		wreg, status,2, status,0
  5314 ;; Tracked objects:
  5315 ;;		On entry : 0/0
  5316 ;;		On exit  : 0/0
  5317 ;;		Unchanged: 0/0
  5318 ;; Data sizes:     COMRAM   BANK0   BANK1   BANK2   BANK3   BANK4   BANK5   BANK6   BANK7   BANK8   BANK9  BANK10  BANK1
      +1  BANK12  BANK13  BANK14
  5319 ;;      Params:         4       0       0       0       0       0       0       0       0       0       0       0       
      +0       0       0       0
  5320 ;;      Locals:        11       0       0       0       0       0       0       0       0       0       0       0       
      +0       0       0       0
  5321 ;;      Temps:          4       0       0       0       0       0       0       0       0       0       0       0       
      +0       0       0       0
  5322 ;;      Totals:        19       0       0       0       0       0       0       0       0       0       0       0       
      +0       0       0       0
  5323 ;;Total ram usage:       19 bytes
  5324 ;; Hardware stack levels used: 1
  5325 ;; Hardware stack levels required when called: 3
  5326 ;; This function calls:
  5327 ;;		Nothing
  5328 ;; This function is called by:
  5329 ;;		_CAN_receive
  5330 ;; This function uses a non-reentrant model
  5331 ;;
  5332                           
  5333                           	psect	text31
  5334   00204A                     __ptext31:
  5335                           	callstack 0
  5336   00204A                     _convertReg2ExtendedCANid:
  5337                           	callstack 26
  5338                           
  5339                           ;incstack = 0
  5340                           ;convertReg2ExtendedCANid@tempRXBn_EIDH stored from wreg
  5341   00204A  6E0B               	movwf	convertReg2ExtendedCANid@tempRXBn_EIDH^0,c
  5342   00204C                     
  5343                           ;mcc_generated_files/ecan.c: 441:     uint32_t ConvertedID = 0;
  5344   00204C  0E00               	movlw	0
  5345   00204E  6E12               	movwf	convertReg2ExtendedCANid@ConvertedID^0,c
  5346   002050  0E00               	movlw	0
  5347   002052  6E13               	movwf	(convertReg2ExtendedCANid@ConvertedID+1)^0,c
  5348   002054  0E00               	movlw	0
  5349   002056  6E14               	movwf	(convertReg2ExtendedCANid@ConvertedID+2)^0,c
  5350   002058  0E00               	movlw	0
  5351   00205A  6E15               	movwf	(convertReg2ExtendedCANid@ConvertedID+3)^0,c
  5352   00205C                     
  5353                           ;mcc_generated_files/ecan.c: 442:     uint8_t CAN_standardLo_ID_lo2bits;;mcc_generated_f
      +                          iles/ecan.c: 443:     uint8_t CAN_standardLo_ID_hi3bits;;mcc_generated_files/ecan.c: 445
      +                          :     CAN_standardLo_ID_lo2bits = (uint8_t)(tempRXBn_SIDL & 0x03);
  5354   00205C  5005               	movf	convertReg2ExtendedCANid@tempRXBn_SIDL^0,w,c
  5355   00205E  0B03               	andlw	3
  5356   002060  6E10               	movwf	convertReg2ExtendedCANid@CAN_standardLo_ID_lo2bits^0,c
  5357   002062                     
  5358                           ;mcc_generated_files/ecan.c: 446:     CAN_standardLo_ID_hi3bits = (uint8_t)(tempRXBn_SID
      +                          L >> 5);
  5359   002062  3805               	swapf	convertReg2ExtendedCANid@tempRXBn_SIDL^0,w,c
  5360   002064  42E8               	rrncf	wreg,f,c
  5361   002066  0B07               	andlw	7
  5362   002068  6E11               	movwf	convertReg2ExtendedCANid@CAN_standardLo_ID_hi3bits^0,c
  5363   00206A                     
  5364                           ;mcc_generated_files/ecan.c: 447:     ConvertedID = (uint32_t)(tempRXBn_SIDH << 3);
  5365   00206A  5004               	movf	convertReg2ExtendedCANid@tempRXBn_SIDH^0,w,c
  5366   00206C  6E07               	movwf	??_convertReg2ExtendedCANid^0,c
  5367   00206E  6A08               	clrf	(??_convertReg2ExtendedCANid+1)^0,c
  5368   002070  90D8               	bcf	status,0,c
  5369   002072  3607               	rlcf	??_convertReg2ExtendedCANid^0,f,c
  5370   002074  3608               	rlcf	(??_convertReg2ExtendedCANid+1)^0,f,c
  5371   002076  90D8               	bcf	status,0,c
  5372   002078  3607               	rlcf	??_convertReg2ExtendedCANid^0,f,c
  5373   00207A  3608               	rlcf	(??_convertReg2ExtendedCANid+1)^0,f,c
  5374   00207C  90D8               	bcf	status,0,c
  5375   00207E  3607               	rlcf	??_convertReg2ExtendedCANid^0,f,c
  5376   002080  3608               	rlcf	(??_convertReg2ExtendedCANid+1)^0,f,c
  5377   002082  C007  F012         	movff	??_convertReg2ExtendedCANid,convertReg2ExtendedCANid@ConvertedID
  5378   002086  C008  F013         	movff	??_convertReg2ExtendedCANid+1,convertReg2ExtendedCANid@ConvertedID+1
  5379   00208A  0E00               	movlw	0
  5380   00208C  BE13               	btfsc	(convertReg2ExtendedCANid@ConvertedID+1)^0,7,c
  5381   00208E  0EFF               	movlw	-1
  5382   002090  6E14               	movwf	(convertReg2ExtendedCANid@ConvertedID+2)^0,c
  5383   002092  6E15               	movwf	(convertReg2ExtendedCANid@ConvertedID+3)^0,c
  5384   002094                     
  5385                           ;mcc_generated_files/ecan.c: 448:     ConvertedID = ConvertedID + CAN_standardLo_ID_hi3b
      +                          its;
  5386   002094  5011               	movf	convertReg2ExtendedCANid@CAN_standardLo_ID_hi3bits^0,w,c
  5387   002096  2412               	addwf	convertReg2ExtendedCANid@ConvertedID^0,w,c
  5388   002098  6E12               	movwf	convertReg2ExtendedCANid@ConvertedID^0,c
  5389   00209A  0E00               	movlw	0
  5390   00209C  2013               	addwfc	(convertReg2ExtendedCANid@ConvertedID+1)^0,w,c
  5391   00209E  6E13               	movwf	(convertReg2ExtendedCANid@ConvertedID+1)^0,c
  5392   0020A0  0E00               	movlw	0
  5393   0020A2  2014               	addwfc	(convertReg2ExtendedCANid@ConvertedID+2)^0,w,c
  5394   0020A4  6E14               	movwf	(convertReg2ExtendedCANid@ConvertedID+2)^0,c
  5395   0020A6  0E00               	movlw	0
  5396   0020A8  2015               	addwfc	(convertReg2ExtendedCANid@ConvertedID+3)^0,w,c
  5397   0020AA  6E15               	movwf	(convertReg2ExtendedCANid@ConvertedID+3)^0,c
  5398   0020AC                     
  5399                           ;mcc_generated_files/ecan.c: 449:     ConvertedID = (ConvertedID << 2);
  5400   0020AC  C012  F007         	movff	convertReg2ExtendedCANid@ConvertedID,??_convertReg2ExtendedCANid
  5401   0020B0  C013  F008         	movff	convertReg2ExtendedCANid@ConvertedID+1,??_convertReg2ExtendedCANid+1
  5402   0020B4  C014  F009         	movff	convertReg2ExtendedCANid@ConvertedID+2,??_convertReg2ExtendedCANid+2
  5403   0020B8  C015  F00A         	movff	convertReg2ExtendedCANid@ConvertedID+3,??_convertReg2ExtendedCANid+3
  5404   0020BC  0E02               	movlw	2
  5405   0020BE                     u2625:
  5406   0020BE  90D8               	bcf	status,0,c
  5407   0020C0  3607               	rlcf	??_convertReg2ExtendedCANid^0,f,c
  5408   0020C2  3608               	rlcf	(??_convertReg2ExtendedCANid+1)^0,f,c
  5409   0020C4  3609               	rlcf	(??_convertReg2ExtendedCANid+2)^0,f,c
  5410   0020C6  360A               	rlcf	(??_convertReg2ExtendedCANid+3)^0,f,c
  5411   0020C8  2EE8               	decfsz	wreg,f,c
  5412   0020CA  EF5F  F010         	goto	u2625
  5413   0020CE  C007  F012         	movff	??_convertReg2ExtendedCANid,convertReg2ExtendedCANid@ConvertedID
  5414   0020D2  C008  F013         	movff	??_convertReg2ExtendedCANid+1,convertReg2ExtendedCANid@ConvertedID+1
  5415   0020D6  C009  F014         	movff	??_convertReg2ExtendedCANid+2,convertReg2ExtendedCANid@ConvertedID+2
  5416   0020DA  C00A  F015         	movff	??_convertReg2ExtendedCANid+3,convertReg2ExtendedCANid@ConvertedID+3
  5417   0020DE                     
  5418                           ;mcc_generated_files/ecan.c: 450:     ConvertedID = ConvertedID + CAN_standardLo_ID_lo2b
      +                          its;
  5419   0020DE  5010               	movf	convertReg2ExtendedCANid@CAN_standardLo_ID_lo2bits^0,w,c
  5420   0020E0  2412               	addwf	convertReg2ExtendedCANid@ConvertedID^0,w,c
  5421   0020E2  6E12               	movwf	convertReg2ExtendedCANid@ConvertedID^0,c
  5422   0020E4  0E00               	movlw	0
  5423   0020E6  2013               	addwfc	(convertReg2ExtendedCANid@ConvertedID+1)^0,w,c
  5424   0020E8  6E13               	movwf	(convertReg2ExtendedCANid@ConvertedID+1)^0,c
  5425   0020EA  0E00               	movlw	0
  5426   0020EC  2014               	addwfc	(convertReg2ExtendedCANid@ConvertedID+2)^0,w,c
  5427   0020EE  6E14               	movwf	(convertReg2ExtendedCANid@ConvertedID+2)^0,c
  5428   0020F0  0E00               	movlw	0
  5429   0020F2  2015               	addwfc	(convertReg2ExtendedCANid@ConvertedID+3)^0,w,c
  5430   0020F4  6E15               	movwf	(convertReg2ExtendedCANid@ConvertedID+3)^0,c
  5431                           
  5432                           ;mcc_generated_files/ecan.c: 451:     ConvertedID = (ConvertedID << 8);
  5433   0020F6  C012  F008         	movff	convertReg2ExtendedCANid@ConvertedID,??_convertReg2ExtendedCANid+1
  5434   0020FA  C013  F009         	movff	convertReg2ExtendedCANid@ConvertedID+1,??_convertReg2ExtendedCANid+2
  5435   0020FE  C014  F00A         	movff	convertReg2ExtendedCANid@ConvertedID+2,??_convertReg2ExtendedCANid+3
  5436   002102  6A07               	clrf	??_convertReg2ExtendedCANid^0,c
  5437   002104  C007  F012         	movff	??_convertReg2ExtendedCANid,convertReg2ExtendedCANid@ConvertedID
  5438   002108  C008  F013         	movff	??_convertReg2ExtendedCANid+1,convertReg2ExtendedCANid@ConvertedID+1
  5439   00210C  C009  F014         	movff	??_convertReg2ExtendedCANid+2,convertReg2ExtendedCANid@ConvertedID+2
  5440   002110  C00A  F015         	movff	??_convertReg2ExtendedCANid+3,convertReg2ExtendedCANid@ConvertedID+3
  5441   002114                     
  5442                           ;mcc_generated_files/ecan.c: 452:     ConvertedID = ConvertedID + tempRXBn_EIDH;
  5443   002114  500B               	movf	convertReg2ExtendedCANid@tempRXBn_EIDH^0,w,c
  5444   002116  2412               	addwf	convertReg2ExtendedCANid@ConvertedID^0,w,c
  5445   002118  6E12               	movwf	convertReg2ExtendedCANid@ConvertedID^0,c
  5446   00211A  0E00               	movlw	0
  5447   00211C  2013               	addwfc	(convertReg2ExtendedCANid@ConvertedID+1)^0,w,c
  5448   00211E  6E13               	movwf	(convertReg2ExtendedCANid@ConvertedID+1)^0,c
  5449   002120  0E00               	movlw	0
  5450   002122  2014               	addwfc	(convertReg2ExtendedCANid@ConvertedID+2)^0,w,c
  5451   002124  6E14               	movwf	(convertReg2ExtendedCANid@ConvertedID+2)^0,c
  5452   002126  0E00               	movlw	0
  5453   002128  2015               	addwfc	(convertReg2ExtendedCANid@ConvertedID+3)^0,w,c
  5454   00212A  6E15               	movwf	(convertReg2ExtendedCANid@ConvertedID+3)^0,c
  5455   00212C                     
  5456                           ;mcc_generated_files/ecan.c: 453:     ConvertedID = (ConvertedID << 8);
  5457   00212C  C012  F008         	movff	convertReg2ExtendedCANid@ConvertedID,??_convertReg2ExtendedCANid+1
  5458   002130  C013  F009         	movff	convertReg2ExtendedCANid@ConvertedID+1,??_convertReg2ExtendedCANid+2
  5459   002134  C014  F00A         	movff	convertReg2ExtendedCANid@ConvertedID+2,??_convertReg2ExtendedCANid+3
  5460   002138  6A07               	clrf	??_convertReg2ExtendedCANid^0,c
  5461   00213A  C007  F012         	movff	??_convertReg2ExtendedCANid,convertReg2ExtendedCANid@ConvertedID
  5462   00213E  C008  F013         	movff	??_convertReg2ExtendedCANid+1,convertReg2ExtendedCANid@ConvertedID+1
  5463   002142  C009  F014         	movff	??_convertReg2ExtendedCANid+2,convertReg2ExtendedCANid@ConvertedID+2
  5464   002146  C00A  F015         	movff	??_convertReg2ExtendedCANid+3,convertReg2ExtendedCANid@ConvertedID+3
  5465                           
  5466                           ;mcc_generated_files/ecan.c: 454:     ConvertedID = ConvertedID + tempRXBn_EIDL;
  5467   00214A  5003               	movf	convertReg2ExtendedCANid@tempRXBn_EIDL^0,w,c
  5468   00214C  2412               	addwf	convertReg2ExtendedCANid@ConvertedID^0,w,c
  5469   00214E  6E12               	movwf	convertReg2ExtendedCANid@ConvertedID^0,c
  5470   002150  0E00               	movlw	0
  5471   002152  2013               	addwfc	(convertReg2ExtendedCANid@ConvertedID+1)^0,w,c
  5472   002154  6E13               	movwf	(convertReg2ExtendedCANid@ConvertedID+1)^0,c
  5473   002156  0E00               	movlw	0
  5474   002158  2014               	addwfc	(convertReg2ExtendedCANid@ConvertedID+2)^0,w,c
  5475   00215A  6E14               	movwf	(convertReg2ExtendedCANid@ConvertedID+2)^0,c
  5476   00215C  0E00               	movlw	0
  5477   00215E  2015               	addwfc	(convertReg2ExtendedCANid@ConvertedID+3)^0,w,c
  5478   002160  6E15               	movwf	(convertReg2ExtendedCANid@ConvertedID+3)^0,c
  5479   002162                     
  5480                           ;mcc_generated_files/ecan.c: 455:     returnValue = ConvertedID;
  5481   002162  C012  F00C         	movff	convertReg2ExtendedCANid@ConvertedID,convertReg2ExtendedCANid@returnValue
  5482   002166  C013  F00D         	movff	convertReg2ExtendedCANid@ConvertedID+1,convertReg2ExtendedCANid@returnValue+1
  5483   00216A  C014  F00E         	movff	convertReg2ExtendedCANid@ConvertedID+2,convertReg2ExtendedCANid@returnValue+2
  5484   00216E  C015  F00F         	movff	convertReg2ExtendedCANid@ConvertedID+3,convertReg2ExtendedCANid@returnValue+3
  5485   002172                     
  5486                           ;mcc_generated_files/ecan.c: 456:     return (returnValue);
  5487   002172  C00C  F003         	movff	convertReg2ExtendedCANid@returnValue,?_convertReg2ExtendedCANid
  5488   002176  C00D  F004         	movff	convertReg2ExtendedCANid@returnValue+1,?_convertReg2ExtendedCANid+1
  5489   00217A  C00E  F005         	movff	convertReg2ExtendedCANid@returnValue+2,?_convertReg2ExtendedCANid+2
  5490   00217E  C00F  F006         	movff	convertReg2ExtendedCANid@returnValue+3,?_convertReg2ExtendedCANid+3
  5491   002182  0012               	return		;funcret
  5492   002184                     __end_of_convertReg2ExtendedCANid:
  5493                           	callstack 0
  5494                           
  5495 ;; *************** function _INTERRUPT_InterruptManager *****************
  5496 ;; Defined at:
  5497 ;;		line 58 in file "mcc_generated_files/interrupt_manager.c"
  5498 ;; Parameters:    Size  Location     Type
  5499 ;;		None
  5500 ;; Auto vars:     Size  Location     Type
  5501 ;;		None
  5502 ;; Return value:  Size  Location     Type
  5503 ;;                  1    wreg      void 
  5504 ;; Registers used:
  5505 ;;		wreg, pcl, pclath, pclatu, tosl, cstack
  5506 ;; Tracked objects:
  5507 ;;		On entry : 0/0
  5508 ;;		On exit  : 0/0
  5509 ;;		Unchanged: 0/0
  5510 ;; Data sizes:     COMRAM   BANK0   BANK1   BANK2   BANK3   BANK4   BANK5   BANK6   BANK7   BANK8   BANK9  BANK10  BANK1
      +1  BANK12  BANK13  BANK14
  5511 ;;      Params:         0       0       0       0       0       0       0       0       0       0       0       0       
      +0       0       0       0
  5512 ;;      Locals:         0       0       0       0       0       0       0       0       0       0       0       0       
      +0       0       0       0
  5513 ;;      Temps:          2       0       0       0       0       0       0       0       0       0       0       0       
      +0       0       0       0
  5514 ;;      Totals:         2       0       0       0       0       0       0       0       0       0       0       0       
      +0       0       0       0
  5515 ;;Total ram usage:        2 bytes
  5516 ;; Hardware stack levels used: 1
  5517 ;; Hardware stack levels required when called: 2
  5518 ;; This function calls:
  5519 ;;		_ECAN_WAKI_ISR
  5520 ;; This function is called by:
  5521 ;;		Interrupt level 2
  5522 ;; This function uses a non-reentrant model
  5523 ;;
  5524                           
  5525                           	psect	intcode
  5526   000008                     __pintcode:
  5527                           	callstack 0
  5528   000008                     _INTERRUPT_InterruptManager:
  5529                           	callstack 23
  5530                           
  5531                           ;incstack = 0
  5532   000008  825C               	bsf	int$flags,1,c	;set compiler interrupt flag (level 2)
  5533   00000A  CFFA F001          	movff	pclath,??_INTERRUPT_InterruptManager
  5534   00000E  CFFB F002          	movff	pclatu,??_INTERRUPT_InterruptManager+1
  5535   000012                     
  5536                           ;mcc_generated_files/interrupt_manager.c: 61:     if(INTCONbits.PEIE == 1)
  5537   000012  ACF2               	btfss	242,6,c	;volatile
  5538   000014  EF0E  F000         	goto	i2u90_41
  5539   000018  EF10  F000         	goto	i2u90_40
  5540   00001C                     i2u90_41:
  5541   00001C  EF20  F000         	goto	i2l496
  5542   000020                     i2u90_40:
  5543   000020                     
  5544                           ;mcc_generated_files/interrupt_manager.c: 62:     {;mcc_generated_files/interrupt_manage
      +                          r.c: 63:         if(PIE5bits.WAKIE == 1 && PIR5bits.WAKIF == 1)
  5545   000020  AC76               	btfss	118,6,c	;volatile
  5546   000022  EF15  F000         	goto	i2u91_41
  5547   000026  EF17  F000         	goto	i2u91_40
  5548   00002A                     i2u91_41:
  5549   00002A  EF20  F000         	goto	i2l496
  5550   00002E                     i2u91_40:
  5551   00002E  AC77               	btfss	119,6,c	;volatile
  5552   000030  EF1C  F000         	goto	i2u92_41
  5553   000034  EF1E  F000         	goto	i2u92_40
  5554   000038                     i2u92_41:
  5555   000038  EF20  F000         	goto	i2l496
  5556   00003C                     i2u92_40:
  5557   00003C                     
  5558                           ;mcc_generated_files/interrupt_manager.c: 64:         {;mcc_generated_files/interrupt_ma
      +                          nager.c: 65:             ECAN_WAKI_ISR();
  5559   00003C  EC6C  F013         	call	_ECAN_WAKI_ISR	;wreg free
  5560   000040                     i2l496:
  5561   000040  C002  FFFB         	movff	??_INTERRUPT_InterruptManager+1,pclatu
  5562   000044  C001  FFFA         	movff	??_INTERRUPT_InterruptManager,pclath
  5563   000048  925C               	bcf	int$flags,1,c	;clear compiler interrupt flag (level 2)
  5564   00004A  0011               	retfie		f
  5565   00004C                     __end_of_INTERRUPT_InterruptManager:
  5566                           	callstack 0
  5567                           
  5568 ;; *************** function _ECAN_WAKI_ISR *****************
  5569 ;; Defined at:
  5570 ;;		line 511 in file "mcc_generated_files/ecan.c"
  5571 ;; Parameters:    Size  Location     Type
  5572 ;;		None
  5573 ;; Auto vars:     Size  Location     Type
  5574 ;;		None
  5575 ;; Return value:  Size  Location     Type
  5576 ;;                  1    wreg      void 
  5577 ;; Registers used:
  5578 ;;		wreg, pcl, pclath, pclatu, tosl, cstack
  5579 ;; Tracked objects:
  5580 ;;		On entry : 0/0
  5581 ;;		On exit  : 0/0
  5582 ;;		Unchanged: 0/0
  5583 ;; Data sizes:     COMRAM   BANK0   BANK1   BANK2   BANK3   BANK4   BANK5   BANK6   BANK7   BANK8   BANK9  BANK10  BANK1
      +1  BANK12  BANK13  BANK14
  5584 ;;      Params:         0       0       0       0       0       0       0       0       0       0       0       0       
      +0       0       0       0
  5585 ;;      Locals:         0       0       0       0       0       0       0       0       0       0       0       0       
      +0       0       0       0
  5586 ;;      Temps:          0       0       0       0       0       0       0       0       0       0       0       0       
      +0       0       0       0
  5587 ;;      Totals:         0       0       0       0       0       0       0       0       0       0       0       0       
      +0       0       0       0
  5588 ;;Total ram usage:        0 bytes
  5589 ;; Hardware stack levels used: 1
  5590 ;; Hardware stack levels required when called: 1
  5591 ;; This function calls:
  5592 ;;		NULL
  5593 ;;		_WakeUpDefaultInterruptHandler
  5594 ;; This function is called by:
  5595 ;;		_INTERRUPT_InterruptManager
  5596 ;; This function uses a non-reentrant model
  5597 ;;
  5598                           
  5599                           	psect	text33
  5600   0026D8                     __ptext33:
  5601                           	callstack 0
  5602   0026D8                     _ECAN_WAKI_ISR:
  5603                           	callstack 23
  5604   0026D8                     
  5605                           ;mcc_generated_files/ecan.c: 513:     WakeUpInterruptHandler();
  5606   0026D8  D802               	call	i2u81_48
  5607   0026DA  EF79  F013         	goto	i2u81_49
  5608   0026DE                     i2u81_48:
  5609   0026DE  0005               	push	
  5610   0026E0  6EFA               	movwf	pclath,c
  5611   0026E2  505A               	movf	_WakeUpInterruptHandler^0,w,c
  5612   0026E4  6EFD               	movwf	tosl,c
  5613   0026E6  505B               	movf	(_WakeUpInterruptHandler+1)^0,w,c
  5614   0026E8  6EFE               	movwf	tosh,c
  5615   0026EA  50F8               	movf	tblptru,w,c
  5616   0026EC  6EFF               	movwf	tosu,c
  5617   0026EE  50FA               	movf	pclath,w,c
  5618   0026F0  0012               	return		;indir
  5619   0026F2                     i2u81_49:
  5620   0026F2                     
  5621                           ;mcc_generated_files/ecan.c: 514:     PIR5bits.WAKIF = 0;
  5622   0026F2  9C77               	bcf	119,6,c	;volatile
  5623   0026F4  0012               	return		;funcret
  5624   0026F6                     __end_of_ECAN_WAKI_ISR:
  5625                           	callstack 0
  5626                           
  5627 ;; *************** function _WakeUpDefaultInterruptHandler *****************
  5628 ;; Defined at:
  5629 ;;		line 63 in file "mcc_generated_files/ecan.c"
  5630 ;; Parameters:    Size  Location     Type
  5631 ;;		None
  5632 ;; Auto vars:     Size  Location     Type
  5633 ;;		None
  5634 ;; Return value:  Size  Location     Type
  5635 ;;                  1    wreg      void 
  5636 ;; Registers used:
  5637 ;;		None
  5638 ;; Tracked objects:
  5639 ;;		On entry : 0/0
  5640 ;;		On exit  : 0/0
  5641 ;;		Unchanged: 0/0
  5642 ;; Data sizes:     COMRAM   BANK0   BANK1   BANK2   BANK3   BANK4   BANK5   BANK6   BANK7   BANK8   BANK9  BANK10  BANK1
      +1  BANK12  BANK13  BANK14
  5643 ;;      Params:         0       0       0       0       0       0       0       0       0       0       0       0       
      +0       0       0       0
  5644 ;;      Locals:         0       0       0       0       0       0       0       0       0       0       0       0       
      +0       0       0       0
  5645 ;;      Temps:          0       0       0       0       0       0       0       0       0       0       0       0       
      +0       0       0       0
  5646 ;;      Totals:         0       0       0       0       0       0       0       0       0       0       0       0       
      +0       0       0       0
  5647 ;;Total ram usage:        0 bytes
  5648 ;; Hardware stack levels used: 1
  5649 ;; This function calls:
  5650 ;;		Nothing
  5651 ;; This function is called by:
  5652 ;;		_ECAN_Initialize
  5653 ;;		_ECAN_WAKI_ISR
  5654 ;; This function uses a non-reentrant model
  5655 ;;
  5656                           
  5657                           	psect	text34
  5658   00280E                     __ptext34:
  5659                           	callstack 0
  5660   00280E                     _WakeUpDefaultInterruptHandler:
  5661                           	callstack 23
  5662   00280E  0012               	return		;funcret
  5663   002810                     __end_of_WakeUpDefaultInterruptHandler:
  5664                           	callstack 0
  5665                           
  5666                           	psect	smallconst
  5667   000F00                     __psmallconst:
  5668                           	callstack 0
  5669   000F00  00                 	db	0
  5670   000F01  00                 	db	0	; dummy byte at the end
  5671   000000                     
  5672                           	psect	text35
  5673   000000                     __ptext35:
  5674                           	callstack 0
  5675   000000                     
  5676                           	psect	rparam
  5677   000000                     
  5678                           	psect	temp
  5679   00005C                     btemp:
  5680                           	callstack 0
  5681   00005C                     	ds	1
  5682   000000                     int$flags	set	btemp
  5683   000000                     wtemp8	set	btemp+1
  5684   000000                     ttemp5	set	btemp+1
  5685   000000                     ttemp6	set	btemp+4
  5686   000000                     ttemp7	set	btemp+8
  5687                           
  5688                           	psect	idloc
  5689                           
  5690                           ;Config register IDLOC0 @ 0x200000
  5691                           ;	unspecified, using default values
  5692   200000                     	org	2097152
  5693   200000  FF                 	db	255
  5694                           
  5695                           ;Config register IDLOC1 @ 0x200001
  5696                           ;	unspecified, using default values
  5697   200001                     	org	2097153
  5698   200001  FF                 	db	255
  5699                           
  5700                           ;Config register IDLOC2 @ 0x200002
  5701                           ;	unspecified, using default values
  5702   200002                     	org	2097154
  5703   200002  FF                 	db	255
  5704                           
  5705                           ;Config register IDLOC3 @ 0x200003
  5706                           ;	unspecified, using default values
  5707   200003                     	org	2097155
  5708   200003  FF                 	db	255
  5709                           
  5710                           ;Config register IDLOC4 @ 0x200004
  5711                           ;	unspecified, using default values
  5712   200004                     	org	2097156
  5713   200004  FF                 	db	255
  5714                           
  5715                           ;Config register IDLOC5 @ 0x200005
  5716                           ;	unspecified, using default values
  5717   200005                     	org	2097157
  5718   200005  FF                 	db	255
  5719                           
  5720                           ;Config register IDLOC6 @ 0x200006
  5721                           ;	unspecified, using default values
  5722   200006                     	org	2097158
  5723   200006  FF                 	db	255
  5724                           
  5725                           ;Config register IDLOC7 @ 0x200007
  5726                           ;	unspecified, using default values
  5727   200007                     	org	2097159
  5728   200007  FF                 	db	255
  5729                           
  5730                           	psect	config
  5731                           
  5732                           ;Config register CONFIG1L @ 0x300000
  5733                           ;	VREG Sleep Enable bit
  5734                           ;	RETEN = OFF, Ultra low-power regulator is Disabled (Controlled by REGSLP bit)
  5735                           ;	LF-INTOSC Low-power Enable bit
  5736                           ;	INTOSCSEL = HIGH, LF-INTOSC in High-power mode during Sleep
  5737                           ;	SOSC Power Selection and mode Configuration bits
  5738                           ;	SOSCSEL = DIG, Digital (SCLKI) mode
  5739                           ;	Extended Instruction Set
  5740                           ;	XINST = OFF, Disabled
  5741   300000                     	org	3145728
  5742   300000  15                 	db	21
  5743                           
  5744                           ;Config register CONFIG1H @ 0x300001
  5745                           ;	Oscillator
  5746                           ;	FOSC = HS2, HS oscillator (High power, 16 MHz - 25 MHz)
  5747                           ;	PLL x4 Enable bit
  5748                           ;	PLLCFG = OFF, Disabled
  5749                           ;	Fail-Safe Clock Monitor
  5750                           ;	FCMEN = OFF, Disabled
  5751                           ;	Internal External Oscillator Switch Over Mode
  5752                           ;	IESO = OFF, Disabled
  5753   300001                     	org	3145729
  5754   300001  02                 	db	2
  5755                           
  5756                           ;Config register CONFIG2L @ 0x300002
  5757                           ;	Power Up Timer
  5758                           ;	PWRTEN = OFF, Disabled
  5759                           ;	Brown Out Detect
  5760                           ;	BOREN = SBORDIS, Enabled in hardware, SBOREN disabled
  5761                           ;	Brown-out Reset Voltage bits
  5762                           ;	BORV = 3, 1.8V
  5763                           ;	BORMV Power level
  5764                           ;	BORPWR = ZPBORMV, ZPBORMV instead of BORMV is selected
  5765   300002                     	org	3145730
  5766   300002  7F                 	db	127
  5767                           
  5768                           ;Config register CONFIG2H @ 0x300003
  5769                           ;	Watchdog Timer
  5770                           ;	WDTEN = OFF, WDT disabled in hardware; SWDTEN bit disabled
  5771                           ;	Watchdog Postscaler
  5772                           ;	WDTPS = 1048576, 1:1048576
  5773   300003                     	org	3145731
  5774   300003  7C                 	db	124
  5775                           
  5776                           ; Padding undefined space
  5777   300004                     	org	3145732
  5778   300004  FF                 	db	255
  5779                           
  5780                           ;Config register CONFIG3H @ 0x300005
  5781                           ;	ECAN Mux bit
  5782                           ;	CANMX = PORTB, ECAN TX and RX pins are located on RB2 and RB3, respectively
  5783                           ;	MSSP address masking
  5784                           ;	MSSPMSK = MSK7, 7 Bit address masking mode
  5785                           ;	Master Clear Enable
  5786                           ;	MCLRE = ON, MCLR Enabled, RE3 Disabled
  5787   300005                     	org	3145733
  5788   300005  89                 	db	137
  5789                           
  5790                           ;Config register CONFIG4L @ 0x300006
  5791                           ;	Stack Overflow Reset
  5792                           ;	STVREN = ON, Enabled
  5793                           ;	Boot Block Size
  5794                           ;	BBSIZ = BB2K, 2K word Boot Block size
  5795   300006                     	org	3145734
  5796   300006  91                 	db	145
  5797                           
  5798                           ; Padding undefined space
  5799   300007                     	org	3145735
  5800   300007  FF                 	db	255
  5801                           
  5802                           ;Config register CONFIG5L @ 0x300008
  5803                           ;	Code Protect 00800-03FFF
  5804                           ;	CP0 = OFF, Disabled
  5805                           ;	Code Protect 04000-07FFF
  5806                           ;	CP1 = OFF, Disabled
  5807                           ;	Code Protect 08000-0BFFF
  5808                           ;	CP2 = OFF, Disabled
  5809                           ;	Code Protect 0C000-0FFFF
  5810                           ;	CP3 = OFF, Disabled
  5811   300008                     	org	3145736
  5812   300008  0F                 	db	15
  5813                           
  5814                           ;Config register CONFIG5H @ 0x300009
  5815                           ;	Code Protect Boot
  5816                           ;	CPB = OFF, Disabled
  5817                           ;	Data EE Read Protect
  5818                           ;	CPD = OFF, Disabled
  5819   300009                     	org	3145737
  5820   300009  C0                 	db	192
  5821                           
  5822                           ;Config register CONFIG6L @ 0x30000A
  5823                           ;	Table Write Protect 00800-03FFF
  5824                           ;	WRT0 = OFF, Disabled
  5825                           ;	Table Write Protect 04000-07FFF
  5826                           ;	WRT1 = OFF, Disabled
  5827                           ;	Table Write Protect 08000-0BFFF
  5828                           ;	WRT2 = OFF, Disabled
  5829                           ;	Table Write Protect 0C000-0FFFF
  5830                           ;	WRT3 = OFF, Disabled
  5831   30000A                     	org	3145738
  5832   30000A  0F                 	db	15
  5833                           
  5834                           ;Config register CONFIG6H @ 0x30000B
  5835                           ;	Config. Write Protect
  5836                           ;	WRTC = OFF, Disabled
  5837                           ;	Table Write Protect Boot
  5838                           ;	WRTB = OFF, Disabled
  5839                           ;	Data EE Write Protect
  5840                           ;	WRTD = OFF, Disabled
  5841   30000B                     	org	3145739
  5842   30000B  E0                 	db	224
  5843                           
  5844                           ;Config register CONFIG7L @ 0x30000C
  5845                           ;	Table Read Protect 00800-03FFF
  5846                           ;	EBTR0 = OFF, Disabled
  5847                           ;	Table Read Protect 04000-07FFF
  5848                           ;	EBTR1 = OFF, Disabled
  5849                           ;	Table Read Protect 08000-0BFFF
  5850                           ;	EBTR2 = OFF, Disabled
  5851                           ;	Table Read Protect 0C000-0FFFF
  5852                           ;	EBTR3 = OFF, Disabled
  5853   30000C                     	org	3145740
  5854   30000C  0F                 	db	15
  5855                           
  5856                           ;Config register CONFIG7H @ 0x30000D
  5857                           ;	Table Read Protect Boot
  5858                           ;	EBTRB = OFF, Disabled
  5859   30000D                     	org	3145741
  5860   30000D  40                 	db	64
  5861                           tosu	equ	0xFFF
  5862                           tosh	equ	0xFFE
  5863                           tosl	equ	0xFFD
  5864                           stkptr	equ	0xFFC
  5865                           pclatu	equ	0xFFB
  5866                           pclath	equ	0xFFA
  5867                           pcl	equ	0xFF9
  5868                           tblptru	equ	0xFF8
  5869                           tblptrh	equ	0xFF7
  5870                           tblptrl	equ	0xFF6
  5871                           tablat	equ	0xFF5
  5872                           prodh	equ	0xFF4
  5873                           prodl	equ	0xFF3
  5874                           indf0	equ	0xFEF
  5875                           postinc0	equ	0xFEE
  5876                           postdec0	equ	0xFED
  5877                           preinc0	equ	0xFEC
  5878                           plusw0	equ	0xFEB
  5879                           fsr0h	equ	0xFEA
  5880                           fsr0l	equ	0xFE9
  5881                           wreg	equ	0xFE8
  5882                           indf1	equ	0xFE7
  5883                           postinc1	equ	0xFE6
  5884                           postdec1	equ	0xFE5
  5885                           preinc1	equ	0xFE4
  5886                           plusw1	equ	0xFE3
  5887                           fsr1h	equ	0xFE2
  5888                           fsr1l	equ	0xFE1
  5889                           bsr	equ	0xFE0
  5890                           indf2	equ	0xFDF
  5891                           postinc2	equ	0xFDE
  5892                           postdec2	equ	0xFDD
  5893                           preinc2	equ	0xFDC
  5894                           plusw2	equ	0xFDB
  5895                           fsr2h	equ	0xFDA
  5896                           fsr2l	equ	0xFD9
  5897                           status	equ	0xFD8

Data Sizes:
    Strings     0
    Constant    0
    Data        4
    BSS         64
    Persistent  0
    Stack       0

Auto Spaces:
    Space          Size  Autos    Used
    COMRAM           94     87      91
    BANK0           160      2      66
    BANK1           256      0       0
    BANK2           256      0       0
    BANK3           256      0       0
    BANK4           256      0       0
    BANK5           256      0       0
    BANK6           256      0       0
    BANK7           256      0       0
    BANK8           256      0       0
    BANK9           256      0       0
    BANK10          256      0       0
    BANK11          256      0       0
    BANK12          256      0       0
    BANK13          256      0       0
    BANK14           65      0       0

Pointer List with Targets:

    ADC_InterruptHandler	PTR FTN()void  size(2) Largest target is 1
		 -> NULL(), 

    CAN_receive@tempCanMsg	PTR struct . size(1) Largest target is 14
		 -> rx(BANK0[14]), 

    CAN_transmit@tempCanMsg	PTR struct . size(1) Largest target is 14
		 -> tx(BANK0[14]), tx20(BANK0[14]), tx21(BANK0[14]), 

    convertCANid2Reg@passedInEIDH	PTR unsigned char  size(1) Largest target is 1
		 -> CAN_transmit@tempEIDH(COMRAM[1]), 

    convertCANid2Reg@passedInEIDL	PTR unsigned char  size(1) Largest target is 1
		 -> CAN_transmit@tempEIDL(COMRAM[1]), 

    convertCANid2Reg@passedInSIDH	PTR unsigned char  size(1) Largest target is 1
		 -> CAN_transmit@tempSIDH(COMRAM[1]), 

    convertCANid2Reg@passedInSIDL	PTR unsigned char  size(1) Largest target is 1
		 -> CAN_transmit@tempSIDL(COMRAM[1]), 

    ECAN_SetWakeUpInterruptHandler@handler	PTR FTN()void  size(2) Largest target is 1
		 -> WakeUpDefaultInterruptHandler(), 

    WakeUpInterruptHandler	PTR FTN()void  size(2) Largest target is 1
		 -> WakeUpDefaultInterruptHandler(), NULL(), 


Critical Paths under _main in COMRAM

    _main->_start_up_seq
    _start_up_seq->_ADC_Conv_pinNine
    _start_up_seq->_ADC_Conv_pinSeven
    _canbus_msg_startupfail->_canbusSend
    _canbus_msg_startup_success->_canbusSend
    _canbus_latch_shutdown->_canbusSend
    _ADC_Conv_pinSeven->___flge
    _ADC_Conv_pinNine->___flge
    ___fltol->___flmul
    ___flmul->___fldiv
    ___flge->___flmul
    ___fldiv->___xxtofl
    _shutdown_seq->_canbus_shutdown_success
    _canbus_shutdown_success->_canbusSend
    _e_stop_seq->_canbus_msg_bps
    _canbus_msg_bps->_canbusSend
    _canbus_msg_ok->_canbusSend
    _aux_battery_LV->_canbus_msg_auxlow
    _canbus_msg_auxlow->_canbusSend
    _canbusSend->_CAN_transmit
    _CAN_transmit->_convertCANid2Reg
    _SYSTEM_Initialize->_ECAN_Initialize
    _ECAN_Initialize->_ECAN_SetWakeUpInterruptHandler
    _CAN_receive->_convertReg2ExtendedCANid

Critical Paths under _INTERRUPT_InterruptManager in COMRAM

    None.

Critical Paths under _main in BANK0

    None.

Critical Paths under _INTERRUPT_InterruptManager in BANK0

    None.

Critical Paths under _main in BANK1

    None.

Critical Paths under _INTERRUPT_InterruptManager in BANK1

    None.

Critical Paths under _main in BANK2

    None.

Critical Paths under _INTERRUPT_InterruptManager in BANK2

    None.

Critical Paths under _main in BANK3

    None.

Critical Paths under _INTERRUPT_InterruptManager in BANK3

    None.

Critical Paths under _main in BANK4

    None.

Critical Paths under _INTERRUPT_InterruptManager in BANK4

    None.

Critical Paths under _main in BANK5

    None.

Critical Paths under _INTERRUPT_InterruptManager in BANK5

    None.

Critical Paths under _main in BANK6

    None.

Critical Paths under _INTERRUPT_InterruptManager in BANK6

    None.

Critical Paths under _main in BANK7

    None.

Critical Paths under _INTERRUPT_InterruptManager in BANK7

    None.

Critical Paths under _main in BANK8

    None.

Critical Paths under _INTERRUPT_InterruptManager in BANK8

    None.

Critical Paths under _main in BANK9

    None.

Critical Paths under _INTERRUPT_InterruptManager in BANK9

    None.

Critical Paths under _main in BANK10

    None.

Critical Paths under _INTERRUPT_InterruptManager in BANK10

    None.

Critical Paths under _main in BANK11

    None.

Critical Paths under _INTERRUPT_InterruptManager in BANK11

    None.

Critical Paths under _main in BANK12

    None.

Critical Paths under _INTERRUPT_InterruptManager in BANK12

    None.

Critical Paths under _main in BANK13

    None.

Critical Paths under _INTERRUPT_InterruptManager in BANK13

    None.

Critical Paths under _main in BANK14

    None.

Critical Paths under _INTERRUPT_InterruptManager in BANK14

    None.

Call Graph Tables:

 ---------------------------------------------------------------------------------
 (Depth) Function   	        Calls       Base Space   Used Autos Params    Refs
 ---------------------------------------------------------------------------------
 (0) _main                                                 4     4      0   99217
                                             85 COMRAM     2     2      0
                                              0 BANK0      2     2      0
                   _ADC_Conv_pinNine
                  _ADC_Conv_pinSeven
                        _CAN_receive
                  _SYSTEM_Initialize
                     _aux_battery_LV
                      _canbus_msg_ok
                         _e_stop_seq
                       _shutdown_seq
                       _start_up_seq
 ---------------------------------------------------------------------------------
 (1) _start_up_seq                                         2     2      0   48394
                                             83 COMRAM     2     2      0
                   _ADC_Conv_pinNine
                  _ADC_Conv_pinSeven
              _canbus_latch_shutdown
                  _canbus_msg_auxlow
         _canbus_msg_startup_success
             _canbus_msg_startupfail
 ---------------------------------------------------------------------------------
 (2) _canbus_msg_startupfail                               2     0      2    6164
                                             25 COMRAM     2     0      2
                         _canbusSend
 ---------------------------------------------------------------------------------
 (2) _canbus_msg_startup_success                           2     0      2    6164
                                             25 COMRAM     2     0      2
                         _canbusSend
 ---------------------------------------------------------------------------------
 (2) _canbus_latch_shutdown                                2     0      2    6254
                                             25 COMRAM     2     0      2
                         _canbusSend
 ---------------------------------------------------------------------------------
 (2) _ADC_Conv_pinSeven                                    9     7      2   11796
                                             78 COMRAM     5     3      2
                       _CAN_transmit
                            ___fldiv
                             ___flge
                            ___flmul
                            ___fltol
                           ___xxtofl
 ---------------------------------------------------------------------------------
 (2) _ADC_Conv_pinNine                                     5     3      2   11762
                                             78 COMRAM     5     3      2
                       _CAN_transmit
                            ___fldiv
                             ___flge
                            ___flmul
                            ___fltol
                           ___xxtofl
 ---------------------------------------------------------------------------------
 (3) ___xxtofl                                            14    10      4     746
                                              2 COMRAM    14    10      4
 ---------------------------------------------------------------------------------
 (3) ___fltol                                             10     6      4     517
                                             66 COMRAM    10     6      4
                            ___fldiv (ARG)
                            ___flmul (ARG)
                           ___xxtofl (ARG)
 ---------------------------------------------------------------------------------
 (3) ___flmul                                             25    17      8    2873
                                             41 COMRAM    25    17      8
                            ___fldiv (ARG)
                           ___xxtofl (ARG)
 ---------------------------------------------------------------------------------
 (3) ___flge                                              12     4      8     626
                                             66 COMRAM    12     4      8
                            ___fldiv (ARG)
                            ___flmul (ARG)
                           ___xxtofl (ARG)
 ---------------------------------------------------------------------------------
 (3) ___fldiv                                             25    17      8    2363
                                             16 COMRAM    25    17      8
                           ___xxtofl (ARG)
 ---------------------------------------------------------------------------------
 (1) _shutdown_seq                                         0     0      0    6164
            _canbus_shutdown_success
 ---------------------------------------------------------------------------------
 (2) _canbus_shutdown_success                              2     0      2    6164
                                             25 COMRAM     2     0      2
                         _canbusSend
 ---------------------------------------------------------------------------------
 (1) _e_stop_seq                                           0     0      0    6164
                     _canbus_msg_bps
 ---------------------------------------------------------------------------------
 (2) _canbus_msg_bps                                       2     0      2    6164
                                             25 COMRAM     2     0      2
                         _canbusSend
 ---------------------------------------------------------------------------------
 (1) _canbus_msg_ok                                        2     0      2    6164
                                             25 COMRAM     2     0      2
                         _canbusSend
 ---------------------------------------------------------------------------------
 (1) _aux_battery_LV                                       0     0      0    6254
                  _canbus_msg_auxlow
 ---------------------------------------------------------------------------------
 (2) _canbus_msg_auxlow                                    2     0      2    6254
                                             25 COMRAM     2     0      2
                         _canbusSend
 ---------------------------------------------------------------------------------
 (3) _canbusSend                                           4     0      4    6043
                                             21 COMRAM     4     0      4
                       _CAN_transmit
 ---------------------------------------------------------------------------------
 (4) _CAN_transmit                                         6     5      1    4541
                                             16 COMRAM     5     4      1
                   _convertCANid2Reg
 ---------------------------------------------------------------------------------
 (5) _convertCANid2Reg                                    14     5      9    2425
                                              2 COMRAM    14     5      9
 ---------------------------------------------------------------------------------
 (1) _SYSTEM_Initialize                                    0     0      0     121
                     _ADC_Initialize
                    _ECAN_Initialize
               _INTERRUPT_Initialize
              _OSCILLATOR_Initialize
             _PIN_MANAGER_Initialize
 ---------------------------------------------------------------------------------
 (2) _PIN_MANAGER_Initialize                               0     0      0       0
 ---------------------------------------------------------------------------------
 (2) _OSCILLATOR_Initialize                                0     0      0       0
 ---------------------------------------------------------------------------------
 (2) _INTERRUPT_Initialize                                 0     0      0       0
 ---------------------------------------------------------------------------------
 (2) _ECAN_Initialize                                      1     1      0     121
                                              4 COMRAM     1     1      0
     _ECAN_SetWakeUpInterruptHandler
 ---------------------------------------------------------------------------------
 (3) _ECAN_SetWakeUpInterruptHandler                       2     0      2     121
                                              2 COMRAM     2     0      2
 ---------------------------------------------------------------------------------
 (2) _ADC_Initialize                                       0     0      0       0
 ---------------------------------------------------------------------------------
 (1) _CAN_receive                                          2     1      1    2358
                                             21 COMRAM     2     1      1
           _convertReg2ExtendedCANid
           _convertReg2StandardCANid
 ---------------------------------------------------------------------------------
 (2) _convertReg2StandardCANid                            15    11      4     347
                                              2 COMRAM    15    11      4
 ---------------------------------------------------------------------------------
 (2) _convertReg2ExtendedCANid                            19    15      4    1075
                                              2 COMRAM    19    15      4
 ---------------------------------------------------------------------------------
 Estimated maximum stack depth 5
 ---------------------------------------------------------------------------------
 (Depth) Function   	        Calls       Base Space   Used Autos Params    Refs
 ---------------------------------------------------------------------------------
 (6) _INTERRUPT_InterruptManager                           2     2      0       0
                                              0 COMRAM     2     2      0
                      _ECAN_WAKI_ISR
 ---------------------------------------------------------------------------------
 (7) _ECAN_WAKI_ISR                                        0     0      0       0
                                NULL *
      _WakeUpDefaultInterruptHandler *
 ---------------------------------------------------------------------------------
 (8) _WakeUpDefaultInterruptHandler                        0     0      0       0
 ---------------------------------------------------------------------------------
 (8) NULL(Fake)                                            0     0      0       0
 ---------------------------------------------------------------------------------
 Estimated maximum stack depth 8
 ---------------------------------------------------------------------------------

 Call Graph Graphs:

 _main (ROOT)
   _ADC_Conv_pinNine
     _CAN_transmit
       _convertCANid2Reg
     ___fldiv
       ___xxtofl (ARG)
     ___flge
       ___fldiv (ARG)
       ___flmul (ARG)
         ___fldiv (ARG)
         ___xxtofl (ARG)
       ___xxtofl (ARG)
     ___flmul
     ___fltol
       ___fldiv (ARG)
       ___flmul (ARG)
       ___xxtofl (ARG)
     ___xxtofl
   _ADC_Conv_pinSeven
     _CAN_transmit
     ___fldiv
     ___flge
     ___flmul
     ___fltol
     ___xxtofl
   _CAN_receive
     _convertReg2ExtendedCANid
     _convertReg2StandardCANid
   _SYSTEM_Initialize
     _ADC_Initialize
     _ECAN_Initialize
       _ECAN_SetWakeUpInterruptHandler
     _INTERRUPT_Initialize
     _OSCILLATOR_Initialize
     _PIN_MANAGER_Initialize
   _aux_battery_LV
     _canbus_msg_auxlow
       _canbusSend
         _CAN_transmit
   _canbus_msg_ok
     _canbusSend
   _e_stop_seq
     _canbus_msg_bps
       _canbusSend
   _shutdown_seq
     _canbus_shutdown_success
       _canbusSend
   _start_up_seq
     _ADC_Conv_pinNine
     _ADC_Conv_pinSeven
     _canbus_latch_shutdown
       _canbusSend
     _canbus_msg_auxlow
     _canbus_msg_startup_success
       _canbusSend
     _canbus_msg_startupfail
       _canbusSend

 _INTERRUPT_InterruptManager (ROOT)
   _ECAN_WAKI_ISR
     NULL(Fake) *
     _WakeUpDefaultInterruptHandler *

 Address spaces:
Name               Size   Autos  Total    Cost      Usage
BIGRAM             E40      0       0      54        0.0%
EEDATA             400      0       0       0        0.0%
BITBANK13          100      0       0      53        0.0%
BANK13             100      0       0      22        0.0%
BITBANK12          100      0       0      52        0.0%
BANK12             100      0       0      21        0.0%
BITBANK11          100      0       0      51        0.0%
BANK11             100      0       0      20        0.0%
BITBANK10          100      0       0      50        0.0%
BANK10             100      0       0      19        0.0%
BITBANK9           100      0       0      49        0.0%
BANK9              100      0       0      18        0.0%
BITBANK8           100      0       0      48        0.0%
BANK8              100      0       0      17        0.0%
BITBANK7           100      0       0      47        0.0%
BANK7              100      0       0      16        0.0%
BITBANK6           100      0       0      46        0.0%
BANK6              100      0       0      15        0.0%
BITBANK5           100      0       0      45        0.0%
BANK5              100      0       0      14        0.0%
BITBANK4           100      0       0      12        0.0%
BANK4              100      0       0      13        0.0%
BITBANK3           100      0       0      10        0.0%
BANK3              100      0       0      11        0.0%
BITBANK2           100      0       0       8        0.0%
BANK2              100      0       0       9        0.0%
BITBANK1           100      0       0       6        0.0%
BANK1              100      0       0       7        0.0%
BITBANK0            A0      0       0       4        0.0%
BANK0               A0      2      42       5       41.2%
BITBIGSFRlllhll     62      0       0      41        0.0%
BITCOMRAM           5E      0       0       0        0.0%
COMRAM              5E     57      5B       1       96.8%
BITBANK14           41      0       0      23        0.0%
BANK14              41      0       0      24        0.0%
BITBIGSFRhhllhl     24      0       0      29        0.0%
BITBIGSFRlllhhh     1D      0       0      37        0.0%
BITBIGSFRhhlh       1D      0       0      26        0.0%
BITBIGSFRhhh         D      0       0      25        0.0%
BITBIGSFRhhllhl      B      0       0      28        0.0%
BITBIGSFRllhhhh      8      0       0      34        0.0%
BITBIGSFRllhhhh      4      0       0      32        0.0%
BITBIGSFRhll         4      0       0      31        0.0%
BITBIGSFRllhhhh      3      0       0      33        0.0%
BITBIGSFRllhhhl      3      0       0      35        0.0%
BITBIGSFRhhlll       3      0       0      30        0.0%
BITBIGSFRlllhhh      2      0       0      40        0.0%
BITBIGSFRlllhhh      2      0       0      39        0.0%
BITBIGSFRlllhhh      2      0       0      38        0.0%
BITBIGSFRllhll       2      0       0      36        0.0%
BITBIGSFRllllll      2      0       0      43        0.0%
BITBIGSFRhhllhh      1      0       0      27        0.0%
BITBIGSFRllllhl      1      0       0      42        0.0%
BIGSFR               0      0       0     200        0.0%
BITSFR_2             0      0       0     200        0.0%
SFR_2                0      0       0     200        0.0%
BITSFR_1             0      0       0     200        0.0%
SFR_1                0      0       0     200        0.0%
BITSFR               0      0       0     200        0.0%
SFR                  0      0       0     200        0.0%
STACK                0      0       0       2        0.0%
NULL                 0      0       0       0        0.0%
ABS                  0      0      9D      44        0.0%
DATA                 0      0      9D       3        0.0%
CODE                 0      0       0       0        0.0%


Microchip Technology PIC18 Macro Assembler V2.45 build 20230818022343 
Symbol Table                                                                                   Thu Nov 30 20:23:39 2023

                                     ___fldiv@aexp 0029                                       ___fldiv@bexp 0028  
                                     ___fldiv@sign 0021                                                 l33 2664  
                                               l60 27DE                                                 l57 27A4  
                                               _rx 008E                                                 _tx 0064  
                                     _shutdown_seq 27E0                          __end_of_canbus_msg_auxlow 2790  
                                              l430 196C                                                l440 1B8C  
                                              l416 1EE6                                                l433 1A7E  
                                              l425 17B4                                                l601 24A4  
                                              l426 196C                                                l515 27BA  
                                              l427 1890                                                l603 24A6  
                                              l460 2182                                                l612 24DC  
                                              l622 2572                                                l614 24DE  
                                              l463 25EA                                                l471 2804  
                                              l632 27CC                                                l625 27EC  
                                              l617 24F8                                                l635 27FA  
                                              l571 26D6                                                l619 24FA  
                                              l468 2048                                                l660 268E  
                                              l566 26B2                                                l487 280C  
                                              l591 2720                                                l576 270A  
                                              l585 278E                                                l594 2778  
                                              l579 2762                                                l588 274C  
                                              l933 238C                                                l597 2736  
                                              l928 2346                                                l960 2288  
            ECAN_SetWakeUpInterruptHandler@handler 0003                              __end_of_canbus_msg_ok 277A  
                                              tosl 0FFD                                                wreg 0FE8  
                                     ___flmul@aexp 0037                                       ___flmul@bexp 003C  
                                     ___flmul@sign 0036                                       ___flmul@temp 0041  
                                     ___flmul@prod 003D                         ??_convertReg2StandardCANid 0007  
                                     ___fltol@exp1 004C                                               l1321 1D40  
                                             l1250 14E8                                               l3100 1FBC  
                                             l1332 1CD8                                               l1245 16C4  
                                             l1325 1C7C                                               l3102 1FEA  
                                             l1318 1BE4                                               l1247 1524  
                                             l3104 1FF8                                               l3200 1920  
                                             l3120 171E                                               l1256 156A  
                                             l1281 132A                                               l3106 2008  
                                             l3210 1966                                               l3202 192E  
                                             l3130 173E                                               l3122 1722  
                                             l3114 16C6                                               l1258 15E2  
                                             l1259 15D0                                               l3108 203A  
                                             l3204 193C                                               l3140 1784  
                                             l3132 174C                                               l3124 1726  
                                             l3116 16D6                                               l3220 266C  
                                             l3300 14D8                                               l1284 11BC  
                                             l1277 0FC6                                               l3206 194A  
                                             l3150 17C2                                               l3142 1792  
                                             l3134 175A                                               l3126 172A  
                                             l3118 16E6                                               l3222 267E  
                                             l3310 1522                                               l3302 14E6  
                                             l3230 1338                                               l1294 12EC  
                                             l1286 1234                                               l1287 1222  
                                             l3216 27FC                                               l3080 1EE8  
                                             l3208 1958                                               l3160 180A  
                                             l3152 17FA                                               l3144 17A0  
                                             l3136 1768                                               l3128 172E  
                                             l3224 2682                                               l3320 1568  
                                             l3312 1534                                               l3304 14F2  
                                             l3240 1378                                               l3232 1346  
                                             l3400 0FD6                                               l3090 1F6A  
                                             l3082 1EE8                                               l3170 1852  
                                             l3162 181A                                               l3154 17FE  
                                             l3146 17AE                                               l3138 1776  
                                             l3226 2686                                               l3218 2666  
                                             l3330 15C8                                               l3314 154A  
                                             l3322 157A                                               l3306 1510  
                                             l3250 139E                                               l3242 137A  
                                             l3234 1348                                               l3410 1010  
                                             l3402 0FE6                                               l3092 1F70  
                                             l3084 1EFA                                               l3172 1860  
                                             l3164 1828                                               l3156 1802  
                                             l3148 17B0                                               l3340 1636  
                                             l3324 1588                                               l3316 1550  
                                             l3308 1512                                               l3260 13DE  
                                             l3252 13AC                                               l3236 1358  
                                             l3244 1382                                               l3228 132C  
                                             l3500 22C8                                               l3420 1062  
                                             l3412 1026                                               l3094 1FA2  
                                             l3086 1F04                                               l3190 18E2  
                                             l3182 189E                                               l3174 186E  
                                             l3166 1836                                               l3158 1806  
                                             l3350 16A0                                               l3334 15F2  
                                             l3342 163A                                               l3326 158C  
                                             l3318 155A                                               l3270 141E  
                                             l3262 13E0                                               l3254 13AE  
                                             l3246 1392                                               l3238 1368  
                                             l3510 2334                                               l3502 22F6  
                                             l3430 10A8                                               l3422 1070  
                                             l3414 1032                                               l3406 0FFA  
                                             l3096 1FAA                                               l3088 1F32  
                                             l3192 18E6                                               l3184 18D6  
                                             l3176 187C                                               l3168 1844  
                                             l3352 16A4                                               l3344 1654  
                                             l3336 15FE                                               l3328 159A  
                                             l3280 144E                                               l3272 1426  
                                             l3256 13BE                                               l3264 13E8  
                                             l3248 1398                                               l3512 2384  
                                             l3504 2306                                               l3440 1116  
                                             l3432 10C2                                               l3424 107C  
                                             l3416 104A                                               l3408 1006  
                                             l3520 219A                                               l3600 1D20  
                                             l3610 2652                                               l3098 1FB0  
                                             l3194 18F6                                               l3186 18DA  
                                             l3178 188A                                               l3354 16B2  
                                             l3346 166A                                               l3338 160C  
                                             l3290 148C                                               l3282 144E  
                                             l3274 142A                                               l3266 13F8  
                                             l3258 13CE                                               l3514 238A  
                                             l3506 2314                                               l3450 11AC  
                                             l3442 1140                                               l3434 10D2  
                                             l3426 108C                                               l3418 1056  
                                             l3370 0F1C                                               l3530 21EA  
                                             l3602 1D2E                                               l3620 1D42  
                                             l3612 2662                                               l3196 1904  
                                             l3188 18DE                                               l3356 16B8  
                                             l3348 1684                                               l3292 149C  
                                             l3268 140E                                               l3508 2326  
                                             l3460 11EC                                               l3452 11BA  
                                             l3444 1176                                               l3436 10EE  
                                             l3428 1098                                               l3380 0F54  
                                             l3372 0F1E                                               l3540 2214  
                                             l3532 21EE                                               l3524 21AE  
                                             l3604 1D30                                               l3630 1D74  
                                             l3622 1D46                                               l3614 280A  
                                             l3198 1912                                               l3358 16BA  
                                             l3294 14AC                                               l3286 1462  
                                             l3278 143E                                               l3470 125E  
                                             l3462 121A                                               l3454 11CC  
                                             l3446 1184                                               l3438 10FA  
                                             l3390 0F80                                               l3382 0F64  
                                             l3374 0F2E                                               l3366 0F02  
                                             l3550 223C                                               l3542 221E  
                                             l3534 21FC                                               l3526 21D8  
                                             l3518 2184                                               l3800 1A8E  
                                             l3640 1EAA                                               l3632 1D76  
                                             l3624 1D5A                                               l3616 27CE  
                                             l3608 262E                                               l3296 14B4  
                                             l3288 147C                                               l3480 12D4  
                                             l3472 1288                                               l3456 11DA  
                                             l3448 11A2                                               l3392 0F90  
                                             l3384 0F6A                                               l3376 0F3E  
                                             l3368 0F0E                                               l3552 2248  
                                             l3544 2228                                               l3528 21DA  
                                             l3720 26CE                                               l3810 1B04  
                                             l3802 1A9C                                               l3618 27A6  
                                             l3650 1ED0                                               l3642 1EBC  
                                             l3634 1D78                                               l3626 1D68  
                                             l3298 14C4                                               l3482 12F0  
                                             l3490 1316                                               l3466 1244  
                                             l3474 128C                                               l3458 11DE  
                                             l3394 0FA0                                               l3386 0F70  
                                             l3378 0F4E                                               l3554 2258  
                                             l3570 1C0A                                               l3562 1B90  
                                             l3660 2094                                               l3652 204C  
                                             l3820 1B4A                                               l3812 1B12  
                                             l3804 1AA6                                               l3644 1EC8  
                                             l3636 1EA6                                               l3628 1D6A  
                                             l3492 131A                                               l3484 1300  
                                             l3476 12A6                                               l3468 1250  
                                             l3396 0FB0                                               l3388 0F7E  
                                             l3556 2268                                               l3580 1C64  
                                             l3564 1BA0                                               l3900 2430  
                                             l3670 2162                                               l3662 20AC  
                                             l3654 205C                                               l3822 1B58  
                                             l3814 1B20                                               l3806 1AD6  
                                             l3646 1ECA                                               l3638 1EA8  
                                             l3486 130E                                               l3478 12BA  
                                             l3398 0FB6                                               l3558 2278  
                                             l3590 1CC8                                               l3582 1C66  
                                             l3574 1C1E                                               l3566 1BAE  
                                             l3718 26B4                                               l3750 270C  
                                             l3742 26F6                                               l3902 2434  
                                             l3910 2480                                               l3672 2172  
                                             l3664 20DE                                               l3656 2062  
                                             l3680 25A0                                               l3824 1B66  
                                             l3816 1B2E                                               l3808 1AE0  
                                             l3832 1B8A                                               l3648 1ECC  
                                             l3760 279C                                               l3744 274E  
                                             l3496 228A                                               l3488 1310  
                                             l3592 1CE6                                               l3584 1C72  
                                             l3576 1C26                                               l3568 1BF4  
                                             l3752 2722                                               l3840 24A8  
                                             l3904 2452                                               l3666 2114  
                                             l3658 206A                                               l3682 25CA  
                                             l3826 1B74                                               l3818 1B3C  
                                             l3770 198E                                               l3762 27A0  
                                             l3754 2790                                               l3746 277A  
                                             l3498 22B8                                               l3594 1CE8  
                                             l3586 1CAE                                               l3578 1C32  
                                             l3690 26AA                                               l3850 24E0  
                                             l3842 24C0                                               l3906 245E  
                                             l3668 212C                                               l3684 25DA  
                                             l3676 2576                                               l3828 1B82  
                                             l3780 1A04                                               l3772 1998  
                                             l3764 196E                                               l3756 2794  
                                             l3836 2764                                               l3748 2738  
                                             l3596 1CEC                                               l3588 1CBA  
                                             l3852 24E8                                               l3844 24C2  
                                             l3860 252E                                               l3908 2476  
                                             l3678 2576                                               l3790 1A4A  
                                             l3782 1A12                                               l3774 19C8  
                                             l3766 1972                                               l3758 2798  
                                             l3870 27C8                                               l3598 1D10  
                                             l3862 2544                                               l3854 24FC  
                                             l3846 24C4                                               l3838 248E  
                                             l3792 1A58                                               l3784 1A20  
                                             l3776 19D2                                               l3768 1980  
                                             l3872 27CA                                               l3688 2690  
                                             l3864 2550                                               l3856 2508  
                                             l3848 24C6                                               l3880 2392  
                                             l3794 1A66                                               l3786 1A2E  
                                             l3778 19F6                                               l3874 27EE  
                                             l3866 27E0                                               l3858 251E  
                                             l3890 23E0                                               l3882 239C  
                                             l3796 1A74                                               l3788 1A3C  
                                             l3868 27BC                                               l3892 23FC  
                                             l3884 23AE                                               l3798 1A76  
                                             l3894 2400                                               l3886 23B6  
                                             l3878 238E                             _canbus_msg_startupfail 26F6  
                                             l3896 2416                                               l3888 23CE  
                                             l3898 241A                                               u2000 13BE  
                                             u2001 13BA                                               u2010 13CE  
                                             u2011 13CA                                               u2100 1588  
                                             u2020 140E                                               u2101 1584  
                                             u2021 140A                                               u2110 159A  
                                             u2030 144E                                               u2111 1596  
                                             u2031 144A                                               u2120 15C8  
                                             u2040 14C4                                               u2200 0F2E  
                                             u2121 15C4                                               u2041 14C0  
                                             u2201 0F2A                                               u2130 15DE  
                                             u2050 14E6                                               u2210 0F3E  
                                             u2131 15DA                                               u2051 14E2  
                                             u2211 0F3A                                               u2140 15F2  
                                             u2060 1510                                               u2300 11EC  
                                             u2220 0F7E                                               u2141 15EE  
                                             u2061 150C                                               u2301 11E8  
                                             u2221 0F7A                                               _LATA 0F89  
                                             u2150 160C                                               u2070 1534  
                                             u2310 121A                                               u2230 0F90  
                                             _LATB 0F8A                                               u2151 1608  
                                             u2071 1530                                               u2311 1216  
                                             u2231 0F8C                                               _LATC 0F8B  
                                             u2160 1654                                               u2080 154A  
                                             u2400 2314                                               u2320 1230  
                                             u2240 0FA0                                               _LATD 0F8C  
                                             u2161 1650                                               u2081 1546  
                                             u2401 2310                                               u2321 122C  
                                             u2241 0F9C                                               _LATE 0F8D  
                                             u2170 1684                                               u2090 1568  
                                             u2410 2334                                               u2330 1244  
                                             u2250 0FD6                                               u2171 1680  
                                             u2091 1564                                               u2411 2330  
                                             u2331 1240                                               u2251 0FD2  
                                             u2180 16B2                                               u2420 2384  
                                             u2340 125E                                               u2260 0FE6  
                                             u2500 1BA0                                               u2181 16AE  
                                             u2421 2380                                               u2341 125A  
                                             u2261 0FE2                                               u2501 1B9C  
                                             u2350 12A6                                               u2270 1160  
                                             u2190 0F1C                                               u2430 219A  
                                             u2510 1BAE                                               u2351 12A2  
                                             u2191 0F18                                               u2431 2196  
                                             u2511 1BAA                                               u2600 1D5A  
                                             u2360 12D4                                               u2280 11BA  
                                             u2440 21CE                                               u2520 1C0A  
                                             u2601 1D56                                               u2361 12D0  
                                             u2281 11B6                                               u2521 1C06  
                                             u2610 1EE6                                               u2370 130E  
                                             u2290 11DA                                               u2450 21FC  
                                             u2530 1C60                                               u2611 1EE2  
                                             u2371 130A                                               u2291 11D6  
                                             u2275 1156                                               u2451 21F8  
                                             u2531 1C5C                                               u1900 1EFA  
                                             u2380 22B8                                               u2460 2210  
                                             u2540 1CAA                                               u2700 24A4  
                                             u1901 1EF6                                               u2381 22B4  
                                             u2461 220C                                               u2445 21C4  
                                             u2541 1CA6                                               u2701 24A0  
                                             u2390 22F6                                               u2470 2238  
                                             u2550 1CC8                                               u2710 24DC  
                                             u2391 22F2                                               u2471 2234  
                                             u2551 1CC4                                               u2711 24D8  
                                             u2480 2258                                               u2560 1CD8  
                                             u2640 26A2                                               u2720 23AE  
                                             u2625 20BE                                               u2481 2254  
                                             u2561 1CD4                                               u2641 269A  
                                             u2721 23AA                                               u1930 16E6  
                                             u2490 2268                                               u2570 1CE6  
                                             u2650 26C6                                               u2730 23CE  
                                             u2635 25A8                                               u1915 1F82  
                                             u1931 16E2                                               u2491 2264  
                                             u2571 1CE2                                               u2651 26BE  
                                             u2731 23CA                                               u2660 1980  
                                             u1940 17C2                                               u2580 1D20  
                                             u2740 23E0                                               u2661 197C  
                                             u1925 201A                                               u1941 17BE  
                                             u2581 1D1C                                               u2741 23DC  
                                             u2670 198E                                               u1950 189E  
                                             u2590 1D2E                                               u2750 23FC  
                                             u2671 198A                                               u1951 189A  
                                             u2591 1D2A                                               u2807 24B2  
                                             u2751 23F8                                               u2680 1A8E  
                                             u1960 1346                                               u2648 26A4  
                                             u2760 2416                                               u2681 1A8A  
                                             u1961 1342                                               u2817 2512  
                                             u2761 2412                                               u2690 1A9C  
                                             u1970 1358                                               u2658 26C8  
                                             u2770 2430                                               u2691 1A98  
                                             u1971 1354                                               u2827 2538  
                                             u2771 242C                                               u1980 1368  
                                             u2780 2452                                               u1981 1364  
                                             u2837 255A                                               u2781 244E  
                                             u1990 13AC                                               u1991 13A8  
                                             u2797 2468                                               _WPUB 0F5B  
                                             _tx20 0072                                               _tx21 0080  
                                             _main 238E                       convertCANid2Reg@passedInEIDH 0008  
                     convertCANid2Reg@passedInEIDL 0009                             __end_of_canbus_msg_bps 2764  
                                             fsr2h 0FDA                                               indf2 0FDF  
                                             fsr1l 0FE1                                               fsr2l 0FD9  
                                             btemp 005C                       convertCANid2Reg@passedInSIDH 000A  
                     convertCANid2Reg@passedInSIDL 000B                                       _start_up_seq 248E  
                                 _ADC_Conv_pinNine 26B4                                               prodh 0FF4  
                                             prodl 0FF3                                               start 004C  
                                  ___fldiv@new_exp 0022                                       ___param_bank 0000  
                         ADC_Conv_pinSeven@adc_val 0052                      __end_of_OSCILLATOR_Initialize 27E0  
                                    ___fltol@sign1 004B                                              ?_main 0001  
                                  __end_of___fldiv 16C6                                    __end_of___flmul 132C  
                                  __end_of___fltol 228A                                              _BSEL0 0E7D  
                                            i2l407 280E                                              i2l474 26F4  
                                            i2l496 0040                                              _MSEL0 0E79  
                                            _MSEL1 0E7A                                              _MSEL2 0E7B  
                                            _MSEL3 0E7C                                              _TRISA 0F92  
                                            _TRISB 0F93                                              _TRISC 0F94  
                                            _TRISD 0F95                                              _TRISE 0F96  
                            CAN_receive@tempCanMsg 0016                               __end_of_CAN_transmit 196E  
                                            pclath 0FFA                                              pclatu 0FFB  
                                            tablat 0FF5                                  _ADC_Conv_pinSeven 2690  
                                            ttemp5 005D                                              ttemp6 0060  
                                            ttemp7 0064                convertReg2ExtendedCANid@ConvertedID 0012  
                                            status 0FD8                                              wtemp8 005D  
                                  ?_canbus_msg_bps 001A                               CAN_transmit@tempEIDH 0012  
                             CAN_transmit@tempEIDL 0013                               CAN_transmit@tempSIDH 0014  
                             CAN_transmit@tempSIDL 0015                                 ?_ADC_Conv_pinSeven 004F  
                                  __initialization 25EC                                       __end_of_main 248E  
                              ??_ADC_Conv_pinSeven 0051                        ?_INTERRUPT_InterruptManager 0001  
                                           ??_main 0056                                      __activetblptr 0002  
                  ??_WakeUpDefaultInterruptHandler 0001                                  ??_ECAN_Initialize 0005  
                                           _ADCON0 0FC2                                             _ADCON1 0FC1  
                                           _ADCON2 0FC0                                             _CANCON 0F6F  
                                           _ADRESH 0FC4                                             _ADRESL 0FC3  
                                           _ANCON0 0F5D                                             _ANCON1 0F5C  
                                           _CIOCON 0F70                          __end_of_ADC_Conv_pinSeven 26B4  
                                   _aux_battery_LV 27EE                      __end_of_canbus_latch_shutdown 2738  
                                           i2l2092 26D8                                             i2l2180 0020  
                                           i2l2094 26F2                                             i2l2182 002E  
                                           i2l2184 003C                                             i2l2178 0012  
                                           _OSCCON 0FD3                                             _RXB0D0 0F66  
                                           _RXB0D1 0F67                                             _RXB0D2 0F68  
                                           _RXB0D3 0F69                                             _RXB1D0 0F36  
                                           _RXB0D4 0F6A                                             _RXB1D1 0F37  
                                           _RXB0D5 0F6B                                             _RXB1D2 0F38  
                                           _RXB0D6 0F6C                                             _RXB1D3 0F39  
                                           _RXB0D7 0F6D                                             _RXB1D4 0F3A  
                                           _RXB1D5 0F3B                                             _RXB1D6 0F3C  
                                           _RXB1D7 0F3D                                             _TXB0D0 0F26  
                                           _TXB0D1 0F27                                             _TXB0D2 0F28  
                                           _TXB0D3 0F29                                             _TXB1D0 0F16  
                                           _TXB0D4 0F2A                                             _TXB1D1 0F17  
                                           _TXB0D5 0F2B                                             _TXB1D2 0F18  
                                           _TXB0D6 0F2C                                             _TXB1D3 0F19  
                                           _TXB0D7 0F2D                                             _TXB2D0 0F06  
                                           _TXB1D4 0F1A                                             _TXB2D1 0F07  
                                           _TXB1D5 0F1B                                             _TXB2D2 0F08  
                                           _TXB1D6 0F1C                                             _TXB2D3 0F09  
                                           _TXB1D7 0F1D                                             _TXB2D4 0F0A  
                                           _TXB2D5 0F0B                                             _TXB2D6 0F0C  
                                           _TXB2D7 0F0D                                   __end_of___xxtofl 1D42  
                      canbus_latch_shutdown@number 001A                                             ___flge 228A  
                                        ??___fldiv 0019                                          ??___flmul 0032  
                                        ??___fltol 0047                            _canbus_shutdown_success 2738  
                                           clear_0 2612                                             isa$std 0001  
                                     __mediumconst 0000                   __end_of_convertReg2StandardCANid 25EC  
                                           tblptrh 0FF7                                             tblptrl 0FF6  
                                           tblptru 0FF8                             __end_of_aux_battery_LV 27FC  
                                       ___flge@ff1 0043                                         ___flge@ff2 0047  
                                     ___xxtofl@arg 000D                                       ___xxtofl@exp 000C  
                                _SYSTEM_Initialize 2790                                       ___xxtofl@val 0003  
                                       __accesstop 0060                            __end_of__initialization 2620  
                               ?_SYSTEM_Initialize 0001                           _convertReg2ExtendedCANid 204A  
                           CAN_receive@returnValue 0017                                      ___rparam_used 0001  
                                       ___fltol@f1 0043                                     __pcstackCOMRAM 0001  
                                     __pidataBANK0 2806                                ??_SYSTEM_Initialize 0006  
                         __end_of_ADC_Conv_pinNine 26D8                            ?_canbus_msg_startupfail 001A  
                                    _ECAN_WAKI_ISR 26D8                                    ?_aux_battery_LV 0001  
            convertReg2StandardCANid@tempRXBn_SIDH 0009              convertReg2StandardCANid@tempRXBn_SIDL 0003  
                        __end_of_SYSTEM_Initialize 27A6                            ADC_Conv_pinNine@adc_val 0052  
                                       _canbusSend 2666                                         __pbssBANK0 0060  
            __end_of_WakeUpDefaultInterruptHandler 2810                      _WakeUpDefaultInterruptHandler 280E  
                        ??_canbus_shutdown_success 001C                                            ?___flge 0043  
                                     _CAN_transmit 16C6                                    _STARTUP_SUCCESS 0058  
                                       _e_stop_seq 27BC                                            _ECANCON 0F72  
                                          _CANSTAT 0F6E                   ??_ECAN_SetWakeUpInterruptHandler 0005  
                  ?_ECAN_SetWakeUpInterruptHandler 0003                                            _BRGCON1 0E43  
                                          _BRGCON2 0E44                                            _BRGCON3 0E45  
                   __end_of_canbus_msg_startupfail 270C                                          ?___xxtofl 0003  
                                          _REFOCON 0F9A                                            _OSCCON2 0FD2  
                                   ?_ECAN_WAKI_ISR 0001                                            _RXB0DLC 0F65  
                                          _RXB1DLC 0F35                                            _OSCTUNE 0F9B  
                                          i2u81_48 26DE                                            i2u90_40 0020  
                                          i2u81_49 26F2                                            i2u90_41 001C  
                                          i2u91_40 002E                                            i2u91_41 002A  
                                          i2u92_40 003C                                            i2u92_41 0038  
                                          _TXB0DLC 0F25                                            _TXB1DLC 0F15  
                                          _TXB2DLC 0F05                                            _RXFCON0 0E46  
                                          _RXFCON1 0E47                                   ??_canbus_msg_bps 001C  
                    canbus_shutdown_success@number 001A                               _ADC_InterruptHandler 0062  
                                          __Hparam 0000                                            __Lparam 0000  
                        ?_convertReg2StandardCANid 0003                                            ___fldiv 132C  
                                          ___flmul 0F02                                            ___fltol 2184  
                                  _ECAN_Initialize 1D42                                       __psmallconst 0F00  
                                          __pcinit 25EC                                            __ramtop 0F00  
                                          __ptext0 238E                                            __ptext1 248E  
                                          __ptext2 26F6                                            __ptext3 270C  
                                          __ptext4 2722                                            __ptext5 2690  
                                          __ptext6 26B4                                            __ptext7 1B8E  
                                          __ptext8 2184                                            __ptext9 0F02  
                            _OSCILLATOR_Initialize 27CE                                         ??___xxtofl 0007  
                  __end_of_canbus_shutdown_success 274E                                   _convertCANid2Reg 1EE8  
                         ??_PIN_MANAGER_Initialize 0003                                        ?_canbusSend 0016  
                             end_of_initialization 2620                             _WakeUpInterruptHandler 005A  
                                   canbusSend@data 0018                                      __Lmediumconst 0000  
                                    ??_CAN_receive 0017                   fp__WakeUpDefaultInterruptHandler 0000  
                   ?_WakeUpDefaultInterruptHandler 0001                                          _RXF10EIDH 0E5A  
                                        _RXF10EIDL 0E5B                                          _RXF11EIDH 0E5E  
                                        _RXF11EIDL 0E5F                                          _RXF12EIDH 0E62  
                                        _RXF12EIDL 0E63                                          _RXF13EIDH 0E66  
                                        _RXF13EIDL 0E67                                          _RXF14EIDH 0E6A  
                                        _RXF14EIDL 0E6B                                          _RXF15EIDH 0E6E  
                                        _RXF15EIDL 0E6F                                          _RXF10SIDH 0E58  
                                        _RXF10SIDL 0E59                                          _RXF11SIDH 0E5C  
                                        _RXF11SIDL 0E5D                                          _RXF12SIDH 0E60  
                                        _RXF12SIDL 0E61                                            postdec1 0FE5  
                                        _RXF13SIDH 0E64                                          _RXF13SIDL 0E65  
                                        _RXF14SIDH 0E68                                          _RXF14SIDL 0E69  
                                        _RXF15SIDH 0E6C                                          _RXF15SIDL 0E6D  
                                          postinc0 0FEE                                            postinc2 0FDE  
               __end_of_canbus_msg_startup_success 2722                         _canbus_msg_startup_success 270C  
                                        _THRESVOLT 009C                                        ?_e_stop_seq 0001  
                                        _PORTAbits 0F80                                          _PORTEbits 0F84  
                                  ??_ECAN_WAKI_ISR 0001                                      ___xxtofl@sign 000B  
                                    _canbus_msg_ok 2764                             CAN_transmit@tempCanMsg 0011  
                                      ___fldiv@grs 0024                                        ___fldiv@rem 001D  
                       ??_convertReg2ExtendedCANid 0007                                        ___flmul@grs 0038  
                            _canbus_latch_shutdown 2722                            __end_of_ECAN_Initialize 1EE8  
                     __end_of_INTERRUPT_Initialize 280E                                __end_of_CAN_receive 1B8E  
                                   __end_of___flge 238E                                      ?_shutdown_seq 0001  
                                   _ADC_Initialize 27A6                             ?_OSCILLATOR_Initialize 0001  
                                 ??_aux_battery_LV 001C                                     ?_canbus_msg_ok 001A  
                                ?_ADC_Conv_pinNine 004F                                start_initialization 25EC  
                               ??_ADC_Conv_pinNine 0051                                      ?_start_up_seq 0001  
              convertReg2StandardCANid@returnValue 000A                                           ??___flge 004B  
                           __end_of_ADC_Initialize 27BC                                     ??_shutdown_seq 001C  
                                      __pdataBANK0 009C                                       canbusSend@id 0016  
                     canbus_msg_startupfail@number 001A                                          ___fldiv@a 0015  
                                        ___fldiv@b 0011                                          ___flmul@a 002E  
                                        ___flmul@b 002A                                        __pbssCOMRAM 0058  
                                    __pcstackBANK0 00A0             __end_of_ECAN_SetWakeUpInterruptHandler 2806  
                   _ECAN_SetWakeUpInterruptHandler 27FC                             ?_canbus_latch_shutdown 001A  
                                   ??_start_up_seq 0054                                        _CAN_receive 196E  
                                 ?_ECAN_Initialize 0001                             _PIN_MANAGER_Initialize 262E  
                         __end_of_convertCANid2Reg 204A                                          __pintcode 0008  
                                         ?___fldiv 0011                                           ?___flmul 002A  
                                         ?___fltol 0043                                    ?_ADC_Initialize 0001  
                     ??_INTERRUPT_InterruptManager 0001                                    ??_canbus_msg_ok 001C  
                     ??_canbus_msg_startup_success 001C                                        __smallconst 0F00  
                                      _COMSTATbits 0F71                   __end_of_convertReg2ExtendedCANid 2184  
                   convertCANid2Reg@tempPassedInID 0003                                       ??_canbusSend 001A  
                             _INTERRUPT_Initialize 280A                           ?_canbus_shutdown_success 001A  
                                         _LATAbits 0F89                                           _LATCbits 0F8B  
                                         _PIE5bits 0F76                                           _PIR5bits 0F77  
                                         _RXB0EIDH 0F63                                           _RXB0EIDL 0F64  
                                         _RXB1EIDH 0F33                                           _RXB1EIDL 0F34  
                                         _RCONbits 0FD0                                           _RXB0SIDH 0F61  
                                         _RXB0SIDL 0F62                                           _RXF0EIDH 0EE2  
                                         _RXB1SIDH 0F31                                           _RXF0EIDL 0EE3  
                                         _RXB1SIDL 0F32                                           _RXF1EIDH 0EE6  
                                         _RXF1EIDL 0EE7                                           _RXF2EIDH 0EEA  
                                         _RXF2EIDL 0EEB                                           _RXF3EIDH 0EEE  
                                         _RXF3EIDL 0EEF                                           _RXF4EIDH 0EF2  
                                         _RXF4EIDL 0EF3                                           _RXF5EIDH 0EF6  
                                         _RXF5EIDL 0EF7                                           _RXF6EIDH 0E4A  
                                         _RXF6EIDL 0E4B                                           _RXF0SIDH 0EE0  
                                         _RXF7EIDH 0E4E                                           _RXF0SIDL 0EE1  
                                         _RXF7EIDL 0E4F                                           _RXF1SIDH 0EE4  
                                         _RXF8EIDH 0E52                                           _TXB0EIDH 0F23  
                                         _TXB0EIDL 0F24                                           _RXF1SIDL 0EE5  
                                         _RXF8EIDL 0E53                                           _RXF2SIDH 0EE8  
                                         _RXF9EIDH 0E56                                           _TXB1EIDH 0F13  
                                         _TXB1EIDL 0F14                                           _RXF2SIDL 0EE9  
                                         _RXF9EIDL 0E57                                           _RXF3SIDH 0EEC  
                                         _TXB2EIDH 0F03                                           _TXB2EIDL 0F04  
                                         _RXF3SIDL 0EED                                           _RXF4SIDH 0EF0  
                                         _RXF4SIDL 0EF1                                           _RXF5SIDH 0EF4  
                                         _RXF5SIDL 0EF5                                           _RXF6SIDH 0E48  
                                         _RXF6SIDL 0E49                                           _RXM0EIDH 0EFA  
                                         _RXF7SIDH 0E4C                                           _RXM0EIDL 0EFB  
                                         _RXF7SIDL 0E4D                                           _RXM1EIDH 0EFE  
                                         _RXF8SIDH 0E50                                           _TXB0SIDH 0F21  
                                         _RXM1EIDL 0EFF                                           _RXF8SIDL 0E51  
                                         _TXB0SIDL 0F22                                           _RXF9SIDH 0E54  
                                         _TXB1SIDH 0F11                                           _RXF9SIDL 0E55  
                                         _TXB1SIDL 0F12                                           _TXB2SIDH 0F01  
                                         _TXB2SIDL 0F02                                           _RXFBCON0 0E71  
                                         _RXFBCON1 0E72                                           _RXFBCON2 0E73  
                                         _RXFBCON3 0E74                                           _RXFBCON4 0E75  
                                         _RXFBCON5 0E76                                           _RXFBCON6 0E77  
                                         _RXFBCON7 0E78                        ?_canbus_msg_startup_success 001A  
                                         _RXM0SIDH 0EF8                                           _RXM0SIDL 0EF9  
                                         _RXM1SIDH 0EFC                                           _RXM1SIDL 0EFD  
                                     ??_e_stop_seq 001C                                 __end_of_canbusSend 2690  
                                       _ADCON0bits 0FC2                                        _INTCON2bits 0FF1  
                                        copy_data0 2600                              ?_INTERRUPT_Initialize 0001  
                             __end_of_shutdown_seq 27EE                                 __end_of_e_stop_seq 27CE  
                         _convertReg2StandardCANid 2574              convertReg2ExtendedCANid@tempRXBn_EIDH 000B  
            convertReg2ExtendedCANid@tempRXBn_EIDL 0003              convertReg2ExtendedCANid@tempRXBn_SIDH 0004  
            convertReg2ExtendedCANid@tempRXBn_SIDL 0005                                           __Hrparam 0000  
                                         __Lrparam 0000                          convertCANid2Reg@canIdType 0007  
                          ??_OSCILLATOR_Initialize 0003                           ??_canbus_msg_startupfail 001C  
convertReg2ExtendedCANid@CAN_standardLo_ID_hi3bits 0011                   canbus_msg_startup_success@number 001A  
                             __end_of_start_up_seq 2574  convertReg2ExtendedCANid@CAN_standardLo_ID_lo2bits 0010  
                                         ___xxtofl 1B8E                            convertCANid2Reg@wipSIDL 0010  
                            __end_of_ECAN_WAKI_ISR 26F6                            canbus_msg_auxlow@number 001A  
                                         __ptext10 228A                                           __ptext11 132C  
                                         __ptext20 16C6                                           __ptext12 27E0  
                                         __ptext21 1EE8                                           __ptext13 2738  
                                         __ptext30 2574                                           __ptext22 2790  
                                         __ptext14 27BC                                           __ptext31 204A  
                                         __ptext23 262E                                           __ptext15 274E  
                                         __ptext24 27CE                                           __ptext16 2764  
                                         __ptext33 26D8                                           __ptext25 280A  
                                         __ptext17 27EE                                           __ptext34 280E  
                                         __ptext26 1D42                                           __ptext18 277A  
                                         __ptext35 0000                                           __ptext27 27FC  
                                         __ptext19 2666                                           __ptext28 27A6  
                                         __ptext29 196E                convertReg2StandardCANid@ConvertedID 000E  
                                         _iterator 0060                convertReg2ExtendedCANid@returnValue 000C  
                                         isa$xinst 0000                          ?_convertReg2ExtendedCANid 0003  
                                    ?_CAN_transmit 0011                                           int$flags 005C  
               __end_of_INTERRUPT_InterruptManager 004C                         _INTERRUPT_InterruptManager 0008  
                                         main@iter 00A0                                        _RXB0CONbits 0F60  
                                      _RXB1CONbits 0F30                                         _INTCONbits 0FF2  
                           ??_INTERRUPT_Initialize 0003                            ??_canbus_latch_shutdown 001C  
                                         intlevel2 0000                               canbus_msg_bps@number 001A  
                          ?_PIN_MANAGER_Initialize 0001                                        _TXB0CONbits 0F20  
                                     ?_CAN_receive 0016                                        _TXB1CONbits 0F10  
                                      _TXB2CONbits 0F00                                   ??_ADC_Initialize 0003  
                                   ??_CAN_transmit 0012                                  ?_convertCANid2Reg 0003  
                               ??_convertCANid2Reg 000C                                  _canbus_msg_auxlow 277A  
                               ?_canbus_msg_auxlow 001A                                canbus_msg_ok@number 001A  
                   __end_of_PIN_MANAGER_Initialize 2666                                ??_canbus_msg_auxlow 001C  
                                   _canbus_msg_bps 274E  
