

Microchip MPLAB XC8 Assembler V2.45 build 20230818022343 
                                                                                               Thu Nov 30 18:30:41 2023

Microchip MPLAB XC8 C Compiler v2.45 (Free license) build 20230818022343 Og1 
     1                           	processor	18F46K80
     2                           	fnconf	rparam,??,?,0
     3                           	pagewidth 120
     4                           	opt	flic
     5                           	psect	cinit,global,reloc=2,class=CODE,delta=1
     6                           	psect	bssCOMRAM,global,class=COMRAM,space=1,delta=1,lowdata,noexec
     7                           	psect	cstackCOMRAM,global,class=COMRAM,space=1,delta=1,lowdata,noexec
     8                           	psect	text0,global,reloc=2,class=CODE,delta=1
     9                           	psect	text1,global,reloc=2,class=CODE,delta=1
    10                           	psect	text2,global,reloc=2,class=CODE,delta=1
    11                           	psect	text3,global,reloc=2,class=CODE,delta=1
    12                           	psect	text4,global,reloc=2,class=CODE,delta=1
    13                           	psect	text5,global,reloc=2,class=CODE,delta=1
    14                           	psect	text6,global,reloc=2,class=CODE,delta=1
    15                           	psect	text7,global,reloc=2,class=CODE,delta=1
    16                           	psect	text8,global,reloc=2,class=CODE,delta=1
    17                           	psect	text9,global,reloc=2,class=CODE,delta=1
    18                           	psect	text10,global,reloc=2,class=CODE,delta=1
    19                           	psect	text11,global,reloc=2,class=CODE,delta=1
    20                           	psect	text12,global,reloc=2,class=CODE,delta=1
    21                           	psect	text13,global,reloc=2,class=CODE,delta=1
    22                           	psect	text14,global,reloc=2,class=CODE,delta=1
    23                           	psect	text15,global,reloc=2,class=CODE,delta=1
    24                           	psect	intcode,global,reloc=2,class=CODE,delta=1
    25                           	psect	text17,global,reloc=2,class=CODE,delta=1
    26                           	psect	text18,global,reloc=2,class=CODE,delta=1
    27                           	psect	smallconst,global,reloc=2,class=SMALLCONST,delta=1,noexec
    28                           	psect	intsave_regs,global,class=BIGRAM,space=1,delta=1,noexec
    29                           	psect	text19,global,reloc=2,class=CODE,delta=1
    30                           	psect	rparam,global,class=COMRAM,space=1,delta=1,noexec
    31                           	psect	temp,global,ovrld,common,class=COMRAM,space=1,delta=1
    32                           	psect	idloc,global,abs,ovrld,class=IDLOC,space=5,delta=1,noexec
    33                           	psect	config,global,abs,ovrld,class=CONFIG,space=4,delta=1,noexec
    34   000000                     
    35                           ; Version 2.20
    36                           ; Generated 05/05/2020 GMT
    37                           ; 
    38                           ; Copyright © 2020, Microchip Technology Inc. and its subsidiaries ("Microchip")
    39                           ; All rights reserved.
    40                           ; 
    41                           ; This software is developed by Microchip Technology Inc. and its subsidiaries ("Microch
      +                          ip").
    42                           ; 
    43                           ; Redistribution and use in source and binary forms, with or without modification, are
    44                           ; permitted provided that the following conditions are met:
    45                           ; 
    46                           ;     1. Redistributions of source code must retain the above copyright notice, this lis
      +                          t of
    47                           ;        conditions and the following disclaimer.
    48                           ; 
    49                           ;     2. Redistributions in binary form must reproduce the above copyright notice, this 
      +                          list
    50                           ;        of conditions and the following disclaimer in the documentation and/or other
    51                           ;        materials provided with the distribution.
    52                           ; 
    53                           ;     3. Microchip's name may not be used to endorse or promote products derived from th
      +                          is
    54                           ;        software without specific prior written permission.
    55                           ; 
    56                           ; THIS SOFTWARE IS PROVIDED BY MICROCHIP "AS IS" AND ANY EXPRESS OR IMPLIED WARRANTIES,
    57                           ; INCLUDING, BUT NOT LIMITED TO, THE IMPLIED WARRANTIES OF MERCHANTABILITY AND FITNESS F
      +                          OR
    58                           ; PURPOSE ARE DISCLAIMED.  IN NO EVENT SHALL MICROCHIP BE LIABLE FOR ANY DIRECT, INDIREC
      +                          T,
    59                           ; INCIDENTAL, SPECIAL, EXEMPLARY, OR CONSEQUENTIAL DAMAGES (INCLUDING BUT NOT LIMITED TO
    60                           ; PROCUREMENT OF SUBSTITUTE GOODS OR SERVICES; LOSS OF USE, DATA OR PROFITS; OR BUSINESS
    61                           ; INTERRUPTION) HOWSOEVER CAUSED AND ON ANY THEORY OF LIABILITY, WHETHER IN CONTRACT, ST
      +                          RICT
    62                           ; LIABILITY, OR TORT (INCLUDING NEGLIGENCE OR OTHERWISE) ARISING IN ANY WAY OUT OF THE U
      +                          SE OF
    63                           ; THIS SOFTWARE, EVEN IF ADVISED OF THE POSSIBILITY OF SUCH DAMAGE.
    64                           ; 
    65                           ; 
    66                           ; Code-generator required, PIC18F46K80 Definitions
    67                           ; 
    68                           ; SFR Addresses
    69   000000                     _TRISD	set	3989
    70   000000                     _TRISC	set	3988
    71   000000                     _TRISB	set	3987
    72   000000                     _LATC	set	3979
    73   000000                     _LATB	set	3978
    74   000000                     _COMSTATbits	set	3953
    75   000000                     _RXB1SIDH	set	3889
    76   000000                     _RXB1SIDL	set	3890
    77   000000                     _RXB0D7	set	3949
    78   000000                     _RXB0D6	set	3948
    79   000000                     _RXB0D5	set	3947
    80   000000                     _RXB0D4	set	3946
    81   000000                     _RXB0D3	set	3945
    82   000000                     _RXB0D2	set	3944
    83   000000                     _RXB0D1	set	3943
    84   000000                     _RXB0D0	set	3942
    85   000000                     _RXB0DLC	set	3941
    86   000000                     _RXB0SIDH	set	3937
    87   000000                     _RXB0EIDL	set	3940
    88   000000                     _RXB0EIDH	set	3939
    89   000000                     _RXB0SIDL	set	3938
    90   000000                     _TXB2SIDL	set	3842
    91   000000                     _TXB2SIDH	set	3841
    92   000000                     _TXB2EIDH	set	3843
    93   000000                     _TXB2CONbits	set	3840
    94   000000                     _TXB1SIDL	set	3858
    95   000000                     _TXB1SIDH	set	3857
    96   000000                     _TXB1EIDH	set	3859
    97   000000                     _TXB1CONbits	set	3856
    98   000000                     _TXB0SIDL	set	3874
    99   000000                     _TXB0SIDH	set	3873
   100   000000                     _TXB0EIDH	set	3875
   101   000000                     _TXB0CONbits	set	3872
   102   000000                     _BRGCON3	set	3653
   103   000000                     _BRGCON2	set	3652
   104   000000                     _RXF15SIDL	set	3693
   105   000000                     _RXF15SIDH	set	3692
   106   000000                     _RXF15EIDH	set	3694
   107   000000                     _RXF14SIDL	set	3689
   108   000000                     _RXF14SIDH	set	3688
   109   000000                     _RXF14EIDL	set	3691
   110   000000                     _RXF14EIDH	set	3690
   111   000000                     _RXF13SIDL	set	3685
   112   000000                     _RXF13SIDH	set	3684
   113   000000                     _RXF13EIDL	set	3687
   114   000000                     _RXF13EIDH	set	3686
   115   000000                     _RXF12SIDL	set	3681
   116   000000                     _RXF12SIDH	set	3680
   117   000000                     _RXF12EIDL	set	3683
   118   000000                     _RXF12EIDH	set	3682
   119   000000                     _RXF11SIDL	set	3677
   120   000000                     _RXF11SIDH	set	3676
   121   000000                     _RXF11EIDL	set	3679
   122   000000                     _RXF11EIDH	set	3678
   123   000000                     _RXF10SIDL	set	3673
   124   000000                     _RXF10SIDH	set	3672
   125   000000                     _RXF10EIDL	set	3675
   126   000000                     _RXF10EIDH	set	3674
   127   000000                     _RXF9SIDL	set	3669
   128   000000                     _RXF9SIDH	set	3668
   129   000000                     _RXF9EIDL	set	3671
   130   000000                     _RXF9EIDH	set	3670
   131   000000                     _RXF8SIDL	set	3665
   132   000000                     _RXF8SIDH	set	3664
   133   000000                     _RXF8EIDL	set	3667
   134   000000                     _RXF8EIDH	set	3666
   135   000000                     _RXF7SIDL	set	3661
   136   000000                     _RXF7SIDH	set	3660
   137   000000                     _RXF7EIDL	set	3663
   138   000000                     _RXF7EIDH	set	3662
   139   000000                     _RXF6SIDL	set	3657
   140   000000                     _RXF6SIDH	set	3656
   141   000000                     _RXF6EIDL	set	3659
   142   000000                     _RXF6EIDH	set	3658
   143   000000                     _RXF5SIDL	set	3829
   144   000000                     _RXF5SIDH	set	3828
   145   000000                     _RXF5EIDL	set	3831
   146   000000                     _RXF5EIDH	set	3830
   147   000000                     _RXF4SIDL	set	3825
   148   000000                     _RXF4SIDH	set	3824
   149   000000                     _RXF4EIDL	set	3827
   150   000000                     _RXF4EIDH	set	3826
   151   000000                     _RXF3SIDL	set	3821
   152   000000                     _RXF3SIDH	set	3820
   153   000000                     _RXF3EIDL	set	3823
   154   000000                     _RXF3EIDH	set	3822
   155   000000                     _RXF2SIDL	set	3817
   156   000000                     _RXF2SIDH	set	3816
   157   000000                     _RXF2EIDL	set	3819
   158   000000                     _RXF2EIDH	set	3818
   159   000000                     _RXF1SIDL	set	3813
   160   000000                     _RXF1SIDH	set	3812
   161   000000                     _RXF1EIDL	set	3815
   162   000000                     _RXF1EIDH	set	3814
   163   000000                     _RXF0SIDL	set	3809
   164   000000                     _RXF0EIDL	set	3811
   165   000000                     _RXFBCON7	set	3704
   166   000000                     _RXFBCON6	set	3703
   167   000000                     _RXFBCON5	set	3702
   168   000000                     _RXFBCON4	set	3701
   169   000000                     _RXFBCON3	set	3700
   170   000000                     _RXFBCON2	set	3699
   171   000000                     _RXFBCON1	set	3698
   172   000000                     _RXFBCON0	set	3697
   173   000000                     _MSEL3	set	3708
   174   000000                     _MSEL2	set	3707
   175   000000                     _MSEL1	set	3706
   176   000000                     _MSEL0	set	3705
   177   000000                     _RXFCON1	set	3655
   178   000000                     _RXM1SIDL	set	3837
   179   000000                     _RXM1SIDH	set	3836
   180   000000                     _RXM1EIDL	set	3839
   181   000000                     _RXM1EIDH	set	3838
   182   000000                     _RXM0SIDL	set	3833
   183   000000                     _RXM0EIDL	set	3835
   184   000000                     _CIOCON	set	3952
   185   000000                     _ECANCON	set	3954
   186   000000                     _LATEbits	set	3981
   187   000000                     _LATAbits	set	3977
   188   000000                     _BRGCON1	set	3651
   189   000000                     _RXFCON0	set	3654
   190   000000                     _BSEL0	set	3709
   191   000000                     _CANSTAT	set	3950
   192   000000                     _CANCON	set	3951
   193   000000                     _PIE5bits	set	3958
   194   000000                     _PIR5bits	set	3959
   195   000000                     _RXF0SIDH	set	3808
   196   000000                     _RXF0EIDH	set	3810
   197   000000                     _RXM0SIDH	set	3832
   198   000000                     _RXM0EIDH	set	3834
   199   000000                     _RXF15EIDL	set	3695
   200   000000                     _LATA	set	3977
   201   000000                     _LATD	set	3980
   202   000000                     _LATE	set	3981
   203   000000                     _REFOCON	set	3994
   204   000000                     _OSCTUNE	set	3995
   205   000000                     _OSCCON2	set	4050
   206   000000                     _OSCCON	set	4051
   207   000000                     _RXB1CONbits	set	3888
   208   000000                     _RXB0CONbits	set	3936
   209   000000                     _TXB0D7	set	3885
   210   000000                     _TXB0D6	set	3884
   211   000000                     _TXB0D5	set	3883
   212   000000                     _TXB0D4	set	3882
   213   000000                     _TXB0D3	set	3881
   214   000000                     _TXB0D2	set	3880
   215   000000                     _TXB0D1	set	3879
   216   000000                     _TXB0D0	set	3878
   217   000000                     _TXB0DLC	set	3877
   218   000000                     _TXB0EIDL	set	3876
   219   000000                     _TXB1D7	set	3869
   220   000000                     _TXB1D6	set	3868
   221   000000                     _TXB1D5	set	3867
   222   000000                     _TXB1D4	set	3866
   223   000000                     _TXB1D3	set	3865
   224   000000                     _TXB1D2	set	3864
   225   000000                     _TXB1D1	set	3863
   226   000000                     _TXB1D0	set	3862
   227   000000                     _TXB1DLC	set	3861
   228   000000                     _TXB1EIDL	set	3860
   229   000000                     _TXB2D7	set	3853
   230   000000                     _TXB2D6	set	3852
   231   000000                     _TXB2D5	set	3851
   232   000000                     _TXB2D4	set	3850
   233   000000                     _TXB2D3	set	3849
   234   000000                     _TXB2D2	set	3848
   235   000000                     _TXB2D1	set	3847
   236   000000                     _TXB2D0	set	3846
   237   000000                     _TXB2DLC	set	3845
   238   000000                     _TXB2EIDL	set	3844
   239   000000                     _WPUB	set	3931
   240   000000                     _ANCON1	set	3932
   241   000000                     _ANCON0	set	3933
   242   000000                     _RXB1D7	set	3901
   243   000000                     _RXB1D6	set	3900
   244   000000                     _RXB1D5	set	3899
   245   000000                     _RXB1D4	set	3898
   246   000000                     _RXB1D3	set	3897
   247   000000                     _RXB1D2	set	3896
   248   000000                     _RXB1D1	set	3895
   249   000000                     _RXB1D0	set	3894
   250   000000                     _RXB1DLC	set	3893
   251   000000                     _RXB1EIDL	set	3892
   252   000000                     _RXB1EIDH	set	3891
   253   000000                     _INTCON2bits	set	4081
   254   000000                     _INTCONbits	set	4082
   255   000000                     _RCONbits	set	4048
   256   000000                     _TRISA	set	3986
   257   000000                     _TRISE	set	3990
   258                           
   259                           ; #config settings
   260                           
   261                           	psect	cinit
   262   00176E                     __pcinit:
   263                           	callstack 0
   264   00176E                     start_initialization:
   265                           	callstack 0
   266   00176E                     __initialization:
   267                           	callstack 0
   268                           
   269                           ; Clear objects allocated to COMRAM (30 bytes)
   270   00176E  EE00  F001         	lfsr	0,__pbssCOMRAM
   271   001772  0E1E               	movlw	30
   272   001774                     clear_0:
   273   001774  6AEE               	clrf	postinc0,c
   274   001776  06E8               	decf	wreg,f,c
   275   001778  E1FD               	bnz	clear_0
   276   00177A                     end_of_initialization:
   277                           	callstack 0
   278   00177A                     __end_of__initialization:
   279                           	callstack 0
   280   00177A  9036               	bcf	int$flags,0,c	;clear compiler interrupt flag (level 1)
   281   00177C  9236               	bcf	int$flags,1,c	;clear compiler interrupt flag (level 2)
   282   00177E  0E00               	movlw	low (__Lmediumconst shr (0+16))
   283   001780  6EF8               	movwf	tblptru,c
   284   001782  0100               	movlb	0
   285   001784  EF64  F009         	goto	_main	;jump to C main() function
   286                           
   287                           	psect	bssCOMRAM
   288   000001                     __pbssCOMRAM:
   289                           	callstack 0
   290   000001                     _tx:
   291                           	callstack 0
   292   000001                     	ds	14
   293   00000F                     _WakeUpInterruptHandler:
   294                           	callstack 0
   295   00000F                     	ds	2
   296   000011                     _rx:
   297                           	callstack 0
   298   000011                     	ds	14
   299                           
   300                           	psect	cstackCOMRAM
   301   00001F                     __pcstackCOMRAM:
   302                           	callstack 0
   303   00001F                     ??_INTERRUPT_InterruptManager:
   304   00001F                     
   305                           ; 1 bytes @ 0x0
   306   00001F                     	ds	2
   307   000021                     ?_convertReg2ExtendedCANid:
   308                           	callstack 0
   309   000021                     ?_convertReg2StandardCANid:
   310                           	callstack 0
   311   000021                     convertReg2ExtendedCANid@tempRXBn_EIDL:
   312                           	callstack 0
   313   000021                     convertReg2StandardCANid@tempRXBn_SIDL:
   314                           	callstack 0
   315   000021                     ECAN_SetWakeUpInterruptHandler@handler:
   316                           	callstack 0
   317   000021                     hazardLightFunction@signal:
   318                           	callstack 0
   319   000021                     rightTurnFunction@signal:
   320                           	callstack 0
   321   000021                     leftTurnFunction@signal:
   322                           	callstack 0
   323   000021                     frontTurnFunction@signal:
   324                           	callstack 0
   325   000021                     backTurnFunction@signal:
   326                           	callstack 0
   327                           
   328                           ; 2 bytes @ 0x2
   329   000021                     	ds	1
   330   000022                     convertReg2ExtendedCANid@tempRXBn_SIDH:
   331                           	callstack 0
   332                           
   333                           ; 1 bytes @ 0x3
   334   000022                     	ds	1
   335   000023                     ??_hazardLightFunction:
   336   000023                     ??_rightTurnFunction:
   337   000023                     ??_leftTurnFunction:
   338   000023                     ??_frontTurnFunction:
   339   000023                     ??_backTurnFunction:
   340   000023                     ??_ECAN_Initialize:
   341   000023                     convertReg2ExtendedCANid@tempRXBn_SIDL:
   342                           	callstack 0
   343                           
   344                           ; 1 bytes @ 0x4
   345   000023                     	ds	1
   346   000024                     
   347                           ; 1 bytes @ 0x5
   348   000024                     	ds	1
   349   000025                     ??_convertReg2ExtendedCANid:
   350   000025                     ??_convertReg2StandardCANid:
   351                           
   352                           ; 1 bytes @ 0x6
   353   000025                     	ds	2
   354   000027                     convertReg2StandardCANid@tempRXBn_SIDH:
   355                           	callstack 0
   356                           
   357                           ; 1 bytes @ 0x8
   358   000027                     	ds	1
   359   000028                     convertReg2StandardCANid@returnValue:
   360                           	callstack 0
   361                           
   362                           ; 4 bytes @ 0x9
   363   000028                     	ds	1
   364   000029                     convertReg2ExtendedCANid@tempRXBn_EIDH:
   365                           	callstack 0
   366                           
   367                           ; 1 bytes @ 0xA
   368   000029                     	ds	1
   369   00002A                     convertReg2ExtendedCANid@returnValue:
   370                           	callstack 0
   371                           
   372                           ; 4 bytes @ 0xB
   373   00002A                     	ds	2
   374   00002C                     convertReg2StandardCANid@ConvertedID:
   375                           	callstack 0
   376                           
   377                           ; 4 bytes @ 0xD
   378   00002C                     	ds	2
   379   00002E                     convertReg2ExtendedCANid@CAN_standardLo_ID_lo2bits:
   380                           	callstack 0
   381                           
   382                           ; 1 bytes @ 0xF
   383   00002E                     	ds	1
   384   00002F                     convertReg2ExtendedCANid@CAN_standardLo_ID_hi3bits:
   385                           	callstack 0
   386                           
   387                           ; 1 bytes @ 0x10
   388   00002F                     	ds	1
   389   000030                     convertReg2ExtendedCANid@ConvertedID:
   390                           	callstack 0
   391                           
   392                           ; 4 bytes @ 0x11
   393   000030                     	ds	4
   394   000034                     CAN_receive@tempCanMsg:
   395                           	callstack 0
   396                           
   397                           ; 1 bytes @ 0x15
   398   000034                     	ds	1
   399   000035                     CAN_receive@returnValue:
   400                           	callstack 0
   401                           
   402                           ; 1 bytes @ 0x16
   403   000035                     	ds	1
   404   000036                     
   405                           ; 1 bytes @ 0x17
   406 ;;
   407 ;;Main: autosize = 0, tempsize = 0, incstack = 0, save=0
   408 ;;
   409 ;; *************** function _main *****************
   410 ;; Defined at:
   411 ;;		line 23 in file "main.c"
   412 ;; Parameters:    Size  Location     Type
   413 ;;		None
   414 ;; Auto vars:     Size  Location     Type
   415 ;;		None
   416 ;; Return value:  Size  Location     Type
   417 ;;                  1    wreg      void 
   418 ;; Registers used:
   419 ;;		wreg, fsr2l, fsr2h, status,2, status,0, cstack
   420 ;; Tracked objects:
   421 ;;		On entry : 0/0
   422 ;;		On exit  : 0/0
   423 ;;		Unchanged: 0/0
   424 ;; Data sizes:     COMRAM   BANK0   BANK1   BANK2   BANK3   BANK4   BANK5   BANK6   BANK7   BANK8   BANK9  BANK10  BANK1
      +1  BANK12  BANK13  BANK14
   425 ;;      Params:         0       0       0       0       0       0       0       0       0       0       0       0       
      +0       0       0       0
   426 ;;      Locals:         0       0       0       0       0       0       0       0       0       0       0       0       
      +0       0       0       0
   427 ;;      Temps:          0       0       0       0       0       0       0       0       0       0       0       0       
      +0       0       0       0
   428 ;;      Totals:         0       0       0       0       0       0       0       0       0       0       0       0       
      +0       0       0       0
   429 ;;Total ram usage:        0 bytes
   430 ;; Hardware stack levels required when called: 6
   431 ;; This function calls:
   432 ;;		_CAN_receive
   433 ;;		_SYSTEM_Initialize
   434 ;;		_backTurnFunction
   435 ;;		_frontTurnFunction
   436 ;;		_func99
   437 ;;		_hazardLightFunction
   438 ;;		_leftTurnFunction
   439 ;;		_rightTurnFunction
   440 ;; This function is called by:
   441 ;;		Startup code after reset
   442 ;; This function uses a non-reentrant model
   443 ;;
   444                           
   445                           	psect	text0
   446   0012C8                     __ptext0:
   447                           	callstack 0
   448   0012C8                     _main:
   449                           	callstack 25
   450   0012C8                     
   451                           ;main.c: 24:     SYSTEM_Initialize();
   452   0012C8  ECC4  F00B         	call	_SYSTEM_Initialize	;wreg free
   453   0012CC                     l1888:
   454                           
   455                           ;main.c: 27:         if (CAN_receive(&rx)){
   456   0012CC  0E11               	movlw	low _rx
   457   0012CE  6E34               	movwf	CAN_receive@tempCanMsg^0,c
   458   0012D0  EC81  F007         	call	_CAN_receive	;wreg free
   459   0012D4  0900               	iorlw	0
   460   0012D6  B4D8               	btfsc	status,2,c
   461   0012D8  EF70  F009         	goto	u621
   462   0012DC  EF72  F009         	goto	u620
   463   0012E0                     u621:
   464   0012E0  EF66  F009         	goto	l1888
   465   0012E4                     u620:
   466   0012E4                     
   467                           ;main.c: 28:             if (rx.frame.id == 0x22){
   468   0012E4  0E22               	movlw	34
   469   0012E6  1812               	xorwf	(_rx+1)^0,w,c
   470   0012E8  1013               	iorwf	(_rx+2)^0,w,c
   471   0012EA  1014               	iorwf	(_rx+3)^0,w,c
   472   0012EC  1015               	iorwf	(_rx+4)^0,w,c
   473   0012EE  A4D8               	btfss	status,2,c
   474   0012F0  EF7C  F009         	goto	u631
   475   0012F4  EF7E  F009         	goto	u630
   476   0012F8                     u631:
   477   0012F8  EF80  F009         	goto	l523
   478   0012FC                     u630:
   479   0012FC  EF82  F009         	goto	l1898
   480   001300                     l523:
   481   001300  EF66  F009         	goto	l1888
   482   001304                     l522:
   483   001304                     l1898:
   484                           
   485                           ;main.c: 44:         if(CAN_receive(&rx)){
   486   001304  0E11               	movlw	low _rx
   487   001306  6E34               	movwf	CAN_receive@tempCanMsg^0,c
   488   001308  EC81  F007         	call	_CAN_receive	;wreg free
   489   00130C  0900               	iorlw	0
   490   00130E  B4D8               	btfsc	status,2,c
   491   001310  EF8C  F009         	goto	u641
   492   001314  EF8E  F009         	goto	u640
   493   001318                     u641:
   494   001318  EF82  F009         	goto	l1898
   495   00131C                     u640:
   496   00131C                     
   497                           ;main.c: 45:             if(rx.frame.idType == 1){
   498   00131C  0411               	decf	_rx^0,w,c
   499   00131E  A4D8               	btfss	status,2,c
   500   001320  EF94  F009         	goto	u651
   501   001324  EF96  F009         	goto	u650
   502   001328                     u651:
   503   001328  EF82  F009         	goto	l522
   504   00132C                     u650:
   505   00132C                     
   506                           ;main.c: 47:                 if(rx.frame.id == 0x61) {
   507   00132C  0E61               	movlw	97
   508   00132E  1812               	xorwf	(_rx+1)^0,w,c
   509   001330  1013               	iorwf	(_rx+2)^0,w,c
   510   001332  1014               	iorwf	(_rx+3)^0,w,c
   511   001334  1015               	iorwf	(_rx+4)^0,w,c
   512   001336  A4D8               	btfss	status,2,c
   513   001338  EFA0  F009         	goto	u661
   514   00133C  EFA2  F009         	goto	u660
   515   001340                     u661:
   516   001340  EFA7  F009         	goto	l1906
   517   001344                     u660:
   518   001344                     
   519                           ;main.c: 48:                     hazardLightFunction(rx.frame.data0);
   520   001344  C017  F021         	movff	_rx+6,hazardLightFunction@signal
   521   001348  6A22               	clrf	(hazardLightFunction@signal+1)^0,c
   522   00134A  EC0A  F00B         	call	_hazardLightFunction	;wreg free
   523   00134E                     l1906:
   524                           
   525                           ;main.c: 50:                 if(rx.frame.id == 0x62) {
   526   00134E  0E62               	movlw	98
   527   001350  1812               	xorwf	(_rx+1)^0,w,c
   528   001352  1013               	iorwf	(_rx+2)^0,w,c
   529   001354  1014               	iorwf	(_rx+3)^0,w,c
   530   001356  1015               	iorwf	(_rx+4)^0,w,c
   531   001358  A4D8               	btfss	status,2,c
   532   00135A  EFB1  F009         	goto	u671
   533   00135E  EFB3  F009         	goto	u670
   534   001362                     u671:
   535   001362  EFB8  F009         	goto	l1910
   536   001366                     u670:
   537   001366                     
   538                           ;main.c: 51:                     rightTurnFunction(rx.frame.data0);
   539   001366  C017  F021         	movff	_rx+6,rightTurnFunction@signal
   540   00136A  6A22               	clrf	(rightTurnFunction@signal+1)^0,c
   541   00136C  ECE7  F00A         	call	_rightTurnFunction	;wreg free
   542   001370                     l1910:
   543                           
   544                           ;main.c: 53:                 if(rx.frame.id == 0x63) {
   545   001370  0E63               	movlw	99
   546   001372  1812               	xorwf	(_rx+1)^0,w,c
   547   001374  1013               	iorwf	(_rx+2)^0,w,c
   548   001376  1014               	iorwf	(_rx+3)^0,w,c
   549   001378  1015               	iorwf	(_rx+4)^0,w,c
   550   00137A  A4D8               	btfss	status,2,c
   551   00137C  EFC2  F009         	goto	u681
   552   001380  EFC4  F009         	goto	u680
   553   001384                     u681:
   554   001384  EFC9  F009         	goto	l1914
   555   001388                     u680:
   556   001388                     
   557                           ;main.c: 54:                     leftTurnFunction(rx.frame.data0);
   558   001388  C017  F021         	movff	_rx+6,leftTurnFunction@signal
   559   00138C  6A22               	clrf	(leftTurnFunction@signal+1)^0,c
   560   00138E  EC8E  F00B         	call	_leftTurnFunction	;wreg free
   561   001392                     l1914:
   562                           
   563                           ;main.c: 56:                 if(rx.frame.id == 0x64) {
   564   001392  0E64               	movlw	100
   565   001394  1812               	xorwf	(_rx+1)^0,w,c
   566   001396  1013               	iorwf	(_rx+2)^0,w,c
   567   001398  1014               	iorwf	(_rx+3)^0,w,c
   568   00139A  1015               	iorwf	(_rx+4)^0,w,c
   569   00139C  A4D8               	btfss	status,2,c
   570   00139E  EFD3  F009         	goto	u691
   571   0013A2  EFD5  F009         	goto	u690
   572   0013A6                     u691:
   573   0013A6  EFDA  F009         	goto	l1918
   574   0013AA                     u690:
   575   0013AA                     
   576                           ;main.c: 57:                     frontTurnFunction(rx.frame.data0);
   577   0013AA  C017  F021         	movff	_rx+6,frontTurnFunction@signal
   578   0013AE  6A22               	clrf	(frontTurnFunction@signal+1)^0,c
   579   0013B0  EC2D  F00B         	call	_frontTurnFunction	;wreg free
   580   0013B4                     l1918:
   581                           
   582                           ;main.c: 59:                 if(rx.frame.id == 0x65) {
   583   0013B4  0E65               	movlw	101
   584   0013B6  1812               	xorwf	(_rx+1)^0,w,c
   585   0013B8  1013               	iorwf	(_rx+2)^0,w,c
   586   0013BA  1014               	iorwf	(_rx+3)^0,w,c
   587   0013BC  1015               	iorwf	(_rx+4)^0,w,c
   588   0013BE  A4D8               	btfss	status,2,c
   589   0013C0  EFE4  F009         	goto	u701
   590   0013C4  EFE6  F009         	goto	u700
   591   0013C8                     u701:
   592   0013C8  EFEB  F009         	goto	l1922
   593   0013CC                     u700:
   594   0013CC                     
   595                           ;main.c: 60:                     backTurnFunction(rx.frame.data0);
   596   0013CC  C017  F021         	movff	_rx+6,backTurnFunction@signal
   597   0013D0  6A22               	clrf	(backTurnFunction@signal+1)^0,c
   598   0013D2  EC50  F00B         	call	_backTurnFunction	;wreg free
   599   0013D6                     l1922:
   600                           
   601                           ;main.c: 62:                 if (rx.frame.id==0x67){
   602   0013D6  0E67               	movlw	103
   603   0013D8  1812               	xorwf	(_rx+1)^0,w,c
   604   0013DA  1013               	iorwf	(_rx+2)^0,w,c
   605   0013DC  1014               	iorwf	(_rx+3)^0,w,c
   606   0013DE  1015               	iorwf	(_rx+4)^0,w,c
   607   0013E0  A4D8               	btfss	status,2,c
   608   0013E2  EFF5  F009         	goto	u711
   609   0013E6  EFF7  F009         	goto	u710
   610   0013EA                     u711:
   611   0013EA  EFF9  F009         	goto	l1926
   612   0013EE                     u710:
   613   0013EE                     
   614                           ;main.c: 63:                     func99();
   615   0013EE  ECD6  F00B         	call	_func99	;wreg free
   616   0013F2                     l1926:
   617                           
   618                           ;main.c: 65:                 if (rx.frame.id == 0x12){
   619   0013F2  0E12               	movlw	18
   620   0013F4  1812               	xorwf	(_rx+1)^0,w,c
   621   0013F6  1013               	iorwf	(_rx+2)^0,w,c
   622   0013F8  1014               	iorwf	(_rx+3)^0,w,c
   623   0013FA  1015               	iorwf	(_rx+4)^0,w,c
   624   0013FC  A4D8               	btfss	status,2,c
   625   0013FE  EF03  F00A         	goto	u721
   626   001402  EF05  F00A         	goto	u720
   627   001406                     u721:
   628   001406  EF82  F009         	goto	l522
   629   00140A                     u720:
   630   00140A                     
   631                           ;main.c: 66:                     hazardLightFunction(rx.frame.data0);
   632   00140A  C017  F021         	movff	_rx+6,hazardLightFunction@signal
   633   00140E  6A22               	clrf	(hazardLightFunction@signal+1)^0,c
   634   001410  EC0A  F00B         	call	_hazardLightFunction	;wreg free
   635   001414  EF82  F009         	goto	l1898
   636   001418  EF26  F000         	goto	start
   637   00141C                     __end_of_main:
   638                           	callstack 0
   639                           
   640 ;; *************** function _rightTurnFunction *****************
   641 ;; Defined at:
   642 ;;		line 19 in file "ancfunctions.c"
   643 ;; Parameters:    Size  Location     Type
   644 ;;  signal          2    2[COMRAM] int 
   645 ;; Auto vars:     Size  Location     Type
   646 ;;		None
   647 ;; Return value:  Size  Location     Type
   648 ;;                  1    wreg      void 
   649 ;; Registers used:
   650 ;;		wreg, status,2, status,0
   651 ;; Tracked objects:
   652 ;;		On entry : 0/0
   653 ;;		On exit  : 0/0
   654 ;;		Unchanged: 0/0
   655 ;; Data sizes:     COMRAM   BANK0   BANK1   BANK2   BANK3   BANK4   BANK5   BANK6   BANK7   BANK8   BANK9  BANK10  BANK1
      +1  BANK12  BANK13  BANK14
   656 ;;      Params:         2       0       0       0       0       0       0       0       0       0       0       0       
      +0       0       0       0
   657 ;;      Locals:         0       0       0       0       0       0       0       0       0       0       0       0       
      +0       0       0       0
   658 ;;      Temps:          2       0       0       0       0       0       0       0       0       0       0       0       
      +0       0       0       0
   659 ;;      Totals:         4       0       0       0       0       0       0       0       0       0       0       0       
      +0       0       0       0
   660 ;;Total ram usage:        4 bytes
   661 ;; Hardware stack levels used: 1
   662 ;; Hardware stack levels required when called: 3
   663 ;; This function calls:
   664 ;;		Nothing
   665 ;; This function is called by:
   666 ;;		_main
   667 ;; This function uses a non-reentrant model
   668 ;;
   669                           
   670                           	psect	text1
   671   0015CE                     __ptext1:
   672                           	callstack 0
   673   0015CE                     _rightTurnFunction:
   674                           	callstack 27
   675   0015CE                     
   676                           ;ancfunctions.c: 20:     if(signal == 1){
   677   0015CE  0421               	decf	rightTurnFunction@signal^0,w,c
   678   0015D0  1022               	iorwf	(rightTurnFunction@signal+1)^0,w,c
   679   0015D2  A4D8               	btfss	status,2,c
   680   0015D4  EFEE  F00A         	goto	u551
   681   0015D8  EFF0  F00A         	goto	u550
   682   0015DC                     u551:
   683   0015DC  EFF3  F00A         	goto	l1866
   684   0015E0                     u550:
   685   0015E0  8689               	bsf	137,3,c	;volatile
   686   0015E2  EFFD  F00A         	goto	l1868
   687   0015E6                     l1866:
   688   0015E6  5021               	movf	rightTurnFunction@signal^0,w,c
   689   0015E8  1022               	iorwf	(rightTurnFunction@signal+1)^0,w,c
   690   0015EA  A4D8               	btfss	status,2,c
   691   0015EC  EFFA  F00A         	goto	u561
   692   0015F0  EFFC  F00A         	goto	u560
   693   0015F4                     u561:
   694   0015F4  EFFD  F00A         	goto	l1868
   695   0015F8                     u560:
   696   0015F8  9689               	bcf	137,3,c	;volatile
   697   0015FA                     l1868:
   698                           
   699                           ;ancfunctions.c: 26:     _delay((unsigned long)((1000)*(20000000/4000.0)));
   700   0015FA  0E1A               	movlw	26
   701   0015FC  6E24               	movwf	(??_rightTurnFunction+1)^0,c
   702   0015FE  0E5E               	movlw	94
   703   001600  6E23               	movwf	??_rightTurnFunction^0,c
   704   001602  0E6E               	movlw	110
   705   001604                     u737:
   706   001604  2EE8               	decfsz	wreg,f,c
   707   001606  D7FE               	bra	u737
   708   001608  2E23               	decfsz	??_rightTurnFunction^0,f,c
   709   00160A  D7FC               	bra	u737
   710   00160C  2E24               	decfsz	(??_rightTurnFunction+1)^0,f,c
   711   00160E  D7FA               	bra	u737
   712   001610  D000               	nop2	
   713   001612  0012               	return		;funcret
   714   001614                     __end_of_rightTurnFunction:
   715                           	callstack 0
   716                           
   717 ;; *************** function _leftTurnFunction *****************
   718 ;; Defined at:
   719 ;;		line 28 in file "ancfunctions.c"
   720 ;; Parameters:    Size  Location     Type
   721 ;;  signal          2    2[COMRAM] int 
   722 ;; Auto vars:     Size  Location     Type
   723 ;;		None
   724 ;; Return value:  Size  Location     Type
   725 ;;                  1    wreg      void 
   726 ;; Registers used:
   727 ;;		wreg, status,2, status,0
   728 ;; Tracked objects:
   729 ;;		On entry : 0/0
   730 ;;		On exit  : 0/0
   731 ;;		Unchanged: 0/0
   732 ;; Data sizes:     COMRAM   BANK0   BANK1   BANK2   BANK3   BANK4   BANK5   BANK6   BANK7   BANK8   BANK9  BANK10  BANK1
      +1  BANK12  BANK13  BANK14
   733 ;;      Params:         2       0       0       0       0       0       0       0       0       0       0       0       
      +0       0       0       0
   734 ;;      Locals:         0       0       0       0       0       0       0       0       0       0       0       0       
      +0       0       0       0
   735 ;;      Temps:          2       0       0       0       0       0       0       0       0       0       0       0       
      +0       0       0       0
   736 ;;      Totals:         4       0       0       0       0       0       0       0       0       0       0       0       
      +0       0       0       0
   737 ;;Total ram usage:        4 bytes
   738 ;; Hardware stack levels used: 1
   739 ;; Hardware stack levels required when called: 3
   740 ;; This function calls:
   741 ;;		Nothing
   742 ;; This function is called by:
   743 ;;		_main
   744 ;; This function uses a non-reentrant model
   745 ;;
   746                           
   747                           	psect	text2
   748   00171C                     __ptext2:
   749                           	callstack 0
   750   00171C                     _leftTurnFunction:
   751                           	callstack 27
   752   00171C                     
   753                           ;ancfunctions.c: 29:     if(signal == 1){
   754   00171C  0421               	decf	leftTurnFunction@signal^0,w,c
   755   00171E  1022               	iorwf	(leftTurnFunction@signal+1)^0,w,c
   756   001720  A4D8               	btfss	status,2,c
   757   001722  EF95  F00B         	goto	u571
   758   001726  EF97  F00B         	goto	u570
   759   00172A                     u571:
   760   00172A  EF9A  F00B         	goto	l573
   761   00172E                     u570:
   762   00172E  808D               	bsf	141,0,c	;volatile
   763   001730  EF9B  F00B         	goto	l1872
   764   001734                     l573:
   765   001734  908D               	bcf	141,0,c	;volatile
   766   001736                     l1872:
   767                           
   768                           ;ancfunctions.c: 35:     _delay((unsigned long)((1000)*(20000000/4000.0)));
   769   001736  0E1A               	movlw	26
   770   001738  6E24               	movwf	(??_leftTurnFunction+1)^0,c
   771   00173A  0E5E               	movlw	94
   772   00173C  6E23               	movwf	??_leftTurnFunction^0,c
   773   00173E  0E6E               	movlw	110
   774   001740                     u747:
   775   001740  2EE8               	decfsz	wreg,f,c
   776   001742  D7FE               	bra	u747
   777   001744  2E23               	decfsz	??_leftTurnFunction^0,f,c
   778   001746  D7FC               	bra	u747
   779   001748  2E24               	decfsz	(??_leftTurnFunction+1)^0,f,c
   780   00174A  D7FA               	bra	u747
   781   00174C  D000               	nop2	
   782   00174E  0012               	return		;funcret
   783   001750                     __end_of_leftTurnFunction:
   784                           	callstack 0
   785                           
   786 ;; *************** function _hazardLightFunction *****************
   787 ;; Defined at:
   788 ;;		line 10 in file "ancfunctions.c"
   789 ;; Parameters:    Size  Location     Type
   790 ;;  signal          2    2[COMRAM] int 
   791 ;; Auto vars:     Size  Location     Type
   792 ;;		None
   793 ;; Return value:  Size  Location     Type
   794 ;;                  1    wreg      void 
   795 ;; Registers used:
   796 ;;		wreg, status,2, status,0
   797 ;; Tracked objects:
   798 ;;		On entry : 0/0
   799 ;;		On exit  : 0/0
   800 ;;		Unchanged: 0/0
   801 ;; Data sizes:     COMRAM   BANK0   BANK1   BANK2   BANK3   BANK4   BANK5   BANK6   BANK7   BANK8   BANK9  BANK10  BANK1
      +1  BANK12  BANK13  BANK14
   802 ;;      Params:         2       0       0       0       0       0       0       0       0       0       0       0       
      +0       0       0       0
   803 ;;      Locals:         0       0       0       0       0       0       0       0       0       0       0       0       
      +0       0       0       0
   804 ;;      Temps:          2       0       0       0       0       0       0       0       0       0       0       0       
      +0       0       0       0
   805 ;;      Totals:         4       0       0       0       0       0       0       0       0       0       0       0       
      +0       0       0       0
   806 ;;Total ram usage:        4 bytes
   807 ;; Hardware stack levels used: 1
   808 ;; Hardware stack levels required when called: 3
   809 ;; This function calls:
   810 ;;		Nothing
   811 ;; This function is called by:
   812 ;;		_main
   813 ;; This function uses a non-reentrant model
   814 ;;
   815                           
   816                           	psect	text3
   817   001614                     __ptext3:
   818                           	callstack 0
   819   001614                     _hazardLightFunction:
   820                           	callstack 27
   821   001614                     
   822                           ;ancfunctions.c: 11:     if(signal == 1){
   823   001614  0421               	decf	hazardLightFunction@signal^0,w,c
   824   001616  1022               	iorwf	(hazardLightFunction@signal+1)^0,w,c
   825   001618  A4D8               	btfss	status,2,c
   826   00161A  EF11  F00B         	goto	u531
   827   00161E  EF13  F00B         	goto	u530
   828   001622                     u531:
   829   001622  EF16  F00B         	goto	l1860
   830   001626                     u530:
   831   001626  8489               	bsf	137,2,c	;volatile
   832   001628  EF20  F00B         	goto	l1862
   833   00162C                     l1860:
   834   00162C  5021               	movf	hazardLightFunction@signal^0,w,c
   835   00162E  1022               	iorwf	(hazardLightFunction@signal+1)^0,w,c
   836   001630  A4D8               	btfss	status,2,c
   837   001632  EF1D  F00B         	goto	u541
   838   001636  EF1F  F00B         	goto	u540
   839   00163A                     u541:
   840   00163A  EF20  F00B         	goto	l1862
   841   00163E                     u540:
   842   00163E  9489               	bcf	137,2,c	;volatile
   843   001640                     l1862:
   844                           
   845                           ;ancfunctions.c: 17:     _delay((unsigned long)((1000)*(20000000/4000.0)));
   846   001640  0E1A               	movlw	26
   847   001642  6E24               	movwf	(??_hazardLightFunction+1)^0,c
   848   001644  0E5E               	movlw	94
   849   001646  6E23               	movwf	??_hazardLightFunction^0,c
   850   001648  0E6E               	movlw	110
   851   00164A                     u757:
   852   00164A  2EE8               	decfsz	wreg,f,c
   853   00164C  D7FE               	bra	u757
   854   00164E  2E23               	decfsz	??_hazardLightFunction^0,f,c
   855   001650  D7FC               	bra	u757
   856   001652  2E24               	decfsz	(??_hazardLightFunction+1)^0,f,c
   857   001654  D7FA               	bra	u757
   858   001656  D000               	nop2	
   859   001658  0012               	return		;funcret
   860   00165A                     __end_of_hazardLightFunction:
   861                           	callstack 0
   862                           
   863 ;; *************** function _func99 *****************
   864 ;; Defined at:
   865 ;;		line 56 in file "ancfunctions.c"
   866 ;; Parameters:    Size  Location     Type
   867 ;;		None
   868 ;; Auto vars:     Size  Location     Type
   869 ;;		None
   870 ;; Return value:  Size  Location     Type
   871 ;;                  1    wreg      void 
   872 ;; Registers used:
   873 ;;		None
   874 ;; Tracked objects:
   875 ;;		On entry : 0/0
   876 ;;		On exit  : 0/0
   877 ;;		Unchanged: 0/0
   878 ;; Data sizes:     COMRAM   BANK0   BANK1   BANK2   BANK3   BANK4   BANK5   BANK6   BANK7   BANK8   BANK9  BANK10  BANK1
      +1  BANK12  BANK13  BANK14
   879 ;;      Params:         0       0       0       0       0       0       0       0       0       0       0       0       
      +0       0       0       0
   880 ;;      Locals:         0       0       0       0       0       0       0       0       0       0       0       0       
      +0       0       0       0
   881 ;;      Temps:          0       0       0       0       0       0       0       0       0       0       0       0       
      +0       0       0       0
   882 ;;      Totals:         0       0       0       0       0       0       0       0       0       0       0       0       
      +0       0       0       0
   883 ;;Total ram usage:        0 bytes
   884 ;; Hardware stack levels used: 1
   885 ;; Hardware stack levels required when called: 3
   886 ;; This function calls:
   887 ;;		Nothing
   888 ;; This function is called by:
   889 ;;		_main
   890 ;; This function uses a non-reentrant model
   891 ;;
   892                           
   893                           	psect	text4
   894   0017AC                     __ptext4:
   895                           	callstack 0
   896   0017AC                     _func99:
   897                           	callstack 27
   898   0017AC  948D               	bcf	141,2,c	;volatile
   899   0017AE  928D               	bcf	141,1,c	;volatile
   900   0017B0  908D               	bcf	141,0,c	;volatile
   901   0017B2  9689               	bcf	137,3,c	;volatile
   902   0017B4  9489               	bcf	137,2,c	;volatile
   903   0017B6  0012               	return		;funcret
   904   0017B8                     __end_of_func99:
   905                           	callstack 0
   906                           
   907 ;; *************** function _frontTurnFunction *****************
   908 ;; Defined at:
   909 ;;		line 37 in file "ancfunctions.c"
   910 ;; Parameters:    Size  Location     Type
   911 ;;  signal          2    2[COMRAM] int 
   912 ;; Auto vars:     Size  Location     Type
   913 ;;		None
   914 ;; Return value:  Size  Location     Type
   915 ;;                  1    wreg      void 
   916 ;; Registers used:
   917 ;;		wreg, status,2, status,0
   918 ;; Tracked objects:
   919 ;;		On entry : 0/0
   920 ;;		On exit  : 0/0
   921 ;;		Unchanged: 0/0
   922 ;; Data sizes:     COMRAM   BANK0   BANK1   BANK2   BANK3   BANK4   BANK5   BANK6   BANK7   BANK8   BANK9  BANK10  BANK1
      +1  BANK12  BANK13  BANK14
   923 ;;      Params:         2       0       0       0       0       0       0       0       0       0       0       0       
      +0       0       0       0
   924 ;;      Locals:         0       0       0       0       0       0       0       0       0       0       0       0       
      +0       0       0       0
   925 ;;      Temps:          2       0       0       0       0       0       0       0       0       0       0       0       
      +0       0       0       0
   926 ;;      Totals:         4       0       0       0       0       0       0       0       0       0       0       0       
      +0       0       0       0
   927 ;;Total ram usage:        4 bytes
   928 ;; Hardware stack levels used: 1
   929 ;; Hardware stack levels required when called: 3
   930 ;; This function calls:
   931 ;;		Nothing
   932 ;; This function is called by:
   933 ;;		_main
   934 ;; This function uses a non-reentrant model
   935 ;;
   936                           
   937                           	psect	text5
   938   00165A                     __ptext5:
   939                           	callstack 0
   940   00165A                     _frontTurnFunction:
   941                           	callstack 27
   942   00165A                     
   943                           ;ancfunctions.c: 38:     if(signal == 1){
   944   00165A  0421               	decf	frontTurnFunction@signal^0,w,c
   945   00165C  1022               	iorwf	(frontTurnFunction@signal+1)^0,w,c
   946   00165E  A4D8               	btfss	status,2,c
   947   001660  EF34  F00B         	goto	u581
   948   001664  EF36  F00B         	goto	u580
   949   001668                     u581:
   950   001668  EF39  F00B         	goto	l1876
   951   00166C                     u580:
   952   00166C  828D               	bsf	141,1,c	;volatile
   953   00166E  EF43  F00B         	goto	l1878
   954   001672                     l1876:
   955   001672  5021               	movf	frontTurnFunction@signal^0,w,c
   956   001674  1022               	iorwf	(frontTurnFunction@signal+1)^0,w,c
   957   001676  A4D8               	btfss	status,2,c
   958   001678  EF40  F00B         	goto	u591
   959   00167C  EF42  F00B         	goto	u590
   960   001680                     u591:
   961   001680  EF43  F00B         	goto	l1878
   962   001684                     u590:
   963   001684  928D               	bcf	141,1,c	;volatile
   964   001686                     l1878:
   965                           
   966                           ;ancfunctions.c: 44:     _delay((unsigned long)((1000)*(20000000/4000.0)));
   967   001686  0E1A               	movlw	26
   968   001688  6E24               	movwf	(??_frontTurnFunction+1)^0,c
   969   00168A  0E5E               	movlw	94
   970   00168C  6E23               	movwf	??_frontTurnFunction^0,c
   971   00168E  0E6E               	movlw	110
   972   001690                     u767:
   973   001690  2EE8               	decfsz	wreg,f,c
   974   001692  D7FE               	bra	u767
   975   001694  2E23               	decfsz	??_frontTurnFunction^0,f,c
   976   001696  D7FC               	bra	u767
   977   001698  2E24               	decfsz	(??_frontTurnFunction+1)^0,f,c
   978   00169A  D7FA               	bra	u767
   979   00169C  D000               	nop2	
   980   00169E  0012               	return		;funcret
   981   0016A0                     __end_of_frontTurnFunction:
   982                           	callstack 0
   983                           
   984 ;; *************** function _backTurnFunction *****************
   985 ;; Defined at:
   986 ;;		line 46 in file "ancfunctions.c"
   987 ;; Parameters:    Size  Location     Type
   988 ;;  signal          2    2[COMRAM] int 
   989 ;; Auto vars:     Size  Location     Type
   990 ;;		None
   991 ;; Return value:  Size  Location     Type
   992 ;;                  1    wreg      void 
   993 ;; Registers used:
   994 ;;		wreg, status,2, status,0
   995 ;; Tracked objects:
   996 ;;		On entry : 0/0
   997 ;;		On exit  : 0/0
   998 ;;		Unchanged: 0/0
   999 ;; Data sizes:     COMRAM   BANK0   BANK1   BANK2   BANK3   BANK4   BANK5   BANK6   BANK7   BANK8   BANK9  BANK10  BANK1
      +1  BANK12  BANK13  BANK14
  1000 ;;      Params:         2       0       0       0       0       0       0       0       0       0       0       0       
      +0       0       0       0
  1001 ;;      Locals:         0       0       0       0       0       0       0       0       0       0       0       0       
      +0       0       0       0
  1002 ;;      Temps:          2       0       0       0       0       0       0       0       0       0       0       0       
      +0       0       0       0
  1003 ;;      Totals:         4       0       0       0       0       0       0       0       0       0       0       0       
      +0       0       0       0
  1004 ;;Total ram usage:        4 bytes
  1005 ;; Hardware stack levels used: 1
  1006 ;; Hardware stack levels required when called: 3
  1007 ;; This function calls:
  1008 ;;		Nothing
  1009 ;; This function is called by:
  1010 ;;		_main
  1011 ;; This function uses a non-reentrant model
  1012 ;;
  1013                           
  1014                           	psect	text6
  1015   0016A0                     __ptext6:
  1016                           	callstack 0
  1017   0016A0                     _backTurnFunction:
  1018                           	callstack 27
  1019   0016A0                     
  1020                           ;ancfunctions.c: 47:     if(signal == 1){
  1021   0016A0  0421               	decf	backTurnFunction@signal^0,w,c
  1022   0016A2  1022               	iorwf	(backTurnFunction@signal+1)^0,w,c
  1023   0016A4  A4D8               	btfss	status,2,c
  1024   0016A6  EF57  F00B         	goto	u601
  1025   0016AA  EF59  F00B         	goto	u600
  1026   0016AE                     u601:
  1027   0016AE  EF5C  F00B         	goto	l1882
  1028   0016B2                     u600:
  1029   0016B2  848D               	bsf	141,2,c	;volatile
  1030   0016B4  EF66  F00B         	goto	l1884
  1031   0016B8                     l1882:
  1032   0016B8  5021               	movf	backTurnFunction@signal^0,w,c
  1033   0016BA  1022               	iorwf	(backTurnFunction@signal+1)^0,w,c
  1034   0016BC  A4D8               	btfss	status,2,c
  1035   0016BE  EF63  F00B         	goto	u611
  1036   0016C2  EF65  F00B         	goto	u610
  1037   0016C6                     u611:
  1038   0016C6  EF66  F00B         	goto	l1884
  1039   0016CA                     u610:
  1040   0016CA  948D               	bcf	141,2,c	;volatile
  1041   0016CC                     l1884:
  1042                           
  1043                           ;ancfunctions.c: 53:     _delay((unsigned long)((1000)*(20000000/4000.0)));
  1044   0016CC  0E1A               	movlw	26
  1045   0016CE  6E24               	movwf	(??_backTurnFunction+1)^0,c
  1046   0016D0  0E5E               	movlw	94
  1047   0016D2  6E23               	movwf	??_backTurnFunction^0,c
  1048   0016D4  0E6E               	movlw	110
  1049   0016D6                     u777:
  1050   0016D6  2EE8               	decfsz	wreg,f,c
  1051   0016D8  D7FE               	bra	u777
  1052   0016DA  2E23               	decfsz	??_backTurnFunction^0,f,c
  1053   0016DC  D7FC               	bra	u777
  1054   0016DE  2E24               	decfsz	(??_backTurnFunction+1)^0,f,c
  1055   0016E0  D7FA               	bra	u777
  1056   0016E2  D000               	nop2	
  1057   0016E4  0012               	return		;funcret
  1058   0016E6                     __end_of_backTurnFunction:
  1059                           	callstack 0
  1060                           
  1061 ;; *************** function _SYSTEM_Initialize *****************
  1062 ;; Defined at:
  1063 ;;		line 50 in file "mcc_generated_files/mcc.c"
  1064 ;; Parameters:    Size  Location     Type
  1065 ;;		None
  1066 ;; Auto vars:     Size  Location     Type
  1067 ;;		None
  1068 ;; Return value:  Size  Location     Type
  1069 ;;                  1    wreg      void 
  1070 ;; Registers used:
  1071 ;;		wreg, status,2, status,0, cstack
  1072 ;; Tracked objects:
  1073 ;;		On entry : 0/0
  1074 ;;		On exit  : 0/0
  1075 ;;		Unchanged: 0/0
  1076 ;; Data sizes:     COMRAM   BANK0   BANK1   BANK2   BANK3   BANK4   BANK5   BANK6   BANK7   BANK8   BANK9  BANK10  BANK1
      +1  BANK12  BANK13  BANK14
  1077 ;;      Params:         0       0       0       0       0       0       0       0       0       0       0       0       
      +0       0       0       0
  1078 ;;      Locals:         0       0       0       0       0       0       0       0       0       0       0       0       
      +0       0       0       0
  1079 ;;      Temps:          0       0       0       0       0       0       0       0       0       0       0       0       
      +0       0       0       0
  1080 ;;      Totals:         0       0       0       0       0       0       0       0       0       0       0       0       
      +0       0       0       0
  1081 ;;Total ram usage:        0 bytes
  1082 ;; Hardware stack levels used: 1
  1083 ;; Hardware stack levels required when called: 5
  1084 ;; This function calls:
  1085 ;;		_ECAN_Initialize
  1086 ;;		_INTERRUPT_Initialize
  1087 ;;		_OSCILLATOR_Initialize
  1088 ;;		_PIN_MANAGER_Initialize
  1089 ;; This function is called by:
  1090 ;;		_main
  1091 ;; This function uses a non-reentrant model
  1092 ;;
  1093                           
  1094                           	psect	text7
  1095   001788                     __ptext7:
  1096                           	callstack 0
  1097   001788                     _SYSTEM_Initialize:
  1098                           	callstack 25
  1099   001788                     
  1100                           ;mcc_generated_files/mcc.c: 53:     INTERRUPT_Initialize();
  1101   001788  ECE1  F00B         	call	_INTERRUPT_Initialize	;wreg free
  1102   00178C                     
  1103                           ;mcc_generated_files/mcc.c: 54:     PIN_MANAGER_Initialize();
  1104   00178C  EC73  F00B         	call	_PIN_MANAGER_Initialize	;wreg free
  1105   001790                     
  1106                           ;mcc_generated_files/mcc.c: 55:     OSCILLATOR_Initialize();
  1107   001790  ECCD  F00B         	call	_OSCILLATOR_Initialize	;wreg free
  1108   001794                     
  1109                           ;mcc_generated_files/mcc.c: 56:     ECAN_Initialize();
  1110   001794  EC91  F008         	call	_ECAN_Initialize	;wreg free
  1111   001798  0012               	return		;funcret
  1112   00179A                     __end_of_SYSTEM_Initialize:
  1113                           	callstack 0
  1114                           
  1115 ;; *************** function _PIN_MANAGER_Initialize *****************
  1116 ;; Defined at:
  1117 ;;		line 55 in file "mcc_generated_files/pin_manager.c"
  1118 ;; Parameters:    Size  Location     Type
  1119 ;;		None
  1120 ;; Auto vars:     Size  Location     Type
  1121 ;;		None
  1122 ;; Return value:  Size  Location     Type
  1123 ;;                  1    wreg      void 
  1124 ;; Registers used:
  1125 ;;		wreg, status,2
  1126 ;; Tracked objects:
  1127 ;;		On entry : 0/0
  1128 ;;		On exit  : 0/0
  1129 ;;		Unchanged: 0/0
  1130 ;; Data sizes:     COMRAM   BANK0   BANK1   BANK2   BANK3   BANK4   BANK5   BANK6   BANK7   BANK8   BANK9  BANK10  BANK1
      +1  BANK12  BANK13  BANK14
  1131 ;;      Params:         0       0       0       0       0       0       0       0       0       0       0       0       
      +0       0       0       0
  1132 ;;      Locals:         0       0       0       0       0       0       0       0       0       0       0       0       
      +0       0       0       0
  1133 ;;      Temps:          0       0       0       0       0       0       0       0       0       0       0       0       
      +0       0       0       0
  1134 ;;      Totals:         0       0       0       0       0       0       0       0       0       0       0       0       
      +0       0       0       0
  1135 ;;Total ram usage:        0 bytes
  1136 ;; Hardware stack levels used: 1
  1137 ;; Hardware stack levels required when called: 3
  1138 ;; This function calls:
  1139 ;;		Nothing
  1140 ;; This function is called by:
  1141 ;;		_SYSTEM_Initialize
  1142 ;; This function uses a non-reentrant model
  1143 ;;
  1144                           
  1145                           	psect	text8
  1146   0016E6                     __ptext8:
  1147                           	callstack 0
  1148   0016E6                     _PIN_MANAGER_Initialize:
  1149                           	callstack 26
  1150   0016E6                     
  1151                           ;mcc_generated_files/pin_manager.c: 60:     LATE = 0x00;
  1152   0016E6  0E00               	movlw	0
  1153   0016E8  6E8D               	movwf	141,c	;volatile
  1154                           
  1155                           ;mcc_generated_files/pin_manager.c: 61:     LATD = 0x00;
  1156   0016EA  0E00               	movlw	0
  1157   0016EC  6E8C               	movwf	140,c	;volatile
  1158                           
  1159                           ;mcc_generated_files/pin_manager.c: 62:     LATA = 0x00;
  1160   0016EE  0E00               	movlw	0
  1161   0016F0  6E89               	movwf	137,c	;volatile
  1162                           
  1163                           ;mcc_generated_files/pin_manager.c: 63:     LATB = 0x00;
  1164   0016F2  0E00               	movlw	0
  1165   0016F4  6E8A               	movwf	138,c	;volatile
  1166                           
  1167                           ;mcc_generated_files/pin_manager.c: 64:     LATC = 0x00;
  1168   0016F6  0E00               	movlw	0
  1169   0016F8  6E8B               	movwf	139,c	;volatile
  1170                           
  1171                           ;mcc_generated_files/pin_manager.c: 69:     TRISE = 0x00;
  1172   0016FA  0E00               	movlw	0
  1173   0016FC  6E96               	movwf	150,c	;volatile
  1174                           
  1175                           ;mcc_generated_files/pin_manager.c: 70:     TRISA = 0xE3;
  1176   0016FE  0EE3               	movlw	227
  1177   001700  6E92               	movwf	146,c	;volatile
  1178                           
  1179                           ;mcc_generated_files/pin_manager.c: 71:     TRISB = 0xFB;
  1180   001702  0EFB               	movlw	251
  1181   001704  6E93               	movwf	147,c	;volatile
  1182   001706                     
  1183                           ;mcc_generated_files/pin_manager.c: 72:     TRISC = 0xFF;
  1184   001706  6894               	setf	148,c	;volatile
  1185                           
  1186                           ;mcc_generated_files/pin_manager.c: 73:     TRISD = 0xFE;
  1187   001708  0EFE               	movlw	254
  1188   00170A  6E95               	movwf	149,c	;volatile
  1189   00170C                     
  1190                           ;mcc_generated_files/pin_manager.c: 78:     ANCON0 = 0xFF;
  1191   00170C  010F               	movlb	15	; () banked
  1192   00170E  695D               	setf	93,b	;volatile
  1193                           
  1194                           ;mcc_generated_files/pin_manager.c: 79:     ANCON1 = 0x7F;
  1195   001710  0E7F               	movlw	127
  1196   001712  6F5C               	movwf	92,b	;volatile
  1197                           
  1198                           ;mcc_generated_files/pin_manager.c: 84:     WPUB = 0x00;
  1199   001714  0E00               	movlw	0
  1200   001716  6F5B               	movwf	91,b	;volatile
  1201   001718                     
  1202                           ; BSR set to: 15
  1203                           ;mcc_generated_files/pin_manager.c: 85:     INTCON2bits.nRBPU = 1;
  1204   001718  8EF1               	bsf	241,7,c	;volatile
  1205   00171A                     
  1206                           ; BSR set to: 15
  1207   00171A  0012               	return		;funcret
  1208   00171C                     __end_of_PIN_MANAGER_Initialize:
  1209                           	callstack 0
  1210                           
  1211 ;; *************** function _OSCILLATOR_Initialize *****************
  1212 ;; Defined at:
  1213 ;;		line 59 in file "mcc_generated_files/mcc.c"
  1214 ;; Parameters:    Size  Location     Type
  1215 ;;		None
  1216 ;; Auto vars:     Size  Location     Type
  1217 ;;		None
  1218 ;; Return value:  Size  Location     Type
  1219 ;;                  1    wreg      void 
  1220 ;; Registers used:
  1221 ;;		wreg, status,2
  1222 ;; Tracked objects:
  1223 ;;		On entry : 0/0
  1224 ;;		On exit  : 0/0
  1225 ;;		Unchanged: 0/0
  1226 ;; Data sizes:     COMRAM   BANK0   BANK1   BANK2   BANK3   BANK4   BANK5   BANK6   BANK7   BANK8   BANK9  BANK10  BANK1
      +1  BANK12  BANK13  BANK14
  1227 ;;      Params:         0       0       0       0       0       0       0       0       0       0       0       0       
      +0       0       0       0
  1228 ;;      Locals:         0       0       0       0       0       0       0       0       0       0       0       0       
      +0       0       0       0
  1229 ;;      Temps:          0       0       0       0       0       0       0       0       0       0       0       0       
      +0       0       0       0
  1230 ;;      Totals:         0       0       0       0       0       0       0       0       0       0       0       0       
      +0       0       0       0
  1231 ;;Total ram usage:        0 bytes
  1232 ;; Hardware stack levels used: 1
  1233 ;; Hardware stack levels required when called: 3
  1234 ;; This function calls:
  1235 ;;		Nothing
  1236 ;; This function is called by:
  1237 ;;		_SYSTEM_Initialize
  1238 ;; This function uses a non-reentrant model
  1239 ;;
  1240                           
  1241                           	psect	text9
  1242   00179A                     __ptext9:
  1243                           	callstack 0
  1244   00179A                     _OSCILLATOR_Initialize:
  1245                           	callstack 26
  1246   00179A                     
  1247                           ;mcc_generated_files/mcc.c: 62:     OSCCON = 0x60;
  1248   00179A  0E60               	movlw	96
  1249   00179C  6ED3               	movwf	211,c	;volatile
  1250                           
  1251                           ;mcc_generated_files/mcc.c: 64:     OSCCON2 = 0x00;
  1252   00179E  0E00               	movlw	0
  1253   0017A0  6ED2               	movwf	210,c	;volatile
  1254                           
  1255                           ;mcc_generated_files/mcc.c: 66:     OSCTUNE = 0x00;
  1256   0017A2  0E00               	movlw	0
  1257   0017A4  6E9B               	movwf	155,c	;volatile
  1258                           
  1259                           ;mcc_generated_files/mcc.c: 68:     REFOCON = 0x00;
  1260   0017A6  0E00               	movlw	0
  1261   0017A8  6E9A               	movwf	154,c	;volatile
  1262   0017AA  0012               	return		;funcret
  1263   0017AC                     __end_of_OSCILLATOR_Initialize:
  1264                           	callstack 0
  1265                           
  1266 ;; *************** function _INTERRUPT_Initialize *****************
  1267 ;; Defined at:
  1268 ;;		line 52 in file "mcc_generated_files/interrupt_manager.c"
  1269 ;; Parameters:    Size  Location     Type
  1270 ;;		None
  1271 ;; Auto vars:     Size  Location     Type
  1272 ;;		None
  1273 ;; Return value:  Size  Location     Type
  1274 ;;                  1    wreg      void 
  1275 ;; Registers used:
  1276 ;;		None
  1277 ;; Tracked objects:
  1278 ;;		On entry : 0/0
  1279 ;;		On exit  : 0/0
  1280 ;;		Unchanged: 0/0
  1281 ;; Data sizes:     COMRAM   BANK0   BANK1   BANK2   BANK3   BANK4   BANK5   BANK6   BANK7   BANK8   BANK9  BANK10  BANK1
      +1  BANK12  BANK13  BANK14
  1282 ;;      Params:         0       0       0       0       0       0       0       0       0       0       0       0       
      +0       0       0       0
  1283 ;;      Locals:         0       0       0       0       0       0       0       0       0       0       0       0       
      +0       0       0       0
  1284 ;;      Temps:          0       0       0       0       0       0       0       0       0       0       0       0       
      +0       0       0       0
  1285 ;;      Totals:         0       0       0       0       0       0       0       0       0       0       0       0       
      +0       0       0       0
  1286 ;;Total ram usage:        0 bytes
  1287 ;; Hardware stack levels used: 1
  1288 ;; Hardware stack levels required when called: 3
  1289 ;; This function calls:
  1290 ;;		Nothing
  1291 ;; This function is called by:
  1292 ;;		_SYSTEM_Initialize
  1293 ;; This function uses a non-reentrant model
  1294 ;;
  1295                           
  1296                           	psect	text10
  1297   0017C2                     __ptext10:
  1298                           	callstack 0
  1299   0017C2                     _INTERRUPT_Initialize:
  1300                           	callstack 26
  1301   0017C2                     
  1302                           ;mcc_generated_files/interrupt_manager.c: 55:     RCONbits.IPEN = 0;
  1303   0017C2  9ED0               	bcf	208,7,c	;volatile
  1304   0017C4  0012               	return		;funcret
  1305   0017C6                     __end_of_INTERRUPT_Initialize:
  1306                           	callstack 0
  1307                           
  1308 ;; *************** function _ECAN_Initialize *****************
  1309 ;; Defined at:
  1310 ;;		line 65 in file "mcc_generated_files/ecan.c"
  1311 ;; Parameters:    Size  Location     Type
  1312 ;;		None
  1313 ;; Auto vars:     Size  Location     Type
  1314 ;;		None
  1315 ;; Return value:  Size  Location     Type
  1316 ;;                  1    wreg      void 
  1317 ;; Registers used:
  1318 ;;		wreg, status,2, status,0, cstack
  1319 ;; Tracked objects:
  1320 ;;		On entry : 0/0
  1321 ;;		On exit  : 0/0
  1322 ;;		Unchanged: 0/0
  1323 ;; Data sizes:     COMRAM   BANK0   BANK1   BANK2   BANK3   BANK4   BANK5   BANK6   BANK7   BANK8   BANK9  BANK10  BANK1
      +1  BANK12  BANK13  BANK14
  1324 ;;      Params:         0       0       0       0       0       0       0       0       0       0       0       0       
      +0       0       0       0
  1325 ;;      Locals:         0       0       0       0       0       0       0       0       0       0       0       0       
      +0       0       0       0
  1326 ;;      Temps:          1       0       0       0       0       0       0       0       0       0       0       0       
      +0       0       0       0
  1327 ;;      Totals:         1       0       0       0       0       0       0       0       0       0       0       0       
      +0       0       0       0
  1328 ;;Total ram usage:        1 bytes
  1329 ;; Hardware stack levels used: 1
  1330 ;; Hardware stack levels required when called: 4
  1331 ;; This function calls:
  1332 ;;		_ECAN_SetWakeUpInterruptHandler
  1333 ;; This function is called by:
  1334 ;;		_SYSTEM_Initialize
  1335 ;; This function uses a non-reentrant model
  1336 ;;
  1337                           
  1338                           	psect	text11
  1339   001122                     __ptext11:
  1340                           	callstack 0
  1341   001122                     _ECAN_Initialize:
  1342                           	callstack 25
  1343   001122                     
  1344                           ;mcc_generated_files/ecan.c: 67:     CANCON = 0x80;
  1345   001122  0E80               	movlw	128
  1346   001124  6E6F               	movwf	111,c	;volatile
  1347   001126                     l1712:
  1348   001126  506E               	movf	110,w,c	;volatile
  1349   001128  0BE0               	andlw	224
  1350   00112A  0A80               	xorlw	128
  1351   00112C  A4D8               	btfss	status,2,c
  1352   00112E  EF9B  F008         	goto	u451
  1353   001132  EF9D  F008         	goto	u450
  1354   001136                     u451:
  1355   001136  EF93  F008         	goto	l1712
  1356   00113A                     u450:
  1357   00113A                     
  1358                           ;mcc_generated_files/ecan.c: 73:     ECANCON = 0x40;
  1359   00113A  0E40               	movlw	64
  1360   00113C  6E72               	movwf	114,c	;volatile
  1361                           
  1362                           ;mcc_generated_files/ecan.c: 78:     CIOCON = 0x20;
  1363   00113E  0E20               	movlw	32
  1364   001140  6E70               	movwf	112,c	;volatile
  1365                           
  1366                           ;mcc_generated_files/ecan.c: 107:     BSEL0 = 0x00;
  1367   001142  0E00               	movlw	0
  1368   001144  010E               	movlb	14	; () banked
  1369   001146  6F7D               	movwf	125,b	;volatile
  1370   001148                     
  1371                           ; BSR set to: 14
  1372                           ;mcc_generated_files/ecan.c: 112:     RXM0EIDH = 0xFF;
  1373   001148  69FA               	setf	250,b	;volatile
  1374   00114A                     
  1375                           ; BSR set to: 14
  1376                           ;mcc_generated_files/ecan.c: 113:     RXM0EIDL = 0xFF;
  1377   00114A  69FB               	setf	251,b	;volatile
  1378                           
  1379                           ;mcc_generated_files/ecan.c: 114:     RXM0SIDH = 0x01;
  1380   00114C  0E01               	movlw	1
  1381   00114E  6FF8               	movwf	248,b	;volatile
  1382                           
  1383                           ;mcc_generated_files/ecan.c: 115:     RXM0SIDL = 0x03;
  1384   001150  0E03               	movlw	3
  1385   001152  6FF9               	movwf	249,b	;volatile
  1386   001154                     
  1387                           ; BSR set to: 14
  1388                           ;mcc_generated_files/ecan.c: 116:     RXM1EIDH = 0xFF;
  1389   001154  69FE               	setf	254,b	;volatile
  1390   001156                     
  1391                           ; BSR set to: 14
  1392                           ;mcc_generated_files/ecan.c: 117:     RXM1EIDL = 0xFF;
  1393   001156  69FF               	setf	255,b	;volatile
  1394   001158                     
  1395                           ; BSR set to: 14
  1396                           ;mcc_generated_files/ecan.c: 118:     RXM1SIDH = 0xFF;
  1397   001158  69FC               	setf	252,b	;volatile
  1398                           
  1399                           ;mcc_generated_files/ecan.c: 119:     RXM1SIDL = 0xE3;
  1400   00115A  0EE3               	movlw	227
  1401   00115C  6FFD               	movwf	253,b	;volatile
  1402                           
  1403                           ;mcc_generated_files/ecan.c: 124:     RXFCON0 = 0x01;
  1404   00115E  0E01               	movlw	1
  1405   001160  6F46               	movwf	70,b	;volatile
  1406                           
  1407                           ;mcc_generated_files/ecan.c: 125:     RXFCON1 = 0x00;
  1408   001162  0E00               	movlw	0
  1409   001164  6F47               	movwf	71,b	;volatile
  1410                           
  1411                           ;mcc_generated_files/ecan.c: 129:     MSEL0 = 0x00;
  1412   001166  0E00               	movlw	0
  1413   001168  6F79               	movwf	121,b	;volatile
  1414                           
  1415                           ;mcc_generated_files/ecan.c: 130:     MSEL1 = 0x00;
  1416   00116A  0E00               	movlw	0
  1417   00116C  6F7A               	movwf	122,b	;volatile
  1418                           
  1419                           ;mcc_generated_files/ecan.c: 131:     MSEL2 = 0x00;
  1420   00116E  0E00               	movlw	0
  1421   001170  6F7B               	movwf	123,b	;volatile
  1422                           
  1423                           ;mcc_generated_files/ecan.c: 132:     MSEL3 = 0x00;
  1424   001172  0E00               	movlw	0
  1425   001174  6F7C               	movwf	124,b	;volatile
  1426                           
  1427                           ;mcc_generated_files/ecan.c: 137:     RXFBCON0 = 0x00;
  1428   001176  0E00               	movlw	0
  1429   001178  6F71               	movwf	113,b	;volatile
  1430                           
  1431                           ;mcc_generated_files/ecan.c: 138:     RXFBCON1 = 0x00;
  1432   00117A  0E00               	movlw	0
  1433   00117C  6F72               	movwf	114,b	;volatile
  1434                           
  1435                           ;mcc_generated_files/ecan.c: 139:     RXFBCON2 = 0x00;
  1436   00117E  0E00               	movlw	0
  1437   001180  6F73               	movwf	115,b	;volatile
  1438                           
  1439                           ;mcc_generated_files/ecan.c: 140:     RXFBCON3 = 0x00;
  1440   001182  0E00               	movlw	0
  1441   001184  6F74               	movwf	116,b	;volatile
  1442                           
  1443                           ;mcc_generated_files/ecan.c: 141:     RXFBCON4 = 0x00;
  1444   001186  0E00               	movlw	0
  1445   001188  6F75               	movwf	117,b	;volatile
  1446                           
  1447                           ;mcc_generated_files/ecan.c: 142:     RXFBCON5 = 0x00;
  1448   00118A  0E00               	movlw	0
  1449   00118C  6F76               	movwf	118,b	;volatile
  1450                           
  1451                           ;mcc_generated_files/ecan.c: 143:     RXFBCON6 = 0x00;
  1452   00118E  0E00               	movlw	0
  1453   001190  6F77               	movwf	119,b	;volatile
  1454                           
  1455                           ;mcc_generated_files/ecan.c: 144:     RXFBCON7 = 0x00;
  1456   001192  0E00               	movlw	0
  1457   001194  6F78               	movwf	120,b	;volatile
  1458                           
  1459                           ;mcc_generated_files/ecan.c: 149:     RXF0EIDH = 0x08;
  1460   001196  0E08               	movlw	8
  1461   001198  6FE2               	movwf	226,b	;volatile
  1462                           
  1463                           ;mcc_generated_files/ecan.c: 150:     RXF0EIDL = 0xF4;
  1464   00119A  0EF4               	movlw	244
  1465   00119C  6FE3               	movwf	227,b	;volatile
  1466                           
  1467                           ;mcc_generated_files/ecan.c: 151:     RXF0SIDH = 0x00;
  1468   00119E  0E00               	movlw	0
  1469   0011A0  6FE0               	movwf	224,b	;volatile
  1470                           
  1471                           ;mcc_generated_files/ecan.c: 152:     RXF0SIDL = 0x08;
  1472   0011A2  0E08               	movlw	8
  1473   0011A4  6FE1               	movwf	225,b	;volatile
  1474                           
  1475                           ;mcc_generated_files/ecan.c: 153:     RXF1EIDH = 0x00;
  1476   0011A6  0E00               	movlw	0
  1477   0011A8  6FE6               	movwf	230,b	;volatile
  1478                           
  1479                           ;mcc_generated_files/ecan.c: 154:     RXF1EIDL = 0x00;
  1480   0011AA  0E00               	movlw	0
  1481   0011AC  6FE7               	movwf	231,b	;volatile
  1482                           
  1483                           ;mcc_generated_files/ecan.c: 155:     RXF1SIDH = 0x00;
  1484   0011AE  0E00               	movlw	0
  1485   0011B0  6FE4               	movwf	228,b	;volatile
  1486                           
  1487                           ;mcc_generated_files/ecan.c: 156:     RXF1SIDL = 0x00;
  1488   0011B2  0E00               	movlw	0
  1489   0011B4  6FE5               	movwf	229,b	;volatile
  1490                           
  1491                           ;mcc_generated_files/ecan.c: 157:     RXF2EIDH = 0x00;
  1492   0011B6  0E00               	movlw	0
  1493   0011B8  6FEA               	movwf	234,b	;volatile
  1494                           
  1495                           ;mcc_generated_files/ecan.c: 158:     RXF2EIDL = 0x00;
  1496   0011BA  0E00               	movlw	0
  1497   0011BC  6FEB               	movwf	235,b	;volatile
  1498                           
  1499                           ;mcc_generated_files/ecan.c: 159:     RXF2SIDH = 0x00;
  1500   0011BE  0E00               	movlw	0
  1501   0011C0  6FE8               	movwf	232,b	;volatile
  1502                           
  1503                           ;mcc_generated_files/ecan.c: 160:     RXF2SIDL = 0x00;
  1504   0011C2  0E00               	movlw	0
  1505   0011C4  6FE9               	movwf	233,b	;volatile
  1506                           
  1507                           ;mcc_generated_files/ecan.c: 161:     RXF3EIDH = 0x00;
  1508   0011C6  0E00               	movlw	0
  1509   0011C8  6FEE               	movwf	238,b	;volatile
  1510                           
  1511                           ;mcc_generated_files/ecan.c: 162:     RXF3EIDL = 0x00;
  1512   0011CA  0E00               	movlw	0
  1513   0011CC  6FEF               	movwf	239,b	;volatile
  1514                           
  1515                           ;mcc_generated_files/ecan.c: 163:     RXF3SIDH = 0x00;
  1516   0011CE  0E00               	movlw	0
  1517   0011D0  6FEC               	movwf	236,b	;volatile
  1518                           
  1519                           ;mcc_generated_files/ecan.c: 164:     RXF3SIDL = 0x00;
  1520   0011D2  0E00               	movlw	0
  1521   0011D4  6FED               	movwf	237,b	;volatile
  1522                           
  1523                           ;mcc_generated_files/ecan.c: 165:     RXF4EIDH = 0x00;
  1524   0011D6  0E00               	movlw	0
  1525   0011D8  6FF2               	movwf	242,b	;volatile
  1526                           
  1527                           ;mcc_generated_files/ecan.c: 166:     RXF4EIDL = 0x00;
  1528   0011DA  0E00               	movlw	0
  1529   0011DC  6FF3               	movwf	243,b	;volatile
  1530                           
  1531                           ;mcc_generated_files/ecan.c: 167:     RXF4SIDH = 0x00;
  1532   0011DE  0E00               	movlw	0
  1533   0011E0  6FF0               	movwf	240,b	;volatile
  1534                           
  1535                           ;mcc_generated_files/ecan.c: 168:     RXF4SIDL = 0x00;
  1536   0011E2  0E00               	movlw	0
  1537   0011E4  6FF1               	movwf	241,b	;volatile
  1538                           
  1539                           ;mcc_generated_files/ecan.c: 169:     RXF5EIDH = 0x00;
  1540   0011E6  0E00               	movlw	0
  1541   0011E8  6FF6               	movwf	246,b	;volatile
  1542                           
  1543                           ;mcc_generated_files/ecan.c: 170:     RXF5EIDL = 0x00;
  1544   0011EA  0E00               	movlw	0
  1545   0011EC  6FF7               	movwf	247,b	;volatile
  1546                           
  1547                           ;mcc_generated_files/ecan.c: 171:     RXF5SIDH = 0x00;
  1548   0011EE  0E00               	movlw	0
  1549   0011F0  6FF4               	movwf	244,b	;volatile
  1550                           
  1551                           ;mcc_generated_files/ecan.c: 172:     RXF5SIDL = 0x00;
  1552   0011F2  0E00               	movlw	0
  1553   0011F4  6FF5               	movwf	245,b	;volatile
  1554                           
  1555                           ;mcc_generated_files/ecan.c: 174:     RXF6EIDH = 0x00;
  1556   0011F6  0E00               	movlw	0
  1557   0011F8  6F4A               	movwf	74,b	;volatile
  1558                           
  1559                           ;mcc_generated_files/ecan.c: 175:     RXF6EIDL = 0x00;
  1560   0011FA  0E00               	movlw	0
  1561   0011FC  6F4B               	movwf	75,b	;volatile
  1562                           
  1563                           ;mcc_generated_files/ecan.c: 176:     RXF6SIDH = 0x00;
  1564   0011FE  0E00               	movlw	0
  1565   001200  6F48               	movwf	72,b	;volatile
  1566                           
  1567                           ;mcc_generated_files/ecan.c: 177:     RXF6SIDL = 0x00;
  1568   001202  0E00               	movlw	0
  1569   001204  6F49               	movwf	73,b	;volatile
  1570                           
  1571                           ;mcc_generated_files/ecan.c: 178:     RXF7EIDH = 0x00;
  1572   001206  0E00               	movlw	0
  1573   001208  6F4E               	movwf	78,b	;volatile
  1574                           
  1575                           ;mcc_generated_files/ecan.c: 179:     RXF7EIDL = 0x00;
  1576   00120A  0E00               	movlw	0
  1577   00120C  6F4F               	movwf	79,b	;volatile
  1578                           
  1579                           ;mcc_generated_files/ecan.c: 180:     RXF7SIDH = 0x00;
  1580   00120E  0E00               	movlw	0
  1581   001210  6F4C               	movwf	76,b	;volatile
  1582                           
  1583                           ;mcc_generated_files/ecan.c: 181:     RXF7SIDL = 0x00;
  1584   001212  0E00               	movlw	0
  1585   001214  6F4D               	movwf	77,b	;volatile
  1586                           
  1587                           ;mcc_generated_files/ecan.c: 182:     RXF8EIDH = 0x00;
  1588   001216  0E00               	movlw	0
  1589   001218  6F52               	movwf	82,b	;volatile
  1590                           
  1591                           ;mcc_generated_files/ecan.c: 183:     RXF8EIDL = 0x00;
  1592   00121A  0E00               	movlw	0
  1593   00121C  6F53               	movwf	83,b	;volatile
  1594                           
  1595                           ;mcc_generated_files/ecan.c: 184:     RXF8SIDH = 0x00;
  1596   00121E  0E00               	movlw	0
  1597   001220  6F50               	movwf	80,b	;volatile
  1598                           
  1599                           ;mcc_generated_files/ecan.c: 185:     RXF8SIDL = 0x00;
  1600   001222  0E00               	movlw	0
  1601   001224  6F51               	movwf	81,b	;volatile
  1602                           
  1603                           ;mcc_generated_files/ecan.c: 186:     RXF9EIDH = 0x00;
  1604   001226  0E00               	movlw	0
  1605   001228  6F56               	movwf	86,b	;volatile
  1606                           
  1607                           ;mcc_generated_files/ecan.c: 187:     RXF9EIDL = 0x00;
  1608   00122A  0E00               	movlw	0
  1609   00122C  6F57               	movwf	87,b	;volatile
  1610                           
  1611                           ;mcc_generated_files/ecan.c: 188:     RXF9SIDH = 0x00;
  1612   00122E  0E00               	movlw	0
  1613   001230  6F54               	movwf	84,b	;volatile
  1614                           
  1615                           ;mcc_generated_files/ecan.c: 189:     RXF9SIDL = 0x00;
  1616   001232  0E00               	movlw	0
  1617   001234  6F55               	movwf	85,b	;volatile
  1618                           
  1619                           ;mcc_generated_files/ecan.c: 190:     RXF10EIDH = 0x00;
  1620   001236  0E00               	movlw	0
  1621   001238  6F5A               	movwf	90,b	;volatile
  1622                           
  1623                           ;mcc_generated_files/ecan.c: 191:     RXF10EIDL = 0x00;
  1624   00123A  0E00               	movlw	0
  1625   00123C  6F5B               	movwf	91,b	;volatile
  1626                           
  1627                           ;mcc_generated_files/ecan.c: 192:     RXF10SIDH = 0x00;
  1628   00123E  0E00               	movlw	0
  1629   001240  6F58               	movwf	88,b	;volatile
  1630                           
  1631                           ;mcc_generated_files/ecan.c: 193:     RXF10SIDL = 0x00;
  1632   001242  0E00               	movlw	0
  1633   001244  6F59               	movwf	89,b	;volatile
  1634                           
  1635                           ;mcc_generated_files/ecan.c: 194:     RXF11EIDH = 0x00;
  1636   001246  0E00               	movlw	0
  1637   001248  6F5E               	movwf	94,b	;volatile
  1638                           
  1639                           ;mcc_generated_files/ecan.c: 195:     RXF11EIDL = 0x00;
  1640   00124A  0E00               	movlw	0
  1641   00124C  6F5F               	movwf	95,b	;volatile
  1642                           
  1643                           ;mcc_generated_files/ecan.c: 196:     RXF11SIDH = 0x00;
  1644   00124E  0E00               	movlw	0
  1645   001250  6F5C               	movwf	92,b	;volatile
  1646                           
  1647                           ;mcc_generated_files/ecan.c: 197:     RXF11SIDL = 0x00;
  1648   001252  0E00               	movlw	0
  1649   001254  6F5D               	movwf	93,b	;volatile
  1650                           
  1651                           ;mcc_generated_files/ecan.c: 198:     RXF12EIDH = 0x00;
  1652   001256  0E00               	movlw	0
  1653   001258  6F62               	movwf	98,b	;volatile
  1654                           
  1655                           ;mcc_generated_files/ecan.c: 199:     RXF12EIDL = 0x00;
  1656   00125A  0E00               	movlw	0
  1657   00125C  6F63               	movwf	99,b	;volatile
  1658                           
  1659                           ;mcc_generated_files/ecan.c: 200:     RXF12SIDH = 0x00;
  1660   00125E  0E00               	movlw	0
  1661   001260  6F60               	movwf	96,b	;volatile
  1662                           
  1663                           ;mcc_generated_files/ecan.c: 201:     RXF12SIDL = 0x00;
  1664   001262  0E00               	movlw	0
  1665   001264  6F61               	movwf	97,b	;volatile
  1666                           
  1667                           ;mcc_generated_files/ecan.c: 202:     RXF13EIDH = 0x00;
  1668   001266  0E00               	movlw	0
  1669   001268  6F66               	movwf	102,b	;volatile
  1670                           
  1671                           ;mcc_generated_files/ecan.c: 203:     RXF13EIDL = 0x00;
  1672   00126A  0E00               	movlw	0
  1673   00126C  6F67               	movwf	103,b	;volatile
  1674                           
  1675                           ;mcc_generated_files/ecan.c: 204:     RXF13SIDH = 0x00;
  1676   00126E  0E00               	movlw	0
  1677   001270  6F64               	movwf	100,b	;volatile
  1678                           
  1679                           ;mcc_generated_files/ecan.c: 205:     RXF13SIDL = 0x00;
  1680   001272  0E00               	movlw	0
  1681   001274  6F65               	movwf	101,b	;volatile
  1682                           
  1683                           ;mcc_generated_files/ecan.c: 206:     RXF14EIDH = 0x00;
  1684   001276  0E00               	movlw	0
  1685   001278  6F6A               	movwf	106,b	;volatile
  1686                           
  1687                           ;mcc_generated_files/ecan.c: 207:     RXF14EIDL = 0x00;
  1688   00127A  0E00               	movlw	0
  1689   00127C  6F6B               	movwf	107,b	;volatile
  1690                           
  1691                           ;mcc_generated_files/ecan.c: 208:     RXF14SIDH = 0x00;
  1692   00127E  0E00               	movlw	0
  1693   001280  6F68               	movwf	104,b	;volatile
  1694                           
  1695                           ;mcc_generated_files/ecan.c: 209:     RXF14SIDL = 0x00;
  1696   001282  0E00               	movlw	0
  1697   001284  6F69               	movwf	105,b	;volatile
  1698   001286                     
  1699                           ; BSR set to: 14
  1700                           ;mcc_generated_files/ecan.c: 210:     RXF15EIDH = 0xFF;
  1701   001286  696E               	setf	110,b	;volatile
  1702   001288                     
  1703                           ; BSR set to: 14
  1704                           ;mcc_generated_files/ecan.c: 211:     RXF15EIDL = 0xFF;
  1705   001288  696F               	setf	111,b	;volatile
  1706   00128A                     
  1707                           ; BSR set to: 14
  1708                           ;mcc_generated_files/ecan.c: 212:     RXF15SIDH = 0xFF;
  1709   00128A  696C               	setf	108,b	;volatile
  1710                           
  1711                           ;mcc_generated_files/ecan.c: 213:     RXF15SIDL = 0xE3;
  1712   00128C  0EE3               	movlw	227
  1713   00128E  6F6D               	movwf	109,b	;volatile
  1714                           
  1715                           ;mcc_generated_files/ecan.c: 228:     BRGCON1 = 0x03;
  1716   001290  0E03               	movlw	3
  1717   001292  6F43               	movwf	67,b	;volatile
  1718                           
  1719                           ;mcc_generated_files/ecan.c: 229:     BRGCON2 = 0xA8;
  1720   001294  0EA8               	movlw	168
  1721   001296  6F44               	movwf	68,b	;volatile
  1722                           
  1723                           ;mcc_generated_files/ecan.c: 230:     BRGCON3 = 0x01;
  1724   001298  0E01               	movlw	1
  1725   00129A  6F45               	movwf	69,b	;volatile
  1726   00129C                     
  1727                           ; BSR set to: 14
  1728                           ;mcc_generated_files/ecan.c: 232:     ECAN_SetWakeUpInterruptHandler(WakeUpDefaultInterr
      +                          uptHandler);
  1729   00129C  0EC6               	movlw	low _WakeUpDefaultInterruptHandler
  1730   00129E  6E21               	movwf	ECAN_SetWakeUpInterruptHandler@handler^0,c
  1731   0012A0  0E17               	movlw	high _WakeUpDefaultInterruptHandler
  1732   0012A2  6E22               	movwf	(ECAN_SetWakeUpInterruptHandler@handler+1)^0,c
  1733   0012A4  ECDC  F00B         	call	_ECAN_SetWakeUpInterruptHandler	;wreg free
  1734   0012A8                     
  1735                           ;mcc_generated_files/ecan.c: 233:     PIR5bits.WAKIF = 0;
  1736   0012A8  9C77               	bcf	119,6,c	;volatile
  1737   0012AA                     
  1738                           ;mcc_generated_files/ecan.c: 234:     PIE5bits.WAKIE = 1;
  1739   0012AA  8C76               	bsf	118,6,c	;volatile
  1740   0012AC                     
  1741                           ;mcc_generated_files/ecan.c: 236:     CANCON = 0x00;
  1742   0012AC  0E00               	movlw	0
  1743   0012AE  6E6F               	movwf	111,c	;volatile
  1744   0012B0                     l1740:
  1745   0012B0  CF6E F023          	movff	3950,??_ECAN_Initialize	;volatile
  1746   0012B4  0EE0               	movlw	224
  1747   0012B6  1623               	andwf	??_ECAN_Initialize^0,f,c
  1748   0012B8  A4D8               	btfss	status,2,c
  1749   0012BA  EF61  F009         	goto	u461
  1750   0012BE  EF63  F009         	goto	u460
  1751   0012C2                     u461:
  1752   0012C2  EF58  F009         	goto	l1740
  1753   0012C6                     u460:
  1754   0012C6  0012               	return		;funcret
  1755   0012C8                     __end_of_ECAN_Initialize:
  1756                           	callstack 0
  1757                           
  1758 ;; *************** function _ECAN_SetWakeUpInterruptHandler *****************
  1759 ;; Defined at:
  1760 ;;		line 513 in file "mcc_generated_files/ecan.c"
  1761 ;; Parameters:    Size  Location     Type
  1762 ;;  handler         2    2[COMRAM] PTR FTN()void 
  1763 ;;		 -> WakeUpDefaultInterruptHandler(1), 
  1764 ;; Auto vars:     Size  Location     Type
  1765 ;;		None
  1766 ;; Return value:  Size  Location     Type
  1767 ;;                  1    wreg      void 
  1768 ;; Registers used:
  1769 ;;		wreg, status,2, status,0
  1770 ;; Tracked objects:
  1771 ;;		On entry : 0/0
  1772 ;;		On exit  : 0/0
  1773 ;;		Unchanged: 0/0
  1774 ;; Data sizes:     COMRAM   BANK0   BANK1   BANK2   BANK3   BANK4   BANK5   BANK6   BANK7   BANK8   BANK9  BANK10  BANK1
      +1  BANK12  BANK13  BANK14
  1775 ;;      Params:         2       0       0       0       0       0       0       0       0       0       0       0       
      +0       0       0       0
  1776 ;;      Locals:         0       0       0       0       0       0       0       0       0       0       0       0       
      +0       0       0       0
  1777 ;;      Temps:          0       0       0       0       0       0       0       0       0       0       0       0       
      +0       0       0       0
  1778 ;;      Totals:         2       0       0       0       0       0       0       0       0       0       0       0       
      +0       0       0       0
  1779 ;;Total ram usage:        2 bytes
  1780 ;; Hardware stack levels used: 1
  1781 ;; Hardware stack levels required when called: 3
  1782 ;; This function calls:
  1783 ;;		Nothing
  1784 ;; This function is called by:
  1785 ;;		_ECAN_Initialize
  1786 ;; This function uses a non-reentrant model
  1787 ;;
  1788                           
  1789                           	psect	text12
  1790   0017B8                     __ptext12:
  1791                           	callstack 0
  1792   0017B8                     _ECAN_SetWakeUpInterruptHandler:
  1793                           	callstack 25
  1794   0017B8                     
  1795                           ;mcc_generated_files/ecan.c: 513: void ECAN_SetWakeUpInterruptHandler(void (*handler)(vo
      +                          id));mcc_generated_files/ecan.c: 514: {;mcc_generated_files/ecan.c: 515:     WakeUpInter
      +                          ruptHandler = handler;
  1796   0017B8  C021  F00F         	movff	ECAN_SetWakeUpInterruptHandler@handler,_WakeUpInterruptHandler
  1797   0017BC  C022  F010         	movff	ECAN_SetWakeUpInterruptHandler@handler+1,_WakeUpInterruptHandler+1
  1798   0017C0  0012               	return		;funcret
  1799   0017C2                     __end_of_ECAN_SetWakeUpInterruptHandler:
  1800                           	callstack 0
  1801                           
  1802 ;; *************** function _CAN_receive *****************
  1803 ;; Defined at:
  1804 ;;		line 328 in file "mcc_generated_files/ecan.c"
  1805 ;; Parameters:    Size  Location     Type
  1806 ;;  tempCanMsg      1   21[COMRAM] PTR struct .
  1807 ;;		 -> rx(14), 
  1808 ;; Auto vars:     Size  Location     Type
  1809 ;;  returnValue     1   22[COMRAM] unsigned char 
  1810 ;; Return value:  Size  Location     Type
  1811 ;;                  1    wreg      unsigned char 
  1812 ;; Registers used:
  1813 ;;		wreg, fsr2l, fsr2h, status,2, status,0, cstack
  1814 ;; Tracked objects:
  1815 ;;		On entry : 0/0
  1816 ;;		On exit  : 0/0
  1817 ;;		Unchanged: 0/0
  1818 ;; Data sizes:     COMRAM   BANK0   BANK1   BANK2   BANK3   BANK4   BANK5   BANK6   BANK7   BANK8   BANK9  BANK10  BANK1
      +1  BANK12  BANK13  BANK14
  1819 ;;      Params:         1       0       0       0       0       0       0       0       0       0       0       0       
      +0       0       0       0
  1820 ;;      Locals:         1       0       0       0       0       0       0       0       0       0       0       0       
      +0       0       0       0
  1821 ;;      Temps:          0       0       0       0       0       0       0       0       0       0       0       0       
      +0       0       0       0
  1822 ;;      Totals:         2       0       0       0       0       0       0       0       0       0       0       0       
      +0       0       0       0
  1823 ;;Total ram usage:        2 bytes
  1824 ;; Hardware stack levels used: 1
  1825 ;; Hardware stack levels required when called: 4
  1826 ;; This function calls:
  1827 ;;		_convertReg2ExtendedCANid
  1828 ;;		_convertReg2StandardCANid
  1829 ;; This function is called by:
  1830 ;;		_main
  1831 ;; This function uses a non-reentrant model
  1832 ;;
  1833                           
  1834                           	psect	text13
  1835   000F02                     __ptext13:
  1836                           	callstack 0
  1837   000F02                     _CAN_receive:
  1838                           	callstack 26
  1839   000F02                     
  1840                           ;mcc_generated_files/ecan.c: 328: uint8_t CAN_receive(uCAN_MSG *tempCanMsg);mcc_generate
      +                          d_files/ecan.c: 329: {;mcc_generated_files/ecan.c: 330:     uint8_t returnValue = 0;
  1841   000F02  0E00               	movlw	0
  1842   000F04  6E35               	movwf	CAN_receive@returnValue^0,c
  1843   000F06                     
  1844                           ;mcc_generated_files/ecan.c: 333:     if (RXB0CONbits.RXFUL != 0)
  1845   000F06  AE60               	btfss	96,7,c	;volatile
  1846   000F08  EF88  F007         	goto	u491
  1847   000F0C  EF8A  F007         	goto	u490
  1848   000F10                     u491:
  1849   000F10  EF09  F008         	goto	l373
  1850   000F14                     u490:
  1851   000F14                     
  1852                           ;mcc_generated_files/ecan.c: 334:     {;mcc_generated_files/ecan.c: 335:         if ((RX
      +                          B0SIDL & 0x08) == 0x08)
  1853   000F14  A662               	btfss	98,3,c	;volatile
  1854   000F16  EF8F  F007         	goto	u501
  1855   000F1A  EF91  F007         	goto	u500
  1856   000F1E                     u501:
  1857   000F1E  EFAE  F007         	goto	l1788
  1858   000F22                     u500:
  1859   000F22                     
  1860                           ;mcc_generated_files/ecan.c: 336:         {;mcc_generated_files/ecan.c: 338:            
      +                           tempCanMsg->frame.idType = (uint8_t) 2;
  1861   000F22  5034               	movf	CAN_receive@tempCanMsg^0,w,c
  1862   000F24  6ED9               	movwf	fsr2l,c
  1863   000F26  6ADA               	clrf	fsr2h,c
  1864   000F28  0E02               	movlw	2
  1865   000F2A  6EDF               	movwf	indf2,c
  1866   000F2C                     
  1867                           ;mcc_generated_files/ecan.c: 339:             tempCanMsg->frame.id = convertReg2Extended
      +                          CANid(RXB0EIDH, RXB0EIDL, RXB0SIDH, RXB0SIDL);
  1868   000F2C  CF64 F021          	movff	3940,convertReg2ExtendedCANid@tempRXBn_EIDL	;volatile
  1869   000F30  CF61 F022          	movff	3937,convertReg2ExtendedCANid@tempRXBn_SIDH	;volatile
  1870   000F34  CF62 F023          	movff	3938,convertReg2ExtendedCANid@tempRXBn_SIDL	;volatile
  1871   000F38  5063               	movf	99,w,c	;volatile
  1872   000F3A  EC0E  F00A         	call	_convertReg2ExtendedCANid
  1873   000F3E  5034               	movf	CAN_receive@tempCanMsg^0,w,c
  1874   000F40  6ED9               	movwf	fsr2l,c
  1875   000F42  6ADA               	clrf	fsr2h,c
  1876   000F44  0E01               	movlw	1
  1877   000F46  26D9               	addwf	fsr2l,f,c
  1878   000F48  C021  FFDE         	movff	?_convertReg2ExtendedCANid,postinc2
  1879   000F4C  C022  FFDE         	movff	?_convertReg2ExtendedCANid+1,postinc2
  1880   000F50  C023  FFDE         	movff	?_convertReg2ExtendedCANid+2,postinc2
  1881   000F54  C024  FFDE         	movff	?_convertReg2ExtendedCANid+3,postinc2
  1882                           
  1883                           ;mcc_generated_files/ecan.c: 340:         }
  1884   000F58  EFC5  F007         	goto	l1792
  1885   000F5C                     l1788:
  1886                           
  1887                           ;mcc_generated_files/ecan.c: 342:         {;mcc_generated_files/ecan.c: 344:            
      +                           tempCanMsg->frame.idType = (uint8_t) 1;
  1888   000F5C  5034               	movf	CAN_receive@tempCanMsg^0,w,c
  1889   000F5E  6ED9               	movwf	fsr2l,c
  1890   000F60  6ADA               	clrf	fsr2h,c
  1891   000F62  0E01               	movlw	1
  1892   000F64  6EDF               	movwf	indf2,c
  1893   000F66                     
  1894                           ;mcc_generated_files/ecan.c: 345:             tempCanMsg->frame.id = convertReg2Standard
      +                          CANid(RXB0SIDH, RXB0SIDL);
  1895   000F66  CF62 F021          	movff	3938,convertReg2StandardCANid@tempRXBn_SIDL	;volatile
  1896   000F6A  5061               	movf	97,w,c	;volatile
  1897   000F6C  ECAB  F00A         	call	_convertReg2StandardCANid
  1898   000F70  5034               	movf	CAN_receive@tempCanMsg^0,w,c
  1899   000F72  6ED9               	movwf	fsr2l,c
  1900   000F74  6ADA               	clrf	fsr2h,c
  1901   000F76  0E01               	movlw	1
  1902   000F78  26D9               	addwf	fsr2l,f,c
  1903   000F7A  C021  FFDE         	movff	?_convertReg2StandardCANid,postinc2
  1904   000F7E  C022  FFDE         	movff	?_convertReg2StandardCANid+1,postinc2
  1905   000F82  C023  FFDE         	movff	?_convertReg2StandardCANid+2,postinc2
  1906   000F86  C024  FFDE         	movff	?_convertReg2StandardCANid+3,postinc2
  1907   000F8A                     l1792:
  1908                           
  1909                           ;mcc_generated_files/ecan.c: 348:         tempCanMsg->frame.dlc = RXB0DLC;
  1910   000F8A  5034               	movf	CAN_receive@tempCanMsg^0,w,c
  1911   000F8C  6ED9               	movwf	fsr2l,c
  1912   000F8E  6ADA               	clrf	fsr2h,c
  1913   000F90  0E05               	movlw	5
  1914   000F92  26D9               	addwf	fsr2l,f,c
  1915   000F94  CF65 FFDF          	movff	3941,indf2	;volatile
  1916   000F98                     
  1917                           ;mcc_generated_files/ecan.c: 349:         tempCanMsg->frame.data0 = RXB0D0;
  1918   000F98  5034               	movf	CAN_receive@tempCanMsg^0,w,c
  1919   000F9A  6ED9               	movwf	fsr2l,c
  1920   000F9C  6ADA               	clrf	fsr2h,c
  1921   000F9E  0E06               	movlw	6
  1922   000FA0  26D9               	addwf	fsr2l,f,c
  1923   000FA2  CF66 FFDF          	movff	3942,indf2	;volatile
  1924   000FA6                     
  1925                           ;mcc_generated_files/ecan.c: 350:         tempCanMsg->frame.data1 = RXB0D1;
  1926   000FA6  5034               	movf	CAN_receive@tempCanMsg^0,w,c
  1927   000FA8  6ED9               	movwf	fsr2l,c
  1928   000FAA  6ADA               	clrf	fsr2h,c
  1929   000FAC  0E07               	movlw	7
  1930   000FAE  26D9               	addwf	fsr2l,f,c
  1931   000FB0  CF67 FFDF          	movff	3943,indf2	;volatile
  1932   000FB4                     
  1933                           ;mcc_generated_files/ecan.c: 351:         tempCanMsg->frame.data2 = RXB0D2;
  1934   000FB4  5034               	movf	CAN_receive@tempCanMsg^0,w,c
  1935   000FB6  6ED9               	movwf	fsr2l,c
  1936   000FB8  6ADA               	clrf	fsr2h,c
  1937   000FBA  0E08               	movlw	8
  1938   000FBC  26D9               	addwf	fsr2l,f,c
  1939   000FBE  CF68 FFDF          	movff	3944,indf2	;volatile
  1940   000FC2                     
  1941                           ;mcc_generated_files/ecan.c: 352:         tempCanMsg->frame.data3 = RXB0D3;
  1942   000FC2  5034               	movf	CAN_receive@tempCanMsg^0,w,c
  1943   000FC4  6ED9               	movwf	fsr2l,c
  1944   000FC6  6ADA               	clrf	fsr2h,c
  1945   000FC8  0E09               	movlw	9
  1946   000FCA  26D9               	addwf	fsr2l,f,c
  1947   000FCC  CF69 FFDF          	movff	3945,indf2	;volatile
  1948   000FD0                     
  1949                           ;mcc_generated_files/ecan.c: 353:         tempCanMsg->frame.data4 = RXB0D4;
  1950   000FD0  5034               	movf	CAN_receive@tempCanMsg^0,w,c
  1951   000FD2  6ED9               	movwf	fsr2l,c
  1952   000FD4  6ADA               	clrf	fsr2h,c
  1953   000FD6  0E0A               	movlw	10
  1954   000FD8  26D9               	addwf	fsr2l,f,c
  1955   000FDA  CF6A FFDF          	movff	3946,indf2	;volatile
  1956   000FDE                     
  1957                           ;mcc_generated_files/ecan.c: 354:         tempCanMsg->frame.data5 = RXB0D5;
  1958   000FDE  5034               	movf	CAN_receive@tempCanMsg^0,w,c
  1959   000FE0  6ED9               	movwf	fsr2l,c
  1960   000FE2  6ADA               	clrf	fsr2h,c
  1961   000FE4  0E0B               	movlw	11
  1962   000FE6  26D9               	addwf	fsr2l,f,c
  1963   000FE8  CF6B FFDF          	movff	3947,indf2	;volatile
  1964   000FEC                     
  1965                           ;mcc_generated_files/ecan.c: 355:         tempCanMsg->frame.data6 = RXB0D6;
  1966   000FEC  5034               	movf	CAN_receive@tempCanMsg^0,w,c
  1967   000FEE  6ED9               	movwf	fsr2l,c
  1968   000FF0  6ADA               	clrf	fsr2h,c
  1969   000FF2  0E0C               	movlw	12
  1970   000FF4  26D9               	addwf	fsr2l,f,c
  1971   000FF6  CF6C FFDF          	movff	3948,indf2	;volatile
  1972   000FFA                     
  1973                           ;mcc_generated_files/ecan.c: 356:         tempCanMsg->frame.data7 = RXB0D7;
  1974   000FFA  5034               	movf	CAN_receive@tempCanMsg^0,w,c
  1975   000FFC  6ED9               	movwf	fsr2l,c
  1976   000FFE  6ADA               	clrf	fsr2h,c
  1977   001000  0E0D               	movlw	13
  1978   001002  26D9               	addwf	fsr2l,f,c
  1979   001004  CF6D FFDF          	movff	3949,indf2	;volatile
  1980   001008                     
  1981                           ;mcc_generated_files/ecan.c: 357:         RXB0CONbits.RXFUL = 0;
  1982   001008  9E60               	bcf	96,7,c	;volatile
  1983   00100A                     l1812:
  1984                           
  1985                           ;mcc_generated_files/ecan.c: 358:         returnValue = 1;
  1986   00100A  0E01               	movlw	1
  1987   00100C  6E35               	movwf	CAN_receive@returnValue^0,c
  1988                           
  1989                           ;mcc_generated_files/ecan.c: 359:     }
  1990   00100E  EF8F  F008         	goto	l1846
  1991   001012                     l373:
  1992   001012  010F               	movlb	15	; () banked
  1993   001014  AF30               	btfss	48,7,b	;volatile
  1994   001016  EF0F  F008         	goto	u511
  1995   00101A  EF11  F008         	goto	u510
  1996   00101E                     u511:
  1997   00101E  EF8F  F008         	goto	l1846
  1998   001022                     u510:
  1999   001022                     
  2000                           ; BSR set to: 15
  2001                           ;mcc_generated_files/ecan.c: 361:     {;mcc_generated_files/ecan.c: 362:         if ((RX
      +                          B1SIDL & 0x08) == 0x08)
  2002   001022  A732               	btfss	50,3,b	;volatile
  2003   001024  EF16  F008         	goto	u521
  2004   001028  EF18  F008         	goto	u520
  2005   00102C                     u521:
  2006   00102C  EF35  F008         	goto	l1820
  2007   001030                     u520:
  2008   001030                     
  2009                           ; BSR set to: 15
  2010                           ;mcc_generated_files/ecan.c: 363:         {;mcc_generated_files/ecan.c: 365:            
      +                           tempCanMsg->frame.idType = (uint8_t) 2;
  2011   001030  5034               	movf	CAN_receive@tempCanMsg^0,w,c
  2012   001032  6ED9               	movwf	fsr2l,c
  2013   001034  6ADA               	clrf	fsr2h,c
  2014   001036  0E02               	movlw	2
  2015   001038  6EDF               	movwf	indf2,c
  2016   00103A                     
  2017                           ; BSR set to: 15
  2018                           ;mcc_generated_files/ecan.c: 366:             tempCanMsg->frame.id = convertReg2Extended
      +                          CANid(RXB1EIDH, RXB1EIDL, RXB1SIDH, RXB1SIDL);
  2019   00103A  CF34 F021          	movff	3892,convertReg2ExtendedCANid@tempRXBn_EIDL	;volatile
  2020   00103E  CF31 F022          	movff	3889,convertReg2ExtendedCANid@tempRXBn_SIDH	;volatile
  2021   001042  CF32 F023          	movff	3890,convertReg2ExtendedCANid@tempRXBn_SIDL	;volatile
  2022   001046  5133               	movf	51,w,b	;volatile
  2023   001048  EC0E  F00A         	call	_convertReg2ExtendedCANid
  2024   00104C  5034               	movf	CAN_receive@tempCanMsg^0,w,c
  2025   00104E  6ED9               	movwf	fsr2l,c
  2026   001050  6ADA               	clrf	fsr2h,c
  2027   001052  0E01               	movlw	1
  2028   001054  26D9               	addwf	fsr2l,f,c
  2029   001056  C021  FFDE         	movff	?_convertReg2ExtendedCANid,postinc2
  2030   00105A  C022  FFDE         	movff	?_convertReg2ExtendedCANid+1,postinc2
  2031   00105E  C023  FFDE         	movff	?_convertReg2ExtendedCANid+2,postinc2
  2032   001062  C024  FFDE         	movff	?_convertReg2ExtendedCANid+3,postinc2
  2033                           
  2034                           ;mcc_generated_files/ecan.c: 367:         }
  2035   001066  EF4C  F008         	goto	l1824
  2036   00106A                     l1820:
  2037                           
  2038                           ; BSR set to: 15
  2039                           ;mcc_generated_files/ecan.c: 369:         {;mcc_generated_files/ecan.c: 371:            
      +                           tempCanMsg->frame.idType = (uint8_t) 1;
  2040   00106A  5034               	movf	CAN_receive@tempCanMsg^0,w,c
  2041   00106C  6ED9               	movwf	fsr2l,c
  2042   00106E  6ADA               	clrf	fsr2h,c
  2043   001070  0E01               	movlw	1
  2044   001072  6EDF               	movwf	indf2,c
  2045   001074                     
  2046                           ; BSR set to: 15
  2047                           ;mcc_generated_files/ecan.c: 372:             tempCanMsg->frame.id = convertReg2Standard
      +                          CANid(RXB1SIDH, RXB1SIDL);
  2048   001074  CF32 F021          	movff	3890,convertReg2StandardCANid@tempRXBn_SIDL	;volatile
  2049   001078  5131               	movf	49,w,b	;volatile
  2050   00107A  ECAB  F00A         	call	_convertReg2StandardCANid
  2051   00107E  5034               	movf	CAN_receive@tempCanMsg^0,w,c
  2052   001080  6ED9               	movwf	fsr2l,c
  2053   001082  6ADA               	clrf	fsr2h,c
  2054   001084  0E01               	movlw	1
  2055   001086  26D9               	addwf	fsr2l,f,c
  2056   001088  C021  FFDE         	movff	?_convertReg2StandardCANid,postinc2
  2057   00108C  C022  FFDE         	movff	?_convertReg2StandardCANid+1,postinc2
  2058   001090  C023  FFDE         	movff	?_convertReg2StandardCANid+2,postinc2
  2059   001094  C024  FFDE         	movff	?_convertReg2StandardCANid+3,postinc2
  2060   001098                     l1824:
  2061                           
  2062                           ;mcc_generated_files/ecan.c: 375:         tempCanMsg->frame.dlc = RXB1DLC;
  2063   001098  5034               	movf	CAN_receive@tempCanMsg^0,w,c
  2064   00109A  6ED9               	movwf	fsr2l,c
  2065   00109C  6ADA               	clrf	fsr2h,c
  2066   00109E  0E05               	movlw	5
  2067   0010A0  26D9               	addwf	fsr2l,f,c
  2068   0010A2  CF35 FFDF          	movff	3893,indf2	;volatile
  2069   0010A6                     
  2070                           ;mcc_generated_files/ecan.c: 376:         tempCanMsg->frame.data0 = RXB1D0;
  2071   0010A6  5034               	movf	CAN_receive@tempCanMsg^0,w,c
  2072   0010A8  6ED9               	movwf	fsr2l,c
  2073   0010AA  6ADA               	clrf	fsr2h,c
  2074   0010AC  0E06               	movlw	6
  2075   0010AE  26D9               	addwf	fsr2l,f,c
  2076   0010B0  CF36 FFDF          	movff	3894,indf2	;volatile
  2077   0010B4                     
  2078                           ;mcc_generated_files/ecan.c: 377:         tempCanMsg->frame.data1 = RXB1D1;
  2079   0010B4  5034               	movf	CAN_receive@tempCanMsg^0,w,c
  2080   0010B6  6ED9               	movwf	fsr2l,c
  2081   0010B8  6ADA               	clrf	fsr2h,c
  2082   0010BA  0E07               	movlw	7
  2083   0010BC  26D9               	addwf	fsr2l,f,c
  2084   0010BE  CF37 FFDF          	movff	3895,indf2	;volatile
  2085   0010C2                     
  2086                           ;mcc_generated_files/ecan.c: 378:         tempCanMsg->frame.data2 = RXB1D2;
  2087   0010C2  5034               	movf	CAN_receive@tempCanMsg^0,w,c
  2088   0010C4  6ED9               	movwf	fsr2l,c
  2089   0010C6  6ADA               	clrf	fsr2h,c
  2090   0010C8  0E08               	movlw	8
  2091   0010CA  26D9               	addwf	fsr2l,f,c
  2092   0010CC  CF38 FFDF          	movff	3896,indf2	;volatile
  2093   0010D0                     
  2094                           ;mcc_generated_files/ecan.c: 379:         tempCanMsg->frame.data3 = RXB1D3;
  2095   0010D0  5034               	movf	CAN_receive@tempCanMsg^0,w,c
  2096   0010D2  6ED9               	movwf	fsr2l,c
  2097   0010D4  6ADA               	clrf	fsr2h,c
  2098   0010D6  0E09               	movlw	9
  2099   0010D8  26D9               	addwf	fsr2l,f,c
  2100   0010DA  CF39 FFDF          	movff	3897,indf2	;volatile
  2101   0010DE                     
  2102                           ;mcc_generated_files/ecan.c: 380:         tempCanMsg->frame.data4 = RXB1D4;
  2103   0010DE  5034               	movf	CAN_receive@tempCanMsg^0,w,c
  2104   0010E0  6ED9               	movwf	fsr2l,c
  2105   0010E2  6ADA               	clrf	fsr2h,c
  2106   0010E4  0E0A               	movlw	10
  2107   0010E6  26D9               	addwf	fsr2l,f,c
  2108   0010E8  CF3A FFDF          	movff	3898,indf2	;volatile
  2109   0010EC                     
  2110                           ;mcc_generated_files/ecan.c: 381:         tempCanMsg->frame.data5 = RXB1D5;
  2111   0010EC  5034               	movf	CAN_receive@tempCanMsg^0,w,c
  2112   0010EE  6ED9               	movwf	fsr2l,c
  2113   0010F0  6ADA               	clrf	fsr2h,c
  2114   0010F2  0E0B               	movlw	11
  2115   0010F4  26D9               	addwf	fsr2l,f,c
  2116   0010F6  CF3B FFDF          	movff	3899,indf2	;volatile
  2117   0010FA                     
  2118                           ;mcc_generated_files/ecan.c: 382:         tempCanMsg->frame.data6 = RXB1D6;
  2119   0010FA  5034               	movf	CAN_receive@tempCanMsg^0,w,c
  2120   0010FC  6ED9               	movwf	fsr2l,c
  2121   0010FE  6ADA               	clrf	fsr2h,c
  2122   001100  0E0C               	movlw	12
  2123   001102  26D9               	addwf	fsr2l,f,c
  2124   001104  CF3C FFDF          	movff	3900,indf2	;volatile
  2125   001108                     
  2126                           ;mcc_generated_files/ecan.c: 383:         tempCanMsg->frame.data7 = RXB1D7;
  2127   001108  5034               	movf	CAN_receive@tempCanMsg^0,w,c
  2128   00110A  6ED9               	movwf	fsr2l,c
  2129   00110C  6ADA               	clrf	fsr2h,c
  2130   00110E  0E0D               	movlw	13
  2131   001110  26D9               	addwf	fsr2l,f,c
  2132   001112  CF3D FFDF          	movff	3901,indf2	;volatile
  2133   001116                     
  2134                           ;mcc_generated_files/ecan.c: 384:         RXB1CONbits.RXFUL = 0;
  2135   001116  010F               	movlb	15	; () banked
  2136   001118  9F30               	bcf	48,7,b	;volatile
  2137   00111A  EF05  F008         	goto	l1812
  2138   00111E                     l1846:
  2139                           
  2140                           ;mcc_generated_files/ecan.c: 387:     return (returnValue);
  2141   00111E  5035               	movf	CAN_receive@returnValue^0,w,c
  2142   001120  0012               	return		;funcret
  2143   001122                     __end_of_CAN_receive:
  2144                           	callstack 0
  2145                           
  2146 ;; *************** function _convertReg2StandardCANid *****************
  2147 ;; Defined at:
  2148 ;;		line 466 in file "mcc_generated_files/ecan.c"
  2149 ;; Parameters:    Size  Location     Type
  2150 ;;  tempRXBn_SID    1    wreg     unsigned char 
  2151 ;;  tempRXBn_SID    1    2[COMRAM] unsigned char 
  2152 ;; Auto vars:     Size  Location     Type
  2153 ;;  tempRXBn_SID    1    8[COMRAM] unsigned char 
  2154 ;;  ConvertedID     4   13[COMRAM] unsigned long 
  2155 ;;  returnValue     4    9[COMRAM] unsigned long 
  2156 ;; Return value:  Size  Location     Type
  2157 ;;                  4    2[COMRAM] unsigned long 
  2158 ;; Registers used:
  2159 ;;		wreg, status,2, status,0
  2160 ;; Tracked objects:
  2161 ;;		On entry : 0/0
  2162 ;;		On exit  : 0/0
  2163 ;;		Unchanged: 0/0
  2164 ;; Data sizes:     COMRAM   BANK0   BANK1   BANK2   BANK3   BANK4   BANK5   BANK6   BANK7   BANK8   BANK9  BANK10  BANK1
      +1  BANK12  BANK13  BANK14
  2165 ;;      Params:         4       0       0       0       0       0       0       0       0       0       0       0       
      +0       0       0       0
  2166 ;;      Locals:         9       0       0       0       0       0       0       0       0       0       0       0       
      +0       0       0       0
  2167 ;;      Temps:          2       0       0       0       0       0       0       0       0       0       0       0       
      +0       0       0       0
  2168 ;;      Totals:        15       0       0       0       0       0       0       0       0       0       0       0       
      +0       0       0       0
  2169 ;;Total ram usage:       15 bytes
  2170 ;; Hardware stack levels used: 1
  2171 ;; Hardware stack levels required when called: 3
  2172 ;; This function calls:
  2173 ;;		Nothing
  2174 ;; This function is called by:
  2175 ;;		_CAN_receive
  2176 ;; This function uses a non-reentrant model
  2177 ;;
  2178                           
  2179                           	psect	text14
  2180   001556                     __ptext14:
  2181                           	callstack 0
  2182   001556                     _convertReg2StandardCANid:
  2183                           	callstack 26
  2184                           
  2185                           ;incstack = 0
  2186                           ;convertReg2StandardCANid@tempRXBn_SIDH stored from wreg
  2187   001556  6E27               	movwf	convertReg2StandardCANid@tempRXBn_SIDH^0,c
  2188   001558                     
  2189                           ;mcc_generated_files/ecan.c: 468:     uint32_t ConvertedID;;mcc_generated_files/ecan.c: 
      +                          472:     ConvertedID = (uint32_t)(tempRXBn_SIDH << 3);
  2190   001558  5027               	movf	convertReg2StandardCANid@tempRXBn_SIDH^0,w,c
  2191   00155A  6E25               	movwf	??_convertReg2StandardCANid^0,c
  2192   00155C  6A26               	clrf	(??_convertReg2StandardCANid+1)^0,c
  2193   00155E  90D8               	bcf	status,0,c
  2194   001560  3625               	rlcf	??_convertReg2StandardCANid^0,f,c
  2195   001562  3626               	rlcf	(??_convertReg2StandardCANid+1)^0,f,c
  2196   001564  90D8               	bcf	status,0,c
  2197   001566  3625               	rlcf	??_convertReg2StandardCANid^0,f,c
  2198   001568  3626               	rlcf	(??_convertReg2StandardCANid+1)^0,f,c
  2199   00156A  90D8               	bcf	status,0,c
  2200   00156C  3625               	rlcf	??_convertReg2StandardCANid^0,f,c
  2201   00156E  3626               	rlcf	(??_convertReg2StandardCANid+1)^0,f,c
  2202   001570  C025  F02C         	movff	??_convertReg2StandardCANid,convertReg2StandardCANid@ConvertedID
  2203   001574  C026  F02D         	movff	??_convertReg2StandardCANid+1,convertReg2StandardCANid@ConvertedID+1
  2204   001578  0E00               	movlw	0
  2205   00157A  BE2D               	btfsc	(convertReg2StandardCANid@ConvertedID+1)^0,7,c
  2206   00157C  0EFF               	movlw	-1
  2207   00157E  6E2E               	movwf	(convertReg2StandardCANid@ConvertedID+2)^0,c
  2208   001580  6E2F               	movwf	(convertReg2StandardCANid@ConvertedID+3)^0,c
  2209   001582                     
  2210                           ;mcc_generated_files/ecan.c: 473:     ConvertedID = ConvertedID + (uint32_t)(tempRXBn_SI
      +                          DL >> 5);
  2211   001582  C021  F025         	movff	convertReg2StandardCANid@tempRXBn_SIDL,??_convertReg2StandardCANid
  2212   001586  0E05               	movlw	5
  2213   001588  6E26               	movwf	(??_convertReg2StandardCANid+1)^0,c
  2214   00158A                     u485:
  2215   00158A  90D8               	bcf	status,0,c
  2216   00158C  3225               	rrcf	??_convertReg2StandardCANid^0,f,c
  2217   00158E  2E26               	decfsz	(??_convertReg2StandardCANid+1)^0,f,c
  2218   001590  EFC5  F00A         	goto	u485
  2219   001594  5025               	movf	??_convertReg2StandardCANid^0,w,c
  2220   001596  242C               	addwf	convertReg2StandardCANid@ConvertedID^0,w,c
  2221   001598  6E2C               	movwf	convertReg2StandardCANid@ConvertedID^0,c
  2222   00159A  0E00               	movlw	0
  2223   00159C  202D               	addwfc	(convertReg2StandardCANid@ConvertedID+1)^0,w,c
  2224   00159E  6E2D               	movwf	(convertReg2StandardCANid@ConvertedID+1)^0,c
  2225   0015A0  0E00               	movlw	0
  2226   0015A2  202E               	addwfc	(convertReg2StandardCANid@ConvertedID+2)^0,w,c
  2227   0015A4  6E2E               	movwf	(convertReg2StandardCANid@ConvertedID+2)^0,c
  2228   0015A6  0E00               	movlw	0
  2229   0015A8  202F               	addwfc	(convertReg2StandardCANid@ConvertedID+3)^0,w,c
  2230   0015AA  6E2F               	movwf	(convertReg2StandardCANid@ConvertedID+3)^0,c
  2231   0015AC                     
  2232                           ;mcc_generated_files/ecan.c: 474:     returnValue = ConvertedID;
  2233   0015AC  C02C  F028         	movff	convertReg2StandardCANid@ConvertedID,convertReg2StandardCANid@returnValue
  2234   0015B0  C02D  F029         	movff	convertReg2StandardCANid@ConvertedID+1,convertReg2StandardCANid@returnValue+1
  2235   0015B4  C02E  F02A         	movff	convertReg2StandardCANid@ConvertedID+2,convertReg2StandardCANid@returnValue+2
  2236   0015B8  C02F  F02B         	movff	convertReg2StandardCANid@ConvertedID+3,convertReg2StandardCANid@returnValue+3
  2237   0015BC                     
  2238                           ;mcc_generated_files/ecan.c: 475:     return (returnValue);
  2239   0015BC  C028  F021         	movff	convertReg2StandardCANid@returnValue,?_convertReg2StandardCANid
  2240   0015C0  C029  F022         	movff	convertReg2StandardCANid@returnValue+1,?_convertReg2StandardCANid+1
  2241   0015C4  C02A  F023         	movff	convertReg2StandardCANid@returnValue+2,?_convertReg2StandardCANid+2
  2242   0015C8  C02B  F024         	movff	convertReg2StandardCANid@returnValue+3,?_convertReg2StandardCANid+3
  2243   0015CC  0012               	return		;funcret
  2244   0015CE                     __end_of_convertReg2StandardCANid:
  2245                           	callstack 0
  2246                           
  2247 ;; *************** function _convertReg2ExtendedCANid *****************
  2248 ;; Defined at:
  2249 ;;		line 446 in file "mcc_generated_files/ecan.c"
  2250 ;; Parameters:    Size  Location     Type
  2251 ;;  tempRXBn_EID    1    wreg     unsigned char 
  2252 ;;  tempRXBn_EID    1    2[COMRAM] unsigned char 
  2253 ;;  tempRXBn_SID    1    3[COMRAM] unsigned char 
  2254 ;;  tempRXBn_SID    1    4[COMRAM] unsigned char 
  2255 ;; Auto vars:     Size  Location     Type
  2256 ;;  tempRXBn_EID    1   10[COMRAM] unsigned char 
  2257 ;;  ConvertedID     4   17[COMRAM] unsigned long 
  2258 ;;  returnValue     4   11[COMRAM] unsigned long 
  2259 ;;  CAN_standard    1   16[COMRAM] unsigned char 
  2260 ;;  CAN_standard    1   15[COMRAM] unsigned char 
  2261 ;; Return value:  Size  Location     Type
  2262 ;;                  4    2[COMRAM] unsigned long 
  2263 ;; Registers used:
  2264 ;;		wreg, status,2, status,0
  2265 ;; Tracked objects:
  2266 ;;		On entry : 0/0
  2267 ;;		On exit  : 0/0
  2268 ;;		Unchanged: 0/0
  2269 ;; Data sizes:     COMRAM   BANK0   BANK1   BANK2   BANK3   BANK4   BANK5   BANK6   BANK7   BANK8   BANK9  BANK10  BANK1
      +1  BANK12  BANK13  BANK14
  2270 ;;      Params:         4       0       0       0       0       0       0       0       0       0       0       0       
      +0       0       0       0
  2271 ;;      Locals:        11       0       0       0       0       0       0       0       0       0       0       0       
      +0       0       0       0
  2272 ;;      Temps:          4       0       0       0       0       0       0       0       0       0       0       0       
      +0       0       0       0
  2273 ;;      Totals:        19       0       0       0       0       0       0       0       0       0       0       0       
      +0       0       0       0
  2274 ;;Total ram usage:       19 bytes
  2275 ;; Hardware stack levels used: 1
  2276 ;; Hardware stack levels required when called: 3
  2277 ;; This function calls:
  2278 ;;		Nothing
  2279 ;; This function is called by:
  2280 ;;		_CAN_receive
  2281 ;; This function uses a non-reentrant model
  2282 ;;
  2283                           
  2284                           	psect	text15
  2285   00141C                     __ptext15:
  2286                           	callstack 0
  2287   00141C                     _convertReg2ExtendedCANid:
  2288                           	callstack 26
  2289                           
  2290                           ;incstack = 0
  2291                           ;convertReg2ExtendedCANid@tempRXBn_EIDH stored from wreg
  2292   00141C  6E29               	movwf	convertReg2ExtendedCANid@tempRXBn_EIDH^0,c
  2293   00141E                     
  2294                           ;mcc_generated_files/ecan.c: 448:     uint32_t ConvertedID = 0;
  2295   00141E  0E00               	movlw	0
  2296   001420  6E30               	movwf	convertReg2ExtendedCANid@ConvertedID^0,c
  2297   001422  0E00               	movlw	0
  2298   001424  6E31               	movwf	(convertReg2ExtendedCANid@ConvertedID+1)^0,c
  2299   001426  0E00               	movlw	0
  2300   001428  6E32               	movwf	(convertReg2ExtendedCANid@ConvertedID+2)^0,c
  2301   00142A  0E00               	movlw	0
  2302   00142C  6E33               	movwf	(convertReg2ExtendedCANid@ConvertedID+3)^0,c
  2303   00142E                     
  2304                           ;mcc_generated_files/ecan.c: 449:     uint8_t CAN_standardLo_ID_lo2bits;;mcc_generated_f
      +                          iles/ecan.c: 450:     uint8_t CAN_standardLo_ID_hi3bits;;mcc_generated_files/ecan.c: 452
      +                          :     CAN_standardLo_ID_lo2bits = (uint8_t)(tempRXBn_SIDL & 0x03);
  2305   00142E  5023               	movf	convertReg2ExtendedCANid@tempRXBn_SIDL^0,w,c
  2306   001430  0B03               	andlw	3
  2307   001432  6E2E               	movwf	convertReg2ExtendedCANid@CAN_standardLo_ID_lo2bits^0,c
  2308   001434                     
  2309                           ;mcc_generated_files/ecan.c: 453:     CAN_standardLo_ID_hi3bits = (uint8_t)(tempRXBn_SID
      +                          L >> 5);
  2310   001434  3823               	swapf	convertReg2ExtendedCANid@tempRXBn_SIDL^0,w,c
  2311   001436  42E8               	rrncf	wreg,f,c
  2312   001438  0B07               	andlw	7
  2313   00143A  6E2F               	movwf	convertReg2ExtendedCANid@CAN_standardLo_ID_hi3bits^0,c
  2314   00143C                     
  2315                           ;mcc_generated_files/ecan.c: 454:     ConvertedID = (uint32_t)(tempRXBn_SIDH << 3);
  2316   00143C  5022               	movf	convertReg2ExtendedCANid@tempRXBn_SIDH^0,w,c
  2317   00143E  6E25               	movwf	??_convertReg2ExtendedCANid^0,c
  2318   001440  6A26               	clrf	(??_convertReg2ExtendedCANid+1)^0,c
  2319   001442  90D8               	bcf	status,0,c
  2320   001444  3625               	rlcf	??_convertReg2ExtendedCANid^0,f,c
  2321   001446  3626               	rlcf	(??_convertReg2ExtendedCANid+1)^0,f,c
  2322   001448  90D8               	bcf	status,0,c
  2323   00144A  3625               	rlcf	??_convertReg2ExtendedCANid^0,f,c
  2324   00144C  3626               	rlcf	(??_convertReg2ExtendedCANid+1)^0,f,c
  2325   00144E  90D8               	bcf	status,0,c
  2326   001450  3625               	rlcf	??_convertReg2ExtendedCANid^0,f,c
  2327   001452  3626               	rlcf	(??_convertReg2ExtendedCANid+1)^0,f,c
  2328   001454  C025  F030         	movff	??_convertReg2ExtendedCANid,convertReg2ExtendedCANid@ConvertedID
  2329   001458  C026  F031         	movff	??_convertReg2ExtendedCANid+1,convertReg2ExtendedCANid@ConvertedID+1
  2330   00145C  0E00               	movlw	0
  2331   00145E  BE31               	btfsc	(convertReg2ExtendedCANid@ConvertedID+1)^0,7,c
  2332   001460  0EFF               	movlw	-1
  2333   001462  6E32               	movwf	(convertReg2ExtendedCANid@ConvertedID+2)^0,c
  2334   001464  6E33               	movwf	(convertReg2ExtendedCANid@ConvertedID+3)^0,c
  2335   001466                     
  2336                           ;mcc_generated_files/ecan.c: 455:     ConvertedID = ConvertedID + CAN_standardLo_ID_hi3b
      +                          its;
  2337   001466  502F               	movf	convertReg2ExtendedCANid@CAN_standardLo_ID_hi3bits^0,w,c
  2338   001468  2430               	addwf	convertReg2ExtendedCANid@ConvertedID^0,w,c
  2339   00146A  6E30               	movwf	convertReg2ExtendedCANid@ConvertedID^0,c
  2340   00146C  0E00               	movlw	0
  2341   00146E  2031               	addwfc	(convertReg2ExtendedCANid@ConvertedID+1)^0,w,c
  2342   001470  6E31               	movwf	(convertReg2ExtendedCANid@ConvertedID+1)^0,c
  2343   001472  0E00               	movlw	0
  2344   001474  2032               	addwfc	(convertReg2ExtendedCANid@ConvertedID+2)^0,w,c
  2345   001476  6E32               	movwf	(convertReg2ExtendedCANid@ConvertedID+2)^0,c
  2346   001478  0E00               	movlw	0
  2347   00147A  2033               	addwfc	(convertReg2ExtendedCANid@ConvertedID+3)^0,w,c
  2348   00147C  6E33               	movwf	(convertReg2ExtendedCANid@ConvertedID+3)^0,c
  2349   00147E                     
  2350                           ;mcc_generated_files/ecan.c: 456:     ConvertedID = (ConvertedID << 2);
  2351   00147E  C030  F025         	movff	convertReg2ExtendedCANid@ConvertedID,??_convertReg2ExtendedCANid
  2352   001482  C031  F026         	movff	convertReg2ExtendedCANid@ConvertedID+1,??_convertReg2ExtendedCANid+1
  2353   001486  C032  F027         	movff	convertReg2ExtendedCANid@ConvertedID+2,??_convertReg2ExtendedCANid+2
  2354   00148A  C033  F028         	movff	convertReg2ExtendedCANid@ConvertedID+3,??_convertReg2ExtendedCANid+3
  2355   00148E  0E02               	movlw	2
  2356   001490                     u475:
  2357   001490  90D8               	bcf	status,0,c
  2358   001492  3625               	rlcf	??_convertReg2ExtendedCANid^0,f,c
  2359   001494  3626               	rlcf	(??_convertReg2ExtendedCANid+1)^0,f,c
  2360   001496  3627               	rlcf	(??_convertReg2ExtendedCANid+2)^0,f,c
  2361   001498  3628               	rlcf	(??_convertReg2ExtendedCANid+3)^0,f,c
  2362   00149A  2EE8               	decfsz	wreg,f,c
  2363   00149C  EF48  F00A         	goto	u475
  2364   0014A0  C025  F030         	movff	??_convertReg2ExtendedCANid,convertReg2ExtendedCANid@ConvertedID
  2365   0014A4  C026  F031         	movff	??_convertReg2ExtendedCANid+1,convertReg2ExtendedCANid@ConvertedID+1
  2366   0014A8  C027  F032         	movff	??_convertReg2ExtendedCANid+2,convertReg2ExtendedCANid@ConvertedID+2
  2367   0014AC  C028  F033         	movff	??_convertReg2ExtendedCANid+3,convertReg2ExtendedCANid@ConvertedID+3
  2368   0014B0                     
  2369                           ;mcc_generated_files/ecan.c: 457:     ConvertedID = ConvertedID + CAN_standardLo_ID_lo2b
      +                          its;
  2370   0014B0  502E               	movf	convertReg2ExtendedCANid@CAN_standardLo_ID_lo2bits^0,w,c
  2371   0014B2  2430               	addwf	convertReg2ExtendedCANid@ConvertedID^0,w,c
  2372   0014B4  6E30               	movwf	convertReg2ExtendedCANid@ConvertedID^0,c
  2373   0014B6  0E00               	movlw	0
  2374   0014B8  2031               	addwfc	(convertReg2ExtendedCANid@ConvertedID+1)^0,w,c
  2375   0014BA  6E31               	movwf	(convertReg2ExtendedCANid@ConvertedID+1)^0,c
  2376   0014BC  0E00               	movlw	0
  2377   0014BE  2032               	addwfc	(convertReg2ExtendedCANid@ConvertedID+2)^0,w,c
  2378   0014C0  6E32               	movwf	(convertReg2ExtendedCANid@ConvertedID+2)^0,c
  2379   0014C2  0E00               	movlw	0
  2380   0014C4  2033               	addwfc	(convertReg2ExtendedCANid@ConvertedID+3)^0,w,c
  2381   0014C6  6E33               	movwf	(convertReg2ExtendedCANid@ConvertedID+3)^0,c
  2382                           
  2383                           ;mcc_generated_files/ecan.c: 458:     ConvertedID = (ConvertedID << 8);
  2384   0014C8  C030  F026         	movff	convertReg2ExtendedCANid@ConvertedID,??_convertReg2ExtendedCANid+1
  2385   0014CC  C031  F027         	movff	convertReg2ExtendedCANid@ConvertedID+1,??_convertReg2ExtendedCANid+2
  2386   0014D0  C032  F028         	movff	convertReg2ExtendedCANid@ConvertedID+2,??_convertReg2ExtendedCANid+3
  2387   0014D4  6A25               	clrf	??_convertReg2ExtendedCANid^0,c
  2388   0014D6  C025  F030         	movff	??_convertReg2ExtendedCANid,convertReg2ExtendedCANid@ConvertedID
  2389   0014DA  C026  F031         	movff	??_convertReg2ExtendedCANid+1,convertReg2ExtendedCANid@ConvertedID+1
  2390   0014DE  C027  F032         	movff	??_convertReg2ExtendedCANid+2,convertReg2ExtendedCANid@ConvertedID+2
  2391   0014E2  C028  F033         	movff	??_convertReg2ExtendedCANid+3,convertReg2ExtendedCANid@ConvertedID+3
  2392   0014E6                     
  2393                           ;mcc_generated_files/ecan.c: 459:     ConvertedID = ConvertedID + tempRXBn_EIDH;
  2394   0014E6  5029               	movf	convertReg2ExtendedCANid@tempRXBn_EIDH^0,w,c
  2395   0014E8  2430               	addwf	convertReg2ExtendedCANid@ConvertedID^0,w,c
  2396   0014EA  6E30               	movwf	convertReg2ExtendedCANid@ConvertedID^0,c
  2397   0014EC  0E00               	movlw	0
  2398   0014EE  2031               	addwfc	(convertReg2ExtendedCANid@ConvertedID+1)^0,w,c
  2399   0014F0  6E31               	movwf	(convertReg2ExtendedCANid@ConvertedID+1)^0,c
  2400   0014F2  0E00               	movlw	0
  2401   0014F4  2032               	addwfc	(convertReg2ExtendedCANid@ConvertedID+2)^0,w,c
  2402   0014F6  6E32               	movwf	(convertReg2ExtendedCANid@ConvertedID+2)^0,c
  2403   0014F8  0E00               	movlw	0
  2404   0014FA  2033               	addwfc	(convertReg2ExtendedCANid@ConvertedID+3)^0,w,c
  2405   0014FC  6E33               	movwf	(convertReg2ExtendedCANid@ConvertedID+3)^0,c
  2406   0014FE                     
  2407                           ;mcc_generated_files/ecan.c: 460:     ConvertedID = (ConvertedID << 8);
  2408   0014FE  C030  F026         	movff	convertReg2ExtendedCANid@ConvertedID,??_convertReg2ExtendedCANid+1
  2409   001502  C031  F027         	movff	convertReg2ExtendedCANid@ConvertedID+1,??_convertReg2ExtendedCANid+2
  2410   001506  C032  F028         	movff	convertReg2ExtendedCANid@ConvertedID+2,??_convertReg2ExtendedCANid+3
  2411   00150A  6A25               	clrf	??_convertReg2ExtendedCANid^0,c
  2412   00150C  C025  F030         	movff	??_convertReg2ExtendedCANid,convertReg2ExtendedCANid@ConvertedID
  2413   001510  C026  F031         	movff	??_convertReg2ExtendedCANid+1,convertReg2ExtendedCANid@ConvertedID+1
  2414   001514  C027  F032         	movff	??_convertReg2ExtendedCANid+2,convertReg2ExtendedCANid@ConvertedID+2
  2415   001518  C028  F033         	movff	??_convertReg2ExtendedCANid+3,convertReg2ExtendedCANid@ConvertedID+3
  2416                           
  2417                           ;mcc_generated_files/ecan.c: 461:     ConvertedID = ConvertedID + tempRXBn_EIDL;
  2418   00151C  5021               	movf	convertReg2ExtendedCANid@tempRXBn_EIDL^0,w,c
  2419   00151E  2430               	addwf	convertReg2ExtendedCANid@ConvertedID^0,w,c
  2420   001520  6E30               	movwf	convertReg2ExtendedCANid@ConvertedID^0,c
  2421   001522  0E00               	movlw	0
  2422   001524  2031               	addwfc	(convertReg2ExtendedCANid@ConvertedID+1)^0,w,c
  2423   001526  6E31               	movwf	(convertReg2ExtendedCANid@ConvertedID+1)^0,c
  2424   001528  0E00               	movlw	0
  2425   00152A  2032               	addwfc	(convertReg2ExtendedCANid@ConvertedID+2)^0,w,c
  2426   00152C  6E32               	movwf	(convertReg2ExtendedCANid@ConvertedID+2)^0,c
  2427   00152E  0E00               	movlw	0
  2428   001530  2033               	addwfc	(convertReg2ExtendedCANid@ConvertedID+3)^0,w,c
  2429   001532  6E33               	movwf	(convertReg2ExtendedCANid@ConvertedID+3)^0,c
  2430   001534                     
  2431                           ;mcc_generated_files/ecan.c: 462:     returnValue = ConvertedID;
  2432   001534  C030  F02A         	movff	convertReg2ExtendedCANid@ConvertedID,convertReg2ExtendedCANid@returnValue
  2433   001538  C031  F02B         	movff	convertReg2ExtendedCANid@ConvertedID+1,convertReg2ExtendedCANid@returnValue+1
  2434   00153C  C032  F02C         	movff	convertReg2ExtendedCANid@ConvertedID+2,convertReg2ExtendedCANid@returnValue+2
  2435   001540  C033  F02D         	movff	convertReg2ExtendedCANid@ConvertedID+3,convertReg2ExtendedCANid@returnValue+3
  2436   001544                     
  2437                           ;mcc_generated_files/ecan.c: 463:     return (returnValue);
  2438   001544  C02A  F021         	movff	convertReg2ExtendedCANid@returnValue,?_convertReg2ExtendedCANid
  2439   001548  C02B  F022         	movff	convertReg2ExtendedCANid@returnValue+1,?_convertReg2ExtendedCANid+1
  2440   00154C  C02C  F023         	movff	convertReg2ExtendedCANid@returnValue+2,?_convertReg2ExtendedCANid+2
  2441   001550  C02D  F024         	movff	convertReg2ExtendedCANid@returnValue+3,?_convertReg2ExtendedCANid+3
  2442   001554  0012               	return		;funcret
  2443   001556                     __end_of_convertReg2ExtendedCANid:
  2444                           	callstack 0
  2445                           
  2446 ;; *************** function _INTERRUPT_InterruptManager *****************
  2447 ;; Defined at:
  2448 ;;		line 58 in file "mcc_generated_files/interrupt_manager.c"
  2449 ;; Parameters:    Size  Location     Type
  2450 ;;		None
  2451 ;; Auto vars:     Size  Location     Type
  2452 ;;		None
  2453 ;; Return value:  Size  Location     Type
  2454 ;;                  1    wreg      void 
  2455 ;; Registers used:
  2456 ;;		wreg, pcl, pclath, pclatu, tosl, cstack
  2457 ;; Tracked objects:
  2458 ;;		On entry : 0/0
  2459 ;;		On exit  : 0/0
  2460 ;;		Unchanged: 0/0
  2461 ;; Data sizes:     COMRAM   BANK0   BANK1   BANK2   BANK3   BANK4   BANK5   BANK6   BANK7   BANK8   BANK9  BANK10  BANK1
      +1  BANK12  BANK13  BANK14
  2462 ;;      Params:         0       0       0       0       0       0       0       0       0       0       0       0       
      +0       0       0       0
  2463 ;;      Locals:         0       0       0       0       0       0       0       0       0       0       0       0       
      +0       0       0       0
  2464 ;;      Temps:          2       0       0       0       0       0       0       0       0       0       0       0       
      +0       0       0       0
  2465 ;;      Totals:         2       0       0       0       0       0       0       0       0       0       0       0       
      +0       0       0       0
  2466 ;;Total ram usage:        2 bytes
  2467 ;; Hardware stack levels used: 1
  2468 ;; Hardware stack levels required when called: 2
  2469 ;; This function calls:
  2470 ;;		_ECAN_WAKI_ISR
  2471 ;; This function is called by:
  2472 ;;		Interrupt level 2
  2473 ;; This function uses a non-reentrant model
  2474 ;;
  2475                           
  2476                           	psect	intcode
  2477   000008                     __pintcode:
  2478                           	callstack 0
  2479   000008                     _INTERRUPT_InterruptManager:
  2480                           	callstack 25
  2481                           
  2482                           ;incstack = 0
  2483   000008  8236               	bsf	int$flags,1,c	;set compiler interrupt flag (level 2)
  2484   00000A  CFFA F01F          	movff	pclath,??_INTERRUPT_InterruptManager
  2485   00000E  CFFB F020          	movff	pclatu,??_INTERRUPT_InterruptManager+1
  2486   000012                     
  2487                           ;mcc_generated_files/interrupt_manager.c: 61:     if(INTCONbits.PEIE == 1)
  2488   000012  ACF2               	btfss	242,6,c	;volatile
  2489   000014  EF0E  F000         	goto	i2u31_41
  2490   000018  EF10  F000         	goto	i2u31_40
  2491   00001C                     i2u31_41:
  2492   00001C  EF20  F000         	goto	i2l458
  2493   000020                     i2u31_40:
  2494   000020                     
  2495                           ;mcc_generated_files/interrupt_manager.c: 62:     {;mcc_generated_files/interrupt_manage
      +                          r.c: 63:         if(PIE5bits.WAKIE == 1 && PIR5bits.WAKIF == 1)
  2496   000020  AC76               	btfss	118,6,c	;volatile
  2497   000022  EF15  F000         	goto	i2u32_41
  2498   000026  EF17  F000         	goto	i2u32_40
  2499   00002A                     i2u32_41:
  2500   00002A  EF20  F000         	goto	i2l458
  2501   00002E                     i2u32_40:
  2502   00002E  AC77               	btfss	119,6,c	;volatile
  2503   000030  EF1C  F000         	goto	i2u33_41
  2504   000034  EF1E  F000         	goto	i2u33_40
  2505   000038                     i2u33_41:
  2506   000038  EF20  F000         	goto	i2l458
  2507   00003C                     i2u33_40:
  2508   00003C                     
  2509                           ;mcc_generated_files/interrupt_manager.c: 64:         {;mcc_generated_files/interrupt_ma
      +                          nager.c: 65:             ECAN_WAKI_ISR();
  2510   00003C  ECA8  F00B         	call	_ECAN_WAKI_ISR	;wreg free
  2511   000040                     i2l458:
  2512   000040  C020  FFFB         	movff	??_INTERRUPT_InterruptManager+1,pclatu
  2513   000044  C01F  FFFA         	movff	??_INTERRUPT_InterruptManager,pclath
  2514   000048  9236               	bcf	int$flags,1,c	;clear compiler interrupt flag (level 2)
  2515   00004A  0011               	retfie		f
  2516   00004C                     __end_of_INTERRUPT_InterruptManager:
  2517                           	callstack 0
  2518                           
  2519 ;; *************** function _ECAN_WAKI_ISR *****************
  2520 ;; Defined at:
  2521 ;;		line 518 in file "mcc_generated_files/ecan.c"
  2522 ;; Parameters:    Size  Location     Type
  2523 ;;		None
  2524 ;; Auto vars:     Size  Location     Type
  2525 ;;		None
  2526 ;; Return value:  Size  Location     Type
  2527 ;;                  1    wreg      void 
  2528 ;; Registers used:
  2529 ;;		wreg, pcl, pclath, pclatu, tosl, cstack
  2530 ;; Tracked objects:
  2531 ;;		On entry : 0/0
  2532 ;;		On exit  : 0/0
  2533 ;;		Unchanged: 0/0
  2534 ;; Data sizes:     COMRAM   BANK0   BANK1   BANK2   BANK3   BANK4   BANK5   BANK6   BANK7   BANK8   BANK9  BANK10  BANK1
      +1  BANK12  BANK13  BANK14
  2535 ;;      Params:         0       0       0       0       0       0       0       0       0       0       0       0       
      +0       0       0       0
  2536 ;;      Locals:         0       0       0       0       0       0       0       0       0       0       0       0       
      +0       0       0       0
  2537 ;;      Temps:          0       0       0       0       0       0       0       0       0       0       0       0       
      +0       0       0       0
  2538 ;;      Totals:         0       0       0       0       0       0       0       0       0       0       0       0       
      +0       0       0       0
  2539 ;;Total ram usage:        0 bytes
  2540 ;; Hardware stack levels used: 1
  2541 ;; Hardware stack levels required when called: 1
  2542 ;; This function calls:
  2543 ;;		NULL
  2544 ;;		_WakeUpDefaultInterruptHandler
  2545 ;; This function is called by:
  2546 ;;		_INTERRUPT_InterruptManager
  2547 ;; This function uses a non-reentrant model
  2548 ;;
  2549                           
  2550                           	psect	text17
  2551   001750                     __ptext17:
  2552                           	callstack 0
  2553   001750                     _ECAN_WAKI_ISR:
  2554                           	callstack 25
  2555   001750                     
  2556                           ;mcc_generated_files/ecan.c: 520:     WakeUpInterruptHandler();
  2557   001750  D802               	call	i2u9_48
  2558   001752  EFB5  F00B         	goto	i2u9_49
  2559   001756                     i2u9_48:
  2560   001756  0005               	push	
  2561   001758  6EFA               	movwf	pclath,c
  2562   00175A  500F               	movf	_WakeUpInterruptHandler^0,w,c
  2563   00175C  6EFD               	movwf	tosl,c
  2564   00175E  5010               	movf	(_WakeUpInterruptHandler+1)^0,w,c
  2565   001760  6EFE               	movwf	tosh,c
  2566   001762  50F8               	movf	tblptru,w,c
  2567   001764  6EFF               	movwf	tosu,c
  2568   001766  50FA               	movf	pclath,w,c
  2569   001768  0012               	return		;indir
  2570   00176A                     i2u9_49:
  2571   00176A                     
  2572                           ;mcc_generated_files/ecan.c: 521:     PIR5bits.WAKIF = 0;
  2573   00176A  9C77               	bcf	119,6,c	;volatile
  2574   00176C  0012               	return		;funcret
  2575   00176E                     __end_of_ECAN_WAKI_ISR:
  2576                           	callstack 0
  2577                           
  2578 ;; *************** function _WakeUpDefaultInterruptHandler *****************
  2579 ;; Defined at:
  2580 ;;		line 63 in file "mcc_generated_files/ecan.c"
  2581 ;; Parameters:    Size  Location     Type
  2582 ;;		None
  2583 ;; Auto vars:     Size  Location     Type
  2584 ;;		None
  2585 ;; Return value:  Size  Location     Type
  2586 ;;                  1    wreg      void 
  2587 ;; Registers used:
  2588 ;;		None
  2589 ;; Tracked objects:
  2590 ;;		On entry : 0/0
  2591 ;;		On exit  : 0/0
  2592 ;;		Unchanged: 0/0
  2593 ;; Data sizes:     COMRAM   BANK0   BANK1   BANK2   BANK3   BANK4   BANK5   BANK6   BANK7   BANK8   BANK9  BANK10  BANK1
      +1  BANK12  BANK13  BANK14
  2594 ;;      Params:         0       0       0       0       0       0       0       0       0       0       0       0       
      +0       0       0       0
  2595 ;;      Locals:         0       0       0       0       0       0       0       0       0       0       0       0       
      +0       0       0       0
  2596 ;;      Temps:          0       0       0       0       0       0       0       0       0       0       0       0       
      +0       0       0       0
  2597 ;;      Totals:         0       0       0       0       0       0       0       0       0       0       0       0       
      +0       0       0       0
  2598 ;;Total ram usage:        0 bytes
  2599 ;; Hardware stack levels used: 1
  2600 ;; This function calls:
  2601 ;;		Nothing
  2602 ;; This function is called by:
  2603 ;;		_ECAN_Initialize
  2604 ;;		_ECAN_WAKI_ISR
  2605 ;; This function uses a non-reentrant model
  2606 ;;
  2607                           
  2608                           	psect	text18
  2609   0017C6                     __ptext18:
  2610                           	callstack 0
  2611   0017C6                     _WakeUpDefaultInterruptHandler:
  2612                           	callstack 25
  2613   0017C6  0012               	return		;funcret
  2614   0017C8                     __end_of_WakeUpDefaultInterruptHandler:
  2615                           	callstack 0
  2616                           
  2617                           	psect	smallconst
  2618   000F00                     __psmallconst:
  2619                           	callstack 0
  2620   000F00  00                 	db	0
  2621   000F01  00                 	db	0	; dummy byte at the end
  2622   000000                     
  2623                           	psect	text19
  2624   000000                     __ptext19:
  2625                           	callstack 0
  2626   000000                     
  2627                           	psect	rparam
  2628   000000                     
  2629                           	psect	temp
  2630   000036                     btemp:
  2631                           	callstack 0
  2632   000036                     	ds	1
  2633   000000                     int$flags	set	btemp
  2634   000000                     wtemp8	set	btemp+1
  2635   000000                     ttemp5	set	btemp+1
  2636   000000                     ttemp6	set	btemp+4
  2637   000000                     ttemp7	set	btemp+8
  2638                           
  2639                           	psect	idloc
  2640                           
  2641                           ;Config register IDLOC0 @ 0x200000
  2642                           ;	unspecified, using default values
  2643   200000                     	org	2097152
  2644   200000  FF                 	db	255
  2645                           
  2646                           ;Config register IDLOC1 @ 0x200001
  2647                           ;	unspecified, using default values
  2648   200001                     	org	2097153
  2649   200001  FF                 	db	255
  2650                           
  2651                           ;Config register IDLOC2 @ 0x200002
  2652                           ;	unspecified, using default values
  2653   200002                     	org	2097154
  2654   200002  FF                 	db	255
  2655                           
  2656                           ;Config register IDLOC3 @ 0x200003
  2657                           ;	unspecified, using default values
  2658   200003                     	org	2097155
  2659   200003  FF                 	db	255
  2660                           
  2661                           ;Config register IDLOC4 @ 0x200004
  2662                           ;	unspecified, using default values
  2663   200004                     	org	2097156
  2664   200004  FF                 	db	255
  2665                           
  2666                           ;Config register IDLOC5 @ 0x200005
  2667                           ;	unspecified, using default values
  2668   200005                     	org	2097157
  2669   200005  FF                 	db	255
  2670                           
  2671                           ;Config register IDLOC6 @ 0x200006
  2672                           ;	unspecified, using default values
  2673   200006                     	org	2097158
  2674   200006  FF                 	db	255
  2675                           
  2676                           ;Config register IDLOC7 @ 0x200007
  2677                           ;	unspecified, using default values
  2678   200007                     	org	2097159
  2679   200007  FF                 	db	255
  2680                           
  2681                           	psect	config
  2682                           
  2683                           ;Config register CONFIG1L @ 0x300000
  2684                           ;	VREG Sleep Enable bit
  2685                           ;	RETEN = OFF, Ultra low-power regulator is Disabled (Controlled by REGSLP bit)
  2686                           ;	LF-INTOSC Low-power Enable bit
  2687                           ;	INTOSCSEL = HIGH, LF-INTOSC in High-power mode during Sleep
  2688                           ;	SOSC Power Selection and mode Configuration bits
  2689                           ;	SOSCSEL = DIG, Digital (SCLKI) mode
  2690                           ;	Extended Instruction Set
  2691                           ;	XINST = OFF, Disabled
  2692   300000                     	org	3145728
  2693   300000  15                 	db	21
  2694                           
  2695                           ;Config register CONFIG1H @ 0x300001
  2696                           ;	Oscillator
  2697                           ;	FOSC = HS2, HS oscillator (High power, 16 MHz - 25 MHz)
  2698                           ;	PLL x4 Enable bit
  2699                           ;	PLLCFG = OFF, Disabled
  2700                           ;	Fail-Safe Clock Monitor
  2701                           ;	FCMEN = OFF, Disabled
  2702                           ;	Internal External Oscillator Switch Over Mode
  2703                           ;	IESO = OFF, Disabled
  2704   300001                     	org	3145729
  2705   300001  02                 	db	2
  2706                           
  2707                           ;Config register CONFIG2L @ 0x300002
  2708                           ;	Power Up Timer
  2709                           ;	PWRTEN = OFF, Disabled
  2710                           ;	Brown Out Detect
  2711                           ;	BOREN = SBORDIS, Enabled in hardware, SBOREN disabled
  2712                           ;	Brown-out Reset Voltage bits
  2713                           ;	BORV = 3, 1.8V
  2714                           ;	BORMV Power level
  2715                           ;	BORPWR = ZPBORMV, ZPBORMV instead of BORMV is selected
  2716   300002                     	org	3145730
  2717   300002  7F                 	db	127
  2718                           
  2719                           ;Config register CONFIG2H @ 0x300003
  2720                           ;	Watchdog Timer
  2721                           ;	WDTEN = OFF, WDT disabled in hardware; SWDTEN bit disabled
  2722                           ;	Watchdog Postscaler
  2723                           ;	WDTPS = 1048576, 1:1048576
  2724   300003                     	org	3145731
  2725   300003  7C                 	db	124
  2726                           
  2727                           ; Padding undefined space
  2728   300004                     	org	3145732
  2729   300004  FF                 	db	255
  2730                           
  2731                           ;Config register CONFIG3H @ 0x300005
  2732                           ;	ECAN Mux bit
  2733                           ;	CANMX = PORTB, ECAN TX and RX pins are located on RB2 and RB3, respectively
  2734                           ;	MSSP address masking
  2735                           ;	MSSPMSK = MSK7, 7 Bit address masking mode
  2736                           ;	Master Clear Enable
  2737                           ;	MCLRE = ON, MCLR Enabled, RE3 Disabled
  2738   300005                     	org	3145733
  2739   300005  89                 	db	137
  2740                           
  2741                           ;Config register CONFIG4L @ 0x300006
  2742                           ;	Stack Overflow Reset
  2743                           ;	STVREN = ON, Enabled
  2744                           ;	Boot Block Size
  2745                           ;	BBSIZ = BB2K, 2K word Boot Block size
  2746   300006                     	org	3145734
  2747   300006  91                 	db	145
  2748                           
  2749                           ; Padding undefined space
  2750   300007                     	org	3145735
  2751   300007  FF                 	db	255
  2752                           
  2753                           ;Config register CONFIG5L @ 0x300008
  2754                           ;	Code Protect 00800-03FFF
  2755                           ;	CP0 = OFF, Disabled
  2756                           ;	Code Protect 04000-07FFF
  2757                           ;	CP1 = OFF, Disabled
  2758                           ;	Code Protect 08000-0BFFF
  2759                           ;	CP2 = OFF, Disabled
  2760                           ;	Code Protect 0C000-0FFFF
  2761                           ;	CP3 = OFF, Disabled
  2762   300008                     	org	3145736
  2763   300008  0F                 	db	15
  2764                           
  2765                           ;Config register CONFIG5H @ 0x300009
  2766                           ;	Code Protect Boot
  2767                           ;	CPB = OFF, Disabled
  2768                           ;	Data EE Read Protect
  2769                           ;	CPD = OFF, Disabled
  2770   300009                     	org	3145737
  2771   300009  C0                 	db	192
  2772                           
  2773                           ;Config register CONFIG6L @ 0x30000A
  2774                           ;	Table Write Protect 00800-03FFF
  2775                           ;	WRT0 = OFF, Disabled
  2776                           ;	Table Write Protect 04000-07FFF
  2777                           ;	WRT1 = OFF, Disabled
  2778                           ;	Table Write Protect 08000-0BFFF
  2779                           ;	WRT2 = OFF, Disabled
  2780                           ;	Table Write Protect 0C000-0FFFF
  2781                           ;	WRT3 = OFF, Disabled
  2782   30000A                     	org	3145738
  2783   30000A  0F                 	db	15
  2784                           
  2785                           ;Config register CONFIG6H @ 0x30000B
  2786                           ;	Config. Write Protect
  2787                           ;	WRTC = OFF, Disabled
  2788                           ;	Table Write Protect Boot
  2789                           ;	WRTB = OFF, Disabled
  2790                           ;	Data EE Write Protect
  2791                           ;	WRTD = OFF, Disabled
  2792   30000B                     	org	3145739
  2793   30000B  E0                 	db	224
  2794                           
  2795                           ;Config register CONFIG7L @ 0x30000C
  2796                           ;	Table Read Protect 00800-03FFF
  2797                           ;	EBTR0 = OFF, Disabled
  2798                           ;	Table Read Protect 04000-07FFF
  2799                           ;	EBTR1 = OFF, Disabled
  2800                           ;	Table Read Protect 08000-0BFFF
  2801                           ;	EBTR2 = OFF, Disabled
  2802                           ;	Table Read Protect 0C000-0FFFF
  2803                           ;	EBTR3 = OFF, Disabled
  2804   30000C                     	org	3145740
  2805   30000C  0F                 	db	15
  2806                           
  2807                           ;Config register CONFIG7H @ 0x30000D
  2808                           ;	Table Read Protect Boot
  2809                           ;	EBTRB = OFF, Disabled
  2810   30000D                     	org	3145741
  2811   30000D  40                 	db	64
  2812                           tosu	equ	0xFFF
  2813                           tosh	equ	0xFFE
  2814                           tosl	equ	0xFFD
  2815                           stkptr	equ	0xFFC
  2816                           pclatu	equ	0xFFB
  2817                           pclath	equ	0xFFA
  2818                           pcl	equ	0xFF9
  2819                           tblptru	equ	0xFF8
  2820                           tblptrh	equ	0xFF7
  2821                           tblptrl	equ	0xFF6
  2822                           tablat	equ	0xFF5
  2823                           prodh	equ	0xFF4
  2824                           prodl	equ	0xFF3
  2825                           indf0	equ	0xFEF
  2826                           postinc0	equ	0xFEE
  2827                           postdec0	equ	0xFED
  2828                           preinc0	equ	0xFEC
  2829                           plusw0	equ	0xFEB
  2830                           fsr0h	equ	0xFEA
  2831                           fsr0l	equ	0xFE9
  2832                           wreg	equ	0xFE8
  2833                           indf1	equ	0xFE7
  2834                           postinc1	equ	0xFE6
  2835                           postdec1	equ	0xFE5
  2836                           preinc1	equ	0xFE4
  2837                           plusw1	equ	0xFE3
  2838                           fsr1h	equ	0xFE2
  2839                           fsr1l	equ	0xFE1
  2840                           bsr	equ	0xFE0
  2841                           indf2	equ	0xFDF
  2842                           postinc2	equ	0xFDE
  2843                           postdec2	equ	0xFDD
  2844                           preinc2	equ	0xFDC
  2845                           plusw2	equ	0xFDB
  2846                           fsr2h	equ	0xFDA
  2847                           fsr2l	equ	0xFD9
  2848                           status	equ	0xFD8

Data Sizes:
    Strings     0
    Constant    0
    Data        0
    BSS         30
    Persistent  0
    Stack       0

Auto Spaces:
    Space          Size  Autos    Used
    COMRAM           94     23      53
    BANK0           160      0       0
    BANK1           256      0       0
    BANK2           256      0       0
    BANK3           256      0       0
    BANK4           256      0       0
    BANK5           256      0       0
    BANK6           256      0       0
    BANK7           256      0       0
    BANK8           256      0       0
    BANK9           256      0       0
    BANK10          256      0       0
    BANK11          256      0       0
    BANK12          256      0       0
    BANK13          256      0       0
    BANK14           65      0       0

Pointer List with Targets:

    CAN_receive@tempCanMsg	PTR struct . size(1) Largest target is 14
		 -> rx(COMRAM[14]), 

    ECAN_SetWakeUpInterruptHandler@handler	PTR FTN()void  size(2) Largest target is 1
		 -> WakeUpDefaultInterruptHandler(), 

    WakeUpInterruptHandler	PTR FTN()void  size(2) Largest target is 1
		 -> WakeUpDefaultInterruptHandler(), NULL(), 


Critical Paths under _main in COMRAM

    _main->_CAN_receive
    _SYSTEM_Initialize->_ECAN_Initialize
    _ECAN_Initialize->_ECAN_SetWakeUpInterruptHandler
    _CAN_receive->_convertReg2ExtendedCANid

Critical Paths under _INTERRUPT_InterruptManager in COMRAM

    None.

Critical Paths under _main in BANK0

    None.

Critical Paths under _INTERRUPT_InterruptManager in BANK0

    None.

Critical Paths under _main in BANK1

    None.

Critical Paths under _INTERRUPT_InterruptManager in BANK1

    None.

Critical Paths under _main in BANK2

    None.

Critical Paths under _INTERRUPT_InterruptManager in BANK2

    None.

Critical Paths under _main in BANK3

    None.

Critical Paths under _INTERRUPT_InterruptManager in BANK3

    None.

Critical Paths under _main in BANK4

    None.

Critical Paths under _INTERRUPT_InterruptManager in BANK4

    None.

Critical Paths under _main in BANK5

    None.

Critical Paths under _INTERRUPT_InterruptManager in BANK5

    None.

Critical Paths under _main in BANK6

    None.

Critical Paths under _INTERRUPT_InterruptManager in BANK6

    None.

Critical Paths under _main in BANK7

    None.

Critical Paths under _INTERRUPT_InterruptManager in BANK7

    None.

Critical Paths under _main in BANK8

    None.

Critical Paths under _INTERRUPT_InterruptManager in BANK8

    None.

Critical Paths under _main in BANK9

    None.

Critical Paths under _INTERRUPT_InterruptManager in BANK9

    None.

Critical Paths under _main in BANK10

    None.

Critical Paths under _INTERRUPT_InterruptManager in BANK10

    None.

Critical Paths under _main in BANK11

    None.

Critical Paths under _INTERRUPT_InterruptManager in BANK11

    None.

Critical Paths under _main in BANK12

    None.

Critical Paths under _INTERRUPT_InterruptManager in BANK12

    None.

Critical Paths under _main in BANK13

    None.

Critical Paths under _INTERRUPT_InterruptManager in BANK13

    None.

Critical Paths under _main in BANK14

    None.

Critical Paths under _INTERRUPT_InterruptManager in BANK14

    None.

Call Graph Tables:

 ---------------------------------------------------------------------------------
 (Depth) Function   	        Calls       Base Space   Used Autos Params    Refs
 ---------------------------------------------------------------------------------
 (0) _main                                                 0     0      0    2588
                        _CAN_receive
                  _SYSTEM_Initialize
                   _backTurnFunction
                  _frontTurnFunction
                             _func99
                _hazardLightFunction
                   _leftTurnFunction
                  _rightTurnFunction
 ---------------------------------------------------------------------------------
 (1) _rightTurnFunction                                    4     2      2     120
                                              2 COMRAM     4     2      2
 ---------------------------------------------------------------------------------
 (1) _leftTurnFunction                                     4     2      2      98
                                              2 COMRAM     4     2      2
 ---------------------------------------------------------------------------------
 (1) _hazardLightFunction                                  4     2      2     196
                                              2 COMRAM     4     2      2
 ---------------------------------------------------------------------------------
 (1) _func99                                               0     0      0       0
 ---------------------------------------------------------------------------------
 (1) _frontTurnFunction                                    4     2      2     120
                                              2 COMRAM     4     2      2
 ---------------------------------------------------------------------------------
 (1) _backTurnFunction                                     4     2      2     120
                                              2 COMRAM     4     2      2
 ---------------------------------------------------------------------------------
 (1) _SYSTEM_Initialize                                    0     0      0      98
                    _ECAN_Initialize
               _INTERRUPT_Initialize
              _OSCILLATOR_Initialize
             _PIN_MANAGER_Initialize
 ---------------------------------------------------------------------------------
 (2) _PIN_MANAGER_Initialize                               0     0      0       0
 ---------------------------------------------------------------------------------
 (2) _OSCILLATOR_Initialize                                0     0      0       0
 ---------------------------------------------------------------------------------
 (2) _INTERRUPT_Initialize                                 0     0      0       0
 ---------------------------------------------------------------------------------
 (2) _ECAN_Initialize                                      1     1      0      98
                                              4 COMRAM     1     1      0
     _ECAN_SetWakeUpInterruptHandler
 ---------------------------------------------------------------------------------
 (3) _ECAN_SetWakeUpInterruptHandler                       2     0      2      98
                                              2 COMRAM     2     0      2
 ---------------------------------------------------------------------------------
 (1) _CAN_receive                                          2     1      1    1836
                                             21 COMRAM     2     1      1
           _convertReg2ExtendedCANid
           _convertReg2StandardCANid
 ---------------------------------------------------------------------------------
 (2) _convertReg2StandardCANid                            15    11      4     266
                                              2 COMRAM    15    11      4
 ---------------------------------------------------------------------------------
 (2) _convertReg2ExtendedCANid                            19    15      4     821
                                              2 COMRAM    19    15      4
 ---------------------------------------------------------------------------------
 Estimated maximum stack depth 3
 ---------------------------------------------------------------------------------
 (Depth) Function   	        Calls       Base Space   Used Autos Params    Refs
 ---------------------------------------------------------------------------------
 (4) _INTERRUPT_InterruptManager                           2     2      0       0
                                              0 COMRAM     2     2      0
                      _ECAN_WAKI_ISR
 ---------------------------------------------------------------------------------
 (5) _ECAN_WAKI_ISR                                        0     0      0       0
                                NULL *
      _WakeUpDefaultInterruptHandler *
 ---------------------------------------------------------------------------------
 (6) _WakeUpDefaultInterruptHandler                        0     0      0       0
 ---------------------------------------------------------------------------------
 (6) NULL(Fake)                                            0     0      0       0
 ---------------------------------------------------------------------------------
 Estimated maximum stack depth 6
 ---------------------------------------------------------------------------------

 Call Graph Graphs:

 _main (ROOT)
   _CAN_receive
     _convertReg2ExtendedCANid
     _convertReg2StandardCANid
   _SYSTEM_Initialize
     _ECAN_Initialize
       _ECAN_SetWakeUpInterruptHandler
     _INTERRUPT_Initialize
     _OSCILLATOR_Initialize
     _PIN_MANAGER_Initialize
   _backTurnFunction
   _frontTurnFunction
   _func99
   _hazardLightFunction
   _leftTurnFunction
   _rightTurnFunction

 _INTERRUPT_InterruptManager (ROOT)
   _ECAN_WAKI_ISR
     NULL(Fake) *
     _WakeUpDefaultInterruptHandler *

 Address spaces:
Name               Size   Autos  Total    Cost      Usage
BIGRAM             E40      0       0      51        0.0%
EEDATA             400      0       0       0        0.0%
BITBANK13          100      0       0      49        0.0%
BANK13             100      0       0      22        0.0%
BITBANK12          100      0       0      48        0.0%
BANK12             100      0       0      21        0.0%
BITBANK11          100      0       0      47        0.0%
BANK11             100      0       0      20        0.0%
BITBANK10          100      0       0      46        0.0%
BANK10             100      0       0      19        0.0%
BITBANK9           100      0       0      45        0.0%
BANK9              100      0       0      18        0.0%
BITBANK8           100      0       0      44        0.0%
BANK8              100      0       0      17        0.0%
BITBANK7           100      0       0      43        0.0%
BANK7              100      0       0      16        0.0%
BITBANK6           100      0       0      42        0.0%
BANK6              100      0       0      15        0.0%
BITBANK5           100      0       0      41        0.0%
BANK5              100      0       0      14        0.0%
BITBANK4           100      0       0      12        0.0%
BANK4              100      0       0      13        0.0%
BITBANK3           100      0       0      10        0.0%
BANK3              100      0       0      11        0.0%
BITBANK2           100      0       0       8        0.0%
BANK2              100      0       0       9        0.0%
BITBANK1           100      0       0       6        0.0%
BANK1              100      0       0       7        0.0%
BITBANK0            A0      0       0       4        0.0%
BANK0               A0      0       0       5        0.0%
BITBIGSFRlhllll     62      0       0      37        0.0%
BITCOMRAM           5E      0       0       0        0.0%
COMRAM              5E     17      35       1       56.4%
BITBANK14           41      0       0      50        0.0%
BANK14              41      0       0      23        0.0%
BITBIGSFRhhhlhl     34      0       0      27        0.0%
BITBIGSFRhhhhl      1D      0       0      25        0.0%
BITBIGSFRlhhhhh     1D      0       0      33        0.0%
BITBIGSFRhhhlll     11      0       0      30        0.0%
BITBIGSFRhhhhh       D      0       0      24        0.0%
BITBIGSFRhhhllh      4      0       0      29        0.0%
BITBIGSFRhhhllh      3      0       0      28        0.0%
BITBIGSFRhhl         3      0       0      31        0.0%
BITBIGSFRlhhhhh      2      0       0      32        0.0%
BITBIGSFRlhhhll      2      0       0      36        0.0%
BITBIGSFRlhhhlh      2      0       0      35        0.0%
BITBIGSFRlhhhhh      2      0       0      34        0.0%
BITBIGSFRllll        2      0       0      39        0.0%
BITBIGSFRhhhlhh      1      0       0      26        0.0%
BITBIGSFRllhllh      1      0       0      38        0.0%
BIGSFR               0      0       0     200        0.0%
BITSFR_2             0      0       0     200        0.0%
SFR_2                0      0       0     200        0.0%
BITSFR_1             0      0       0     200        0.0%
SFR_1                0      0       0     200        0.0%
BITSFR               0      0       0     200        0.0%
SFR                  0      0       0     200        0.0%
STACK                0      0       0       2        0.0%
NULL                 0      0       0       0        0.0%
ABS                  0      0      35      40        0.0%
DATA                 0      0      35       3        0.0%
CODE                 0      0       0       0        0.0%


Microchip Technology PIC18 Macro Assembler V2.45 build 20230818022343 
Symbol Table                                                                                   Thu Nov 30 18:30:41 2023

                                               _rx 0011                                                 _tx 0001  
                           leftTurnFunction@signal 0021                                                l400 1554  
                                              l403 15CC                                                l411 17C0  
                                              l600 17AE                                                l433 1798  
                                              l602 17B0                                                l522 1304  
                                              l523 1300                                                l380 1120  
                                              l356 12C6                                                l436 17AA  
                                              l604 17B2                                                l373 1012  
                                              l606 17B4                                                l550 1626  
                                              l608 17B6                                                l560 15E0  
                                              l449 17C4                                                l554 163E  
                                              l570 172E                                                l491 171A  
                                              l556 1658                                                l564 15F8  
                                              l573 1734                                                l566 1612  
                                              l583 1684                                                l575 174E  
                                              l593 16CA                                                l585 169E  
                                              l595 16E4                                                l579 166C  
                                              l589 16B2                                                l598 17AC  
                                              u500 0F22                                                u501 0F1E  
                                              u510 1022                                                u511 101E  
                                              u520 1030                                                u600 16B2  
                                              u521 102C                                                u601 16AE  
            ECAN_SetWakeUpInterruptHandler@handler 0021                                                u450 113A  
                                              u610 16CA                                                u530 1626  
                                              u451 1136                                                u611 16C6  
                                              u531 1622                                                u460 12C6  
                                              u540 163E                                                u700 13CC  
                                              u620 12E4                                                u461 12C2  
                                              u541 163A                                                u701 13C8  
                                              u621 12E0                                                u550 15E0  
                                              u710 13EE                                                u630 12FC  
                                              u551 15DC                                                u711 13EA  
                                              u631 12F8                                                u560 15F8  
                                              u720 140A                                                u640 131C  
                                              u561 15F4                                                u721 1406  
                                              u641 1318                                                u490 0F14  
                                              u570 172E                                                u650 132C  
                                              u475 1490                                                u491 0F10  
                                              u571 172A                                                u651 1328  
                                              u580 166C                                                u660 1344  
                                              u485 158A                                                u581 1668  
                                              u661 1340                                                u590 1684  
                                              u670 1366                                                u591 1680  
                                              u671 1362                                                u680 1388  
                                              u737 1604                                                u681 1384  
                                              u690 13AA                                                u747 1740  
                                              u691 13A6                                                u757 164A  
                                              u767 1690                                                u777 16D6  
                                              tosl 0FFD                                                wreg 0FE8  
                       ??_convertReg2StandardCANid 0025                                               l1360 170C  
                                             l1354 17C2                                               l1362 1718  
                                             l1364 179A                                               l1356 16E6  
                                             l1710 1122                                               l1358 1706  
                                             l1800 0FC2                                               l1720 1154  
                                             l1712 1126                                               l1810 1008  
                                             l1802 0FD0                                               l1730 128A  
                                             l1722 1156                                               l1714 113A  
                                             l1820 106A                                               l1812 100A  
                                             l1804 0FDE                                               l1708 17B8  
                                             l1740 12B0                                               l1732 129C  
                                             l1724 1158                                               l1716 1148  
                                             l1900 131C                                               l1750 1466  
                                             l1742 141E                                               l1830 10C2  
                                             l1822 1074                                               l1814 1022  
                                             l1806 0FEC                                               l1734 12A8  
                                             l1726 1286                                               l1718 114A  
                                             l1910 1370                                               l1902 132C  
                                             l1760 1534                                               l1752 147E  
                                             l1744 142E                                               l1840 1108  
                                             l1832 10D0                                               l1824 1098  
                                             l1816 1030                                               l1808 0FFA  
                                             l1736 12AA                                               l1728 1288  
                                             l1920 13CC                                               l1912 1388  
                                             l1904 1344                                               l1762 1544  
                                             l1754 14B0                                               l1746 1434  
                                             l1770 1582                                               l1842 1116  
                                             l1834 10DE                                               l1826 10A6  
                                             l1818 103A                                               l1738 12AC  
                                             l1850 1788                                               l1922 13D6  
                                             l1914 1392                                               l1906 134E  
                                             l1756 14E6                                               l1748 143C  
                                             l1772 15AC                                               l1836 10EC  
                                             l1828 10B4                                               l1780 0F06  
                                             l1852 178C                                               l1860 162C  
                                             l1924 13EE                                               l1916 13AA  
                                             l1908 1366                                               l1758 14FE  
                                             l1774 15BC                                               l1766 1558  
                                             l1838 10FA                                               l1846 111E  
                                             l1790 0F66                                               l1782 0F14  
                                             l1854 1790                                               l1862 1640  
                                             l1870 171C                                               l1926 13F2  
                                             l1918 13B4                                               l1768 1558  
                                             l1792 0F8A                                               l1784 0F22  
                                             l1856 1794                                               l1880 16A0  
                                             l1872 1736                                               l1864 15CE  
                                             l1928 140A                                               l1794 0F98  
                                             l1786 0F2C                                               l1778 0F02  
                                             l1882 16B8                                               l1874 165A  
                                             l1858 1614                                               l1866 15E6  
                                             l1890 12E4                                               l1796 0FA6  
                                             l1788 0F5C                                               l1884 16CC  
                                             l1876 1672                                               l1868 15FA  
                                             l1798 0FB4                                               l1878 1686  
                                             l1886 12C8                                               l1888 12CC  
                                             l1898 1304                                               _LATA 0F89  
                                             _LATB 0F8A                                               _LATC 0F8B  
                                             _LATD 0F8C                                               _LATE 0F8D  
                                             _WPUB 0F5B                                               _main 12C8  
                                             fsr2h 0FDA                                               indf2 0FDF  
                                             fsr2l 0FD9                                               btemp 0036  
                                             start 004C                                       ___param_bank 0000  
                                ?_backTurnFunction 0021                                 ??_backTurnFunction 0023  
                    __end_of_OSCILLATOR_Initialize 17AC                                   _leftTurnFunction 171C  
                                            ?_main 001F                                              _BSEL0 0E7D  
                                            i2l414 176C                                              i2l347 17C6  
                                            i2l458 0040                                              _MSEL0 0E79  
                                            _MSEL1 0E7A                                              _MSEL2 0E7B  
                                            _MSEL3 0E7C                                              _TRISA 0F92  
                                            _TRISB 0F93                                              _TRISC 0F94  
                                            _TRISD 0F95                                              _TRISE 0F96  
                            CAN_receive@tempCanMsg 0034                                              pclath 0FFA  
                                            pclatu 0FFB                                              ttemp5 0037  
                                            ttemp6 003A                                              ttemp7 003E  
              convertReg2ExtendedCANid@ConvertedID 0030                                              status 0FD8  
                                            wtemp8 0037                                    __initialization 176E  
                                     __end_of_main 141C                        ?_INTERRUPT_InterruptManager 001F  
                                           ??_main 0036                                      __activetblptr 0002  
                  ??_WakeUpDefaultInterruptHandler 001F                                  ??_ECAN_Initialize 0023  
                                           _CANCON 0F6F                                             _ANCON0 0F5D  
                                           _ANCON1 0F5C                                             _CIOCON 0F70  
                                           i2l1440 176A                                             i2l1438 1750  
                                           i2l1660 003C                                             i2l1654 0012  
                                           i2l1656 0020                                             i2l1658 002E  
                                           _OSCCON 0FD3                                             _RXB0D0 0F66  
                                           _RXB0D1 0F67                                             _RXB0D2 0F68  
                                           _RXB0D3 0F69                                             _RXB1D0 0F36  
                                           _RXB0D4 0F6A                                             _RXB1D1 0F37  
                                           _RXB0D5 0F6B                                             _RXB1D2 0F38  
                                           _RXB0D6 0F6C                                             _RXB1D3 0F39  
                                           _RXB0D7 0F6D                                             _RXB1D4 0F3A  
                                           _RXB1D5 0F3B                                             _RXB1D6 0F3C  
                                           _RXB1D7 0F3D                                             _TXB0D0 0F26  
                                           _TXB0D1 0F27                                             _TXB0D2 0F28  
                                           _TXB0D3 0F29                                             _TXB1D0 0F16  
                                           _TXB0D4 0F2A                                             _TXB1D1 0F17  
                                           _TXB0D5 0F2B                                             _TXB1D2 0F18  
                                           _TXB0D6 0F2C                                             _TXB1D3 0F19  
                                           _TXB0D7 0F2D                                             _TXB2D0 0F06  
                                           _TXB1D4 0F1A                                             _TXB2D1 0F07  
                                           _TXB1D5 0F1B                                             _TXB2D2 0F08  
                                           _TXB1D6 0F1C                                             _TXB2D3 0F09  
                                           _TXB1D7 0F1D                                             _TXB2D4 0F0A  
                                           _TXB2D5 0F0B                                             _TXB2D6 0F0C  
                                           _TXB2D7 0F0D                                             i2u9_48 1756  
                                           i2u9_49 176A                                             _func99 17AC  
                                           clear_0 1774                                             isa$std 0001  
                                     __mediumconst 0000                   __end_of_convertReg2StandardCANid 15CE  
                                           tblptru 0FF8                                  _SYSTEM_Initialize 1788  
                                       __accesstop 0060                            __end_of__initialization 177A  
                               ?_SYSTEM_Initialize 001F                           _convertReg2ExtendedCANid 141C  
                           CAN_receive@returnValue 0035                                      ___rparam_used 0001  
                                   __pcstackCOMRAM 001F                                ??_SYSTEM_Initialize 0024  
                                    _ECAN_WAKI_ISR 1750              convertReg2StandardCANid@tempRXBn_SIDH 0027  
            convertReg2StandardCANid@tempRXBn_SIDL 0021                          __end_of_SYSTEM_Initialize 179A  
                        hazardLightFunction@signal 0021              __end_of_WakeUpDefaultInterruptHandler 17C8  
                    _WakeUpDefaultInterruptHandler 17C6                           __end_of_leftTurnFunction 1750  
                                          ?_func99 001F                                            _ECANCON 0F72  
                                          _CANSTAT 0F6E                   ??_ECAN_SetWakeUpInterruptHandler 0023  
                  ?_ECAN_SetWakeUpInterruptHandler 0021                                            _BRGCON1 0E43  
                                          _BRGCON2 0E44                                            _BRGCON3 0E45  
                                          _REFOCON 0F9A                                            _OSCCON2 0FD2  
                                   ?_ECAN_WAKI_ISR 001F                                            i2u31_40 0020  
                                          i2u31_41 001C                                            i2u32_40 002E  
                                          i2u32_41 002A                                            i2u33_40 003C  
                                          i2u33_41 0038                                            _RXB0DLC 0F65  
                                          _RXB1DLC 0F35                                            _OSCTUNE 0F9B  
                                          _TXB0DLC 0F25                                            _TXB1DLC 0F15  
                                          _TXB2DLC 0F05                                            _RXFCON0 0E46  
                                          _RXFCON1 0E47                                            __Hparam 0000  
                                          __Lparam 0000                          ?_convertReg2StandardCANid 0021  
                                  _ECAN_Initialize 1122                                       __psmallconst 0F00  
                                          __pcinit 176E                                            __ramtop 0F00  
                                          __ptext0 12C8                                            __ptext1 15CE  
                                          __ptext2 171C                                            __ptext3 1614  
                                          __ptext4 17AC                                            __ptext5 165A  
                                          __ptext6 16A0                                            __ptext7 1788  
                                          __ptext8 16E6                                            __ptext9 179A  
                            _OSCILLATOR_Initialize 179A                           ??_PIN_MANAGER_Initialize 0021  
                             end_of_initialization 177A                             _WakeUpInterruptHandler 000F  
                                    __Lmediumconst 0000                                      ??_CAN_receive 0035  
                 fp__WakeUpDefaultInterruptHandler 0000                     ?_WakeUpDefaultInterruptHandler 001F  
                                        _RXF10EIDH 0E5A                                          _RXF10EIDL 0E5B  
                                        _RXF11EIDH 0E5E                                          _RXF11EIDL 0E5F  
                                        _RXF12EIDH 0E62                                          _RXF12EIDL 0E63  
                                        _RXF13EIDH 0E66                                          _RXF13EIDL 0E67  
                                        _RXF14EIDH 0E6A                                          _RXF14EIDL 0E6B  
                                        _RXF15EIDH 0E6E                                          _RXF15EIDL 0E6F  
                                        _RXF10SIDH 0E58                                          _RXF10SIDL 0E59  
                                        _RXF11SIDH 0E5C                                          _RXF11SIDL 0E5D  
                                        _RXF12SIDH 0E60                                          _RXF12SIDL 0E61  
                                        _RXF13SIDH 0E64                                          _RXF13SIDL 0E65  
                                        _RXF14SIDH 0E68                                          _RXF14SIDL 0E69  
                                        _RXF15SIDH 0E6C                                          _RXF15SIDL 0E6D  
                                          postinc0 0FEE                                            postinc2 0FDE  
                          rightTurnFunction@signal 0021                                    ??_ECAN_WAKI_ISR 001F  
                       ??_convertReg2ExtendedCANid 0025                            __end_of_ECAN_Initialize 12C8  
                     __end_of_INTERRUPT_Initialize 17C6                                __end_of_CAN_receive 1122  
                              _hazardLightFunction 1614                                  _frontTurnFunction 165A  
                                   __end_of_func99 17B8                             ?_OSCILLATOR_Initialize 001F  
                               ?_frontTurnFunction 0021                                start_initialization 176E  
                                 _backTurnFunction 16A0                                ??_frontTurnFunction 0023  
                             ?_hazardLightFunction 0021                                  ?_leftTurnFunction 0021  
              convertReg2StandardCANid@returnValue 0028                                 ??_leftTurnFunction 0023  
                        __end_of_frontTurnFunction 16A0                                           ??_func99 0021  
                                      __pbssCOMRAM 0001                              ??_hazardLightFunction 0023  
           __end_of_ECAN_SetWakeUpInterruptHandler 17C2                     _ECAN_SetWakeUpInterruptHandler 17B8  
                                      _CAN_receive 0F02                                   ?_ECAN_Initialize 001F  
                           _PIN_MANAGER_Initialize 16E6                                          __pintcode 0008  
                     ??_INTERRUPT_InterruptManager 001F                                        __smallconst 0F00  
                                      _COMSTATbits 0F71                                  _rightTurnFunction 15CE  
                 __end_of_convertReg2ExtendedCANid 1556                                 ?_rightTurnFunction 0021  
                             _INTERRUPT_Initialize 17C2                                ??_rightTurnFunction 0023  
                                         _LATAbits 0F89                                           _LATEbits 0F8D  
                                         _PIE5bits 0F76                                           _PIR5bits 0F77  
                                         _RXB0EIDH 0F63                                           _RXB0EIDL 0F64  
                                         _RXB1EIDH 0F33                                           _RXB1EIDL 0F34  
                                         _RCONbits 0FD0                                           _RXB0SIDH 0F61  
                                         _RXB0SIDL 0F62                                           _RXF0EIDH 0EE2  
                                         _RXB1SIDH 0F31                                           _RXF0EIDL 0EE3  
                                         _RXB1SIDL 0F32                                           _RXF1EIDH 0EE6  
                                         _RXF1EIDL 0EE7                                           _RXF2EIDH 0EEA  
                                         _RXF2EIDL 0EEB                                           _RXF3EIDH 0EEE  
                                         _RXF3EIDL 0EEF                                           _RXF4EIDH 0EF2  
                                         _RXF4EIDL 0EF3                                           _RXF5EIDH 0EF6  
                                         _RXF5EIDL 0EF7                                           _RXF6EIDH 0E4A  
                                         _RXF6EIDL 0E4B                                           _RXF0SIDH 0EE0  
                                         _RXF7EIDH 0E4E                                           _RXF0SIDL 0EE1  
                                         _RXF7EIDL 0E4F                                           _RXF1SIDH 0EE4  
                                         _RXF8EIDH 0E52                                           _TXB0EIDH 0F23  
                                         _TXB0EIDL 0F24                                           _RXF1SIDL 0EE5  
                                         _RXF8EIDL 0E53                                           _RXF2SIDH 0EE8  
                                         _RXF9EIDH 0E56                                           _TXB1EIDH 0F13  
                                         _TXB1EIDL 0F14                                           _RXF2SIDL 0EE9  
                                         _RXF9EIDL 0E57                                           _RXF3SIDH 0EEC  
                                         _TXB2EIDH 0F03                                           _TXB2EIDL 0F04  
                                         _RXF3SIDL 0EED                                           _RXF4SIDH 0EF0  
                                         _RXF4SIDL 0EF1                                           _RXF5SIDH 0EF4  
                                         _RXF5SIDL 0EF5                                           _RXF6SIDH 0E48  
                                         _RXF6SIDL 0E49                                           _RXM0EIDH 0EFA  
                                         _RXF7SIDH 0E4C                                           _RXM0EIDL 0EFB  
                                         _RXF7SIDL 0E4D                                           _RXM1EIDH 0EFE  
                                         _RXF8SIDH 0E50                                           _TXB0SIDH 0F21  
                                         _RXM1EIDL 0EFF                                           _RXF8SIDL 0E51  
                                         _TXB0SIDL 0F22                                           _RXF9SIDH 0E54  
                                         _TXB1SIDH 0F11                                           _RXF9SIDL 0E55  
                                         _TXB1SIDL 0F12                                           _TXB2SIDH 0F01  
                                         _TXB2SIDL 0F02                                           _RXFBCON0 0E71  
                                         _RXFBCON1 0E72                                           _RXFBCON2 0E73  
                                         _RXFBCON3 0E74                                           _RXFBCON4 0E75  
                                         _RXFBCON5 0E76                                           _RXFBCON6 0E77  
                                         _RXFBCON7 0E78                                           _RXM0SIDH 0EF8  
                                         _RXM0SIDL 0EF9                                           _RXM1SIDH 0EFC  
                                         _RXM1SIDL 0EFD                          __end_of_rightTurnFunction 1614  
                                      _INTCON2bits 0FF1                              ?_INTERRUPT_Initialize 001F  
                         _convertReg2StandardCANid 1556                            frontTurnFunction@signal 0021  
            convertReg2ExtendedCANid@tempRXBn_EIDH 0029              convertReg2ExtendedCANid@tempRXBn_EIDL 0021  
            convertReg2ExtendedCANid@tempRXBn_SIDH 0022              convertReg2ExtendedCANid@tempRXBn_SIDL 0023  
                                         __Hrparam 0000                                           __Lrparam 0000  
                         __end_of_backTurnFunction 16E6                            ??_OSCILLATOR_Initialize 0021  
convertReg2ExtendedCANid@CAN_standardLo_ID_hi3bits 002F  convertReg2ExtendedCANid@CAN_standardLo_ID_lo2bits 002E  
                            __end_of_ECAN_WAKI_ISR 176E                                           __ptext10 17C2  
                                         __ptext11 1122                                           __ptext12 17B8  
                                         __ptext13 0F02                                           __ptext14 1556  
                                         __ptext15 141C                                           __ptext17 1750  
                                         __ptext18 17C6                                           __ptext19 0000  
              convertReg2StandardCANid@ConvertedID 002C                convertReg2ExtendedCANid@returnValue 002A  
                                         isa$xinst 0000                          ?_convertReg2ExtendedCANid 0021  
                                         int$flags 0036                 __end_of_INTERRUPT_InterruptManager 004C  
                       _INTERRUPT_InterruptManager 0008                                        _RXB0CONbits 0F60  
                                      _RXB1CONbits 0F30                                         _INTCONbits 0FF2  
                           ??_INTERRUPT_Initialize 0021                                           intlevel2 0000  
                          ?_PIN_MANAGER_Initialize 001F                                        _TXB0CONbits 0F20  
                                     ?_CAN_receive 0034                                        _TXB1CONbits 0F10  
                                      _TXB2CONbits 0F00                        __end_of_hazardLightFunction 165A  
                   __end_of_PIN_MANAGER_Initialize 171C                             backTurnFunction@signal 0021  
