

Microchip MPLAB XC8 Assembler V2.36 build 20220127204148 
                                                                                               Sat Jul 16 15:09:11 2022

Microchip MPLAB XC8 C Compiler v2.36 (Free license) build 20220127204148 Og1 
     1                           	processor	18F46K80
     2                           	fnconf	rparam,??,?,0
     3                           	pagewidth 120
     4                           	opt	flic
     5                           	psect	idataBANK0,global,class=CODE,delta=1,noexec
     6                           	psect	smallconst,global,reloc=2,class=SMALLCONST,delta=1,noexec
     7                           	psect	cinit,global,reloc=2,class=CODE,delta=1
     8                           	psect	bssCOMRAM,global,class=COMRAM,space=1,delta=1,lowdata,noexec
     9                           	psect	bssBANK0,global,class=BANK0,space=1,delta=1,lowdata,noexec
    10                           	psect	dataBANK0,global,class=BANK0,space=1,delta=1,lowdata,noexec
    11                           	psect	cstackBANK0,global,class=BANK0,space=1,delta=1,lowdata,noexec
    12                           	psect	cstackCOMRAM,global,class=COMRAM,space=1,delta=1,lowdata,noexec
    13                           	psect	text0,global,reloc=2,class=CODE,delta=1
    14                           	psect	text1,global,reloc=2,class=CODE,delta=1
    15                           	psect	text2,global,reloc=2,class=CODE,delta=1,group=1
    16                           	psect	text3,global,reloc=2,class=CODE,delta=1,group=2
    17                           	psect	text4,global,reloc=2,class=CODE,delta=1,group=2
    18                           	psect	text5,global,reloc=2,class=CODE,delta=1,group=2
    19                           	psect	text6,global,reloc=2,class=CODE,delta=1
    20                           	psect	text7,global,reloc=2,class=CODE,delta=1
    21                           	psect	text8,global,reloc=2,class=CODE,delta=1
    22                           	psect	text9,global,reloc=2,class=CODE,delta=1,group=1
    23                           	psect	text10,global,reloc=2,class=CODE,delta=1
    24                           	psect	text11,global,reloc=2,class=CODE,delta=1
    25                           	psect	text12,global,reloc=2,class=CODE,delta=1
    26                           	psect	text13,global,reloc=2,class=CODE,delta=1
    27                           	psect	text14,global,reloc=2,class=CODE,delta=1
    28                           	psect	text15,global,reloc=2,class=CODE,delta=1
    29                           	psect	text16,global,reloc=2,class=CODE,delta=1
    30                           	psect	text17,global,reloc=2,class=CODE,delta=1
    31                           	psect	text18,global,reloc=2,class=CODE,delta=1
    32                           	psect	text19,global,reloc=2,class=CODE,delta=1
    33                           	psect	text20,global,reloc=2,class=CODE,delta=1
    34                           	psect	text21,global,reloc=2,class=CODE,delta=1
    35                           	psect	text22,global,reloc=2,class=CODE,delta=1
    36                           	psect	text23,global,reloc=2,class=CODE,delta=1
    37                           	psect	text24,global,reloc=2,class=CODE,delta=1
    38                           	psect	intcode,global,reloc=2,class=CODE,delta=1
    39                           	psect	text26,global,reloc=2,class=CODE,delta=1
    40                           	psect	text27,global,reloc=2,class=CODE,delta=1
    41                           	psect	intsave_regs,global,class=BIGRAM,space=1,delta=1,noexec
    42                           	psect	text28,global,reloc=2,class=CODE,delta=1
    43                           	psect	rparam,global,class=COMRAM,space=1,delta=1,noexec
    44                           	psect	temp,global,ovrld,common,class=COMRAM,space=1,delta=1
    45                           	psect	idloc,global,abs,ovrld,class=IDLOC,space=5,delta=1,noexec
    46                           	psect	config,global,abs,ovrld,class=CONFIG,space=4,delta=1,noexec
    47  0000                     
    48                           ; Version 2.20
    49                           ; Generated 05/05/2020 GMT
    50                           ; 
    51                           ; Copyright © 2020, Microchip Technology Inc. and its subsidiaries ("Microchip")
    52                           ; All rights reserved.
    53                           ; 
    54                           ; This software is developed by Microchip Technology Inc. and its subsidiaries ("Microch
      +                          ip").
    55                           ; 
    56                           ; Redistribution and use in source and binary forms, with or without modification, are
    57                           ; permitted provided that the following conditions are met:
    58                           ; 
    59                           ;     1. Redistributions of source code must retain the above copyright notice, this lis
      +                          t of
    60                           ;        conditions and the following disclaimer.
    61                           ; 
    62                           ;     2. Redistributions in binary form must reproduce the above copyright notice, this 
      +                          list
    63                           ;        of conditions and the following disclaimer in the documentation and/or other
    64                           ;        materials provided with the distribution.
    65                           ; 
    66                           ;     3. Microchip's name may not be used to endorse or promote products derived from th
      +                          is
    67                           ;        software without specific prior written permission.
    68                           ; 
    69                           ; THIS SOFTWARE IS PROVIDED BY MICROCHIP "AS IS" AND ANY EXPRESS OR IMPLIED WARRANTIES,
    70                           ; INCLUDING, BUT NOT LIMITED TO, THE IMPLIED WARRANTIES OF MERCHANTABILITY AND FITNESS F
      +                          OR
    71                           ; PURPOSE ARE DISCLAIMED.  IN NO EVENT SHALL MICROCHIP BE LIABLE FOR ANY DIRECT, INDIREC
      +                          T,
    72                           ; INCIDENTAL, SPECIAL, EXEMPLARY, OR CONSEQUENTIAL DAMAGES (INCLUDING BUT NOT LIMITED TO
    73                           ; PROCUREMENT OF SUBSTITUTE GOODS OR SERVICES; LOSS OF USE, DATA OR PROFITS; OR BUSINESS
    74                           ; INTERRUPTION) HOWSOEVER CAUSED AND ON ANY THEORY OF LIABILITY, WHETHER IN CONTRACT, ST
      +                          RICT
    75                           ; LIABILITY, OR TORT (INCLUDING NEGLIGENCE OR OTHERWISE) ARISING IN ANY WAY OUT OF THE U
      +                          SE OF
    76                           ; THIS SOFTWARE, EVEN IF ADVISED OF THE POSSIBILITY OF SUCH DAMAGE.
    77                           ; 
    78                           ; 
    79                           ; Code-generator required, PIC18F46K80 Definitions
    80                           ; 
    81                           ; SFR Addresses
    82  0000                     
    83                           	psect	idataBANK0
    84  002004                     __pidataBANK0:
    85                           	callstack 0
    86                           
    87                           ;initializer for main@F12780
    88  002004  54                 	db	84
    89  002005  69                 	db	105
    90  002006  74                 	db	116
    91  002007  6C                 	db	108
    92  002008  65                 	db	101
    93  002009  20                 	db	32
    94  00200A  31                 	db	49
    95  00200B  00                 	db	0
    96  00200C  00                 	db	0
    97  00200D  00                 	db	0
    98  00200E  52                 	db	82
    99  00200F  65                 	db	101
   100  002010  61                 	db	97
   101  002011  64                 	db	100
   102  002012  69                 	db	105
   103  002013  6E                 	db	110
   104  002014  67                 	db	103
   105  002015  20                 	db	32
   106  002016  31                 	db	49
   107  002017  00                 	db	0
   108  002018  54                 	db	84
   109  002019  69                 	db	105
   110  00201A  74                 	db	116
   111  00201B  6C                 	db	108
   112  00201C  65                 	db	101
   113  00201D  20                 	db	32
   114  00201E  32                 	db	50
   115  00201F  00                 	db	0
   116  002020  00                 	db	0
   117  002021  00                 	db	0
   118  002022  52                 	db	82
   119  002023  65                 	db	101
   120  002024  61                 	db	97
   121  002025  64                 	db	100
   122  002026  69                 	db	105
   123  002027  6E                 	db	110
   124  002028  67                 	db	103
   125  002029  20                 	db	32
   126  00202A  32                 	db	50
   127  00202B  00                 	db	0
   128  00202C  54                 	db	84
   129  00202D  69                 	db	105
   130  00202E  74                 	db	116
   131  00202F  6C                 	db	108
   132  002030  65                 	db	101
   133  002031  20                 	db	32
   134  002032  33                 	db	51
   135  002033  00                 	db	0
   136  002034  00                 	db	0
   137  002035  00                 	db	0
   138  002036  52                 	db	82
   139  002037  65                 	db	101
   140  002038  61                 	db	97
   141  002039  64                 	db	100
   142  00203A  69                 	db	105
   143  00203B  6E                 	db	110
   144  00203C  67                 	db	103
   145  00203D  20                 	db	32
   146  00203E  33                 	db	51
   147  00203F  00                 	db	0
   148  0000                     _COMSTATbits	set	3953
   149  0000                     _RXB1SIDH	set	3889
   150  0000                     _RXB1SIDL	set	3890
   151  0000                     _RXB0D7	set	3949
   152  0000                     _RXB0D6	set	3948
   153  0000                     _RXB0D5	set	3947
   154  0000                     _RXB0D4	set	3946
   155  0000                     _RXB0D3	set	3945
   156  0000                     _RXB0D2	set	3944
   157  0000                     _RXB0D1	set	3943
   158  0000                     _RXB0D0	set	3942
   159  0000                     _RXB0DLC	set	3941
   160  0000                     _RXB0SIDH	set	3937
   161  0000                     _RXB0EIDL	set	3940
   162  0000                     _RXB0EIDH	set	3939
   163  0000                     _RXB0SIDL	set	3938
   164  0000                     _TXB2SIDL	set	3842
   165  0000                     _TXB2SIDH	set	3841
   166  0000                     _TXB2EIDH	set	3843
   167  0000                     _TXB2CONbits	set	3840
   168  0000                     _TXB1SIDL	set	3858
   169  0000                     _TXB1SIDH	set	3857
   170  0000                     _TXB1EIDH	set	3859
   171  0000                     _TXB1CONbits	set	3856
   172  0000                     _TXB0SIDL	set	3874
   173  0000                     _TXB0SIDH	set	3873
   174  0000                     _TXB0EIDH	set	3875
   175  0000                     _TXB0CONbits	set	3872
   176  0000                     _BRGCON3	set	3653
   177  0000                     _BRGCON2	set	3652
   178  0000                     _RXF15SIDL	set	3693
   179  0000                     _RXF15SIDH	set	3692
   180  0000                     _RXF15EIDH	set	3694
   181  0000                     _RXF14SIDL	set	3689
   182  0000                     _RXF14SIDH	set	3688
   183  0000                     _RXF14EIDL	set	3691
   184  0000                     _RXF14EIDH	set	3690
   185  0000                     _RXF13SIDL	set	3685
   186  0000                     _RXF13SIDH	set	3684
   187  0000                     _RXF13EIDL	set	3687
   188  0000                     _RXF13EIDH	set	3686
   189  0000                     _RXF12SIDL	set	3681
   190  0000                     _RXF12SIDH	set	3680
   191  0000                     _RXF12EIDL	set	3683
   192  0000                     _RXF12EIDH	set	3682
   193  0000                     _RXF11SIDL	set	3677
   194  0000                     _RXF11SIDH	set	3676
   195  0000                     _RXF11EIDL	set	3679
   196  0000                     _RXF11EIDH	set	3678
   197  0000                     _RXF10SIDL	set	3673
   198  0000                     _RXF10SIDH	set	3672
   199  0000                     _RXF10EIDL	set	3675
   200  0000                     _RXF10EIDH	set	3674
   201  0000                     _RXF9SIDL	set	3669
   202  0000                     _RXF9SIDH	set	3668
   203  0000                     _RXF9EIDL	set	3671
   204  0000                     _RXF9EIDH	set	3670
   205  0000                     _RXF8SIDL	set	3665
   206  0000                     _RXF8SIDH	set	3664
   207  0000                     _RXF8EIDL	set	3667
   208  0000                     _RXF8EIDH	set	3666
   209  0000                     _RXF7SIDL	set	3661
   210  0000                     _RXF7SIDH	set	3660
   211  0000                     _RXF7EIDL	set	3663
   212  0000                     _RXF7EIDH	set	3662
   213  0000                     _RXF6SIDL	set	3657
   214  0000                     _RXF6SIDH	set	3656
   215  0000                     _RXF6EIDL	set	3659
   216  0000                     _RXF6EIDH	set	3658
   217  0000                     _RXF5SIDL	set	3829
   218  0000                     _RXF5SIDH	set	3828
   219  0000                     _RXF5EIDL	set	3831
   220  0000                     _RXF5EIDH	set	3830
   221  0000                     _RXF4SIDL	set	3825
   222  0000                     _RXF4SIDH	set	3824
   223  0000                     _RXF4EIDL	set	3827
   224  0000                     _RXF4EIDH	set	3826
   225  0000                     _RXF3SIDL	set	3821
   226  0000                     _RXF3SIDH	set	3820
   227  0000                     _RXF3EIDL	set	3823
   228  0000                     _RXF3EIDH	set	3822
   229  0000                     _RXF2SIDL	set	3817
   230  0000                     _RXF2SIDH	set	3816
   231  0000                     _RXF2EIDL	set	3819
   232  0000                     _RXF2EIDH	set	3818
   233  0000                     _RXF1SIDL	set	3813
   234  0000                     _RXF1SIDH	set	3812
   235  0000                     _RXF1EIDL	set	3815
   236  0000                     _RXF1EIDH	set	3814
   237  0000                     _RXF0SIDL	set	3809
   238  0000                     _RXF0EIDL	set	3811
   239  0000                     _RXFBCON7	set	3704
   240  0000                     _RXFBCON6	set	3703
   241  0000                     _RXFBCON5	set	3702
   242  0000                     _RXFBCON4	set	3701
   243  0000                     _RXFBCON3	set	3700
   244  0000                     _RXFBCON2	set	3699
   245  0000                     _RXFBCON1	set	3698
   246  0000                     _RXFBCON0	set	3697
   247  0000                     _MSEL3	set	3708
   248  0000                     _MSEL2	set	3707
   249  0000                     _MSEL1	set	3706
   250  0000                     _MSEL0	set	3705
   251  0000                     _RXFCON1	set	3655
   252  0000                     _RXM1SIDL	set	3837
   253  0000                     _RXM1SIDH	set	3836
   254  0000                     _RXM1EIDL	set	3839
   255  0000                     _RXM1EIDH	set	3838
   256  0000                     _RXM0SIDL	set	3833
   257  0000                     _RXM0EIDL	set	3835
   258  0000                     _CIOCON	set	3952
   259  0000                     _ECANCON	set	3954
   260  0000                     _TRISD	set	3989
   261  0000                     _TRISC	set	3988
   262  0000                     _TRISB	set	3987
   263  0000                     _LATC	set	3979
   264  0000                     _LATB	set	3978
   265  0000                     _LATDbits	set	3980
   266  0000                     _LATD7	set	31847
   267  0000                     _LATD5	set	31845
   268  0000                     _LATD6	set	31846
   269  0000                     _TRISD7	set	31919
   270  0000                     _TRISD6	set	31918
   271  0000                     _TRISD5	set	31917
   272  0000                     _BRGCON1	set	3651
   273  0000                     _RXFCON0	set	3654
   274  0000                     _BSEL0	set	3709
   275  0000                     _WPUB	set	3931
   276  0000                     _ANCON1	set	3932
   277  0000                     _ANCON0	set	3933
   278  0000                     _LATA	set	3977
   279  0000                     _LATD	set	3980
   280  0000                     _LATE	set	3981
   281  0000                     _TRISA	set	3986
   282  0000                     _TRISE	set	3990
   283  0000                     _REFOCON	set	3994
   284  0000                     _OSCTUNE	set	3995
   285  0000                     _OSCCON2	set	4050
   286  0000                     _OSCCON	set	4051
   287  0000                     _INTCON2bits	set	4081
   288  0000                     _RXB0CONbits	set	3936
   289  0000                     _CANSTAT	set	3950
   290  0000                     _CANCON	set	3951
   291  0000                     _PORTCbits	set	3970
   292  0000                     _INTCONbits	set	4082
   293  0000                     _RCONbits	set	4048
   294  0000                     _PORTDbits	set	3971
   295  0000                     _PIE5bits	set	3958
   296  0000                     _PIR5bits	set	3959
   297  0000                     _RXF0SIDH	set	3808
   298  0000                     _RXF0EIDH	set	3810
   299  0000                     _RXM0SIDH	set	3832
   300  0000                     _RXM0EIDH	set	3834
   301  0000                     _RXF15EIDL	set	3695
   302  0000                     _RXB1CONbits	set	3888
   303  0000                     _TXB0D7	set	3885
   304  0000                     _TXB0D6	set	3884
   305  0000                     _TXB0D5	set	3883
   306  0000                     _TXB0D4	set	3882
   307  0000                     _TXB0D3	set	3881
   308  0000                     _TXB0D2	set	3880
   309  0000                     _TXB0D1	set	3879
   310  0000                     _TXB0D0	set	3878
   311  0000                     _TXB0DLC	set	3877
   312  0000                     _TXB0EIDL	set	3876
   313  0000                     _TXB1D7	set	3869
   314  0000                     _TXB1D6	set	3868
   315  0000                     _TXB1D5	set	3867
   316  0000                     _TXB1D4	set	3866
   317  0000                     _TXB1D3	set	3865
   318  0000                     _TXB1D2	set	3864
   319  0000                     _TXB1D1	set	3863
   320  0000                     _TXB1D0	set	3862
   321  0000                     _TXB1DLC	set	3861
   322  0000                     _TXB1EIDL	set	3860
   323  0000                     _TXB2D7	set	3853
   324  0000                     _TXB2D6	set	3852
   325  0000                     _TXB2D5	set	3851
   326  0000                     _TXB2D4	set	3850
   327  0000                     _TXB2D3	set	3849
   328  0000                     _TXB2D2	set	3848
   329  0000                     _TXB2D1	set	3847
   330  0000                     _TXB2D0	set	3846
   331  0000                     _TXB2DLC	set	3845
   332  0000                     _TXB2EIDL	set	3844
   333  0000                     _RXB1D7	set	3901
   334  0000                     _RXB1D6	set	3900
   335  0000                     _RXB1D5	set	3899
   336  0000                     _RXB1D4	set	3898
   337  0000                     _RXB1D3	set	3897
   338  0000                     _RXB1D2	set	3896
   339  0000                     _RXB1D1	set	3895
   340  0000                     _RXB1D0	set	3894
   341  0000                     _RXB1DLC	set	3893
   342  0000                     _RXB1EIDL	set	3892
   343  0000                     _RXB1EIDH	set	3891
   344                           
   345                           	psect	smallconst
   346  000F00                     __psmallconst:
   347                           	callstack 0
   348  000F00  00                 	db	0
   349  000F01                     STR_1:
   350  000F01  53                 	db	83	;'S'
   351  000F02  79                 	db	121	;'y'
   352  000F03  73                 	db	115	;'s'
   353  000F04  74                 	db	116	;'t'
   354  000F05  65                 	db	101	;'e'
   355  000F06  6D                 	db	109	;'m'
   356  000F07  20                 	db	32
   357  000F08  53                 	db	83	;'S'
   358  000F09  74                 	db	116	;'t'
   359  000F0A  61                 	db	97	;'a'
   360  000F0B  72                 	db	114	;'r'
   361  000F0C  74                 	db	116	;'t'
   362  000F0D  00                 	db	0
   363  000F0E                     STR_2:
   364  000F0E  2E                 	db	46
   365  000F0F  00                 	db	0
   366  000F10  00                 	db	0	; dummy byte at the end
   367  0000                     
   368                           ; #config settings
   369                           
   370                           	psect	cinit
   371  001FC2                     __pcinit:
   372                           	callstack 0
   373  001FC2                     start_initialization:
   374                           	callstack 0
   375  001FC2                     __initialization:
   376                           	callstack 0
   377                           
   378                           ; Initialize objects allocated to BANK0 (60 bytes)
   379                           ; load TBLPTR registers with __pidataBANK0
   380  001FC2  0E04               	movlw	low __pidataBANK0
   381  001FC4  6EF6               	movwf	tblptrl,c
   382  001FC6  0E20               	movlw	high __pidataBANK0
   383  001FC8  6EF7               	movwf	tblptrh,c
   384  001FCA  0E00               	movlw	low (__pidataBANK0 shr (0+16))
   385  001FCC  6EF8               	movwf	tblptru,c
   386  001FCE  EE00  F0A8         	lfsr	0,__pdataBANK0
   387  001FD2  EE10 F03C          	lfsr	1,60
   388  001FD6                     copy_data0:
   389  001FD6  0009               	tblrd		*+
   390  001FD8  CFF5 FFEE          	movff	tablat,postinc0
   391  001FDC  50E5               	movf	postdec1,w,c
   392  001FDE  50E1               	movf	fsr1l,w,c
   393  001FE0  E1FA               	bnz	copy_data0
   394                           
   395                           ; Clear objects allocated to BANK0 (14 bytes)
   396  001FE2  EE00  F0E4         	lfsr	0,__pbssBANK0
   397  001FE6  0E0E               	movlw	14
   398  001FE8                     clear_0:
   399  001FE8  6AEE               	clrf	postinc0,c
   400  001FEA  06E8               	decf	wreg,f,c
   401  001FEC  E1FD               	bnz	clear_0
   402                           
   403                           ; Clear objects allocated to COMRAM (16 bytes)
   404  001FEE  EE00  F025         	lfsr	0,__pbssCOMRAM
   405  001FF2  0E10               	movlw	16
   406  001FF4                     clear_1:
   407  001FF4  6AEE               	clrf	postinc0,c
   408  001FF6  06E8               	decf	wreg,f,c
   409  001FF8  E1FD               	bnz	clear_1
   410  001FFA                     end_of_initialization:
   411                           	callstack 0
   412  001FFA                     __end_of__initialization:
   413                           	callstack 0
   414  001FFA  9035               	bcf	int$flags,0,c	;clear compiler interrupt flag (level 1)
   415  001FFC  9235               	bcf	int$flags,1,c	;clear compiler interrupt flag (level 2)
   416  001FFE  0100               	movlb	0
   417  002000  EFC6  F008         	goto	_main	;jump to C main() function
   418                           
   419                           	psect	bssCOMRAM
   420  000025                     __pbssCOMRAM:
   421                           	callstack 0
   422  000025                     malloc@lock:
   423                           	callstack 0
   424  000025                     	ds	4
   425  000029                     ___freelist:
   426                           	callstack 0
   427  000029                     	ds	2
   428  00002B                     _brkp:
   429                           	callstack 0
   430  00002B                     	ds	2
   431  00002D                     _errno:
   432                           	callstack 0
   433  00002D                     	ds	2
   434  00002F                     malloc@end:
   435                           	callstack 0
   436  00002F                     	ds	2
   437  000031                     malloc@cur:
   438                           	callstack 0
   439  000031                     	ds	2
   440  000033                     _WakeUpInterruptHandler:
   441                           	callstack 0
   442  000033                     	ds	2
   443                           
   444                           	psect	bssBANK0
   445  0000E4                     __pbssBANK0:
   446                           	callstack 0
   447  0000E4                     _rx:
   448                           	callstack 0
   449  0000E4                     	ds	14
   450                           
   451                           	psect	dataBANK0
   452  0000A8                     __pdataBANK0:
   453                           	callstack 0
   454  0000A8                     main@F12780:
   455                           	callstack 0
   456  0000A8                     	ds	60
   457                           
   458                           	psect	cstackBANK0
   459  000060                     __pcstackBANK0:
   460                           	callstack 0
   461  000060                     main@menu:
   462                           	callstack 0
   463                           
   464                           ; 60 bytes @ 0x0
   465  000060                     	ds	60
   466  00009C                     main@lastCounter:
   467                           	callstack 0
   468                           
   469                           ; 2 bytes @ 0x3C
   470  00009C                     	ds	2
   471  00009E                     main@currentState:
   472                           	callstack 0
   473                           
   474                           ; 2 bytes @ 0x3E
   475  00009E                     	ds	2
   476  0000A0                     main@prevState:
   477                           	callstack 0
   478                           
   479                           ; 2 bytes @ 0x40
   480  0000A0                     	ds	2
   481  0000A2                     main@latch:
   482                           	callstack 0
   483                           
   484                           ; 2 bytes @ 0x42
   485  0000A2                     	ds	2
   486  0000A4                     main@exitBTNPressed:
   487                           	callstack 0
   488                           
   489                           ; 2 bytes @ 0x44
   490  0000A4                     	ds	2
   491  0000A6                     main@counter:
   492                           	callstack 0
   493                           
   494                           ; 2 bytes @ 0x46
   495  0000A6                     	ds	2
   496                           
   497                           	psect	cstackCOMRAM
   498  000001                     __pcstackCOMRAM:
   499                           	callstack 0
   500  000001                     ??_INTERRUPT_InterruptManager:
   501                           
   502                           ; 1 bytes @ 0x0
   503  000001                     	ds	2
   504  000003                     ??_LCD_intake:
   505  000003                     ?___simple_search_fl:
   506                           	callstack 0
   507  000003                     ?___expand_heap:
   508                           	callstack 0
   509  000003                     ?_enterButtonGetValue:
   510                           	callstack 0
   511  000003                     ?_exitButtonGetValue:
   512                           	callstack 0
   513  000003                     ?___wmul:
   514                           	callstack 0
   515  000003                     ?___awmod:
   516                           	callstack 0
   517  000003                     ?_convertReg2ExtendedCANid:
   518                           	callstack 0
   519  000003                     ?_convertReg2StandardCANid:
   520                           	callstack 0
   521  000003                     convertReg2ExtendedCANid@tempRXBn_EIDL:
   522                           	callstack 0
   523  000003                     convertReg2StandardCANid@tempRXBn_SIDL:
   524                           	callstack 0
   525  000003                     ECAN_SetWakeUpInterruptHandler@handler:
   526                           	callstack 0
   527  000003                     ___wmul@multiplier:
   528                           	callstack 0
   529  000003                     ___awmod@dividend:
   530                           	callstack 0
   531  000003                     ___expand_heap@pn:
   532                           	callstack 0
   533  000003                     ___simple_search_fl@n:
   534                           	callstack 0
   535                           
   536                           ; 2 bytes @ 0x2
   537  000003                     	ds	1
   538  000004                     LCD_command@command:
   539                           	callstack 0
   540  000004                     convertReg2ExtendedCANid@tempRXBn_SIDH:
   541                           	callstack 0
   542                           
   543                           ; 1 bytes @ 0x3
   544  000004                     	ds	1
   545  000005                     ??_ECAN_Initialize:
   546  000005                     ??___simple_search_fl:
   547  000005                     ??___expand_heap:
   548  000005                     ??_enterButtonGetValue:
   549  000005                     ??_exitButtonGetValue:
   550  000005                     LCD_set_pos@y:
   551                           	callstack 0
   552  000005                     convertReg2ExtendedCANid@tempRXBn_SIDL:
   553                           	callstack 0
   554  000005                     ___wmul@multiplicand:
   555                           	callstack 0
   556  000005                     ___awmod@divisor:
   557                           	callstack 0
   558                           
   559                           ; 2 bytes @ 0x4
   560  000005                     	ds	1
   561  000006                     ?_enterExitButtons:
   562                           	callstack 0
   563  000006                     LCD_set_pos@x:
   564                           	callstack 0
   565  000006                     enterExitButtons@latch:
   566                           	callstack 0
   567                           
   568                           ; 2 bytes @ 0x5
   569  000006                     	ds	1
   570  000007                     ??_convertReg2ExtendedCANid:
   571  000007                     ??_convertReg2StandardCANid:
   572  000007                     LCD_print@pos:
   573                           	callstack 0
   574  000007                     ___awmod@counter:
   575                           	callstack 0
   576  000007                     ___wmul@product:
   577                           	callstack 0
   578  000007                     ___expand_heap@n:
   579                           	callstack 0
   580                           
   581                           ; 2 bytes @ 0x6
   582  000007                     	ds	1
   583  000008                     ??_enterExitButtons:
   584  000008                     LCD_print@line:
   585                           	callstack 0
   586  000008                     ___awmod@sign:
   587                           	callstack 0
   588                           
   589                           ; 1 bytes @ 0x7
   590  000008                     	ds	1
   591  000009                     ?_updateEncoder:
   592                           	callstack 0
   593  000009                     LCD_print@x:
   594                           	callstack 0
   595  000009                     convertReg2StandardCANid@tempRXBn_SIDH:
   596                           	callstack 0
   597  000009                     updateEncoder@current:
   598                           	callstack 0
   599  000009                     ___expand_heap@new_brkp:
   600                           	callstack 0
   601  000009                     ___simple_search_fl@remaining_size:
   602                           	callstack 0
   603                           
   604                           ; 2 bytes @ 0x8
   605  000009                     	ds	1
   606  00000A                     LCD_print_string@str:
   607                           	callstack 0
   608  00000A                     convertReg2StandardCANid@returnValue:
   609                           	callstack 0
   610                           
   611                           ; 4 bytes @ 0x9
   612  00000A                     	ds	1
   613  00000B                     convertReg2ExtendedCANid@tempRXBn_EIDH:
   614                           	callstack 0
   615  00000B                     updateEncoder@last:
   616                           	callstack 0
   617  00000B                     ___simple_search_fl@best_last:
   618                           	callstack 0
   619                           
   620                           ; 2 bytes @ 0xA
   621  00000B                     	ds	1
   622  00000C                     LCD_print_string@pos:
   623                           	callstack 0
   624  00000C                     convertReg2ExtendedCANid@returnValue:
   625                           	callstack 0
   626                           
   627                           ; 4 bytes @ 0xB
   628  00000C                     	ds	1
   629  00000D                     LCD_print_string@line:
   630                           	callstack 0
   631  00000D                     updateEncoder@counter:
   632                           	callstack 0
   633  00000D                     ___simple_search_fl@split:
   634                           	callstack 0
   635                           
   636                           ; 2 bytes @ 0xC
   637  00000D                     	ds	1
   638  00000E                     ??_LCD_print_string:
   639  00000E                     convertReg2StandardCANid@ConvertedID:
   640                           	callstack 0
   641                           
   642                           ; 4 bytes @ 0xD
   643  00000E                     	ds	1
   644  00000F                     ??_updateEncoder:
   645  00000F                     ___simple_search_fl@last:
   646                           	callstack 0
   647                           
   648                           ; 2 bytes @ 0xE
   649  00000F                     	ds	1
   650  000010                     LCD_print_string@i:
   651                           	callstack 0
   652  000010                     convertReg2ExtendedCANid@CAN_standardLo_ID_lo2bits:
   653                           	callstack 0
   654                           
   655                           ; 1 bytes @ 0xF
   656  000010                     	ds	1
   657  000011                     ??_LCD_init:
   658  000011                     convertReg2ExtendedCANid@CAN_standardLo_ID_hi3bits:
   659                           	callstack 0
   660  000011                     ___simple_search_fl@next:
   661                           	callstack 0
   662                           
   663                           ; 2 bytes @ 0x10
   664  000011                     	ds	1
   665  000012                     convertReg2ExtendedCANid@ConvertedID:
   666                           	callstack 0
   667                           
   668                           ; 4 bytes @ 0x11
   669  000012                     	ds	1
   670  000013                     LCD_init@i:
   671                           	callstack 0
   672  000013                     updateEncoder@DT:
   673                           	callstack 0
   674  000013                     ___simple_search_fl@c:
   675                           	callstack 0
   676                           
   677                           ; 2 bytes @ 0x12
   678  000013                     	ds	2
   679  000015                     ___simple_search_fl@best:
   680                           	callstack 0
   681                           
   682                           ; 2 bytes @ 0x14
   683  000015                     	ds	1
   684  000016                     CAN_receive@tempCanMsg:
   685                           	callstack 0
   686                           
   687                           ; 2 bytes @ 0x15
   688  000016                     	ds	1
   689  000017                     ?_malloc:
   690                           	callstack 0
   691  000017                     malloc@n:
   692                           	callstack 0
   693                           
   694                           ; 2 bytes @ 0x16
   695  000017                     	ds	1
   696  000018                     CAN_receive@returnValue:
   697                           	callstack 0
   698                           
   699                           ; 1 bytes @ 0x17
   700  000018                     	ds	1
   701  000019                     ??_malloc:
   702                           
   703                           ; 1 bytes @ 0x18
   704  000019                     	ds	2
   705  00001B                     malloc@m:
   706                           	callstack 0
   707                           
   708                           ; 2 bytes @ 0x1A
   709  00001B                     	ds	2
   710  00001D                     malloc@sz:
   711                           	callstack 0
   712                           
   713                           ; 2 bytes @ 0x1C
   714  00001D                     	ds	2
   715  00001F                     malloc@p:
   716                           	callstack 0
   717                           
   718                           ; 2 bytes @ 0x1E
   719  00001F                     	ds	2
   720  000021                     malloc@new:
   721                           	callstack 0
   722                           
   723                           ; 2 bytes @ 0x20
   724  000021                     	ds	2
   725  000023                     ??_main:
   726                           
   727                           ; 1 bytes @ 0x22
   728  000023                     	ds	2
   729                           
   730 ;;
   731 ;;Main: autosize = 0, tempsize = 2, incstack = 0, save=0
   732 ;;
   733 ;; *************** function _main *****************
   734 ;; Defined at:
   735 ;;		line 8 in file "main.c"
   736 ;; Parameters:    Size  Location     Type
   737 ;;		None
   738 ;; Auto vars:     Size  Location     Type
   739 ;;  menu           60    0[BANK0 ] unsigned char [10][6]
   740 ;;  counter         2   70[BANK0 ] int 
   741 ;;  exitBTNPress    2   68[BANK0 ] int 
   742 ;;  latch           2   66[BANK0 ] int 
   743 ;;  prevState       2   64[BANK0 ] PTR int 
   744 ;;		 -> __heap_hi(0), RAM(3648), NULL(0), 
   745 ;;  currentState    2   62[BANK0 ] PTR int 
   746 ;;		 -> __heap_hi(0), RAM(3648), NULL(0), 
   747 ;;  lastCounter     2   60[BANK0 ] int 
   748 ;; Return value:  Size  Location     Type
   749 ;;                  1    wreg      void 
   750 ;; Registers used:
   751 ;;		wreg, fsr0l, fsr0h, fsr1l, fsr1h, fsr2l, fsr2h, status,2, status,0, tblptrl, tblptrh, tblptru, prodl, prodh, cstack
   752 ;; Tracked objects:
   753 ;;		On entry : 0/0
   754 ;;		On exit  : 0/0
   755 ;;		Unchanged: 0/0
   756 ;; Data sizes:     COMRAM   BANK0   BANK1   BANK2   BANK3   BANK4   BANK5   BANK6   BANK7   BANK8   BANK9  BANK10  BANK1
      +1  BANK12  BANK13  BANK14
   757 ;;      Params:         0       0       0       0       0       0       0       0       0       0       0       0       
      +0       0       0       0
   758 ;;      Locals:         0      72       0       0       0       0       0       0       0       0       0       0       
      +0       0       0       0
   759 ;;      Temps:          2       0       0       0       0       0       0       0       0       0       0       0       
      +0       0       0       0
   760 ;;      Totals:         2      72       0       0       0       0       0       0       0       0       0       0       
      +0       0       0       0
   761 ;;Total ram usage:       74 bytes
   762 ;; Hardware stack levels required when called: 9
   763 ;; This function calls:
   764 ;;		_CAN_receive
   765 ;;		_LCD_command
   766 ;;		_LCD_init
   767 ;;		_LCD_print_string
   768 ;;		_SYSTEM_Initialize
   769 ;;		___wmul
   770 ;;		_enterExitButtons
   771 ;;		_malloc
   772 ;;		_updateEncoder
   773 ;; This function is called by:
   774 ;;		Startup code after reset
   775 ;; This function uses a non-reentrant model
   776 ;;
   777                           
   778                           	psect	text0
   779  00118C                     __ptext0:
   780                           	callstack 0
   781  00118C                     _main:
   782                           	callstack 22
   783  00118C                     
   784                           ;main.c: 10:     SYSTEM_Initialize();
   785  00118C  EC9F  F010         	call	_SYSTEM_Initialize	;wreg free
   786  001190  848C               	bsf	140,2,c	;volatile
   787  001192                     
   788                           ;main.c: 14:     LCD_command(0x01);
   789  001192  0E01               	movlw	1
   790  001194  ECB1  F010         	call	_LCD_command
   791  001198                     
   792                           ;main.c: 16:     TRISD5 = 0;
   793  001198  9A95               	bcf	3989,5,c	;volatile
   794  00119A                     
   795                           ;main.c: 17:     TRISD6 = 0;
   796  00119A  9C95               	bcf	3989,6,c	;volatile
   797  00119C                     
   798                           ;main.c: 18:     TRISD7 = 0;
   799  00119C  9E95               	bcf	3989,7,c	;volatile
   800  00119E                     
   801                           ;main.c: 20:     TRISB = 0x00;
   802  00119E  0E00               	movlw	0
   803  0011A0  6E93               	movwf	147,c	;volatile
   804  0011A2                     
   805                           ;main.c: 22:     LATD6 = 0;
   806  0011A2  9C8C               	bcf	3980,6,c	;volatile
   807  0011A4                     
   808                           ;main.c: 23:     LATD5 = 0;
   809  0011A4  9A8C               	bcf	3980,5,c	;volatile
   810  0011A6                     
   811                           ;main.c: 24:     LATD7 = 0;
   812  0011A6  9E8C               	bcf	3980,7,c	;volatile
   813  0011A8                     
   814                           ;main.c: 26:     LATB = 0x00;
   815  0011A8  0E00               	movlw	0
   816  0011AA  6E8A               	movwf	138,c	;volatile
   817  0011AC                     
   818                           ;main.c: 28:     LCD_init();
   819  0011AC  EC0B  F00F         	call	_LCD_init	;wreg free
   820  0011B0                     
   821                           ;main.c: 30:     int latch = 0;
   822  0011B0  0E00               	movlw	0
   823  0011B2  0100               	movlb	0	; () banked
   824  0011B4  6FA3               	movwf	(main@latch+1)& (0+255),b
   825  0011B6  0E00               	movlw	0
   826  0011B8  6FA2               	movwf	main@latch& (0+255),b
   827  0011BA                     
   828                           ; BSR set to: 0
   829                           ;main.c: 32:     int* currentState = malloc(sizeof(int));
   830  0011BA  0E00               	movlw	0
   831  0011BC  6E18               	movwf	(malloc@n+1)^0,c
   832  0011BE  0E02               	movlw	2
   833  0011C0  6E17               	movwf	malloc@n^0,c
   834  0011C2  ECA4  F00C         	call	_malloc	;wreg free
   835  0011C6  C017  F09E         	movff	?_malloc,main@currentState
   836  0011CA  C018  F09F         	movff	?_malloc+1,main@currentState+1
   837  0011CE                     
   838                           ;main.c: 33:     int* prevState = malloc(sizeof(int));
   839  0011CE  0E00               	movlw	0
   840  0011D0  6E18               	movwf	(malloc@n+1)^0,c
   841  0011D2  0E02               	movlw	2
   842  0011D4  6E17               	movwf	malloc@n^0,c
   843  0011D6  ECA4  F00C         	call	_malloc	;wreg free
   844  0011DA  C017  F0A0         	movff	?_malloc,main@prevState
   845  0011DE  C018  F0A1         	movff	?_malloc+1,main@prevState+1
   846  0011E2                     
   847                           ;main.c: 34:     *currentState = PORTCbits.RC4;
   848  0011E2  B882               	btfsc	130,4,c	;volatile
   849  0011E4  EFF6  F008         	goto	u1311
   850  0011E8  EFF9  F008         	goto	u1310
   851  0011EC                     u1311:
   852  0011EC  0E01               	movlw	1
   853  0011EE  EFFA  F008         	goto	u1320
   854  0011F2                     u1310:
   855  0011F2  0E00               	movlw	0
   856  0011F4                     u1320:
   857  0011F4  6E23               	movwf	??_main^0,c
   858  0011F6  6A24               	clrf	(??_main+1)^0,c
   859  0011F8  C09E  FFD9         	movff	main@currentState,fsr2l
   860  0011FC  C09F  FFDA         	movff	main@currentState+1,fsr2h
   861  001200  C023  FFDE         	movff	??_main,postinc2
   862  001204  C024  FFDD         	movff	??_main+1,postdec2
   863  001208                     
   864                           ;main.c: 35:     *prevState = PORTCbits.RC4;
   865  001208  B882               	btfsc	130,4,c	;volatile
   866  00120A  EF09  F009         	goto	u1331
   867  00120E  EF0C  F009         	goto	u1330
   868  001212                     u1331:
   869  001212  0E01               	movlw	1
   870  001214  EF0D  F009         	goto	u1340
   871  001218                     u1330:
   872  001218  0E00               	movlw	0
   873  00121A                     u1340:
   874  00121A  6E23               	movwf	??_main^0,c
   875  00121C  6A24               	clrf	(??_main+1)^0,c
   876  00121E  C0A0  FFD9         	movff	main@prevState,fsr2l
   877  001222  C0A1  FFDA         	movff	main@prevState+1,fsr2h
   878  001226  C023  FFDE         	movff	??_main,postinc2
   879  00122A  C024  FFDD         	movff	??_main+1,postdec2
   880  00122E                     
   881                           ;main.c: 36:     int counter = 0;
   882  00122E  0E00               	movlw	0
   883  001230  0100               	movlb	0	; () banked
   884  001232  6FA7               	movwf	(main@counter+1)& (0+255),b
   885  001234  0E00               	movlw	0
   886  001236  6FA6               	movwf	main@counter& (0+255),b
   887  001238                     
   888                           ; BSR set to: 0
   889                           ;main.c: 39:     int exitBTNPressed = 1;
   890  001238  0E00               	movlw	0
   891  00123A  6FA5               	movwf	(main@exitBTNPressed+1)& (0+255),b
   892  00123C  0E01               	movlw	1
   893  00123E  6FA4               	movwf	main@exitBTNPressed& (0+255),b
   894  001240                     
   895                           ; BSR set to: 0
   896                           ;main.c: 41:     char menu[6][10] = {"Title 1","Reading 1","Title 2","Reading 2","Title 
      +                          3","Reading 3"};
   897  001240  EE20  F0A8         	lfsr	2,main@F12780
   898  001244  EE10  F060         	lfsr	1,main@menu
   899  001248  0E3B               	movlw	59
   900  00124A                     u1351:
   901  00124A  CFDB FFE3          	movff	plusw2,plusw1
   902  00124E  06E8               	decf	wreg,f,c
   903  001250  E2FC               	bc	u1351
   904  001252                     
   905                           ; BSR set to: 0
   906                           ;main.c: 46:     LCD_print_string(menu[0],0,0);
   907  001252  0E60               	movlw	low main@menu
   908  001254  6E0A               	movwf	LCD_print_string@str^0,c
   909  001256  0E00               	movlw	high main@menu
   910  001258  6E0B               	movwf	(LCD_print_string@str+1)^0,c
   911  00125A  0E00               	movlw	0
   912  00125C  6E0C               	movwf	LCD_print_string@pos^0,c
   913  00125E  0E00               	movlw	0
   914  001260  6E0D               	movwf	LCD_print_string@line^0,c
   915  001262  ECE3  F00D         	call	_LCD_print_string	;wreg free
   916  001266                     l2705:
   917                           
   918                           ;main.c: 49:     {;main.c: 50:         latch = enterExitButtons(latch);
   919  001266  C0A2  F006         	movff	main@latch,enterExitButtons@latch
   920  00126A  C0A3  F007         	movff	main@latch+1,enterExitButtons@latch+1
   921  00126E  EC5C  F00F         	call	_enterExitButtons	;wreg free
   922  001272  C006  F0A2         	movff	?_enterExitButtons,main@latch
   923  001276  C007  F0A3         	movff	?_enterExitButtons+1,main@latch+1
   924  00127A                     
   925                           ;main.c: 51:         lastCounter = counter;
   926  00127A  C0A6  F09C         	movff	main@counter,main@lastCounter
   927  00127E  C0A7  F09D         	movff	main@counter+1,main@lastCounter+1
   928  001282                     
   929                           ;main.c: 52:         counter = updateEncoder(currentState,prevState,counter);
   930  001282  C09E  F009         	movff	main@currentState,updateEncoder@current
   931  001286  C09F  F00A         	movff	main@currentState+1,updateEncoder@current+1
   932  00128A  C0A0  F00B         	movff	main@prevState,updateEncoder@last
   933  00128E  C0A1  F00C         	movff	main@prevState+1,updateEncoder@last+1
   934  001292  C0A6  F00D         	movff	main@counter,updateEncoder@counter
   935  001296  C0A7  F00E         	movff	main@counter+1,updateEncoder@counter+1
   936  00129A  ECFE  F00B         	call	_updateEncoder	;wreg free
   937  00129E  C009  F0A6         	movff	?_updateEncoder,main@counter
   938  0012A2  C00A  F0A7         	movff	?_updateEncoder+1,main@counter+1
   939  0012A6                     
   940                           ;main.c: 54:         if (latch == 1 && exitBTNPressed == 1){
   941  0012A6  0100               	movlb	0	; () banked
   942  0012A8  05A2               	decf	main@latch& (0+255),w,b
   943  0012AA  11A3               	iorwf	(main@latch+1)& (0+255),w,b
   944  0012AC  A4D8               	btfss	status,2,c
   945  0012AE  EF5B  F009         	goto	u1361
   946  0012B2  EF5D  F009         	goto	u1360
   947  0012B6                     u1361:
   948  0012B6  EF88  F009         	goto	l2723
   949  0012BA                     u1360:
   950  0012BA                     
   951                           ; BSR set to: 0
   952  0012BA  05A4               	decf	main@exitBTNPressed& (0+255),w,b
   953  0012BC  11A5               	iorwf	(main@exitBTNPressed+1)& (0+255),w,b
   954  0012BE  A4D8               	btfss	status,2,c
   955  0012C0  EF64  F009         	goto	u1371
   956  0012C4  EF66  F009         	goto	u1370
   957  0012C8                     u1371:
   958  0012C8  EF88  F009         	goto	l2723
   959  0012CC                     u1370:
   960  0012CC                     
   961                           ; BSR set to: 0
   962                           ;main.c: 55:             counter += 1;
   963  0012CC  4BA6               	infsnz	main@counter& (0+255),f,b
   964  0012CE  2BA7               	incf	(main@counter+1)& (0+255),f,b
   965  0012D0                     
   966                           ; BSR set to: 0
   967                           ;main.c: 56:             LCD_command(0x01);
   968  0012D0  0E01               	movlw	1
   969  0012D2  ECB1  F010         	call	_LCD_command
   970  0012D6                     
   971                           ;main.c: 58:             LCD_print_string(menu[counter],0,0);
   972  0012D6  C0A6  F003         	movff	main@counter,___wmul@multiplier
   973  0012DA  C0A7  F004         	movff	main@counter+1,___wmul@multiplier+1
   974  0012DE  0E00               	movlw	0
   975  0012E0  6E06               	movwf	(___wmul@multiplicand+1)^0,c
   976  0012E2  0E0A               	movlw	10
   977  0012E4  6E05               	movwf	___wmul@multiplicand^0,c
   978  0012E6  EC3B  F010         	call	___wmul	;wreg free
   979  0012EA  0E60               	movlw	low main@menu
   980  0012EC  2403               	addwf	?___wmul^0,w,c
   981  0012EE  6E0A               	movwf	LCD_print_string@str^0,c
   982  0012F0  0E00               	movlw	high main@menu
   983  0012F2  2004               	addwfc	(?___wmul+1)^0,w,c
   984  0012F4  6E0B               	movwf	(LCD_print_string@str+1)^0,c
   985  0012F6  0E00               	movlw	0
   986  0012F8  6E0C               	movwf	LCD_print_string@pos^0,c
   987  0012FA  0E00               	movlw	0
   988  0012FC  6E0D               	movwf	LCD_print_string@line^0,c
   989  0012FE  ECE3  F00D         	call	_LCD_print_string	;wreg free
   990  001302                     
   991                           ;main.c: 59:             exitBTNPressed = 0;
   992  001302  0E00               	movlw	0
   993  001304  0100               	movlb	0	; () banked
   994  001306  6FA5               	movwf	(main@exitBTNPressed+1)& (0+255),b
   995  001308  0E00               	movlw	0
   996  00130A  6FA4               	movwf	main@exitBTNPressed& (0+255),b
   997                           
   998                           ;main.c: 61:         }
   999  00130C  EFE8  F009         	goto	l2741
  1000  001310                     l2723:
  1001                           
  1002                           ; BSR set to: 0
  1003  001310  51A2               	movf	main@latch& (0+255),w,b
  1004  001312  11A3               	iorwf	(main@latch+1)& (0+255),w,b
  1005  001314  A4D8               	btfss	status,2,c
  1006  001316  EF8F  F009         	goto	u1381
  1007  00131A  EF91  F009         	goto	u1380
  1008  00131E                     u1381:
  1009  00131E  EFBD  F009         	goto	l2735
  1010  001322                     u1380:
  1011  001322                     
  1012                           ; BSR set to: 0
  1013  001322  51A4               	movf	main@exitBTNPressed& (0+255),w,b
  1014  001324  11A5               	iorwf	(main@exitBTNPressed+1)& (0+255),w,b
  1015  001326  A4D8               	btfss	status,2,c
  1016  001328  EF98  F009         	goto	u1391
  1017  00132C  EF9A  F009         	goto	u1390
  1018  001330                     u1391:
  1019  001330  EFBD  F009         	goto	l2735
  1020  001334                     u1390:
  1021  001334                     
  1022                           ; BSR set to: 0
  1023                           ;main.c: 64:             counter -= 1;
  1024  001334  07A6               	decf	main@counter& (0+255),f,b
  1025  001336  A0D8               	btfss	status,0,c
  1026  001338  07A7               	decf	(main@counter+1)& (0+255),f,b
  1027  00133A                     
  1028                           ; BSR set to: 0
  1029                           ;main.c: 65:             LCD_command(0x01);
  1030  00133A  0E01               	movlw	1
  1031  00133C  ECB1  F010         	call	_LCD_command
  1032  001340                     
  1033                           ;main.c: 67:             LCD_print_string(menu[counter],0,0);
  1034  001340  C0A6  F003         	movff	main@counter,___wmul@multiplier
  1035  001344  C0A7  F004         	movff	main@counter+1,___wmul@multiplier+1
  1036  001348  0E00               	movlw	0
  1037  00134A  6E06               	movwf	(___wmul@multiplicand+1)^0,c
  1038  00134C  0E0A               	movlw	10
  1039  00134E  6E05               	movwf	___wmul@multiplicand^0,c
  1040  001350  EC3B  F010         	call	___wmul	;wreg free
  1041  001354  0E60               	movlw	low main@menu
  1042  001356  2403               	addwf	?___wmul^0,w,c
  1043  001358  6E0A               	movwf	LCD_print_string@str^0,c
  1044  00135A  0E00               	movlw	high main@menu
  1045  00135C  2004               	addwfc	(?___wmul+1)^0,w,c
  1046  00135E  6E0B               	movwf	(LCD_print_string@str+1)^0,c
  1047  001360  0E00               	movlw	0
  1048  001362  6E0C               	movwf	LCD_print_string@pos^0,c
  1049  001364  0E00               	movlw	0
  1050  001366  6E0D               	movwf	LCD_print_string@line^0,c
  1051  001368  ECE3  F00D         	call	_LCD_print_string	;wreg free
  1052  00136C                     
  1053                           ;main.c: 68:             exitBTNPressed = 1;
  1054  00136C  0E00               	movlw	0
  1055  00136E  0100               	movlb	0	; () banked
  1056  001370  6FA5               	movwf	(main@exitBTNPressed+1)& (0+255),b
  1057  001372  0E01               	movlw	1
  1058  001374  6FA4               	movwf	main@exitBTNPressed& (0+255),b
  1059                           
  1060                           ;main.c: 69:         }
  1061  001376  EFE8  F009         	goto	l2741
  1062  00137A                     l2735:
  1063                           
  1064                           ; BSR set to: 0
  1065  00137A  51A6               	movf	main@counter& (0+255),w,b
  1066  00137C  199C               	xorwf	main@lastCounter& (0+255),w,b
  1067  00137E  E109               	bnz	u1400
  1068  001380  51A7               	movf	(main@counter+1)& (0+255),w,b
  1069  001382  199D               	xorwf	(main@lastCounter+1)& (0+255),w,b
  1070  001384  B4D8               	btfsc	status,2,c
  1071  001386  EFC7  F009         	goto	u1401
  1072  00138A  EFC9  F009         	goto	u1400
  1073  00138E                     u1401:
  1074  00138E  EFE8  F009         	goto	l2741
  1075  001392                     u1400:
  1076  001392                     
  1077                           ; BSR set to: 0
  1078  001392  05A4               	decf	main@exitBTNPressed& (0+255),w,b
  1079  001394  11A5               	iorwf	(main@exitBTNPressed+1)& (0+255),w,b
  1080  001396  A4D8               	btfss	status,2,c
  1081  001398  EFD0  F009         	goto	u1411
  1082  00139C  EFD2  F009         	goto	u1410
  1083  0013A0                     u1411:
  1084  0013A0  EFE8  F009         	goto	l2741
  1085  0013A4                     u1410:
  1086  0013A4                     
  1087                           ; BSR set to: 0
  1088                           ;main.c: 72:             LCD_print_string(menu[counter],0,0);
  1089  0013A4  C0A6  F003         	movff	main@counter,___wmul@multiplier
  1090  0013A8  C0A7  F004         	movff	main@counter+1,___wmul@multiplier+1
  1091  0013AC  0E00               	movlw	0
  1092  0013AE  6E06               	movwf	(___wmul@multiplicand+1)^0,c
  1093  0013B0  0E0A               	movlw	10
  1094  0013B2  6E05               	movwf	___wmul@multiplicand^0,c
  1095  0013B4  EC3B  F010         	call	___wmul	;wreg free
  1096  0013B8  0E60               	movlw	low main@menu
  1097  0013BA  2403               	addwf	?___wmul^0,w,c
  1098  0013BC  6E0A               	movwf	LCD_print_string@str^0,c
  1099  0013BE  0E00               	movlw	high main@menu
  1100  0013C0  2004               	addwfc	(?___wmul+1)^0,w,c
  1101  0013C2  6E0B               	movwf	(LCD_print_string@str+1)^0,c
  1102  0013C4  0E00               	movlw	0
  1103  0013C6  6E0C               	movwf	LCD_print_string@pos^0,c
  1104  0013C8  0E00               	movlw	0
  1105  0013CA  6E0D               	movwf	LCD_print_string@line^0,c
  1106  0013CC  ECE3  F00D         	call	_LCD_print_string	;wreg free
  1107  0013D0                     l2741:
  1108                           
  1109                           ;main.c: 75:         if(CAN_receive(&rx)){
  1110  0013D0  0EE4               	movlw	low _rx
  1111  0013D2  6E16               	movwf	CAN_receive@tempCanMsg^0,c
  1112  0013D4  0E00               	movlw	high _rx
  1113  0013D6  6E17               	movwf	(CAN_receive@tempCanMsg+1)^0,c
  1114  0013D8  EC02  F00A         	call	_CAN_receive	;wreg free
  1115  0013DC  0900               	iorlw	0
  1116  0013DE  B4D8               	btfsc	status,2,c
  1117  0013E0  EFF4  F009         	goto	u1421
  1118  0013E4  EFF6  F009         	goto	u1420
  1119  0013E8                     u1421:
  1120  0013E8  EF33  F009         	goto	l2705
  1121  0013EC                     u1420:
  1122  0013EC                     
  1123                           ;main.c: 77:             _delay((unsigned long)((1)*(20000000/4000.0)));
  1124  0013EC  0E07               	movlw	7
  1125  0013EE  6E23               	movwf	??_main^0,c
  1126  0013F0  0E7D               	movlw	125
  1127  0013F2                     u1437:
  1128  0013F2  2EE8               	decfsz	wreg,f,c
  1129  0013F4  D7FE               	bra	u1437
  1130  0013F6  2E23               	decfsz	??_main^0,f,c
  1131  0013F8  D7FC               	bra	u1437
  1132  0013FA  F000               	nop	
  1133  0013FC  EF33  F009         	goto	l2705
  1134  001400  EF26  F000         	goto	start
  1135  001404                     __end_of_main:
  1136                           	callstack 0
  1137                           
  1138 ;; *************** function _updateEncoder *****************
  1139 ;; Defined at:
  1140 ;;		line 29 in file "button_functionality.c"
  1141 ;; Parameters:    Size  Location     Type
  1142 ;;  current         2    8[COMRAM] PTR int 
  1143 ;;		 -> __heap_hi(0), RAM(3648), NULL(0), 
  1144 ;;  last            2   10[COMRAM] PTR int 
  1145 ;;		 -> __heap_hi(0), RAM(3648), NULL(0), 
  1146 ;;  counter         2   12[COMRAM] int 
  1147 ;; Auto vars:     Size  Location     Type
  1148 ;;  DT              2   18[COMRAM] int 
  1149 ;; Return value:  Size  Location     Type
  1150 ;;                  2    8[COMRAM] int 
  1151 ;; Registers used:
  1152 ;;		wreg, fsr1l, fsr1h, fsr2l, fsr2h, status,2, status,0, cstack
  1153 ;; Tracked objects:
  1154 ;;		On entry : 0/0
  1155 ;;		On exit  : 0/0
  1156 ;;		Unchanged: 0/0
  1157 ;; Data sizes:     COMRAM   BANK0   BANK1   BANK2   BANK3   BANK4   BANK5   BANK6   BANK7   BANK8   BANK9  BANK10  BANK1
      +1  BANK12  BANK13  BANK14
  1158 ;;      Params:         6       0       0       0       0       0       0       0       0       0       0       0       
      +0       0       0       0
  1159 ;;      Locals:         2       0       0       0       0       0       0       0       0       0       0       0       
      +0       0       0       0
  1160 ;;      Temps:          4       0       0       0       0       0       0       0       0       0       0       0       
      +0       0       0       0
  1161 ;;      Totals:        12       0       0       0       0       0       0       0       0       0       0       0       
      +0       0       0       0
  1162 ;;Total ram usage:       12 bytes
  1163 ;; Hardware stack levels used: 1
  1164 ;; Hardware stack levels required when called: 4
  1165 ;; This function calls:
  1166 ;;		___awmod
  1167 ;; This function is called by:
  1168 ;;		_main
  1169 ;; This function uses a non-reentrant model
  1170 ;;
  1171                           
  1172                           	psect	text1
  1173  0017FC                     __ptext1:
  1174                           	callstack 0
  1175  0017FC                     _updateEncoder:
  1176                           	callstack 26
  1177  0017FC                     
  1178                           ;button_functionality.c: 30:     if (counter%2 == 0){
  1179  0017FC  B00D               	btfsc	updateEncoder@counter^0,0,c
  1180  0017FE  EF03  F00C         	goto	u1191
  1181  001802  EF05  F00C         	goto	u1190
  1182  001806                     u1191:
  1183  001806  EF9F  F00C         	goto	l2579
  1184  00180A                     u1190:
  1185  00180A                     
  1186                           ;button_functionality.c: 31:         *current = PORTCbits.RC4;
  1187  00180A  B882               	btfsc	130,4,c	;volatile
  1188  00180C  EF0A  F00C         	goto	u1201
  1189  001810  EF0D  F00C         	goto	u1200
  1190  001814                     u1201:
  1191  001814  0E01               	movlw	1
  1192  001816  EF0E  F00C         	goto	u1210
  1193  00181A                     u1200:
  1194  00181A  0E00               	movlw	0
  1195  00181C                     u1210:
  1196  00181C  6E0F               	movwf	??_updateEncoder^0,c
  1197  00181E  6A10               	clrf	(??_updateEncoder+1)^0,c
  1198  001820  C009  FFD9         	movff	updateEncoder@current,fsr2l
  1199  001824  C00A  FFDA         	movff	updateEncoder@current+1,fsr2h
  1200  001828  C00F  FFDE         	movff	??_updateEncoder,postinc2
  1201  00182C  C010  FFDD         	movff	??_updateEncoder+1,postdec2
  1202  001830                     
  1203                           ;button_functionality.c: 32:         int DT = PORTCbits.RC5;
  1204  001830  BA82               	btfsc	130,5,c	;volatile
  1205  001832  EF1D  F00C         	goto	u1221
  1206  001836  EF21  F00C         	goto	u1220
  1207  00183A                     u1221:
  1208  00183A  6A0F               	clrf	??_updateEncoder^0,c
  1209  00183C  2A0F               	incf	??_updateEncoder^0,f,c
  1210  00183E  EF22  F00C         	goto	u1228
  1211  001842                     u1220:
  1212  001842  6A0F               	clrf	??_updateEncoder^0,c
  1213  001844                     u1228:
  1214  001844  500F               	movf	??_updateEncoder^0,w,c
  1215  001846  6E13               	movwf	updateEncoder@DT^0,c
  1216  001848  6A14               	clrf	(updateEncoder@DT+1)^0,c
  1217  00184A                     
  1218                           ;button_functionality.c: 33:         if (*current != *last && *current == 1){
  1219  00184A  C00B  FFD9         	movff	updateEncoder@last,fsr2l
  1220  00184E  C00C  FFDA         	movff	updateEncoder@last+1,fsr2h
  1221  001852  C009  FFE1         	movff	updateEncoder@current,fsr1l
  1222  001856  C00A  FFE2         	movff	updateEncoder@current+1,fsr1h
  1223  00185A  50DE               	movf	postinc2,w,c
  1224  00185C  18E6               	xorwf	postinc1,w,c
  1225  00185E  E109               	bnz	u1230
  1226  001860  50DE               	movf	postinc2,w,c
  1227  001862  18E6               	xorwf	postinc1,w,c
  1228  001864  B4D8               	btfsc	status,2,c
  1229  001866  EF37  F00C         	goto	u1231
  1230  00186A  EF39  F00C         	goto	u1230
  1231  00186E                     u1231:
  1232  00186E  EF8B  F00C         	goto	l2575
  1233  001872                     u1230:
  1234  001872  C009  FFD9         	movff	updateEncoder@current,fsr2l
  1235  001876  C00A  FFDA         	movff	updateEncoder@current+1,fsr2h
  1236  00187A  04DE               	decf	postinc2,w,c
  1237  00187C  10DE               	iorwf	postinc2,w,c
  1238  00187E  A4D8               	btfss	status,2,c
  1239  001880  EF44  F00C         	goto	u1241
  1240  001884  EF46  F00C         	goto	u1240
  1241  001888                     u1241:
  1242  001888  EF8B  F00C         	goto	l2575
  1243  00188C                     u1240:
  1244  00188C                     
  1245                           ;button_functionality.c: 34:             if (DT != *current){
  1246  00188C  C009  FFD9         	movff	updateEncoder@current,fsr2l
  1247  001890  C00A  FFDA         	movff	updateEncoder@current+1,fsr2h
  1248  001894  5013               	movf	updateEncoder@DT^0,w,c
  1249  001896  18DE               	xorwf	postinc2,w,c
  1250  001898  E109               	bnz	u1250
  1251  00189A  5014               	movf	(updateEncoder@DT+1)^0,w,c
  1252  00189C  18DE               	xorwf	postinc2,w,c
  1253  00189E  B4D8               	btfsc	status,2,c
  1254  0018A0  EF54  F00C         	goto	u1251
  1255  0018A4  EF56  F00C         	goto	u1250
  1256  0018A8                     u1251:
  1257  0018A8  EF5C  F00C         	goto	l2567
  1258  0018AC                     u1250:
  1259  0018AC                     
  1260                           ;button_functionality.c: 35:                 counter += 2;
  1261  0018AC  0E02               	movlw	2
  1262  0018AE  260D               	addwf	updateEncoder@counter^0,f,c
  1263  0018B0  0E00               	movlw	0
  1264  0018B2  220E               	addwfc	(updateEncoder@counter+1)^0,f,c
  1265                           
  1266                           ;button_functionality.c: 36:             }
  1267  0018B4  EF7D  F00C         	goto	l2573
  1268  0018B8                     l2567:
  1269                           
  1270                           ;button_functionality.c: 38:                 if (counter - 2 == -2){
  1271  0018B8  0EFE               	movlw	254
  1272  0018BA  6E0F               	movwf	??_updateEncoder^0,c
  1273  0018BC  0EFF               	movlw	255
  1274  0018BE  6E10               	movwf	(??_updateEncoder+1)^0,c
  1275  0018C0  C00D  F011         	movff	updateEncoder@counter,??_updateEncoder+2
  1276  0018C4  C00E  F012         	movff	updateEncoder@counter+1,??_updateEncoder+3
  1277  0018C8  500F               	movf	??_updateEncoder^0,w,c
  1278  0018CA  2611               	addwf	(??_updateEncoder+2)^0,f,c
  1279  0018CC  5010               	movf	(??_updateEncoder+1)^0,w,c
  1280  0018CE  2212               	addwfc	(??_updateEncoder+3)^0,f,c
  1281  0018D0  0EFE               	movlw	254
  1282  0018D2  1811               	xorwf	(??_updateEncoder+2)^0,w,c
  1283  0018D4  E106               	bnz	u1261
  1284  0018D6  2812               	incf	(??_updateEncoder+3)^0,w,c
  1285  0018D8  A4D8               	btfss	status,2,c
  1286  0018DA  EF71  F00C         	goto	u1261
  1287  0018DE  EF73  F00C         	goto	u1260
  1288  0018E2                     u1261:
  1289  0018E2  EF79  F00C         	goto	l2571
  1290  0018E6                     u1260:
  1291  0018E6                     
  1292                           ;button_functionality.c: 39:                     counter = 4;
  1293  0018E6  0E00               	movlw	0
  1294  0018E8  6E0E               	movwf	(updateEncoder@counter+1)^0,c
  1295  0018EA  0E04               	movlw	4
  1296  0018EC  6E0D               	movwf	updateEncoder@counter^0,c
  1297                           
  1298                           ;button_functionality.c: 40:                 }
  1299  0018EE  EF7D  F00C         	goto	l2573
  1300  0018F2                     l2571:
  1301                           
  1302                           ;button_functionality.c: 42:                     counter -= 2;
  1303  0018F2  0EFE               	movlw	254
  1304  0018F4  260D               	addwf	updateEncoder@counter^0,f,c
  1305  0018F6  0EFF               	movlw	255
  1306  0018F8  220E               	addwfc	(updateEncoder@counter+1)^0,f,c
  1307  0018FA                     l2573:
  1308                           
  1309                           ;button_functionality.c: 45:             counter = counter%6;
  1310  0018FA  C00D  F003         	movff	updateEncoder@counter,___awmod@dividend
  1311  0018FE  C00E  F004         	movff	updateEncoder@counter+1,___awmod@dividend+1
  1312  001902  0E00               	movlw	0
  1313  001904  6E06               	movwf	(___awmod@divisor+1)^0,c
  1314  001906  0E06               	movlw	6
  1315  001908  6E05               	movwf	___awmod@divisor^0,c
  1316  00190A  EC5C  F00E         	call	___awmod	;wreg free
  1317  00190E  C003  F00D         	movff	?___awmod,updateEncoder@counter
  1318  001912  C004  F00E         	movff	?___awmod+1,updateEncoder@counter+1
  1319  001916                     l2575:
  1320                           
  1321                           ;button_functionality.c: 48:         *last = *current;
  1322  001916  C009  FFD9         	movff	updateEncoder@current,fsr2l
  1323  00191A  C00A  FFDA         	movff	updateEncoder@current+1,fsr2h
  1324  00191E  C00B  FFE1         	movff	updateEncoder@last,fsr1l
  1325  001922  C00C  FFE2         	movff	updateEncoder@last+1,fsr1h
  1326  001926  CFDE FFE6          	movff	postinc2,postinc1
  1327  00192A  CFDD FFE5          	movff	postdec2,postdec1
  1328  00192E                     
  1329                           ;button_functionality.c: 49:         _delay((unsigned long)((1)*(20000000/4000.0)));
  1330  00192E  0E07               	movlw	7
  1331  001930  6E0F               	movwf	??_updateEncoder^0,c
  1332  001932  0E7D               	movlw	125
  1333  001934                     u1447:
  1334  001934  2EE8               	decfsz	wreg,f,c
  1335  001936  D7FE               	bra	u1447
  1336  001938  2E0F               	decfsz	??_updateEncoder^0,f,c
  1337  00193A  D7FC               	bra	u1447
  1338  00193C  F000               	nop	
  1339  00193E                     l2579:
  1340                           
  1341                           ;button_functionality.c: 51:     return counter;
  1342  00193E  C00D  F009         	movff	updateEncoder@counter,?_updateEncoder
  1343  001942  C00E  F00A         	movff	updateEncoder@counter+1,?_updateEncoder+1
  1344  001946  0012               	return		;funcret
  1345  001948                     __end_of_updateEncoder:
  1346                           	callstack 0
  1347                           
  1348 ;; *************** function ___awmod *****************
  1349 ;; Defined at:
  1350 ;;		line 7 in file "C:\Program Files\Microchip\xc8\v2.36\pic\sources\c99\common\awmod.c"
  1351 ;; Parameters:    Size  Location     Type
  1352 ;;  dividend        2    2[COMRAM] int 
  1353 ;;  divisor         2    4[COMRAM] int 
  1354 ;; Auto vars:     Size  Location     Type
  1355 ;;  sign            1    7[COMRAM] unsigned char 
  1356 ;;  counter         1    6[COMRAM] unsigned char 
  1357 ;; Return value:  Size  Location     Type
  1358 ;;                  2    2[COMRAM] int 
  1359 ;; Registers used:
  1360 ;;		wreg, status,2, status,0
  1361 ;; Tracked objects:
  1362 ;;		On entry : 0/0
  1363 ;;		On exit  : 0/0
  1364 ;;		Unchanged: 0/0
  1365 ;; Data sizes:     COMRAM   BANK0   BANK1   BANK2   BANK3   BANK4   BANK5   BANK6   BANK7   BANK8   BANK9  BANK10  BANK1
      +1  BANK12  BANK13  BANK14
  1366 ;;      Params:         4       0       0       0       0       0       0       0       0       0       0       0       
      +0       0       0       0
  1367 ;;      Locals:         2       0       0       0       0       0       0       0       0       0       0       0       
      +0       0       0       0
  1368 ;;      Temps:          0       0       0       0       0       0       0       0       0       0       0       0       
      +0       0       0       0
  1369 ;;      Totals:         6       0       0       0       0       0       0       0       0       0       0       0       
      +0       0       0       0
  1370 ;;Total ram usage:        6 bytes
  1371 ;; Hardware stack levels used: 1
  1372 ;; Hardware stack levels required when called: 3
  1373 ;; This function calls:
  1374 ;;		Nothing
  1375 ;; This function is called by:
  1376 ;;		_updateEncoder
  1377 ;; This function uses a non-reentrant model
  1378 ;;
  1379                           
  1380                           	psect	text2
  1381  001CB8                     __ptext2:
  1382                           	callstack 0
  1383  001CB8                     ___awmod:
  1384                           	callstack 26
  1385  001CB8  0E00               	movlw	0
  1386  001CBA  6E08               	movwf	___awmod@sign^0,c
  1387  001CBC  BE04               	btfsc	(___awmod@dividend+1)^0,7,c
  1388  001CBE  EF65  F00E         	goto	u920
  1389  001CC2  EF63  F00E         	goto	u921
  1390  001CC6                     u921:
  1391  001CC6  EF6B  F00E         	goto	l2321
  1392  001CCA                     u920:
  1393  001CCA  6C03               	negf	___awmod@dividend^0,c
  1394  001CCC  1E04               	comf	(___awmod@dividend+1)^0,f,c
  1395  001CCE  B0D8               	btfsc	status,0,c
  1396  001CD0  2A04               	incf	(___awmod@dividend+1)^0,f,c
  1397  001CD2  0E01               	movlw	1
  1398  001CD4  6E08               	movwf	___awmod@sign^0,c
  1399  001CD6                     l2321:
  1400  001CD6  BE06               	btfsc	(___awmod@divisor+1)^0,7,c
  1401  001CD8  EF72  F00E         	goto	u930
  1402  001CDC  EF70  F00E         	goto	u931
  1403  001CE0                     u931:
  1404  001CE0  EF76  F00E         	goto	l2325
  1405  001CE4                     u930:
  1406  001CE4  6C05               	negf	___awmod@divisor^0,c
  1407  001CE6  1E06               	comf	(___awmod@divisor+1)^0,f,c
  1408  001CE8  B0D8               	btfsc	status,0,c
  1409  001CEA  2A06               	incf	(___awmod@divisor+1)^0,f,c
  1410  001CEC                     l2325:
  1411  001CEC  5005               	movf	___awmod@divisor^0,w,c
  1412  001CEE  1006               	iorwf	(___awmod@divisor+1)^0,w,c
  1413  001CF0  B4D8               	btfsc	status,2,c
  1414  001CF2  EF7D  F00E         	goto	u941
  1415  001CF6  EF7F  F00E         	goto	u940
  1416  001CFA                     u941:
  1417  001CFA  EFA3  F00E         	goto	l2341
  1418  001CFE                     u940:
  1419  001CFE  0E01               	movlw	1
  1420  001D00  6E07               	movwf	___awmod@counter^0,c
  1421  001D02  EF87  F00E         	goto	l2331
  1422  001D06                     l2329:
  1423  001D06  90D8               	bcf	status,0,c
  1424  001D08  3605               	rlcf	___awmod@divisor^0,f,c
  1425  001D0A  3606               	rlcf	(___awmod@divisor+1)^0,f,c
  1426  001D0C  2A07               	incf	___awmod@counter^0,f,c
  1427  001D0E                     l2331:
  1428  001D0E  AE06               	btfss	(___awmod@divisor+1)^0,7,c
  1429  001D10  EF8C  F00E         	goto	u951
  1430  001D14  EF8E  F00E         	goto	u950
  1431  001D18                     u951:
  1432  001D18  EF83  F00E         	goto	l2329
  1433  001D1C                     u950:
  1434  001D1C                     l2333:
  1435  001D1C  5005               	movf	___awmod@divisor^0,w,c
  1436  001D1E  5C03               	subwf	___awmod@dividend^0,w,c
  1437  001D20  5006               	movf	(___awmod@divisor+1)^0,w,c
  1438  001D22  5804               	subwfb	(___awmod@dividend+1)^0,w,c
  1439  001D24  A0D8               	btfss	status,0,c
  1440  001D26  EF97  F00E         	goto	u961
  1441  001D2A  EF99  F00E         	goto	u960
  1442  001D2E                     u961:
  1443  001D2E  EF9D  F00E         	goto	l2337
  1444  001D32                     u960:
  1445  001D32  5005               	movf	___awmod@divisor^0,w,c
  1446  001D34  5E03               	subwf	___awmod@dividend^0,f,c
  1447  001D36  5006               	movf	(___awmod@divisor+1)^0,w,c
  1448  001D38  5A04               	subwfb	(___awmod@dividend+1)^0,f,c
  1449  001D3A                     l2337:
  1450  001D3A  90D8               	bcf	status,0,c
  1451  001D3C  3206               	rrcf	(___awmod@divisor+1)^0,f,c
  1452  001D3E  3205               	rrcf	___awmod@divisor^0,f,c
  1453  001D40  2E07               	decfsz	___awmod@counter^0,f,c
  1454  001D42  EF8E  F00E         	goto	l2333
  1455  001D46                     l2341:
  1456  001D46  5008               	movf	___awmod@sign^0,w,c
  1457  001D48  B4D8               	btfsc	status,2,c
  1458  001D4A  EFA9  F00E         	goto	u971
  1459  001D4E  EFAB  F00E         	goto	u970
  1460  001D52                     u971:
  1461  001D52  EFAF  F00E         	goto	l2345
  1462  001D56                     u970:
  1463  001D56  6C03               	negf	___awmod@dividend^0,c
  1464  001D58  1E04               	comf	(___awmod@dividend+1)^0,f,c
  1465  001D5A  B0D8               	btfsc	status,0,c
  1466  001D5C  2A04               	incf	(___awmod@dividend+1)^0,f,c
  1467  001D5E                     l2345:
  1468  001D5E  C003  F003         	movff	___awmod@dividend,?___awmod
  1469  001D62  C004  F004         	movff	___awmod@dividend+1,?___awmod+1
  1470  001D66  0012               	return		;funcret
  1471  001D68                     __end_of___awmod:
  1472                           	callstack 0
  1473                           
  1474 ;; *************** function _malloc *****************
  1475 ;; Defined at:
  1476 ;;		line 16 in file "C:\Program Files\Microchip\xc8\v2.36\pic\sources\c99\common\lite_malloc.c"
  1477 ;; Parameters:    Size  Location     Type
  1478 ;;  n               2   22[COMRAM] unsigned int 
  1479 ;; Auto vars:     Size  Location     Type
  1480 ;;  sz              2   28[COMRAM] PTR unsigned int 
  1481 ;;		 -> __heap_hi(0), RAM(3648), NULL(0), 
  1482 ;;  new             2   32[COMRAM] PTR unsigned char 
  1483 ;;		 -> __heap_hi(0), RAM(3648), NULL(0), 
  1484 ;;  m               2   26[COMRAM] unsigned int 
  1485 ;;  p               2   30[COMRAM] PTR void 
  1486 ;;		 -> __heap_hi(0), RAM(3648), NULL(0), 
  1487 ;;  size            2    0        unsigned int 
  1488 ;; Return value:  Size  Location     Type
  1489 ;;                  2   22[COMRAM] PTR void 
  1490 ;; Registers used:
  1491 ;;		wreg, fsr1l, fsr1h, fsr2l, fsr2h, status,2, status,0, cstack
  1492 ;; Tracked objects:
  1493 ;;		On entry : 0/0
  1494 ;;		On exit  : 0/0
  1495 ;;		Unchanged: 0/0
  1496 ;; Data sizes:     COMRAM   BANK0   BANK1   BANK2   BANK3   BANK4   BANK5   BANK6   BANK7   BANK8   BANK9  BANK10  BANK1
      +1  BANK12  BANK13  BANK14
  1497 ;;      Params:         2       0       0       0       0       0       0       0       0       0       0       0       
      +0       0       0       0
  1498 ;;      Locals:         8       0       0       0       0       0       0       0       0       0       0       0       
      +0       0       0       0
  1499 ;;      Temps:          2       0       0       0       0       0       0       0       0       0       0       0       
      +0       0       0       0
  1500 ;;      Totals:        12       0       0       0       0       0       0       0       0       0       0       0       
      +0       0       0       0
  1501 ;;Total ram usage:       12 bytes
  1502 ;; Hardware stack levels used: 1
  1503 ;; Hardware stack levels required when called: 4
  1504 ;; This function calls:
  1505 ;;		___expand_heap
  1506 ;;		___simple_search_fl
  1507 ;; This function is called by:
  1508 ;;		_main
  1509 ;; This function uses a non-reentrant model
  1510 ;;
  1511                           
  1512                           	psect	text3
  1513  001948                     __ptext3:
  1514                           	callstack 0
  1515  001948                     _malloc:
  1516                           	callstack 26
  1517  001948  5017               	movf	malloc@n^0,w,c
  1518  00194A  1018               	iorwf	(malloc@n+1)^0,w,c
  1519  00194C  A4D8               	btfss	status,2,c
  1520  00194E  EFAB  F00C         	goto	u1131
  1521  001952  EFAD  F00C         	goto	u1130
  1522  001956                     u1131:
  1523  001956  EFAF  F00C         	goto	l2483
  1524  00195A                     u1130:
  1525  00195A  4A17               	infsnz	malloc@n^0,f,c
  1526  00195C  2A18               	incf	(malloc@n+1)^0,f,c
  1527  00195E                     l2483:
  1528  00195E  C031  F031         	movff	malloc@cur,malloc@cur
  1529  001962  C032  F032         	movff	malloc@cur+1,malloc@cur+1
  1530  001966  5018               	movf	(malloc@n+1)^0,w,c
  1531  001968  E107               	bnz	u1141
  1532  00196A  0E04               	movlw	4
  1533  00196C  5C17               	subwf	malloc@n^0,w,c
  1534  00196E  B0D8               	btfsc	status,0,c
  1535  001970  EFBC  F00C         	goto	u1141
  1536  001974  EFBE  F00C         	goto	u1140
  1537  001978                     u1141:
  1538  001978  EFC2  F00C         	goto	l2491
  1539  00197C                     u1140:
  1540  00197C  0E00               	movlw	0
  1541  00197E  6E18               	movwf	(malloc@n+1)^0,c
  1542  001980  0E04               	movlw	4
  1543  001982  6E17               	movwf	malloc@n^0,c
  1544  001984                     l2491:
  1545  001984  C017  F003         	movff	malloc@n,___simple_search_fl@n
  1546  001988  C018  F004         	movff	malloc@n+1,___simple_search_fl@n+1
  1547  00198C  EC89  F007         	call	___simple_search_fl	;wreg free
  1548  001990  C003  F01F         	movff	?___simple_search_fl,malloc@p
  1549  001994  C004  F020         	movff	?___simple_search_fl+1,malloc@p+1
  1550  001998  501F               	movf	malloc@p^0,w,c
  1551  00199A  1020               	iorwf	(malloc@p+1)^0,w,c
  1552  00199C  A4D8               	btfss	status,2,c
  1553  00199E  EFD3  F00C         	goto	u1151
  1554  0019A2  EFD5  F00C         	goto	u1150
  1555  0019A6                     u1151:
  1556  0019A6  EF41  F00D         	goto	l2521
  1557  0019AA                     u1150:
  1558  0019AA  5031               	movf	malloc@cur^0,w,c
  1559  0019AC  5C2F               	subwf	malloc@end^0,w,c
  1560  0019AE  6E19               	movwf	??_malloc^0,c
  1561  0019B0  5032               	movf	(malloc@cur+1)^0,w,c
  1562  0019B2  5830               	subwfb	(malloc@end+1)^0,w,c
  1563  0019B4  6E1A               	movwf	(??_malloc+1)^0,c
  1564  0019B6  5017               	movf	malloc@n^0,w,c
  1565  0019B8  5C19               	subwf	??_malloc^0,w,c
  1566  0019BA  5018               	movf	(malloc@n+1)^0,w,c
  1567  0019BC  581A               	subwfb	(??_malloc+1)^0,w,c
  1568  0019BE  B0D8               	btfsc	status,0,c
  1569  0019C0  EFE4  F00C         	goto	u1161
  1570  0019C4  EFE6  F00C         	goto	u1160
  1571  0019C8                     u1161:
  1572  0019C8  EF1F  F00D         	goto	l1317
  1573  0019CC                     u1160:
  1574  0019CC  0E02               	movlw	2
  1575  0019CE  2417               	addwf	malloc@n^0,w,c
  1576  0019D0  6E1B               	movwf	malloc@m^0,c
  1577  0019D2  0E00               	movlw	0
  1578  0019D4  2018               	addwfc	(malloc@n+1)^0,w,c
  1579  0019D6  6E1C               	movwf	(malloc@m+1)^0,c
  1580  0019D8  0E1B               	movlw	low malloc@m
  1581  0019DA  6E03               	movwf	___expand_heap@pn^0,c
  1582  0019DC  0E00               	movlw	high malloc@m
  1583  0019DE  6E04               	movwf	(___expand_heap@pn+1)^0,c
  1584  0019E0  ECB4  F00E         	call	___expand_heap	;wreg free
  1585  0019E4  C003  F021         	movff	?___expand_heap,malloc@new
  1586  0019E8  C004  F022         	movff	?___expand_heap+1,malloc@new+1
  1587  0019EC  5021               	movf	malloc@new^0,w,c
  1588  0019EE  1022               	iorwf	(malloc@new+1)^0,w,c
  1589  0019F0  A4D8               	btfss	status,2,c
  1590  0019F2  EFFD  F00C         	goto	u1171
  1591  0019F6  EFFF  F00C         	goto	u1170
  1592  0019FA                     u1171:
  1593  0019FA  EF05  F00D         	goto	l2507
  1594  0019FE                     u1170:
  1595  0019FE  0E00               	movlw	0
  1596  001A00  6E17               	movwf	?_malloc^0,c
  1597  001A02  0E00               	movlw	0
  1598  001A04  6E18               	movwf	(?_malloc+1)^0,c
  1599  001A06  EF45  F00D         	goto	l1319
  1600  001A0A                     l2507:
  1601  001A0A  C021  F021         	movff	malloc@new,malloc@new
  1602  001A0E  C022  F022         	movff	malloc@new+1,malloc@new+1
  1603  001A12  502F               	movf	malloc@end^0,w,c
  1604  001A14  1821               	xorwf	malloc@new^0,w,c
  1605  001A16  E109               	bnz	u1180
  1606  001A18  5030               	movf	(malloc@end+1)^0,w,c
  1607  001A1A  1822               	xorwf	(malloc@new+1)^0,w,c
  1608  001A1C  B4D8               	btfsc	status,2,c
  1609  001A1E  EF13  F00D         	goto	u1181
  1610  001A22  EF15  F00D         	goto	u1180
  1611  001A26                     u1181:
  1612  001A26  EF19  F00D         	goto	l1320
  1613  001A2A                     u1180:
  1614  001A2A  C021  F031         	movff	malloc@new,malloc@cur
  1615  001A2E  C022  F032         	movff	malloc@new+1,malloc@cur+1
  1616  001A32                     l1320:
  1617  001A32  501B               	movf	malloc@m^0,w,c
  1618  001A34  2421               	addwf	malloc@new^0,w,c
  1619  001A36  6E2F               	movwf	malloc@end^0,c
  1620  001A38  501C               	movf	(malloc@m+1)^0,w,c
  1621  001A3A  2022               	addwfc	(malloc@new+1)^0,w,c
  1622  001A3C  6E30               	movwf	(malloc@end+1)^0,c
  1623  001A3E                     l1317:
  1624  001A3E  C031  F01F         	movff	malloc@cur,malloc@p
  1625  001A42  C032  F020         	movff	malloc@cur+1,malloc@p+1
  1626  001A46  C01F  F01D         	movff	malloc@p,malloc@sz
  1627  001A4A  C020  F01E         	movff	malloc@p+1,malloc@sz+1
  1628  001A4E  C01D  FFD9         	movff	malloc@sz,fsr2l
  1629  001A52  C01E  FFDA         	movff	malloc@sz+1,fsr2h
  1630  001A56  C017  FFDE         	movff	malloc@n,postinc2
  1631  001A5A  C018  FFDD         	movff	malloc@n+1,postdec2
  1632  001A5E  0E02               	movlw	2
  1633  001A60  261D               	addwf	malloc@sz^0,f,c
  1634  001A62  0E00               	movlw	0
  1635  001A64  221E               	addwfc	(malloc@sz+1)^0,f,c
  1636  001A66  C01D  F01F         	movff	malloc@sz,malloc@p
  1637  001A6A  C01E  F020         	movff	malloc@sz+1,malloc@p+1
  1638  001A6E  0E02               	movlw	2
  1639  001A70  2417               	addwf	malloc@n^0,w,c
  1640  001A72  6E19               	movwf	??_malloc^0,c
  1641  001A74  0E00               	movlw	0
  1642  001A76  2018               	addwfc	(malloc@n+1)^0,w,c
  1643  001A78  6E1A               	movwf	(??_malloc+1)^0,c
  1644  001A7A  5019               	movf	??_malloc^0,w,c
  1645  001A7C  2631               	addwf	malloc@cur^0,f,c
  1646  001A7E  501A               	movf	(??_malloc+1)^0,w,c
  1647  001A80  2232               	addwfc	(malloc@cur+1)^0,f,c
  1648  001A82                     l2521:
  1649  001A82  C01F  F017         	movff	malloc@p,?_malloc
  1650  001A86  C020  F018         	movff	malloc@p+1,?_malloc+1
  1651  001A8A                     l1319:
  1652  001A8A  0012               	return		;funcret
  1653  001A8C                     __end_of_malloc:
  1654                           	callstack 0
  1655                           
  1656 ;; *************** function ___simple_search_fl *****************
  1657 ;; Defined at:
  1658 ;;		line 19 in file "C:\Program Files\Microchip\xc8\v2.36\pic\sources\c99\common\lite_free.c"
  1659 ;; Parameters:    Size  Location     Type
  1660 ;;  n               2    2[COMRAM] unsigned int 
  1661 ;; Auto vars:     Size  Location     Type
  1662 ;;  split           2   12[COMRAM] PTR struct chunk
  1663 ;;		 -> NULL(0), 
  1664 ;;  remaining_si    2    8[COMRAM] unsigned int 
  1665 ;;  next            2   16[COMRAM] PTR struct chunk
  1666 ;;		 -> NULL(0), 
  1667 ;;  best            2   20[COMRAM] PTR struct chunk
  1668 ;;		 -> NULL(0), 
  1669 ;;  c               2   18[COMRAM] PTR struct chunk
  1670 ;;		 -> NULL(0), 
  1671 ;;  last            2   14[COMRAM] PTR struct chunk
  1672 ;;		 -> NULL(0), 
  1673 ;;  best_last       2   10[COMRAM] PTR struct chunk
  1674 ;;		 -> NULL(0), 
  1675 ;; Return value:  Size  Location     Type
  1676 ;;                  2    2[COMRAM] PTR void 
  1677 ;; Registers used:
  1678 ;;		wreg, fsr1l, fsr1h, fsr2l, fsr2h, status,2, status,0
  1679 ;; Tracked objects:
  1680 ;;		On entry : 0/0
  1681 ;;		On exit  : 0/0
  1682 ;;		Unchanged: 0/0
  1683 ;; Data sizes:     COMRAM   BANK0   BANK1   BANK2   BANK3   BANK4   BANK5   BANK6   BANK7   BANK8   BANK9  BANK10  BANK1
      +1  BANK12  BANK13  BANK14
  1684 ;;      Params:         2       0       0       0       0       0       0       0       0       0       0       0       
      +0       0       0       0
  1685 ;;      Locals:        14       0       0       0       0       0       0       0       0       0       0       0       
      +0       0       0       0
  1686 ;;      Temps:          4       0       0       0       0       0       0       0       0       0       0       0       
      +0       0       0       0
  1687 ;;      Totals:        20       0       0       0       0       0       0       0       0       0       0       0       
      +0       0       0       0
  1688 ;;Total ram usage:       20 bytes
  1689 ;; Hardware stack levels used: 1
  1690 ;; Hardware stack levels required when called: 3
  1691 ;; This function calls:
  1692 ;;		Nothing
  1693 ;; This function is called by:
  1694 ;;		_malloc
  1695 ;; This function uses a non-reentrant model
  1696 ;;
  1697                           
  1698                           	psect	text4
  1699  000F12                     __ptext4:
  1700                           	callstack 0
  1701  000F12                     ___simple_search_fl:
  1702                           	callstack 26
  1703  000F12  0E00               	movlw	0
  1704  000F14  6E15               	movwf	___simple_search_fl@best^0,c
  1705  000F16  0E00               	movlw	0
  1706  000F18  6E16               	movwf	(___simple_search_fl@best+1)^0,c
  1707  000F1A  0E00               	movlw	0
  1708  000F1C  6E0B               	movwf	___simple_search_fl@best_last^0,c
  1709  000F1E  0E00               	movlw	0
  1710  000F20  6E0C               	movwf	(___simple_search_fl@best_last+1)^0,c
  1711  000F22  0E00               	movlw	0
  1712  000F24  6E0F               	movwf	___simple_search_fl@last^0,c
  1713  000F26  0E00               	movlw	0
  1714  000F28  6E10               	movwf	(___simple_search_fl@last+1)^0,c
  1715  000F2A  5029               	movf	___freelist^0,w,c
  1716  000F2C  102A               	iorwf	(___freelist+1)^0,w,c
  1717  000F2E  A4D8               	btfss	status,2,c
  1718  000F30  EF9C  F007         	goto	u981
  1719  000F34  EF9E  F007         	goto	u980
  1720  000F38                     u981:
  1721  000F38  EFA4  F007         	goto	l2355
  1722  000F3C                     u980:
  1723  000F3C                     l2351:
  1724  000F3C  0E00               	movlw	0
  1725  000F3E  6E03               	movwf	?___simple_search_fl^0,c
  1726  000F40  0E00               	movlw	0
  1727  000F42  6E04               	movwf	(?___simple_search_fl+1)^0,c
  1728  000F44  EFC5  F008         	goto	l1345
  1729  000F48                     l2355:
  1730  000F48  C029  F013         	movff	___freelist,___simple_search_fl@c
  1731  000F4C  C02A  F014         	movff	___freelist+1,___simple_search_fl@c+1
  1732  000F50  EF2A  F008         	goto	l2381
  1733  000F54                     l2357:
  1734  000F54  C013  FFD9         	movff	___simple_search_fl@c,fsr2l
  1735  000F58  C014  FFDA         	movff	___simple_search_fl@c+1,fsr2h
  1736  000F5C  5003               	movf	___simple_search_fl@n^0,w,c
  1737  000F5E  18DE               	xorwf	postinc2,w,c
  1738  000F60  E107               	bnz	u991
  1739  000F62  5004               	movf	(___simple_search_fl@n+1)^0,w,c
  1740  000F64  18DE               	xorwf	postinc2,w,c
  1741  000F66  A4D8               	btfss	status,2,c
  1742  000F68  EFB8  F007         	goto	u991
  1743  000F6C  EFBA  F007         	goto	u990
  1744  000F70                     u991:
  1745  000F70  EFE7  F007         	goto	l2369
  1746  000F74                     u990:
  1747  000F74  500F               	movf	___simple_search_fl@last^0,w,c
  1748  000F76  1010               	iorwf	(___simple_search_fl@last+1)^0,w,c
  1749  000F78  B4D8               	btfsc	status,2,c
  1750  000F7A  EFC1  F007         	goto	u1001
  1751  000F7E  EFC3  F007         	goto	u1000
  1752  000F82                     u1001:
  1753  000F82  EFD5  F007         	goto	l2363
  1754  000F86                     u1000:
  1755  000F86  EE20 F002          	lfsr	2,2
  1756  000F8A  5013               	movf	___simple_search_fl@c^0,w,c
  1757  000F8C  26D9               	addwf	fsr2l,f,c
  1758  000F8E  5014               	movf	(___simple_search_fl@c+1)^0,w,c
  1759  000F90  22DA               	addwfc	fsr2h,f,c
  1760  000F92  EE10 F002          	lfsr	1,2
  1761  000F96  500F               	movf	___simple_search_fl@last^0,w,c
  1762  000F98  26E1               	addwf	fsr1l,f,c
  1763  000F9A  5010               	movf	(___simple_search_fl@last+1)^0,w,c
  1764  000F9C  22E2               	addwfc	fsr1h,f,c
  1765  000F9E  CFDE FFE6          	movff	postinc2,postinc1
  1766  000FA2  CFDD FFE5          	movff	postdec2,postdec1
  1767  000FA6  EFDF  F007         	goto	l2365
  1768  000FAA                     l2363:
  1769  000FAA  EE20 F002          	lfsr	2,2
  1770  000FAE  5013               	movf	___simple_search_fl@c^0,w,c
  1771  000FB0  26D9               	addwf	fsr2l,f,c
  1772  000FB2  5014               	movf	(___simple_search_fl@c+1)^0,w,c
  1773  000FB4  22DA               	addwfc	fsr2h,f,c
  1774  000FB6  CFDE F029          	movff	postinc2,___freelist
  1775  000FBA  CFDD F02A          	movff	postdec2,___freelist+1
  1776  000FBE                     l2365:
  1777  000FBE  0E02               	movlw	2
  1778  000FC0  2413               	addwf	___simple_search_fl@c^0,w,c
  1779  000FC2  6E03               	movwf	?___simple_search_fl^0,c
  1780  000FC4  0E00               	movlw	0
  1781  000FC6  2014               	addwfc	(___simple_search_fl@c+1)^0,w,c
  1782  000FC8  6E04               	movwf	(?___simple_search_fl+1)^0,c
  1783  000FCA  EFC5  F008         	goto	l1345
  1784  000FCE                     l2369:
  1785  000FCE  C013  FFD9         	movff	___simple_search_fl@c,fsr2l
  1786  000FD2  C014  FFDA         	movff	___simple_search_fl@c+1,fsr2h
  1787  000FD6  50DE               	movf	postinc2,w,c
  1788  000FD8  5C03               	subwf	___simple_search_fl@n^0,w,c
  1789  000FDA  50DE               	movf	postinc2,w,c
  1790  000FDC  5804               	subwfb	(___simple_search_fl@n+1)^0,w,c
  1791  000FDE  B0D8               	btfsc	status,0,c
  1792  000FE0  EFF4  F007         	goto	u1011
  1793  000FE4  EFF6  F007         	goto	u1010
  1794  000FE8                     u1011:
  1795  000FE8  EF1C  F008         	goto	l1353
  1796  000FEC                     u1010:
  1797  000FEC  5015               	movf	___simple_search_fl@best^0,w,c
  1798  000FEE  1016               	iorwf	(___simple_search_fl@best+1)^0,w,c
  1799  000FF0  B4D8               	btfsc	status,2,c
  1800  000FF2  EFFD  F007         	goto	u1021
  1801  000FF6  EFFF  F007         	goto	u1020
  1802  000FFA                     u1021:
  1803  000FFA  EF14  F008         	goto	l2377
  1804  000FFE                     u1020:
  1805  000FFE  C015  FFD9         	movff	___simple_search_fl@best,fsr2l
  1806  001002  C016  FFDA         	movff	___simple_search_fl@best+1,fsr2h
  1807  001006  C013  FFE1         	movff	___simple_search_fl@c,fsr1l
  1808  00100A  C014  FFE2         	movff	___simple_search_fl@c+1,fsr1h
  1809  00100E  50DE               	movf	postinc2,w,c
  1810  001010  5CE6               	subwf	postinc1,w,c
  1811  001012  50DE               	movf	postinc2,w,c
  1812  001014  58E6               	subwfb	postinc1,w,c
  1813  001016  A0D8               	btfss	status,0,c
  1814  001018  EF10  F008         	goto	u1031
  1815  00101C  EF12  F008         	goto	u1030
  1816  001020                     u1031:
  1817  001020  EF14  F008         	goto	l2377
  1818  001024                     u1030:
  1819  001024  EF1C  F008         	goto	l1353
  1820  001028                     l2377:
  1821  001028  C013  F015         	movff	___simple_search_fl@c,___simple_search_fl@best
  1822  00102C  C014  F016         	movff	___simple_search_fl@c+1,___simple_search_fl@best+1
  1823  001030  C00F  F00B         	movff	___simple_search_fl@last,___simple_search_fl@best_last
  1824  001034  C010  F00C         	movff	___simple_search_fl@last+1,___simple_search_fl@best_last+1
  1825  001038                     l1353:
  1826  001038  C013  F00F         	movff	___simple_search_fl@c,___simple_search_fl@last
  1827  00103C  C014  F010         	movff	___simple_search_fl@c+1,___simple_search_fl@last+1
  1828  001040  EE20 F002          	lfsr	2,2
  1829  001044  5013               	movf	___simple_search_fl@c^0,w,c
  1830  001046  26D9               	addwf	fsr2l,f,c
  1831  001048  5014               	movf	(___simple_search_fl@c+1)^0,w,c
  1832  00104A  22DA               	addwfc	fsr2h,f,c
  1833  00104C  CFDE F013          	movff	postinc2,___simple_search_fl@c
  1834  001050  CFDD F014          	movff	postdec2,___simple_search_fl@c+1
  1835  001054                     l2381:
  1836  001054  5013               	movf	___simple_search_fl@c^0,w,c
  1837  001056  1014               	iorwf	(___simple_search_fl@c+1)^0,w,c
  1838  001058  A4D8               	btfss	status,2,c
  1839  00105A  EF31  F008         	goto	u1041
  1840  00105E  EF33  F008         	goto	u1040
  1841  001062                     u1041:
  1842  001062  EFAA  F007         	goto	l2357
  1843  001066                     u1040:
  1844  001066  5015               	movf	___simple_search_fl@best^0,w,c
  1845  001068  1016               	iorwf	(___simple_search_fl@best+1)^0,w,c
  1846  00106A  B4D8               	btfsc	status,2,c
  1847  00106C  EF3A  F008         	goto	u1051
  1848  001070  EF3C  F008         	goto	u1050
  1849  001074                     u1051:
  1850  001074  EF9E  F007         	goto	l2351
  1851  001078                     u1050:
  1852  001078  EE20 F002          	lfsr	2,2
  1853  00107C  5015               	movf	___simple_search_fl@best^0,w,c
  1854  00107E  26D9               	addwf	fsr2l,f,c
  1855  001080  5016               	movf	(___simple_search_fl@best+1)^0,w,c
  1856  001082  22DA               	addwfc	fsr2h,f,c
  1857  001084  CFDE F011          	movff	postinc2,___simple_search_fl@next
  1858  001088  CFDD F012          	movff	postdec2,___simple_search_fl@next+1
  1859  00108C  C015  FFD9         	movff	___simple_search_fl@best,fsr2l
  1860  001090  C016  FFDA         	movff	___simple_search_fl@best+1,fsr2h
  1861  001094  CFDE F005          	movff	postinc2,??___simple_search_fl
  1862  001098  CFDD F006          	movff	postdec2,??___simple_search_fl+1
  1863  00109C  5003               	movf	___simple_search_fl@n^0,w,c
  1864  00109E  5E05               	subwf	??___simple_search_fl^0,f,c
  1865  0010A0  5004               	movf	(___simple_search_fl@n+1)^0,w,c
  1866  0010A2  5A06               	subwfb	(??___simple_search_fl+1)^0,f,c
  1867  0010A4  5006               	movf	(??___simple_search_fl+1)^0,w,c
  1868  0010A6  E109               	bnz	u1060
  1869  0010A8  0E05               	movlw	5
  1870  0010AA  5C05               	subwf	??___simple_search_fl^0,w,c
  1871  0010AC  A0D8               	btfss	status,0,c
  1872  0010AE  EF5B  F008         	goto	u1061
  1873  0010B2  EF5D  F008         	goto	u1060
  1874  0010B6                     u1061:
  1875  0010B6  EFA3  F008         	goto	l1356
  1876  0010BA                     u1060:
  1877  0010BA  C015  FFD9         	movff	___simple_search_fl@best,fsr2l
  1878  0010BE  C016  FFDA         	movff	___simple_search_fl@best+1,fsr2h
  1879  0010C2  CFDE F005          	movff	postinc2,??___simple_search_fl
  1880  0010C6  CFDD F006          	movff	postdec2,??___simple_search_fl+1
  1881  0010CA  5003               	movf	___simple_search_fl@n^0,w,c
  1882  0010CC  5E05               	subwf	??___simple_search_fl^0,f,c
  1883  0010CE  5004               	movf	(___simple_search_fl@n+1)^0,w,c
  1884  0010D0  5A06               	subwfb	(??___simple_search_fl+1)^0,f,c
  1885  0010D2  0EFE               	movlw	254
  1886  0010D4  2405               	addwf	??___simple_search_fl^0,w,c
  1887  0010D6  6E09               	movwf	___simple_search_fl@remaining_size^0,c
  1888  0010D8  0EFF               	movlw	255
  1889  0010DA  2006               	addwfc	(??___simple_search_fl+1)^0,w,c
  1890  0010DC  6E0A               	movwf	(___simple_search_fl@remaining_size+1)^0,c
  1891  0010DE  C015  FFD9         	movff	___simple_search_fl@best,fsr2l
  1892  0010E2  C016  FFDA         	movff	___simple_search_fl@best+1,fsr2h
  1893  0010E6  C003  FFDE         	movff	___simple_search_fl@n,postinc2
  1894  0010EA  C004  FFDD         	movff	___simple_search_fl@n+1,postdec2
  1895  0010EE  C015  FFD9         	movff	___simple_search_fl@best,fsr2l
  1896  0010F2  C016  FFDA         	movff	___simple_search_fl@best+1,fsr2h
  1897  0010F6  CFDE F005          	movff	postinc2,??___simple_search_fl
  1898  0010FA  CFDD F006          	movff	postdec2,??___simple_search_fl+1
  1899  0010FE  C015  F007         	movff	___simple_search_fl@best,??___simple_search_fl+2
  1900  001102  C016  F008         	movff	___simple_search_fl@best+1,??___simple_search_fl+3
  1901  001106  5005               	movf	??___simple_search_fl^0,w,c
  1902  001108  2607               	addwf	(??___simple_search_fl+2)^0,f,c
  1903  00110A  5006               	movf	(??___simple_search_fl+1)^0,w,c
  1904  00110C  2208               	addwfc	(??___simple_search_fl+3)^0,f,c
  1905  00110E  0E02               	movlw	2
  1906  001110  2407               	addwf	(??___simple_search_fl+2)^0,w,c
  1907  001112  6E0D               	movwf	___simple_search_fl@split^0,c
  1908  001114  0E00               	movlw	0
  1909  001116  2008               	addwfc	(??___simple_search_fl+3)^0,w,c
  1910  001118  6E0E               	movwf	(___simple_search_fl@split+1)^0,c
  1911  00111A  C00D  FFD9         	movff	___simple_search_fl@split,fsr2l
  1912  00111E  C00E  FFDA         	movff	___simple_search_fl@split+1,fsr2h
  1913  001122  C009  FFDE         	movff	___simple_search_fl@remaining_size,postinc2
  1914  001126  C00A  FFDD         	movff	___simple_search_fl@remaining_size+1,postdec2
  1915  00112A  EE20 F002          	lfsr	2,2
  1916  00112E  500D               	movf	___simple_search_fl@split^0,w,c
  1917  001130  26D9               	addwf	fsr2l,f,c
  1918  001132  500E               	movf	(___simple_search_fl@split+1)^0,w,c
  1919  001134  22DA               	addwfc	fsr2h,f,c
  1920  001136  C011  FFDE         	movff	___simple_search_fl@next,postinc2
  1921  00113A  C012  FFDD         	movff	___simple_search_fl@next+1,postdec2
  1922  00113E  C00D  F011         	movff	___simple_search_fl@split,___simple_search_fl@next
  1923  001142  C00E  F012         	movff	___simple_search_fl@split+1,___simple_search_fl@next+1
  1924  001146                     l1356:
  1925  001146  5015               	movf	___simple_search_fl@best^0,w,c
  1926  001148  1829               	xorwf	___freelist^0,w,c
  1927  00114A  E107               	bnz	u1071
  1928  00114C  5016               	movf	(___simple_search_fl@best+1)^0,w,c
  1929  00114E  182A               	xorwf	(___freelist+1)^0,w,c
  1930  001150  A4D8               	btfss	status,2,c
  1931  001152  EFAD  F008         	goto	u1071
  1932  001156  EFAF  F008         	goto	u1070
  1933  00115A                     u1071:
  1934  00115A  EFB5  F008         	goto	l2397
  1935  00115E                     u1070:
  1936  00115E  C011  F029         	movff	___simple_search_fl@next,___freelist
  1937  001162  C012  F02A         	movff	___simple_search_fl@next+1,___freelist+1
  1938  001166  EFBF  F008         	goto	l2399
  1939  00116A                     l2397:
  1940  00116A  EE20 F002          	lfsr	2,2
  1941  00116E  500B               	movf	___simple_search_fl@best_last^0,w,c
  1942  001170  26D9               	addwf	fsr2l,f,c
  1943  001172  500C               	movf	(___simple_search_fl@best_last+1)^0,w,c
  1944  001174  22DA               	addwfc	fsr2h,f,c
  1945  001176  C011  FFDE         	movff	___simple_search_fl@next,postinc2
  1946  00117A  C012  FFDD         	movff	___simple_search_fl@next+1,postdec2
  1947  00117E                     l2399:
  1948  00117E  0E02               	movlw	2
  1949  001180  2415               	addwf	___simple_search_fl@best^0,w,c
  1950  001182  6E03               	movwf	?___simple_search_fl^0,c
  1951  001184  0E00               	movlw	0
  1952  001186  2016               	addwfc	(___simple_search_fl@best+1)^0,w,c
  1953  001188  6E04               	movwf	(?___simple_search_fl+1)^0,c
  1954  00118A                     l1345:
  1955  00118A  0012               	return		;funcret
  1956  00118C                     __end_of___simple_search_fl:
  1957                           	callstack 0
  1958                           
  1959 ;; *************** function ___expand_heap *****************
  1960 ;; Defined at:
  1961 ;;		line 14 in file "C:\Program Files\Microchip\xc8\v2.36\pic\sources\c99\common\expand_heap.c"
  1962 ;; Parameters:    Size  Location     Type
  1963 ;;  pn              2    2[COMRAM] PTR unsigned int 
  1964 ;;		 -> malloc@m(2), 
  1965 ;; Auto vars:     Size  Location     Type
  1966 ;;  new_brkp        2    8[COMRAM] PTR unsigned char 
  1967 ;;		 -> __heap_hi(0), NULL(0), 
  1968 ;;  n               2    6[COMRAM] unsigned int 
  1969 ;; Return value:  Size  Location     Type
  1970 ;;                  2    2[COMRAM] PTR void 
  1971 ;; Registers used:
  1972 ;;		wreg, fsr2l, fsr2h, status,2, status,0
  1973 ;; Tracked objects:
  1974 ;;		On entry : 0/0
  1975 ;;		On exit  : 0/0
  1976 ;;		Unchanged: 0/0
  1977 ;; Data sizes:     COMRAM   BANK0   BANK1   BANK2   BANK3   BANK4   BANK5   BANK6   BANK7   BANK8   BANK9  BANK10  BANK1
      +1  BANK12  BANK13  BANK14
  1978 ;;      Params:         2       0       0       0       0       0       0       0       0       0       0       0       
      +0       0       0       0
  1979 ;;      Locals:         4       0       0       0       0       0       0       0       0       0       0       0       
      +0       0       0       0
  1980 ;;      Temps:          2       0       0       0       0       0       0       0       0       0       0       0       
      +0       0       0       0
  1981 ;;      Totals:         8       0       0       0       0       0       0       0       0       0       0       0       
      +0       0       0       0
  1982 ;;Total ram usage:        8 bytes
  1983 ;; Hardware stack levels used: 1
  1984 ;; Hardware stack levels required when called: 3
  1985 ;; This function calls:
  1986 ;;		Nothing
  1987 ;; This function is called by:
  1988 ;;		_malloc
  1989 ;; This function uses a non-reentrant model
  1990 ;;
  1991                           
  1992                           	psect	text5
  1993  001D68                     __ptext5:
  1994                           	callstack 0
  1995  001D68                     ___expand_heap:
  1996                           	callstack 26
  1997  001D68  C003  FFD9         	movff	___expand_heap@pn,fsr2l
  1998  001D6C  C004  FFDA         	movff	___expand_heap@pn+1,fsr2h
  1999  001D70  CFDE F007          	movff	postinc2,___expand_heap@n
  2000  001D74  CFDD F008          	movff	postdec2,___expand_heap@n+1
  2001  001D78  502B               	movf	_brkp^0,w,c
  2002  001D7A  102C               	iorwf	(_brkp+1)^0,w,c
  2003  001D7C  A4D8               	btfss	status,2,c
  2004  001D7E  EFC3  F00E         	goto	u1081
  2005  001D82  EFC5  F00E         	goto	u1080
  2006  001D86                     u1081:
  2007  001D86  EFC9  F00E         	goto	l1332
  2008  001D8A                     u1080:
  2009  001D8A  0E41               	movlw	low ___heap_hi
  2010  001D8C  6E2B               	movwf	_brkp^0,c
  2011  001D8E  0E0E               	movlw	high ___heap_hi
  2012  001D90  6E2C               	movwf	(_brkp+1)^0,c
  2013  001D92                     l1332:
  2014  001D92  5008               	movf	(___expand_heap@n+1)^0,w,c
  2015  001D94  E107               	bnz	u1091
  2016  001D96  0E06               	movlw	6
  2017  001D98  5C07               	subwf	___expand_heap@n^0,w,c
  2018  001D9A  B0D8               	btfsc	status,0,c
  2019  001D9C  EFD2  F00E         	goto	u1091
  2020  001DA0  EFD4  F00E         	goto	u1090
  2021  001DA4                     u1091:
  2022  001DA4  EFD8  F00E         	goto	l2415
  2023  001DA8                     u1090:
  2024  001DA8  0E00               	movlw	0
  2025  001DAA  6E08               	movwf	(___expand_heap@n+1)^0,c
  2026  001DAC  0E06               	movlw	6
  2027  001DAE  6E07               	movwf	___expand_heap@n^0,c
  2028  001DB0                     l2415:
  2029  001DB0  5007               	movf	___expand_heap@n^0,w,c
  2030  001DB2  5C2B               	subwf	_brkp^0,w,c
  2031  001DB4  6E09               	movwf	___expand_heap@new_brkp^0,c
  2032  001DB6  5008               	movf	(___expand_heap@n+1)^0,w,c
  2033  001DB8  582C               	subwfb	(_brkp+1)^0,w,c
  2034  001DBA  6E0A               	movwf	(___expand_heap@new_brkp+1)^0,c
  2035  001DBC  0EF2               	movlw	low ___heap_lo
  2036  001DBE  6E05               	movwf	??___expand_heap^0,c
  2037  001DC0  0E00               	movlw	high ___heap_lo
  2038  001DC2  6E06               	movwf	(??___expand_heap+1)^0,c
  2039  001DC4  5005               	movf	??___expand_heap^0,w,c
  2040  001DC6  5C09               	subwf	___expand_heap@new_brkp^0,w,c
  2041  001DC8  5006               	movf	(??___expand_heap+1)^0,w,c
  2042  001DCA  580A               	subwfb	(___expand_heap@new_brkp+1)^0,w,c
  2043  001DCC  A0D8               	btfss	status,0,c
  2044  001DCE  EFEB  F00E         	goto	u1101
  2045  001DD2  EFED  F00E         	goto	u1100
  2046  001DD6                     u1101:
  2047  001DD6  EFF8  F00E         	goto	l2421
  2048  001DDA                     u1100:
  2049  001DDA  502B               	movf	_brkp^0,w,c
  2050  001DDC  5C09               	subwf	___expand_heap@new_brkp^0,w,c
  2051  001DDE  502C               	movf	(_brkp+1)^0,w,c
  2052  001DE0  580A               	subwfb	(___expand_heap@new_brkp+1)^0,w,c
  2053  001DE2  A0D8               	btfss	status,0,c
  2054  001DE4  EFF6  F00E         	goto	u1111
  2055  001DE8  EFF8  F00E         	goto	u1110
  2056  001DEC                     u1111:
  2057  001DEC  EF02  F00F         	goto	l2427
  2058  001DF0                     u1110:
  2059  001DF0                     l2421:
  2060  001DF0  0E00               	movlw	0
  2061  001DF2  6E2E               	movwf	(_errno+1)^0,c
  2062  001DF4  0E0C               	movlw	12
  2063  001DF6  6E2D               	movwf	_errno^0,c
  2064  001DF8  0E00               	movlw	0
  2065  001DFA  6E03               	movwf	?___expand_heap^0,c
  2066  001DFC  0E00               	movlw	0
  2067  001DFE  6E04               	movwf	(?___expand_heap+1)^0,c
  2068  001E00  EF0A  F00F         	goto	l1337
  2069  001E04                     l2427:
  2070  001E04  C009  F02B         	movff	___expand_heap@new_brkp,_brkp
  2071  001E08  C00A  F02C         	movff	___expand_heap@new_brkp+1,_brkp+1
  2072  001E0C  C02B  F003         	movff	_brkp,?___expand_heap
  2073  001E10  C02C  F004         	movff	_brkp+1,?___expand_heap+1
  2074  001E14                     l1337:
  2075  001E14  0012               	return		;funcret
  2076  001E16                     __end_of___expand_heap:
  2077                           	callstack 0
  2078                           
  2079 ;; *************** function _enterExitButtons *****************
  2080 ;; Defined at:
  2081 ;;		line 11 in file "button_functionality.c"
  2082 ;; Parameters:    Size  Location     Type
  2083 ;;  latch           2    5[COMRAM] int 
  2084 ;; Auto vars:     Size  Location     Type
  2085 ;;		None
  2086 ;; Return value:  Size  Location     Type
  2087 ;;                  2    5[COMRAM] int 
  2088 ;; Registers used:
  2089 ;;		wreg, status,2, status,0, cstack
  2090 ;; Tracked objects:
  2091 ;;		On entry : 0/0
  2092 ;;		On exit  : 0/0
  2093 ;;		Unchanged: 0/0
  2094 ;; Data sizes:     COMRAM   BANK0   BANK1   BANK2   BANK3   BANK4   BANK5   BANK6   BANK7   BANK8   BANK9  BANK10  BANK1
      +1  BANK12  BANK13  BANK14
  2095 ;;      Params:         2       0       0       0       0       0       0       0       0       0       0       0       
      +0       0       0       0
  2096 ;;      Locals:         0       0       0       0       0       0       0       0       0       0       0       0       
      +0       0       0       0
  2097 ;;      Temps:          2       0       0       0       0       0       0       0       0       0       0       0       
      +0       0       0       0
  2098 ;;      Totals:         4       0       0       0       0       0       0       0       0       0       0       0       
      +0       0       0       0
  2099 ;;Total ram usage:        4 bytes
  2100 ;; Hardware stack levels used: 1
  2101 ;; Hardware stack levels required when called: 4
  2102 ;; This function calls:
  2103 ;;		_enterButtonGetValue
  2104 ;;		_exitButtonGetValue
  2105 ;; This function is called by:
  2106 ;;		_main
  2107 ;; This function uses a non-reentrant model
  2108 ;;
  2109                           
  2110                           	psect	text6
  2111  001EB8                     __ptext6:
  2112                           	callstack 0
  2113  001EB8                     _enterExitButtons:
  2114                           	callstack 26
  2115  001EB8                     
  2116                           ;button_functionality.c: 12:     switch(latch){
  2117  001EB8  EF8A  F00F         	goto	l2539
  2118  001EBC                     l2527:
  2119                           
  2120                           ;button_functionality.c: 16:                     latch = 1;
  2121  001EBC  0E00               	movlw	0
  2122  001EBE  6E07               	movwf	(enterExitButtons@latch+1)^0,c
  2123  001EC0  0E01               	movlw	1
  2124  001EC2  6E06               	movwf	enterExitButtons@latch^0,c
  2125                           
  2126                           ;button_functionality.c: 17:                     break;
  2127  001EC4  EF7A  F00F         	goto	l2537
  2128  001EC8                     l2531:
  2129  001EC8  EC6B  F010         	call	_enterButtonGetValue	;wreg free
  2130                           
  2131                           ; Switch on 2 bytes has been partitioned into a top level switch of size 1, and 1 sub-sw
      +                          itches
  2132                           ; Switch size 1, requested type "simple"
  2133                           ; Number of cases is 1, Range of values is 0 to 0
  2134                           ; switch strategies available:
  2135                           ; Name         Instructions Cycles
  2136                           ; simple_byte            4     3 (average)
  2137                           ;	Chosen strategy is simple_byte
  2138  001ECC  5004               	movf	(?_enterButtonGetValue+1)^0,w,c
  2139  001ECE  0A00               	xorlw	0	; case 0
  2140  001ED0  B4D8               	btfsc	status,2,c
  2141  001ED2  EF6D  F00F         	goto	l2805
  2142  001ED6  EF7A  F00F         	goto	l2537
  2143  001EDA                     l2805:
  2144                           
  2145                           ; Switch size 1, requested type "simple"
  2146                           ; Number of cases is 1, Range of values is 0 to 0
  2147                           ; switch strategies available:
  2148                           ; Name         Instructions Cycles
  2149                           ; simple_byte            4     3 (average)
  2150                           ;	Chosen strategy is simple_byte
  2151  001EDA  5003               	movf	?_enterButtonGetValue^0,w,c
  2152  001EDC  0A00               	xorlw	0	; case 0
  2153  001EDE  B4D8               	btfsc	status,2,c
  2154  001EE0  EF5E  F00F         	goto	l2527
  2155  001EE4  EF7A  F00F         	goto	l2537
  2156  001EE8                     l2533:
  2157                           
  2158                           ;button_functionality.c: 22:                     latch = 0;
  2159  001EE8  0E00               	movlw	0
  2160  001EEA  6E07               	movwf	(enterExitButtons@latch+1)^0,c
  2161  001EEC  0E00               	movlw	0
  2162  001EEE  6E06               	movwf	enterExitButtons@latch^0,c
  2163                           
  2164                           ;button_functionality.c: 23:                     break;
  2165  001EF0  EFA0  F00F         	goto	l178
  2166  001EF4                     l2537:
  2167  001EF4  EC5D  F010         	call	_exitButtonGetValue	;wreg free
  2168                           
  2169                           ; Switch on 2 bytes has been partitioned into a top level switch of size 1, and 1 sub-sw
      +                          itches
  2170                           ; Switch size 1, requested type "simple"
  2171                           ; Number of cases is 1, Range of values is 0 to 0
  2172                           ; switch strategies available:
  2173                           ; Name         Instructions Cycles
  2174                           ; simple_byte            4     3 (average)
  2175                           ;	Chosen strategy is simple_byte
  2176  001EF8  5004               	movf	(?_exitButtonGetValue+1)^0,w,c
  2177  001EFA  0A00               	xorlw	0	; case 0
  2178  001EFC  B4D8               	btfsc	status,2,c
  2179  001EFE  EF83  F00F         	goto	l2807
  2180  001F02  EFA0  F00F         	goto	l178
  2181  001F06                     l2807:
  2182                           
  2183                           ; Switch size 1, requested type "simple"
  2184                           ; Number of cases is 1, Range of values is 0 to 0
  2185                           ; switch strategies available:
  2186                           ; Name         Instructions Cycles
  2187                           ; simple_byte            4     3 (average)
  2188                           ;	Chosen strategy is simple_byte
  2189  001F06  5003               	movf	?_exitButtonGetValue^0,w,c
  2190  001F08  0A00               	xorlw	0	; case 0
  2191  001F0A  B4D8               	btfsc	status,2,c
  2192  001F0C  EF74  F00F         	goto	l2533
  2193  001F10  EFA0  F00F         	goto	l178
  2194  001F14                     l2539:
  2195  001F14  C006  F008         	movff	enterExitButtons@latch,??_enterExitButtons
  2196  001F18  C007  F009         	movff	enterExitButtons@latch+1,??_enterExitButtons+1
  2197                           
  2198                           ; Switch on 2 bytes has been partitioned into a top level switch of size 1, and 1 sub-sw
      +                          itches
  2199                           ; Switch size 1, requested type "simple"
  2200                           ; Number of cases is 1, Range of values is 0 to 0
  2201                           ; switch strategies available:
  2202                           ; Name         Instructions Cycles
  2203                           ; simple_byte            4     3 (average)
  2204                           ;	Chosen strategy is simple_byte
  2205  001F1C  5009               	movf	(??_enterExitButtons+1)^0,w,c
  2206  001F1E  0A00               	xorlw	0	; case 0
  2207  001F20  B4D8               	btfsc	status,2,c
  2208  001F22  EF95  F00F         	goto	l2809
  2209  001F26  EFA0  F00F         	goto	l178
  2210  001F2A                     l2809:
  2211                           
  2212                           ; Switch size 1, requested type "simple"
  2213                           ; Number of cases is 2, Range of values is 0 to 1
  2214                           ; switch strategies available:
  2215                           ; Name         Instructions Cycles
  2216                           ; simple_byte            7     4 (average)
  2217                           ;	Chosen strategy is simple_byte
  2218  001F2A  5008               	movf	??_enterExitButtons^0,w,c
  2219  001F2C  0A00               	xorlw	0	; case 0
  2220  001F2E  B4D8               	btfsc	status,2,c
  2221  001F30  EF64  F00F         	goto	l2531
  2222  001F34  0A01               	xorlw	1	; case 1
  2223  001F36  B4D8               	btfsc	status,2,c
  2224  001F38  EF7A  F00F         	goto	l2537
  2225  001F3C  EFA0  F00F         	goto	l178
  2226  001F40                     l178:
  2227                           
  2228                           ;button_functionality.c: 26:     return latch;
  2229  001F40  C006  F006         	movff	enterExitButtons@latch,?_enterExitButtons
  2230  001F44  C007  F007         	movff	enterExitButtons@latch+1,?_enterExitButtons+1
  2231  001F48  0012               	return		;funcret
  2232  001F4A                     __end_of_enterExitButtons:
  2233                           	callstack 0
  2234                           
  2235 ;; *************** function _exitButtonGetValue *****************
  2236 ;; Defined at:
  2237 ;;		line 7 in file "button_functionality.c"
  2238 ;; Parameters:    Size  Location     Type
  2239 ;;		None
  2240 ;; Auto vars:     Size  Location     Type
  2241 ;;		None
  2242 ;; Return value:  Size  Location     Type
  2243 ;;                  2    2[COMRAM] int 
  2244 ;; Registers used:
  2245 ;;		wreg, status,2
  2246 ;; Tracked objects:
  2247 ;;		On entry : 0/0
  2248 ;;		On exit  : 0/0
  2249 ;;		Unchanged: 0/0
  2250 ;; Data sizes:     COMRAM   BANK0   BANK1   BANK2   BANK3   BANK4   BANK5   BANK6   BANK7   BANK8   BANK9  BANK10  BANK1
      +1  BANK12  BANK13  BANK14
  2251 ;;      Params:         2       0       0       0       0       0       0       0       0       0       0       0       
      +0       0       0       0
  2252 ;;      Locals:         0       0       0       0       0       0       0       0       0       0       0       0       
      +0       0       0       0
  2253 ;;      Temps:          1       0       0       0       0       0       0       0       0       0       0       0       
      +0       0       0       0
  2254 ;;      Totals:         3       0       0       0       0       0       0       0       0       0       0       0       
      +0       0       0       0
  2255 ;;Total ram usage:        3 bytes
  2256 ;; Hardware stack levels used: 1
  2257 ;; Hardware stack levels required when called: 3
  2258 ;; This function calls:
  2259 ;;		Nothing
  2260 ;; This function is called by:
  2261 ;;		_enterExitButtons
  2262 ;; This function uses a non-reentrant model
  2263 ;;
  2264                           
  2265                           	psect	text7
  2266  0020BA                     __ptext7:
  2267                           	callstack 0
  2268  0020BA                     _exitButtonGetValue:
  2269                           	callstack 26
  2270  0020BA                     
  2271                           ;button_functionality.c: 8:     return PORTDbits.RD1;
  2272  0020BA  B283               	btfsc	131,1,c	;volatile
  2273  0020BC  EF62  F010         	goto	u891
  2274  0020C0  EF66  F010         	goto	u890
  2275  0020C4                     u891:
  2276  0020C4  6A05               	clrf	??_exitButtonGetValue^0,c
  2277  0020C6  2A05               	incf	??_exitButtonGetValue^0,f,c
  2278  0020C8  EF67  F010         	goto	u898
  2279  0020CC                     u890:
  2280  0020CC  6A05               	clrf	??_exitButtonGetValue^0,c
  2281  0020CE                     u898:
  2282  0020CE  5005               	movf	??_exitButtonGetValue^0,w,c
  2283  0020D0  6E03               	movwf	?_exitButtonGetValue^0,c
  2284  0020D2  6A04               	clrf	(?_exitButtonGetValue+1)^0,c
  2285  0020D4  0012               	return		;funcret
  2286  0020D6                     __end_of_exitButtonGetValue:
  2287                           	callstack 0
  2288                           
  2289 ;; *************** function _enterButtonGetValue *****************
  2290 ;; Defined at:
  2291 ;;		line 3 in file "button_functionality.c"
  2292 ;; Parameters:    Size  Location     Type
  2293 ;;		None
  2294 ;; Auto vars:     Size  Location     Type
  2295 ;;		None
  2296 ;; Return value:  Size  Location     Type
  2297 ;;                  2    2[COMRAM] int 
  2298 ;; Registers used:
  2299 ;;		wreg, status,2
  2300 ;; Tracked objects:
  2301 ;;		On entry : 0/0
  2302 ;;		On exit  : 0/0
  2303 ;;		Unchanged: 0/0
  2304 ;; Data sizes:     COMRAM   BANK0   BANK1   BANK2   BANK3   BANK4   BANK5   BANK6   BANK7   BANK8   BANK9  BANK10  BANK1
      +1  BANK12  BANK13  BANK14
  2305 ;;      Params:         2       0       0       0       0       0       0       0       0       0       0       0       
      +0       0       0       0
  2306 ;;      Locals:         0       0       0       0       0       0       0       0       0       0       0       0       
      +0       0       0       0
  2307 ;;      Temps:          1       0       0       0       0       0       0       0       0       0       0       0       
      +0       0       0       0
  2308 ;;      Totals:         3       0       0       0       0       0       0       0       0       0       0       0       
      +0       0       0       0
  2309 ;;Total ram usage:        3 bytes
  2310 ;; Hardware stack levels used: 1
  2311 ;; Hardware stack levels required when called: 3
  2312 ;; This function calls:
  2313 ;;		Nothing
  2314 ;; This function is called by:
  2315 ;;		_enterExitButtons
  2316 ;; This function uses a non-reentrant model
  2317 ;;
  2318                           
  2319                           	psect	text8
  2320  0020D6                     __ptext8:
  2321                           	callstack 0
  2322  0020D6                     _enterButtonGetValue:
  2323                           	callstack 26
  2324  0020D6                     
  2325                           ;button_functionality.c: 4:     return PORTDbits.RD0;
  2326  0020D6  B083               	btfsc	131,0,c	;volatile
  2327  0020D8  EF70  F010         	goto	u881
  2328  0020DC  EF74  F010         	goto	u880
  2329  0020E0                     u881:
  2330  0020E0  6A05               	clrf	??_enterButtonGetValue^0,c
  2331  0020E2  2A05               	incf	??_enterButtonGetValue^0,f,c
  2332  0020E4  EF75  F010         	goto	u888
  2333  0020E8                     u880:
  2334  0020E8  6A05               	clrf	??_enterButtonGetValue^0,c
  2335  0020EA                     u888:
  2336  0020EA  5005               	movf	??_enterButtonGetValue^0,w,c
  2337  0020EC  6E03               	movwf	?_enterButtonGetValue^0,c
  2338  0020EE  6A04               	clrf	(?_enterButtonGetValue+1)^0,c
  2339  0020F0  0012               	return		;funcret
  2340  0020F2                     __end_of_enterButtonGetValue:
  2341                           	callstack 0
  2342                           
  2343 ;; *************** function ___wmul *****************
  2344 ;; Defined at:
  2345 ;;		line 15 in file "C:\Program Files\Microchip\xc8\v2.36\pic\sources\c99\common\Umul16.c"
  2346 ;; Parameters:    Size  Location     Type
  2347 ;;  multiplier      2    2[COMRAM] unsigned int 
  2348 ;;  multiplicand    2    4[COMRAM] unsigned int 
  2349 ;; Auto vars:     Size  Location     Type
  2350 ;;  product         2    6[COMRAM] unsigned int 
  2351 ;; Return value:  Size  Location     Type
  2352 ;;                  2    2[COMRAM] unsigned int 
  2353 ;; Registers used:
  2354 ;;		wreg, status,2, status,0, prodl, prodh
  2355 ;; Tracked objects:
  2356 ;;		On entry : 0/0
  2357 ;;		On exit  : 0/0
  2358 ;;		Unchanged: 0/0
  2359 ;; Data sizes:     COMRAM   BANK0   BANK1   BANK2   BANK3   BANK4   BANK5   BANK6   BANK7   BANK8   BANK9  BANK10  BANK1
      +1  BANK12  BANK13  BANK14
  2360 ;;      Params:         4       0       0       0       0       0       0       0       0       0       0       0       
      +0       0       0       0
  2361 ;;      Locals:         2       0       0       0       0       0       0       0       0       0       0       0       
      +0       0       0       0
  2362 ;;      Temps:          0       0       0       0       0       0       0       0       0       0       0       0       
      +0       0       0       0
  2363 ;;      Totals:         6       0       0       0       0       0       0       0       0       0       0       0       
      +0       0       0       0
  2364 ;;Total ram usage:        6 bytes
  2365 ;; Hardware stack levels used: 1
  2366 ;; Hardware stack levels required when called: 3
  2367 ;; This function calls:
  2368 ;;		Nothing
  2369 ;; This function is called by:
  2370 ;;		_main
  2371 ;; This function uses a non-reentrant model
  2372 ;;
  2373                           
  2374                           	psect	text9
  2375  002076                     __ptext9:
  2376                           	callstack 0
  2377  002076                     ___wmul:
  2378                           	callstack 27
  2379  002076  5003               	movf	___wmul@multiplier^0,w,c
  2380  002078  0205               	mulwf	___wmul@multiplicand^0,c
  2381  00207A  CFF3 F007          	movff	prodl,___wmul@product
  2382  00207E  CFF4 F008          	movff	prodh,___wmul@product+1
  2383  002082  5003               	movf	___wmul@multiplier^0,w,c
  2384  002084  0206               	mulwf	(___wmul@multiplicand+1)^0,c
  2385  002086  50F3               	movf	243,w,c
  2386  002088  2608               	addwf	(___wmul@product+1)^0,f,c
  2387  00208A  5004               	movf	(___wmul@multiplier+1)^0,w,c
  2388  00208C  0205               	mulwf	___wmul@multiplicand^0,c
  2389  00208E  50F3               	movf	243,w,c
  2390  002090  2608               	addwf	(___wmul@product+1)^0,f,c
  2391  002092  C007  F003         	movff	___wmul@product,?___wmul
  2392  002096  C008  F004         	movff	___wmul@product+1,?___wmul+1
  2393  00209A  0012               	return		;funcret
  2394  00209C                     __end_of___wmul:
  2395                           	callstack 0
  2396                           
  2397 ;; *************** function _SYSTEM_Initialize *****************
  2398 ;; Defined at:
  2399 ;;		line 50 in file "mcc_generated_files/mcc.c"
  2400 ;; Parameters:    Size  Location     Type
  2401 ;;		None
  2402 ;; Auto vars:     Size  Location     Type
  2403 ;;		None
  2404 ;; Return value:  Size  Location     Type
  2405 ;;                  1    wreg      void 
  2406 ;; Registers used:
  2407 ;;		wreg, status,2, status,0, cstack
  2408 ;; Tracked objects:
  2409 ;;		On entry : 0/0
  2410 ;;		On exit  : 0/0
  2411 ;;		Unchanged: 0/0
  2412 ;; Data sizes:     COMRAM   BANK0   BANK1   BANK2   BANK3   BANK4   BANK5   BANK6   BANK7   BANK8   BANK9  BANK10  BANK1
      +1  BANK12  BANK13  BANK14
  2413 ;;      Params:         0       0       0       0       0       0       0       0       0       0       0       0       
      +0       0       0       0
  2414 ;;      Locals:         0       0       0       0       0       0       0       0       0       0       0       0       
      +0       0       0       0
  2415 ;;      Temps:          0       0       0       0       0       0       0       0       0       0       0       0       
      +0       0       0       0
  2416 ;;      Totals:         0       0       0       0       0       0       0       0       0       0       0       0       
      +0       0       0       0
  2417 ;;Total ram usage:        0 bytes
  2418 ;; Hardware stack levels used: 1
  2419 ;; Hardware stack levels required when called: 5
  2420 ;; This function calls:
  2421 ;;		_ECAN_Initialize
  2422 ;;		_INTERRUPT_Initialize
  2423 ;;		_OSCILLATOR_Initialize
  2424 ;;		_PIN_MANAGER_Initialize
  2425 ;; This function is called by:
  2426 ;;		_main
  2427 ;; This function uses a non-reentrant model
  2428 ;;
  2429                           
  2430                           	psect	text10
  2431  00213E                     __ptext10:
  2432                           	callstack 0
  2433  00213E                     _SYSTEM_Initialize:
  2434                           	callstack 25
  2435  00213E                     
  2436                           ;mcc_generated_files/mcc.c: 53:     INTERRUPT_Initialize();
  2437  00213E  ECBE  F010         	call	_INTERRUPT_Initialize	;wreg free
  2438  002142                     
  2439                           ;mcc_generated_files/mcc.c: 54:     PIN_MANAGER_Initialize();
  2440  002142  EC20  F010         	call	_PIN_MANAGER_Initialize	;wreg free
  2441  002146                     
  2442                           ;mcc_generated_files/mcc.c: 55:     OSCILLATOR_Initialize();
  2443  002146  ECA8  F010         	call	_OSCILLATOR_Initialize	;wreg free
  2444  00214A                     
  2445                           ;mcc_generated_files/mcc.c: 56:     ECAN_Initialize();
  2446  00214A  EC2C  F00B         	call	_ECAN_Initialize	;wreg free
  2447  00214E  0012               	return		;funcret
  2448  002150                     __end_of_SYSTEM_Initialize:
  2449                           	callstack 0
  2450                           
  2451 ;; *************** function _PIN_MANAGER_Initialize *****************
  2452 ;; Defined at:
  2453 ;;		line 55 in file "mcc_generated_files/pin_manager.c"
  2454 ;; Parameters:    Size  Location     Type
  2455 ;;		None
  2456 ;; Auto vars:     Size  Location     Type
  2457 ;;		None
  2458 ;; Return value:  Size  Location     Type
  2459 ;;                  1    wreg      void 
  2460 ;; Registers used:
  2461 ;;		wreg, status,2
  2462 ;; Tracked objects:
  2463 ;;		On entry : 0/0
  2464 ;;		On exit  : 0/0
  2465 ;;		Unchanged: 0/0
  2466 ;; Data sizes:     COMRAM   BANK0   BANK1   BANK2   BANK3   BANK4   BANK5   BANK6   BANK7   BANK8   BANK9  BANK10  BANK1
      +1  BANK12  BANK13  BANK14
  2467 ;;      Params:         0       0       0       0       0       0       0       0       0       0       0       0       
      +0       0       0       0
  2468 ;;      Locals:         0       0       0       0       0       0       0       0       0       0       0       0       
      +0       0       0       0
  2469 ;;      Temps:          0       0       0       0       0       0       0       0       0       0       0       0       
      +0       0       0       0
  2470 ;;      Totals:         0       0       0       0       0       0       0       0       0       0       0       0       
      +0       0       0       0
  2471 ;;Total ram usage:        0 bytes
  2472 ;; Hardware stack levels used: 1
  2473 ;; Hardware stack levels required when called: 3
  2474 ;; This function calls:
  2475 ;;		Nothing
  2476 ;; This function is called by:
  2477 ;;		_SYSTEM_Initialize
  2478 ;; This function uses a non-reentrant model
  2479 ;;
  2480                           
  2481                           	psect	text11
  2482  002040                     __ptext11:
  2483                           	callstack 0
  2484  002040                     _PIN_MANAGER_Initialize:
  2485                           	callstack 26
  2486  002040                     
  2487                           ;mcc_generated_files/pin_manager.c: 60:     LATE = 0x00;
  2488  002040  0E00               	movlw	0
  2489  002042  6E8D               	movwf	141,c	;volatile
  2490                           
  2491                           ;mcc_generated_files/pin_manager.c: 61:     LATD = 0x00;
  2492  002044  0E00               	movlw	0
  2493  002046  6E8C               	movwf	140,c	;volatile
  2494                           
  2495                           ;mcc_generated_files/pin_manager.c: 62:     LATA = 0x00;
  2496  002048  0E00               	movlw	0
  2497  00204A  6E89               	movwf	137,c	;volatile
  2498                           
  2499                           ;mcc_generated_files/pin_manager.c: 63:     LATB = 0x00;
  2500  00204C  0E00               	movlw	0
  2501  00204E  6E8A               	movwf	138,c	;volatile
  2502                           
  2503                           ;mcc_generated_files/pin_manager.c: 64:     LATC = 0x00;
  2504  002050  0E00               	movlw	0
  2505  002052  6E8B               	movwf	139,c	;volatile
  2506                           
  2507                           ;mcc_generated_files/pin_manager.c: 69:     TRISE = 0x07;
  2508  002054  0E07               	movlw	7
  2509  002056  6E96               	movwf	150,c	;volatile
  2510                           
  2511                           ;mcc_generated_files/pin_manager.c: 70:     TRISA = 0xEF;
  2512  002058  0EEF               	movlw	239
  2513  00205A  6E92               	movwf	146,c	;volatile
  2514                           
  2515                           ;mcc_generated_files/pin_manager.c: 71:     TRISB = 0x00;
  2516  00205C  0E00               	movlw	0
  2517  00205E  6E93               	movwf	147,c	;volatile
  2518  002060                     
  2519                           ;mcc_generated_files/pin_manager.c: 72:     TRISC = 0xFF;
  2520  002060  6894               	setf	148,c	;volatile
  2521                           
  2522                           ;mcc_generated_files/pin_manager.c: 73:     TRISD = 0x1B;
  2523  002062  0E1B               	movlw	27
  2524  002064  6E95               	movwf	149,c	;volatile
  2525  002066                     
  2526                           ;mcc_generated_files/pin_manager.c: 78:     ANCON0 = 0xFF;
  2527  002066  010F               	movlb	15	; () banked
  2528  002068  695D               	setf	93,b	;volatile
  2529                           
  2530                           ;mcc_generated_files/pin_manager.c: 79:     ANCON1 = 0x67;
  2531  00206A  0E67               	movlw	103
  2532  00206C  6F5C               	movwf	92,b	;volatile
  2533                           
  2534                           ;mcc_generated_files/pin_manager.c: 84:     WPUB = 0x00;
  2535  00206E  0E00               	movlw	0
  2536  002070  6F5B               	movwf	91,b	;volatile
  2537  002072                     
  2538                           ; BSR set to: 15
  2539                           ;mcc_generated_files/pin_manager.c: 85:     INTCON2bits.nRBPU = 1;
  2540  002072  8EF1               	bsf	241,7,c	;volatile
  2541  002074                     
  2542                           ; BSR set to: 15
  2543  002074  0012               	return		;funcret
  2544  002076                     __end_of_PIN_MANAGER_Initialize:
  2545                           	callstack 0
  2546                           
  2547 ;; *************** function _OSCILLATOR_Initialize *****************
  2548 ;; Defined at:
  2549 ;;		line 59 in file "mcc_generated_files/mcc.c"
  2550 ;; Parameters:    Size  Location     Type
  2551 ;;		None
  2552 ;; Auto vars:     Size  Location     Type
  2553 ;;		None
  2554 ;; Return value:  Size  Location     Type
  2555 ;;                  1    wreg      void 
  2556 ;; Registers used:
  2557 ;;		wreg, status,2
  2558 ;; Tracked objects:
  2559 ;;		On entry : 0/0
  2560 ;;		On exit  : 0/0
  2561 ;;		Unchanged: 0/0
  2562 ;; Data sizes:     COMRAM   BANK0   BANK1   BANK2   BANK3   BANK4   BANK5   BANK6   BANK7   BANK8   BANK9  BANK10  BANK1
      +1  BANK12  BANK13  BANK14
  2563 ;;      Params:         0       0       0       0       0       0       0       0       0       0       0       0       
      +0       0       0       0
  2564 ;;      Locals:         0       0       0       0       0       0       0       0       0       0       0       0       
      +0       0       0       0
  2565 ;;      Temps:          0       0       0       0       0       0       0       0       0       0       0       0       
      +0       0       0       0
  2566 ;;      Totals:         0       0       0       0       0       0       0       0       0       0       0       0       
      +0       0       0       0
  2567 ;;Total ram usage:        0 bytes
  2568 ;; Hardware stack levels used: 1
  2569 ;; Hardware stack levels required when called: 3
  2570 ;; This function calls:
  2571 ;;		Nothing
  2572 ;; This function is called by:
  2573 ;;		_SYSTEM_Initialize
  2574 ;; This function uses a non-reentrant model
  2575 ;;
  2576                           
  2577                           	psect	text12
  2578  002150                     __ptext12:
  2579                           	callstack 0
  2580  002150                     _OSCILLATOR_Initialize:
  2581                           	callstack 26
  2582  002150                     
  2583                           ;mcc_generated_files/mcc.c: 62:     OSCCON = 0x60;
  2584  002150  0E60               	movlw	96
  2585  002152  6ED3               	movwf	211,c	;volatile
  2586                           
  2587                           ;mcc_generated_files/mcc.c: 64:     OSCCON2 = 0x00;
  2588  002154  0E00               	movlw	0
  2589  002156  6ED2               	movwf	210,c	;volatile
  2590                           
  2591                           ;mcc_generated_files/mcc.c: 66:     OSCTUNE = 0x00;
  2592  002158  0E00               	movlw	0
  2593  00215A  6E9B               	movwf	155,c	;volatile
  2594                           
  2595                           ;mcc_generated_files/mcc.c: 68:     REFOCON = 0x00;
  2596  00215C  0E00               	movlw	0
  2597  00215E  6E9A               	movwf	154,c	;volatile
  2598  002160  0012               	return		;funcret
  2599  002162                     __end_of_OSCILLATOR_Initialize:
  2600                           	callstack 0
  2601                           
  2602 ;; *************** function _INTERRUPT_Initialize *****************
  2603 ;; Defined at:
  2604 ;;		line 52 in file "mcc_generated_files/interrupt_manager.c"
  2605 ;; Parameters:    Size  Location     Type
  2606 ;;		None
  2607 ;; Auto vars:     Size  Location     Type
  2608 ;;		None
  2609 ;; Return value:  Size  Location     Type
  2610 ;;                  1    wreg      void 
  2611 ;; Registers used:
  2612 ;;		None
  2613 ;; Tracked objects:
  2614 ;;		On entry : 0/0
  2615 ;;		On exit  : 0/0
  2616 ;;		Unchanged: 0/0
  2617 ;; Data sizes:     COMRAM   BANK0   BANK1   BANK2   BANK3   BANK4   BANK5   BANK6   BANK7   BANK8   BANK9  BANK10  BANK1
      +1  BANK12  BANK13  BANK14
  2618 ;;      Params:         0       0       0       0       0       0       0       0       0       0       0       0       
      +0       0       0       0
  2619 ;;      Locals:         0       0       0       0       0       0       0       0       0       0       0       0       
      +0       0       0       0
  2620 ;;      Temps:          0       0       0       0       0       0       0       0       0       0       0       0       
      +0       0       0       0
  2621 ;;      Totals:         0       0       0       0       0       0       0       0       0       0       0       0       
      +0       0       0       0
  2622 ;;Total ram usage:        0 bytes
  2623 ;; Hardware stack levels used: 1
  2624 ;; Hardware stack levels required when called: 3
  2625 ;; This function calls:
  2626 ;;		Nothing
  2627 ;; This function is called by:
  2628 ;;		_SYSTEM_Initialize
  2629 ;; This function uses a non-reentrant model
  2630 ;;
  2631                           
  2632                           	psect	text13
  2633  00217C                     __ptext13:
  2634                           	callstack 0
  2635  00217C                     _INTERRUPT_Initialize:
  2636                           	callstack 26
  2637  00217C                     
  2638                           ;mcc_generated_files/interrupt_manager.c: 55:     RCONbits.IPEN = 0;
  2639  00217C  9ED0               	bcf	208,7,c	;volatile
  2640  00217E  0012               	return		;funcret
  2641  002180                     __end_of_INTERRUPT_Initialize:
  2642                           	callstack 0
  2643                           
  2644 ;; *************** function _ECAN_Initialize *****************
  2645 ;; Defined at:
  2646 ;;		line 65 in file "mcc_generated_files/ecan.c"
  2647 ;; Parameters:    Size  Location     Type
  2648 ;;		None
  2649 ;; Auto vars:     Size  Location     Type
  2650 ;;		None
  2651 ;; Return value:  Size  Location     Type
  2652 ;;                  1    wreg      void 
  2653 ;; Registers used:
  2654 ;;		wreg, status,2, status,0, cstack
  2655 ;; Tracked objects:
  2656 ;;		On entry : 0/0
  2657 ;;		On exit  : 0/0
  2658 ;;		Unchanged: 0/0
  2659 ;; Data sizes:     COMRAM   BANK0   BANK1   BANK2   BANK3   BANK4   BANK5   BANK6   BANK7   BANK8   BANK9  BANK10  BANK1
      +1  BANK12  BANK13  BANK14
  2660 ;;      Params:         0       0       0       0       0       0       0       0       0       0       0       0       
      +0       0       0       0
  2661 ;;      Locals:         0       0       0       0       0       0       0       0       0       0       0       0       
      +0       0       0       0
  2662 ;;      Temps:          1       0       0       0       0       0       0       0       0       0       0       0       
      +0       0       0       0
  2663 ;;      Totals:         1       0       0       0       0       0       0       0       0       0       0       0       
      +0       0       0       0
  2664 ;;Total ram usage:        1 bytes
  2665 ;; Hardware stack levels used: 1
  2666 ;; Hardware stack levels required when called: 4
  2667 ;; This function calls:
  2668 ;;		_ECAN_SetWakeUpInterruptHandler
  2669 ;; This function is called by:
  2670 ;;		_SYSTEM_Initialize
  2671 ;; This function uses a non-reentrant model
  2672 ;;
  2673                           
  2674                           	psect	text14
  2675  001658                     __ptext14:
  2676                           	callstack 0
  2677  001658                     _ECAN_Initialize:
  2678                           	callstack 25
  2679  001658                     
  2680                           ;mcc_generated_files/ecan.c: 67:     CANCON = 0x80;
  2681  001658  0E80               	movlw	128
  2682  00165A  6E6F               	movwf	111,c	;volatile
  2683  00165C                     l2225:
  2684  00165C  506E               	movf	110,w,c	;volatile
  2685  00165E  0BE0               	andlw	224
  2686  001660  0A80               	xorlw	128
  2687  001662  A4D8               	btfss	status,2,c
  2688  001664  EF36  F00B         	goto	u811
  2689  001668  EF38  F00B         	goto	u810
  2690  00166C                     u811:
  2691  00166C  EF2E  F00B         	goto	l2225
  2692  001670                     u810:
  2693  001670                     
  2694                           ;mcc_generated_files/ecan.c: 73:     ECANCON = 0x40;
  2695  001670  0E40               	movlw	64
  2696  001672  6E72               	movwf	114,c	;volatile
  2697                           
  2698                           ;mcc_generated_files/ecan.c: 78:     CIOCON = 0x20;
  2699  001674  0E20               	movlw	32
  2700  001676  6E70               	movwf	112,c	;volatile
  2701                           
  2702                           ;mcc_generated_files/ecan.c: 92:     BSEL0 = 0x00;
  2703  001678  0E00               	movlw	0
  2704  00167A  010E               	movlb	14	; () banked
  2705  00167C  6F7D               	movwf	125,b	;volatile
  2706  00167E                     
  2707                           ; BSR set to: 14
  2708                           ;mcc_generated_files/ecan.c: 97:     RXM0EIDH = 0xFF;
  2709  00167E  69FA               	setf	250,b	;volatile
  2710  001680                     
  2711                           ; BSR set to: 14
  2712                           ;mcc_generated_files/ecan.c: 98:     RXM0EIDL = 0xFF;
  2713  001680  69FB               	setf	251,b	;volatile
  2714  001682                     
  2715                           ; BSR set to: 14
  2716                           ;mcc_generated_files/ecan.c: 99:     RXM0SIDH = 0xFF;
  2717  001682  69F8               	setf	248,b	;volatile
  2718                           
  2719                           ;mcc_generated_files/ecan.c: 100:     RXM0SIDL = 0xE3;
  2720  001684  0EE3               	movlw	227
  2721  001686  6FF9               	movwf	249,b	;volatile
  2722  001688                     
  2723                           ; BSR set to: 14
  2724                           ;mcc_generated_files/ecan.c: 101:     RXM1EIDH = 0xFF;
  2725  001688  69FE               	setf	254,b	;volatile
  2726  00168A                     
  2727                           ; BSR set to: 14
  2728                           ;mcc_generated_files/ecan.c: 102:     RXM1EIDL = 0xFF;
  2729  00168A  69FF               	setf	255,b	;volatile
  2730  00168C                     
  2731                           ; BSR set to: 14
  2732                           ;mcc_generated_files/ecan.c: 103:     RXM1SIDH = 0xFF;
  2733  00168C  69FC               	setf	252,b	;volatile
  2734                           
  2735                           ;mcc_generated_files/ecan.c: 104:     RXM1SIDL = 0xE3;
  2736  00168E  0EE3               	movlw	227
  2737  001690  6FFD               	movwf	253,b	;volatile
  2738                           
  2739                           ;mcc_generated_files/ecan.c: 109:     RXFCON0 = 0x01;
  2740  001692  0E01               	movlw	1
  2741  001694  6F46               	movwf	70,b	;volatile
  2742                           
  2743                           ;mcc_generated_files/ecan.c: 110:     RXFCON1 = 0x00;
  2744  001696  0E00               	movlw	0
  2745  001698  6F47               	movwf	71,b	;volatile
  2746                           
  2747                           ;mcc_generated_files/ecan.c: 114:     MSEL0 = 0x00;
  2748  00169A  0E00               	movlw	0
  2749  00169C  6F79               	movwf	121,b	;volatile
  2750                           
  2751                           ;mcc_generated_files/ecan.c: 115:     MSEL1 = 0x00;
  2752  00169E  0E00               	movlw	0
  2753  0016A0  6F7A               	movwf	122,b	;volatile
  2754                           
  2755                           ;mcc_generated_files/ecan.c: 116:     MSEL2 = 0x00;
  2756  0016A2  0E00               	movlw	0
  2757  0016A4  6F7B               	movwf	123,b	;volatile
  2758                           
  2759                           ;mcc_generated_files/ecan.c: 117:     MSEL3 = 0x00;
  2760  0016A6  0E00               	movlw	0
  2761  0016A8  6F7C               	movwf	124,b	;volatile
  2762                           
  2763                           ;mcc_generated_files/ecan.c: 122:     RXFBCON0 = 0x00;
  2764  0016AA  0E00               	movlw	0
  2765  0016AC  6F71               	movwf	113,b	;volatile
  2766                           
  2767                           ;mcc_generated_files/ecan.c: 123:     RXFBCON1 = 0x00;
  2768  0016AE  0E00               	movlw	0
  2769  0016B0  6F72               	movwf	114,b	;volatile
  2770                           
  2771                           ;mcc_generated_files/ecan.c: 124:     RXFBCON2 = 0x00;
  2772  0016B2  0E00               	movlw	0
  2773  0016B4  6F73               	movwf	115,b	;volatile
  2774                           
  2775                           ;mcc_generated_files/ecan.c: 125:     RXFBCON3 = 0x00;
  2776  0016B6  0E00               	movlw	0
  2777  0016B8  6F74               	movwf	116,b	;volatile
  2778                           
  2779                           ;mcc_generated_files/ecan.c: 126:     RXFBCON4 = 0x00;
  2780  0016BA  0E00               	movlw	0
  2781  0016BC  6F75               	movwf	117,b	;volatile
  2782                           
  2783                           ;mcc_generated_files/ecan.c: 127:     RXFBCON5 = 0x00;
  2784  0016BE  0E00               	movlw	0
  2785  0016C0  6F76               	movwf	118,b	;volatile
  2786                           
  2787                           ;mcc_generated_files/ecan.c: 128:     RXFBCON6 = 0x00;
  2788  0016C2  0E00               	movlw	0
  2789  0016C4  6F77               	movwf	119,b	;volatile
  2790                           
  2791                           ;mcc_generated_files/ecan.c: 129:     RXFBCON7 = 0x00;
  2792  0016C6  0E00               	movlw	0
  2793  0016C8  6F78               	movwf	120,b	;volatile
  2794                           
  2795                           ;mcc_generated_files/ecan.c: 134:     RXF0EIDH = 0x00;
  2796  0016CA  0E00               	movlw	0
  2797  0016CC  6FE2               	movwf	226,b	;volatile
  2798                           
  2799                           ;mcc_generated_files/ecan.c: 135:     RXF0EIDL = 0x00;
  2800  0016CE  0E00               	movlw	0
  2801  0016D0  6FE3               	movwf	227,b	;volatile
  2802                           
  2803                           ;mcc_generated_files/ecan.c: 136:     RXF0SIDH = 0x24;
  2804  0016D2  0E24               	movlw	36
  2805  0016D4  6FE0               	movwf	224,b	;volatile
  2806                           
  2807                           ;mcc_generated_files/ecan.c: 137:     RXF0SIDL = 0x60;
  2808  0016D6  0E60               	movlw	96
  2809  0016D8  6FE1               	movwf	225,b	;volatile
  2810                           
  2811                           ;mcc_generated_files/ecan.c: 138:     RXF1EIDH = 0x00;
  2812  0016DA  0E00               	movlw	0
  2813  0016DC  6FE6               	movwf	230,b	;volatile
  2814                           
  2815                           ;mcc_generated_files/ecan.c: 139:     RXF1EIDL = 0x00;
  2816  0016DE  0E00               	movlw	0
  2817  0016E0  6FE7               	movwf	231,b	;volatile
  2818                           
  2819                           ;mcc_generated_files/ecan.c: 140:     RXF1SIDH = 0x00;
  2820  0016E2  0E00               	movlw	0
  2821  0016E4  6FE4               	movwf	228,b	;volatile
  2822                           
  2823                           ;mcc_generated_files/ecan.c: 141:     RXF1SIDL = 0x00;
  2824  0016E6  0E00               	movlw	0
  2825  0016E8  6FE5               	movwf	229,b	;volatile
  2826                           
  2827                           ;mcc_generated_files/ecan.c: 142:     RXF2EIDH = 0x00;
  2828  0016EA  0E00               	movlw	0
  2829  0016EC  6FEA               	movwf	234,b	;volatile
  2830                           
  2831                           ;mcc_generated_files/ecan.c: 143:     RXF2EIDL = 0x00;
  2832  0016EE  0E00               	movlw	0
  2833  0016F0  6FEB               	movwf	235,b	;volatile
  2834                           
  2835                           ;mcc_generated_files/ecan.c: 144:     RXF2SIDH = 0x00;
  2836  0016F2  0E00               	movlw	0
  2837  0016F4  6FE8               	movwf	232,b	;volatile
  2838                           
  2839                           ;mcc_generated_files/ecan.c: 145:     RXF2SIDL = 0x00;
  2840  0016F6  0E00               	movlw	0
  2841  0016F8  6FE9               	movwf	233,b	;volatile
  2842                           
  2843                           ;mcc_generated_files/ecan.c: 146:     RXF3EIDH = 0x00;
  2844  0016FA  0E00               	movlw	0
  2845  0016FC  6FEE               	movwf	238,b	;volatile
  2846                           
  2847                           ;mcc_generated_files/ecan.c: 147:     RXF3EIDL = 0x00;
  2848  0016FE  0E00               	movlw	0
  2849  001700  6FEF               	movwf	239,b	;volatile
  2850                           
  2851                           ;mcc_generated_files/ecan.c: 148:     RXF3SIDH = 0x00;
  2852  001702  0E00               	movlw	0
  2853  001704  6FEC               	movwf	236,b	;volatile
  2854                           
  2855                           ;mcc_generated_files/ecan.c: 149:     RXF3SIDL = 0x00;
  2856  001706  0E00               	movlw	0
  2857  001708  6FED               	movwf	237,b	;volatile
  2858                           
  2859                           ;mcc_generated_files/ecan.c: 150:     RXF4EIDH = 0x00;
  2860  00170A  0E00               	movlw	0
  2861  00170C  6FF2               	movwf	242,b	;volatile
  2862                           
  2863                           ;mcc_generated_files/ecan.c: 151:     RXF4EIDL = 0x00;
  2864  00170E  0E00               	movlw	0
  2865  001710  6FF3               	movwf	243,b	;volatile
  2866                           
  2867                           ;mcc_generated_files/ecan.c: 152:     RXF4SIDH = 0x00;
  2868  001712  0E00               	movlw	0
  2869  001714  6FF0               	movwf	240,b	;volatile
  2870                           
  2871                           ;mcc_generated_files/ecan.c: 153:     RXF4SIDL = 0x00;
  2872  001716  0E00               	movlw	0
  2873  001718  6FF1               	movwf	241,b	;volatile
  2874                           
  2875                           ;mcc_generated_files/ecan.c: 154:     RXF5EIDH = 0x00;
  2876  00171A  0E00               	movlw	0
  2877  00171C  6FF6               	movwf	246,b	;volatile
  2878                           
  2879                           ;mcc_generated_files/ecan.c: 155:     RXF5EIDL = 0x00;
  2880  00171E  0E00               	movlw	0
  2881  001720  6FF7               	movwf	247,b	;volatile
  2882                           
  2883                           ;mcc_generated_files/ecan.c: 156:     RXF5SIDH = 0x00;
  2884  001722  0E00               	movlw	0
  2885  001724  6FF4               	movwf	244,b	;volatile
  2886                           
  2887                           ;mcc_generated_files/ecan.c: 157:     RXF5SIDL = 0x00;
  2888  001726  0E00               	movlw	0
  2889  001728  6FF5               	movwf	245,b	;volatile
  2890                           
  2891                           ;mcc_generated_files/ecan.c: 159:     RXF6EIDH = 0x00;
  2892  00172A  0E00               	movlw	0
  2893  00172C  6F4A               	movwf	74,b	;volatile
  2894                           
  2895                           ;mcc_generated_files/ecan.c: 160:     RXF6EIDL = 0x00;
  2896  00172E  0E00               	movlw	0
  2897  001730  6F4B               	movwf	75,b	;volatile
  2898                           
  2899                           ;mcc_generated_files/ecan.c: 161:     RXF6SIDH = 0x00;
  2900  001732  0E00               	movlw	0
  2901  001734  6F48               	movwf	72,b	;volatile
  2902                           
  2903                           ;mcc_generated_files/ecan.c: 162:     RXF6SIDL = 0x00;
  2904  001736  0E00               	movlw	0
  2905  001738  6F49               	movwf	73,b	;volatile
  2906                           
  2907                           ;mcc_generated_files/ecan.c: 163:     RXF7EIDH = 0x00;
  2908  00173A  0E00               	movlw	0
  2909  00173C  6F4E               	movwf	78,b	;volatile
  2910                           
  2911                           ;mcc_generated_files/ecan.c: 164:     RXF7EIDL = 0x00;
  2912  00173E  0E00               	movlw	0
  2913  001740  6F4F               	movwf	79,b	;volatile
  2914                           
  2915                           ;mcc_generated_files/ecan.c: 165:     RXF7SIDH = 0x00;
  2916  001742  0E00               	movlw	0
  2917  001744  6F4C               	movwf	76,b	;volatile
  2918                           
  2919                           ;mcc_generated_files/ecan.c: 166:     RXF7SIDL = 0x00;
  2920  001746  0E00               	movlw	0
  2921  001748  6F4D               	movwf	77,b	;volatile
  2922                           
  2923                           ;mcc_generated_files/ecan.c: 167:     RXF8EIDH = 0x00;
  2924  00174A  0E00               	movlw	0
  2925  00174C  6F52               	movwf	82,b	;volatile
  2926                           
  2927                           ;mcc_generated_files/ecan.c: 168:     RXF8EIDL = 0x00;
  2928  00174E  0E00               	movlw	0
  2929  001750  6F53               	movwf	83,b	;volatile
  2930                           
  2931                           ;mcc_generated_files/ecan.c: 169:     RXF8SIDH = 0x00;
  2932  001752  0E00               	movlw	0
  2933  001754  6F50               	movwf	80,b	;volatile
  2934                           
  2935                           ;mcc_generated_files/ecan.c: 170:     RXF8SIDL = 0x00;
  2936  001756  0E00               	movlw	0
  2937  001758  6F51               	movwf	81,b	;volatile
  2938                           
  2939                           ;mcc_generated_files/ecan.c: 171:     RXF9EIDH = 0x00;
  2940  00175A  0E00               	movlw	0
  2941  00175C  6F56               	movwf	86,b	;volatile
  2942                           
  2943                           ;mcc_generated_files/ecan.c: 172:     RXF9EIDL = 0x00;
  2944  00175E  0E00               	movlw	0
  2945  001760  6F57               	movwf	87,b	;volatile
  2946                           
  2947                           ;mcc_generated_files/ecan.c: 173:     RXF9SIDH = 0x00;
  2948  001762  0E00               	movlw	0
  2949  001764  6F54               	movwf	84,b	;volatile
  2950                           
  2951                           ;mcc_generated_files/ecan.c: 174:     RXF9SIDL = 0x00;
  2952  001766  0E00               	movlw	0
  2953  001768  6F55               	movwf	85,b	;volatile
  2954                           
  2955                           ;mcc_generated_files/ecan.c: 175:     RXF10EIDH = 0x00;
  2956  00176A  0E00               	movlw	0
  2957  00176C  6F5A               	movwf	90,b	;volatile
  2958                           
  2959                           ;mcc_generated_files/ecan.c: 176:     RXF10EIDL = 0x00;
  2960  00176E  0E00               	movlw	0
  2961  001770  6F5B               	movwf	91,b	;volatile
  2962                           
  2963                           ;mcc_generated_files/ecan.c: 177:     RXF10SIDH = 0x00;
  2964  001772  0E00               	movlw	0
  2965  001774  6F58               	movwf	88,b	;volatile
  2966                           
  2967                           ;mcc_generated_files/ecan.c: 178:     RXF10SIDL = 0x00;
  2968  001776  0E00               	movlw	0
  2969  001778  6F59               	movwf	89,b	;volatile
  2970                           
  2971                           ;mcc_generated_files/ecan.c: 179:     RXF11EIDH = 0x00;
  2972  00177A  0E00               	movlw	0
  2973  00177C  6F5E               	movwf	94,b	;volatile
  2974                           
  2975                           ;mcc_generated_files/ecan.c: 180:     RXF11EIDL = 0x00;
  2976  00177E  0E00               	movlw	0
  2977  001780  6F5F               	movwf	95,b	;volatile
  2978                           
  2979                           ;mcc_generated_files/ecan.c: 181:     RXF11SIDH = 0x00;
  2980  001782  0E00               	movlw	0
  2981  001784  6F5C               	movwf	92,b	;volatile
  2982                           
  2983                           ;mcc_generated_files/ecan.c: 182:     RXF11SIDL = 0x00;
  2984  001786  0E00               	movlw	0
  2985  001788  6F5D               	movwf	93,b	;volatile
  2986                           
  2987                           ;mcc_generated_files/ecan.c: 183:     RXF12EIDH = 0x00;
  2988  00178A  0E00               	movlw	0
  2989  00178C  6F62               	movwf	98,b	;volatile
  2990                           
  2991                           ;mcc_generated_files/ecan.c: 184:     RXF12EIDL = 0x00;
  2992  00178E  0E00               	movlw	0
  2993  001790  6F63               	movwf	99,b	;volatile
  2994                           
  2995                           ;mcc_generated_files/ecan.c: 185:     RXF12SIDH = 0x00;
  2996  001792  0E00               	movlw	0
  2997  001794  6F60               	movwf	96,b	;volatile
  2998                           
  2999                           ;mcc_generated_files/ecan.c: 186:     RXF12SIDL = 0x00;
  3000  001796  0E00               	movlw	0
  3001  001798  6F61               	movwf	97,b	;volatile
  3002                           
  3003                           ;mcc_generated_files/ecan.c: 187:     RXF13EIDH = 0x00;
  3004  00179A  0E00               	movlw	0
  3005  00179C  6F66               	movwf	102,b	;volatile
  3006                           
  3007                           ;mcc_generated_files/ecan.c: 188:     RXF13EIDL = 0x00;
  3008  00179E  0E00               	movlw	0
  3009  0017A0  6F67               	movwf	103,b	;volatile
  3010                           
  3011                           ;mcc_generated_files/ecan.c: 189:     RXF13SIDH = 0x00;
  3012  0017A2  0E00               	movlw	0
  3013  0017A4  6F64               	movwf	100,b	;volatile
  3014                           
  3015                           ;mcc_generated_files/ecan.c: 190:     RXF13SIDL = 0x00;
  3016  0017A6  0E00               	movlw	0
  3017  0017A8  6F65               	movwf	101,b	;volatile
  3018                           
  3019                           ;mcc_generated_files/ecan.c: 191:     RXF14EIDH = 0x00;
  3020  0017AA  0E00               	movlw	0
  3021  0017AC  6F6A               	movwf	106,b	;volatile
  3022                           
  3023                           ;mcc_generated_files/ecan.c: 192:     RXF14EIDL = 0x00;
  3024  0017AE  0E00               	movlw	0
  3025  0017B0  6F6B               	movwf	107,b	;volatile
  3026                           
  3027                           ;mcc_generated_files/ecan.c: 193:     RXF14SIDH = 0x00;
  3028  0017B2  0E00               	movlw	0
  3029  0017B4  6F68               	movwf	104,b	;volatile
  3030                           
  3031                           ;mcc_generated_files/ecan.c: 194:     RXF14SIDL = 0x00;
  3032  0017B6  0E00               	movlw	0
  3033  0017B8  6F69               	movwf	105,b	;volatile
  3034  0017BA                     
  3035                           ; BSR set to: 14
  3036                           ;mcc_generated_files/ecan.c: 195:     RXF15EIDH = 0xFF;
  3037  0017BA  696E               	setf	110,b	;volatile
  3038  0017BC                     
  3039                           ; BSR set to: 14
  3040                           ;mcc_generated_files/ecan.c: 196:     RXF15EIDL = 0xFF;
  3041  0017BC  696F               	setf	111,b	;volatile
  3042  0017BE                     
  3043                           ; BSR set to: 14
  3044                           ;mcc_generated_files/ecan.c: 197:     RXF15SIDH = 0xFF;
  3045  0017BE  696C               	setf	108,b	;volatile
  3046                           
  3047                           ;mcc_generated_files/ecan.c: 198:     RXF15SIDL = 0xE3;
  3048  0017C0  0EE3               	movlw	227
  3049  0017C2  6F6D               	movwf	109,b	;volatile
  3050                           
  3051                           ;mcc_generated_files/ecan.c: 213:     BRGCON1 = 0x13;
  3052  0017C4  0E13               	movlw	19
  3053  0017C6  6F43               	movwf	67,b	;volatile
  3054                           
  3055                           ;mcc_generated_files/ecan.c: 214:     BRGCON2 = 0xA8;
  3056  0017C8  0EA8               	movlw	168
  3057  0017CA  6F44               	movwf	68,b	;volatile
  3058                           
  3059                           ;mcc_generated_files/ecan.c: 215:     BRGCON3 = 0x01;
  3060  0017CC  0E01               	movlw	1
  3061  0017CE  6F45               	movwf	69,b	;volatile
  3062  0017D0                     
  3063                           ; BSR set to: 14
  3064                           ;mcc_generated_files/ecan.c: 217:     ECAN_SetWakeUpInterruptHandler(WakeUpDefaultInterr
      +                          uptHandler);
  3065  0017D0  0E80               	movlw	low _WakeUpDefaultInterruptHandler
  3066  0017D2  6E03               	movwf	ECAN_SetWakeUpInterruptHandler@handler^0,c
  3067  0017D4  0E21               	movlw	high _WakeUpDefaultInterruptHandler
  3068  0017D6  6E04               	movwf	(ECAN_SetWakeUpInterruptHandler@handler+1)^0,c
  3069  0017D8  ECB9  F010         	call	_ECAN_SetWakeUpInterruptHandler	;wreg free
  3070  0017DC                     
  3071                           ;mcc_generated_files/ecan.c: 218:     PIR5bits.WAKIF = 0;
  3072  0017DC  9C77               	bcf	119,6,c	;volatile
  3073  0017DE                     
  3074                           ;mcc_generated_files/ecan.c: 219:     PIE5bits.WAKIE = 1;
  3075  0017DE  8C76               	bsf	118,6,c	;volatile
  3076  0017E0                     
  3077                           ;mcc_generated_files/ecan.c: 221:     CANCON = 0x00;
  3078  0017E0  0E00               	movlw	0
  3079  0017E2  6E6F               	movwf	111,c	;volatile
  3080  0017E4                     l2255:
  3081  0017E4  CF6E F005          	movff	3950,??_ECAN_Initialize	;volatile
  3082  0017E8  0EE0               	movlw	224
  3083  0017EA  1605               	andwf	??_ECAN_Initialize^0,f,c
  3084  0017EC  A4D8               	btfss	status,2,c
  3085  0017EE  EFFB  F00B         	goto	u821
  3086  0017F2  EFFD  F00B         	goto	u820
  3087  0017F6                     u821:
  3088  0017F6  EFF2  F00B         	goto	l2255
  3089  0017FA                     u820:
  3090  0017FA  0012               	return		;funcret
  3091  0017FC                     __end_of_ECAN_Initialize:
  3092                           	callstack 0
  3093                           
  3094 ;; *************** function _ECAN_SetWakeUpInterruptHandler *****************
  3095 ;; Defined at:
  3096 ;;		line 498 in file "mcc_generated_files/ecan.c"
  3097 ;; Parameters:    Size  Location     Type
  3098 ;;  handler         2    2[COMRAM] PTR FTN()void 
  3099 ;;		 -> WakeUpDefaultInterruptHandler(1), 
  3100 ;; Auto vars:     Size  Location     Type
  3101 ;;		None
  3102 ;; Return value:  Size  Location     Type
  3103 ;;                  1    wreg      void 
  3104 ;; Registers used:
  3105 ;;		wreg, status,2, status,0
  3106 ;; Tracked objects:
  3107 ;;		On entry : 0/0
  3108 ;;		On exit  : 0/0
  3109 ;;		Unchanged: 0/0
  3110 ;; Data sizes:     COMRAM   BANK0   BANK1   BANK2   BANK3   BANK4   BANK5   BANK6   BANK7   BANK8   BANK9  BANK10  BANK1
      +1  BANK12  BANK13  BANK14
  3111 ;;      Params:         2       0       0       0       0       0       0       0       0       0       0       0       
      +0       0       0       0
  3112 ;;      Locals:         0       0       0       0       0       0       0       0       0       0       0       0       
      +0       0       0       0
  3113 ;;      Temps:          0       0       0       0       0       0       0       0       0       0       0       0       
      +0       0       0       0
  3114 ;;      Totals:         2       0       0       0       0       0       0       0       0       0       0       0       
      +0       0       0       0
  3115 ;;Total ram usage:        2 bytes
  3116 ;; Hardware stack levels used: 1
  3117 ;; Hardware stack levels required when called: 3
  3118 ;; This function calls:
  3119 ;;		Nothing
  3120 ;; This function is called by:
  3121 ;;		_ECAN_Initialize
  3122 ;; This function uses a non-reentrant model
  3123 ;;
  3124                           
  3125                           	psect	text15
  3126  002172                     __ptext15:
  3127                           	callstack 0
  3128  002172                     _ECAN_SetWakeUpInterruptHandler:
  3129                           	callstack 25
  3130  002172                     
  3131                           ;mcc_generated_files/ecan.c: 498: void ECAN_SetWakeUpInterruptHandler(void (*handler)(vo
      +                          id));mcc_generated_files/ecan.c: 499: {;mcc_generated_files/ecan.c: 500:     WakeUpInter
      +                          ruptHandler = handler;
  3132  002172  C003  F033         	movff	ECAN_SetWakeUpInterruptHandler@handler,_WakeUpInterruptHandler
  3133  002176  C004  F034         	movff	ECAN_SetWakeUpInterruptHandler@handler+1,_WakeUpInterruptHandler+1
  3134  00217A  0012               	return		;funcret
  3135  00217C                     __end_of_ECAN_SetWakeUpInterruptHandler:
  3136                           	callstack 0
  3137                           
  3138 ;; *************** function _LCD_init *****************
  3139 ;; Defined at:
  3140 ;;		line 50 in file "LCD_functions.c"
  3141 ;; Parameters:    Size  Location     Type
  3142 ;;		None
  3143 ;; Auto vars:     Size  Location     Type
  3144 ;;  i               1   18[COMRAM] unsigned char 
  3145 ;; Return value:  Size  Location     Type
  3146 ;;                  1    wreg      void 
  3147 ;; Registers used:
  3148 ;;		wreg, fsr0l, fsr0h, status,2, status,0, tblptrl, tblptrh, tblptru, cstack
  3149 ;; Tracked objects:
  3150 ;;		On entry : 0/0
  3151 ;;		On exit  : 0/0
  3152 ;;		Unchanged: 0/0
  3153 ;; Data sizes:     COMRAM   BANK0   BANK1   BANK2   BANK3   BANK4   BANK5   BANK6   BANK7   BANK8   BANK9  BANK10  BANK1
      +1  BANK12  BANK13  BANK14
  3154 ;;      Params:         0       0       0       0       0       0       0       0       0       0       0       0       
      +0       0       0       0
  3155 ;;      Locals:         1       0       0       0       0       0       0       0       0       0       0       0       
      +0       0       0       0
  3156 ;;      Temps:          2       0       0       0       0       0       0       0       0       0       0       0       
      +0       0       0       0
  3157 ;;      Totals:         3       0       0       0       0       0       0       0       0       0       0       0       
      +0       0       0       0
  3158 ;;Total ram usage:        3 bytes
  3159 ;; Hardware stack levels used: 1
  3160 ;; Hardware stack levels required when called: 8
  3161 ;; This function calls:
  3162 ;;		_LCD_command
  3163 ;;		_LCD_print_string
  3164 ;; This function is called by:
  3165 ;;		_main
  3166 ;; This function uses a non-reentrant model
  3167 ;;
  3168                           
  3169                           	psect	text16
  3170  001E16                     __ptext16:
  3171                           	callstack 0
  3172  001E16                     _LCD_init:
  3173                           	callstack 22
  3174  001E16                     
  3175                           ;LCD_functions.c: 51:     _delay((unsigned long)((15)*(20000000/4000.0)));
  3176  001E16  0E62               	movlw	98
  3177  001E18  6E11               	movwf	??_LCD_init^0,c
  3178  001E1A  0E66               	movlw	102
  3179  001E1C                     u1457:
  3180  001E1C  2EE8               	decfsz	wreg,f,c
  3181  001E1E  D7FE               	bra	u1457
  3182  001E20  2E11               	decfsz	??_LCD_init^0,f,c
  3183  001E22  D7FC               	bra	u1457
  3184  001E24                     
  3185                           ;LCD_functions.c: 52:     LATD6 = 0;
  3186  001E24  9C8C               	bcf	3980,6,c	;volatile
  3187  001E26                     
  3188                           ;LCD_functions.c: 53:     LATD5 = 0;
  3189  001E26  9A8C               	bcf	3980,5,c	;volatile
  3190  001E28                     
  3191                           ;LCD_functions.c: 54:     LATB = 0;
  3192  001E28  0E00               	movlw	0
  3193  001E2A  6E8A               	movwf	138,c	;volatile
  3194  001E2C                     
  3195                           ;LCD_functions.c: 56:     LCD_command(0x38);
  3196  001E2C  0E38               	movlw	56
  3197  001E2E  ECB1  F010         	call	_LCD_command
  3198  001E32                     
  3199                           ;LCD_functions.c: 57:     LCD_command(0x01);
  3200  001E32  0E01               	movlw	1
  3201  001E34  ECB1  F010         	call	_LCD_command
  3202  001E38                     
  3203                           ;LCD_functions.c: 58:     LCD_command(0x0C);
  3204  001E38  0E0C               	movlw	12
  3205  001E3A  ECB1  F010         	call	_LCD_command
  3206  001E3E                     
  3207                           ;LCD_functions.c: 59:     LCD_command(0x06);
  3208  001E3E  0E06               	movlw	6
  3209  001E40  ECB1  F010         	call	_LCD_command
  3210  001E44                     
  3211                           ;LCD_functions.c: 61:     LCD_print_string("System Start",0,0);
  3212  001E44  0E01               	movlw	low STR_1
  3213  001E46  6E0A               	movwf	LCD_print_string@str^0,c
  3214  001E48  0E0F               	movlw	high STR_1
  3215  001E4A  6E0B               	movwf	(LCD_print_string@str+1)^0,c
  3216  001E4C  0E00               	movlw	0
  3217  001E4E  6E0C               	movwf	LCD_print_string@pos^0,c
  3218  001E50  0E00               	movlw	0
  3219  001E52  6E0D               	movwf	LCD_print_string@line^0,c
  3220  001E54  ECE3  F00D         	call	_LCD_print_string	;wreg free
  3221  001E58                     
  3222                           ;LCD_functions.c: 62:     _delay((unsigned long)((200)*(20000000/4000.0)));
  3223  001E58  0E06               	movlw	6
  3224  001E5A  6E12               	movwf	(??_LCD_init+1)^0,c
  3225  001E5C  0E13               	movlw	19
  3226  001E5E  6E11               	movwf	??_LCD_init^0,c
  3227  001E60  0EAE               	movlw	174
  3228  001E62                     u1467:
  3229  001E62  2EE8               	decfsz	wreg,f,c
  3230  001E64  D7FE               	bra	u1467
  3231  001E66  2E11               	decfsz	??_LCD_init^0,f,c
  3232  001E68  D7FC               	bra	u1467
  3233  001E6A  2E12               	decfsz	(??_LCD_init+1)^0,f,c
  3234  001E6C  D7FA               	bra	u1467
  3235  001E6E                     
  3236                           ;LCD_functions.c: 63:     for(uint8_t i=0;i<4;i++){
  3237  001E6E  0E00               	movlw	0
  3238  001E70  6E13               	movwf	LCD_init@i^0,c
  3239  001E72                     l2465:
  3240                           
  3241                           ;LCD_functions.c: 64:         LCD_print_string(".",12+i,0);
  3242  001E72  0E0E               	movlw	low STR_2
  3243  001E74  6E0A               	movwf	LCD_print_string@str^0,c
  3244  001E76  0E0F               	movlw	high STR_2
  3245  001E78  6E0B               	movwf	(LCD_print_string@str+1)^0,c
  3246  001E7A  5013               	movf	LCD_init@i^0,w,c
  3247  001E7C  0F0C               	addlw	12
  3248  001E7E  6E0C               	movwf	LCD_print_string@pos^0,c
  3249  001E80  0E00               	movlw	0
  3250  001E82  6E0D               	movwf	LCD_print_string@line^0,c
  3251  001E84  ECE3  F00D         	call	_LCD_print_string	;wreg free
  3252  001E88                     
  3253                           ;LCD_functions.c: 65:         _delay((unsigned long)((200)*(20000000/4000.0)));
  3254  001E88  0E06               	movlw	6
  3255  001E8A  6E12               	movwf	(??_LCD_init+1)^0,c
  3256  001E8C  0E13               	movlw	19
  3257  001E8E  6E11               	movwf	??_LCD_init^0,c
  3258  001E90  0EAE               	movlw	174
  3259  001E92                     u1477:
  3260  001E92  2EE8               	decfsz	wreg,f,c
  3261  001E94  D7FE               	bra	u1477
  3262  001E96  2E11               	decfsz	??_LCD_init^0,f,c
  3263  001E98  D7FC               	bra	u1477
  3264  001E9A  2E12               	decfsz	(??_LCD_init+1)^0,f,c
  3265  001E9C  D7FA               	bra	u1477
  3266  001E9E                     
  3267                           ;LCD_functions.c: 66:     }
  3268  001E9E  2A13               	incf	LCD_init@i^0,f,c
  3269  001EA0  0E03               	movlw	3
  3270  001EA2  6413               	cpfsgt	LCD_init@i^0,c
  3271  001EA4  EF56  F00F         	goto	u1121
  3272  001EA8  EF58  F00F         	goto	u1120
  3273  001EAC                     u1121:
  3274  001EAC  EF39  F00F         	goto	l2465
  3275  001EB0                     u1120:
  3276  001EB0                     
  3277                           ;LCD_functions.c: 67:     LCD_command(0x01);
  3278  001EB0  0E01               	movlw	1
  3279  001EB2  ECB1  F010         	call	_LCD_command
  3280  001EB6  0012               	return		;funcret
  3281  001EB8                     __end_of_LCD_init:
  3282                           	callstack 0
  3283                           
  3284 ;; *************** function _LCD_print_string *****************
  3285 ;; Defined at:
  3286 ;;		line 37 in file "LCD_functions.c"
  3287 ;; Parameters:    Size  Location     Type
  3288 ;;  str             2    9[COMRAM] PTR const unsigned char 
  3289 ;;		 -> STR_2(2), STR_1(13), main@menu(60), 
  3290 ;;  pos             1   11[COMRAM] unsigned char 
  3291 ;;  line            1   12[COMRAM] unsigned char 
  3292 ;; Auto vars:     Size  Location     Type
  3293 ;;  i               1   15[COMRAM] unsigned char 
  3294 ;; Return value:  Size  Location     Type
  3295 ;;                  1    wreg      void 
  3296 ;; Registers used:
  3297 ;;		wreg, fsr0l, fsr0h, status,2, status,0, tblptrl, tblptrh, tblptru, cstack
  3298 ;; Tracked objects:
  3299 ;;		On entry : 0/0
  3300 ;;		On exit  : 0/0
  3301 ;;		Unchanged: 0/0
  3302 ;; Data sizes:     COMRAM   BANK0   BANK1   BANK2   BANK3   BANK4   BANK5   BANK6   BANK7   BANK8   BANK9  BANK10  BANK1
      +1  BANK12  BANK13  BANK14
  3303 ;;      Params:         4       0       0       0       0       0       0       0       0       0       0       0       
      +0       0       0       0
  3304 ;;      Locals:         1       0       0       0       0       0       0       0       0       0       0       0       
      +0       0       0       0
  3305 ;;      Temps:          2       0       0       0       0       0       0       0       0       0       0       0       
      +0       0       0       0
  3306 ;;      Totals:         7       0       0       0       0       0       0       0       0       0       0       0       
      +0       0       0       0
  3307 ;;Total ram usage:        7 bytes
  3308 ;; Hardware stack levels used: 1
  3309 ;; Hardware stack levels required when called: 7
  3310 ;; This function calls:
  3311 ;;		_LCD_print
  3312 ;; This function is called by:
  3313 ;;		_main
  3314 ;;		_LCD_init
  3315 ;; This function uses a non-reentrant model
  3316 ;;
  3317                           
  3318                           	psect	text17
  3319  001BC6                     __ptext17:
  3320                           	callstack 0
  3321  001BC6                     _LCD_print_string:
  3322                           	callstack 23
  3323  001BC6                     
  3324                           ;LCD_functions.c: 38:     uint8_t i = 0;
  3325  001BC6  0E00               	movlw	0
  3326  001BC8  6E10               	movwf	LCD_print_string@i^0,c
  3327                           
  3328                           ;LCD_functions.c: 39:     while (str[i] != 0){
  3329  001BCA  EF3C  F00E         	goto	l2267
  3330  001BCE                     l2259:
  3331                           
  3332                           ;LCD_functions.c: 40:         if (pos + i > 15){
  3333  001BCE  5010               	movf	LCD_print_string@i^0,w,c
  3334  001BD0  C00C  F00E         	movff	LCD_print_string@pos,??_LCD_print_string
  3335  001BD4  6A0F               	clrf	(??_LCD_print_string+1)^0,c
  3336  001BD6  260E               	addwf	??_LCD_print_string^0,f,c
  3337  001BD8  0E00               	movlw	0
  3338  001BDA  220F               	addwfc	(??_LCD_print_string+1)^0,f,c
  3339  001BDC  BE0F               	btfsc	(??_LCD_print_string+1)^0,7,c
  3340  001BDE  EFFA  F00D         	goto	u831
  3341  001BE2  500F               	movf	(??_LCD_print_string+1)^0,w,c
  3342  001BE4  E109               	bnz	u830
  3343  001BE6  0E10               	movlw	16
  3344  001BE8  5C0E               	subwf	??_LCD_print_string^0,w,c
  3345  001BEA  A0D8               	btfss	status,0,c
  3346  001BEC  EFFA  F00D         	goto	u831
  3347  001BF0  EFFC  F00D         	goto	u830
  3348  001BF4                     u831:
  3349  001BF4  EF1D  F00E         	goto	l2263
  3350  001BF8                     u830:
  3351  001BF8                     
  3352                           ;LCD_functions.c: 41:             LCD_print(str[i],pos+i-16,line + 1);
  3353  001BF8  500C               	movf	LCD_print_string@pos^0,w,c
  3354  001BFA  2410               	addwf	LCD_print_string@i^0,w,c
  3355  001BFC  0FF0               	addlw	240
  3356  001BFE  6E07               	movwf	LCD_print@pos^0,c
  3357  001C00  280D               	incf	LCD_print_string@line^0,w,c
  3358  001C02  6E08               	movwf	LCD_print@line^0,c
  3359  001C04  5010               	movf	LCD_print_string@i^0,w,c
  3360  001C06  240A               	addwf	LCD_print_string@str^0,w,c
  3361  001C08  6E0E               	movwf	??_LCD_print_string^0,c
  3362  001C0A  0E00               	movlw	0
  3363  001C0C  200B               	addwfc	(LCD_print_string@str+1)^0,w,c
  3364  001C0E  6E0F               	movwf	(??_LCD_print_string+1)^0,c
  3365  001C10  C00E  FFF6         	movff	??_LCD_print_string,tblptrl
  3366  001C14  C00F  FFF7         	movff	??_LCD_print_string+1,tblptrh
  3367  001C18  0E00               	movlw	low (__smallconst shr (0+16))
  3368  001C1A  6EF8               	movwf	tblptru,c
  3369  001C1C  0E0E               	movlw	(high __ramtop+-1)
  3370  001C1E  64F7               	cpfsgt	tblptrh,c
  3371  001C20  D003               	bra	u847
  3372  001C22  0008               	tblrd		*
  3373  001C24  50F5               	movf	tablat,w,c
  3374  001C26  D005               	bra	u840
  3375  001C28                     u847:
  3376  001C28  CFF6 FFE9          	movff	tblptrl,fsr0l
  3377  001C2C  CFF7 FFEA          	movff	tblptrh,fsr0h
  3378  001C30  50EF               	movf	indf0,w,c
  3379  001C32                     u840:
  3380  001C32  EC87  F010         	call	_LCD_print
  3381                           
  3382                           ;LCD_functions.c: 42:         }
  3383  001C36  EF3B  F00E         	goto	l2265
  3384  001C3A                     l2263:
  3385                           
  3386                           ;LCD_functions.c: 44:             LCD_print(str[i],pos+i,line);
  3387  001C3A  500C               	movf	LCD_print_string@pos^0,w,c
  3388  001C3C  2410               	addwf	LCD_print_string@i^0,w,c
  3389  001C3E  6E07               	movwf	LCD_print@pos^0,c
  3390  001C40  C00D  F008         	movff	LCD_print_string@line,LCD_print@line
  3391  001C44  5010               	movf	LCD_print_string@i^0,w,c
  3392  001C46  240A               	addwf	LCD_print_string@str^0,w,c
  3393  001C48  6E0E               	movwf	??_LCD_print_string^0,c
  3394  001C4A  0E00               	movlw	0
  3395  001C4C  200B               	addwfc	(LCD_print_string@str+1)^0,w,c
  3396  001C4E  6E0F               	movwf	(??_LCD_print_string+1)^0,c
  3397  001C50  C00E  FFF6         	movff	??_LCD_print_string,tblptrl
  3398  001C54  C00F  FFF7         	movff	??_LCD_print_string+1,tblptrh
  3399  001C58  0E00               	movlw	low (__smallconst shr (0+16))
  3400  001C5A  6EF8               	movwf	tblptru,c
  3401  001C5C  0E0E               	movlw	(high __ramtop+-1)
  3402  001C5E  64F7               	cpfsgt	tblptrh,c
  3403  001C60  D003               	bra	u857
  3404  001C62  0008               	tblrd		*
  3405  001C64  50F5               	movf	tablat,w,c
  3406  001C66  D005               	bra	u850
  3407  001C68                     u857:
  3408  001C68  CFF6 FFE9          	movff	tblptrl,fsr0l
  3409  001C6C  CFF7 FFEA          	movff	tblptrh,fsr0h
  3410  001C70  50EF               	movf	indf0,w,c
  3411  001C72                     u850:
  3412  001C72  EC87  F010         	call	_LCD_print
  3413  001C76                     l2265:
  3414                           
  3415                           ;LCD_functions.c: 46:         i++;
  3416  001C76  2A10               	incf	LCD_print_string@i^0,f,c
  3417  001C78                     l2267:
  3418                           
  3419                           ;LCD_functions.c: 39:     while (str[i] != 0){
  3420  001C78  5010               	movf	LCD_print_string@i^0,w,c
  3421  001C7A  240A               	addwf	LCD_print_string@str^0,w,c
  3422  001C7C  6E0E               	movwf	??_LCD_print_string^0,c
  3423  001C7E  0E00               	movlw	0
  3424  001C80  200B               	addwfc	(LCD_print_string@str+1)^0,w,c
  3425  001C82  6E0F               	movwf	(??_LCD_print_string+1)^0,c
  3426  001C84  C00E  FFF6         	movff	??_LCD_print_string,tblptrl
  3427  001C88  C00F  FFF7         	movff	??_LCD_print_string+1,tblptrh
  3428  001C8C  0E00               	movlw	low (__smallconst shr (0+16))
  3429  001C8E  6EF8               	movwf	tblptru,c
  3430  001C90  0E0E               	movlw	(high __ramtop+-1)
  3431  001C92  64F7               	cpfsgt	tblptrh,c
  3432  001C94  D003               	bra	u867
  3433  001C96  0008               	tblrd		*
  3434  001C98  50F5               	movf	tablat,w,c
  3435  001C9A  D005               	bra	u860
  3436  001C9C                     u867:
  3437  001C9C  CFF6 FFE9          	movff	tblptrl,fsr0l
  3438  001CA0  CFF7 FFEA          	movff	tblptrh,fsr0h
  3439  001CA4  50EF               	movf	indf0,w,c
  3440  001CA6                     u860:
  3441  001CA6  0900               	iorlw	0
  3442  001CA8  A4D8               	btfss	status,2,c
  3443  001CAA  EF59  F00E         	goto	u871
  3444  001CAE  EF5B  F00E         	goto	u870
  3445  001CB2                     u871:
  3446  001CB2  EFE7  F00D         	goto	l2259
  3447  001CB6                     u870:
  3448  001CB6  0012               	return		;funcret
  3449  001CB8                     __end_of_LCD_print_string:
  3450                           	callstack 0
  3451                           
  3452 ;; *************** function _LCD_print *****************
  3453 ;; Defined at:
  3454 ;;		line 28 in file "LCD_functions.c"
  3455 ;; Parameters:    Size  Location     Type
  3456 ;;  x               1    wreg     unsigned char 
  3457 ;;  pos             1    6[COMRAM] unsigned char 
  3458 ;;  line            1    7[COMRAM] unsigned char 
  3459 ;; Auto vars:     Size  Location     Type
  3460 ;;  x               1    8[COMRAM] unsigned char 
  3461 ;; Return value:  Size  Location     Type
  3462 ;;                  1    wreg      void 
  3463 ;; Registers used:
  3464 ;;		wreg, status,2, status,0, cstack
  3465 ;; Tracked objects:
  3466 ;;		On entry : 0/0
  3467 ;;		On exit  : 0/0
  3468 ;;		Unchanged: 0/0
  3469 ;; Data sizes:     COMRAM   BANK0   BANK1   BANK2   BANK3   BANK4   BANK5   BANK6   BANK7   BANK8   BANK9  BANK10  BANK1
      +1  BANK12  BANK13  BANK14
  3470 ;;      Params:         2       0       0       0       0       0       0       0       0       0       0       0       
      +0       0       0       0
  3471 ;;      Locals:         1       0       0       0       0       0       0       0       0       0       0       0       
      +0       0       0       0
  3472 ;;      Temps:          0       0       0       0       0       0       0       0       0       0       0       0       
      +0       0       0       0
  3473 ;;      Totals:         3       0       0       0       0       0       0       0       0       0       0       0       
      +0       0       0       0
  3474 ;;Total ram usage:        3 bytes
  3475 ;; Hardware stack levels used: 1
  3476 ;; Hardware stack levels required when called: 6
  3477 ;; This function calls:
  3478 ;;		_LCD_intake
  3479 ;;		_LCD_set_pos
  3480 ;; This function is called by:
  3481 ;;		_LCD_print_string
  3482 ;; This function uses a non-reentrant model
  3483 ;;
  3484                           
  3485                           	psect	text18
  3486  00210E                     __ptext18:
  3487                           	callstack 0
  3488  00210E                     _LCD_print:
  3489                           	callstack 23
  3490                           
  3491                           ;incstack = 0
  3492                           ;LCD_print@x stored from wreg
  3493  00210E  6E09               	movwf	LCD_print@x^0,c
  3494  002110                     
  3495                           ;LCD_functions.c: 29:     LCD_set_pos(pos,line);
  3496  002110  C008  F005         	movff	LCD_print@line,LCD_set_pos@y
  3497  002114  5007               	movf	LCD_print@pos^0,w,c
  3498  002116  EC4E  F010         	call	_LCD_set_pos
  3499  00211A                     
  3500                           ;LCD_functions.c: 31:     LATD6 = 1;
  3501  00211A  8C8C               	bsf	3980,6,c	;volatile
  3502  00211C                     
  3503                           ;LCD_functions.c: 32:     LATD5 = 0;
  3504  00211C  9A8C               	bcf	3980,5,c	;volatile
  3505  00211E                     
  3506                           ;LCD_functions.c: 33:     LATB = x;
  3507  00211E  C009  FF8A         	movff	LCD_print@x,3978	;volatile
  3508  002122                     
  3509                           ;LCD_functions.c: 34:     LCD_intake();
  3510  002122  EC94  F010         	call	_LCD_intake	;wreg free
  3511  002126  0012               	return		;funcret
  3512  002128                     __end_of_LCD_print:
  3513                           	callstack 0
  3514                           
  3515 ;; *************** function _LCD_set_pos *****************
  3516 ;; Defined at:
  3517 ;;		line 19 in file "LCD_functions.c"
  3518 ;; Parameters:    Size  Location     Type
  3519 ;;  x               1    wreg     unsigned char 
  3520 ;;  y               1    4[COMRAM] unsigned char 
  3521 ;; Auto vars:     Size  Location     Type
  3522 ;;  x               1    5[COMRAM] unsigned char 
  3523 ;; Return value:  Size  Location     Type
  3524 ;;                  1    wreg      unsigned char 
  3525 ;; Registers used:
  3526 ;;		wreg, status,2, status,0, cstack
  3527 ;; Tracked objects:
  3528 ;;		On entry : 0/0
  3529 ;;		On exit  : 0/0
  3530 ;;		Unchanged: 0/0
  3531 ;; Data sizes:     COMRAM   BANK0   BANK1   BANK2   BANK3   BANK4   BANK5   BANK6   BANK7   BANK8   BANK9  BANK10  BANK1
      +1  BANK12  BANK13  BANK14
  3532 ;;      Params:         1       0       0       0       0       0       0       0       0       0       0       0       
      +0       0       0       0
  3533 ;;      Locals:         1       0       0       0       0       0       0       0       0       0       0       0       
      +0       0       0       0
  3534 ;;      Temps:          0       0       0       0       0       0       0       0       0       0       0       0       
      +0       0       0       0
  3535 ;;      Totals:         2       0       0       0       0       0       0       0       0       0       0       0       
      +0       0       0       0
  3536 ;;Total ram usage:        2 bytes
  3537 ;; Hardware stack levels used: 1
  3538 ;; Hardware stack levels required when called: 5
  3539 ;; This function calls:
  3540 ;;		_LCD_command
  3541 ;; This function is called by:
  3542 ;;		_LCD_print
  3543 ;; This function uses a non-reentrant model
  3544 ;;
  3545                           
  3546                           	psect	text19
  3547  00209C                     __ptext19:
  3548                           	callstack 0
  3549  00209C                     _LCD_set_pos:
  3550                           	callstack 23
  3551                           
  3552                           ;incstack = 0
  3553                           ;LCD_set_pos@x stored from wreg
  3554  00209C  6E06               	movwf	LCD_set_pos@x^0,c
  3555  00209E                     
  3556                           ;LCD_functions.c: 20:     if (y%2 == 1){
  3557  00209E  A005               	btfss	LCD_set_pos@y^0,0,c
  3558  0020A0  EF54  F010         	goto	u801
  3559  0020A4  EF56  F010         	goto	u800
  3560  0020A8                     u801:
  3561  0020A8  EF58  F010         	goto	l2195
  3562  0020AC                     u800:
  3563  0020AC                     
  3564                           ;LCD_functions.c: 21:         x += 0x40;
  3565  0020AC  0E40               	movlw	64
  3566  0020AE  2606               	addwf	LCD_set_pos@x^0,f,c
  3567  0020B0                     l2195:
  3568                           
  3569                           ;LCD_functions.c: 24:     LCD_command(0x80 | x);
  3570  0020B0  5006               	movf	LCD_set_pos@x^0,w,c
  3571  0020B2  0980               	iorlw	128
  3572  0020B4  ECB1  F010         	call	_LCD_command
  3573  0020B8  0012               	return		;funcret
  3574  0020BA                     __end_of_LCD_set_pos:
  3575                           	callstack 0
  3576                           
  3577 ;; *************** function _LCD_command *****************
  3578 ;; Defined at:
  3579 ;;		line 11 in file "LCD_functions.c"
  3580 ;; Parameters:    Size  Location     Type
  3581 ;;  command         1    wreg     unsigned char 
  3582 ;; Auto vars:     Size  Location     Type
  3583 ;;  command         1    3[COMRAM] unsigned char 
  3584 ;; Return value:  Size  Location     Type
  3585 ;;                  1    wreg      void 
  3586 ;; Registers used:
  3587 ;;		wreg, cstack
  3588 ;; Tracked objects:
  3589 ;;		On entry : 0/0
  3590 ;;		On exit  : 0/0
  3591 ;;		Unchanged: 0/0
  3592 ;; Data sizes:     COMRAM   BANK0   BANK1   BANK2   BANK3   BANK4   BANK5   BANK6   BANK7   BANK8   BANK9  BANK10  BANK1
      +1  BANK12  BANK13  BANK14
  3593 ;;      Params:         0       0       0       0       0       0       0       0       0       0       0       0       
      +0       0       0       0
  3594 ;;      Locals:         1       0       0       0       0       0       0       0       0       0       0       0       
      +0       0       0       0
  3595 ;;      Temps:          0       0       0       0       0       0       0       0       0       0       0       0       
      +0       0       0       0
  3596 ;;      Totals:         1       0       0       0       0       0       0       0       0       0       0       0       
      +0       0       0       0
  3597 ;;Total ram usage:        1 bytes
  3598 ;; Hardware stack levels used: 1
  3599 ;; Hardware stack levels required when called: 4
  3600 ;; This function calls:
  3601 ;;		_LCD_intake
  3602 ;; This function is called by:
  3603 ;;		_main
  3604 ;;		_LCD_set_pos
  3605 ;;		_LCD_init
  3606 ;; This function uses a non-reentrant model
  3607 ;;
  3608                           
  3609                           	psect	text20
  3610  002162                     __ptext20:
  3611                           	callstack 0
  3612  002162                     _LCD_command:
  3613                           	callstack 23
  3614                           
  3615                           ;incstack = 0
  3616                           ;LCD_command@command stored from wreg
  3617  002162  6E04               	movwf	LCD_command@command^0,c
  3618  002164                     
  3619                           ;LCD_functions.c: 12:     LATD6 = 0;
  3620  002164  9C8C               	bcf	3980,6,c	;volatile
  3621                           
  3622                           ;LCD_functions.c: 13:     LATD5 = 0;
  3623  002166  9A8C               	bcf	3980,5,c	;volatile
  3624  002168                     
  3625                           ;LCD_functions.c: 15:     LATB = command;
  3626  002168  C004  FF8A         	movff	LCD_command@command,3978	;volatile
  3627  00216C                     
  3628                           ;LCD_functions.c: 16:     LCD_intake();
  3629  00216C  EC94  F010         	call	_LCD_intake	;wreg free
  3630  002170  0012               	return		;funcret
  3631  002172                     __end_of_LCD_command:
  3632                           	callstack 0
  3633                           
  3634 ;; *************** function _LCD_intake *****************
  3635 ;; Defined at:
  3636 ;;		line 4 in file "LCD_functions.c"
  3637 ;; Parameters:    Size  Location     Type
  3638 ;;		None
  3639 ;; Auto vars:     Size  Location     Type
  3640 ;;		None
  3641 ;; Return value:  Size  Location     Type
  3642 ;;                  1    wreg      void 
  3643 ;; Registers used:
  3644 ;;		wreg
  3645 ;; Tracked objects:
  3646 ;;		On entry : 0/0
  3647 ;;		On exit  : 0/0
  3648 ;;		Unchanged: 0/0
  3649 ;; Data sizes:     COMRAM   BANK0   BANK1   BANK2   BANK3   BANK4   BANK5   BANK6   BANK7   BANK8   BANK9  BANK10  BANK1
      +1  BANK12  BANK13  BANK14
  3650 ;;      Params:         0       0       0       0       0       0       0       0       0       0       0       0       
      +0       0       0       0
  3651 ;;      Locals:         0       0       0       0       0       0       0       0       0       0       0       0       
      +0       0       0       0
  3652 ;;      Temps:          1       0       0       0       0       0       0       0       0       0       0       0       
      +0       0       0       0
  3653 ;;      Totals:         1       0       0       0       0       0       0       0       0       0       0       0       
      +0       0       0       0
  3654 ;;Total ram usage:        1 bytes
  3655 ;; Hardware stack levels used: 1
  3656 ;; Hardware stack levels required when called: 3
  3657 ;; This function calls:
  3658 ;;		Nothing
  3659 ;; This function is called by:
  3660 ;;		_LCD_command
  3661 ;;		_LCD_print
  3662 ;; This function uses a non-reentrant model
  3663 ;;
  3664                           
  3665                           	psect	text21
  3666  002128                     __ptext21:
  3667                           	callstack 0
  3668  002128                     _LCD_intake:
  3669                           	callstack 23
  3670  002128                     
  3671                           ;LCD_functions.c: 5:     LATD7 = 1;
  3672  002128  8E8C               	bsf	3980,7,c	;volatile
  3673                           
  3674                           ;LCD_functions.c: 6:     __nop();
  3675  00212A  F000               	nop	
  3676                           
  3677                           ;LCD_functions.c: 7:     LATD7 = 0;
  3678  00212C  9E8C               	bcf	3980,7,c	;volatile
  3679  00212E                     
  3680                           ;LCD_functions.c: 8:     _delay((unsigned long)((3)*(20000000/4000.0)));
  3681  00212E  0E14               	movlw	20
  3682  002130  6E03               	movwf	??_LCD_intake^0,c
  3683  002132  0E7A               	movlw	122
  3684  002134                     u1487:
  3685  002134  2EE8               	decfsz	wreg,f,c
  3686  002136  D7FE               	bra	u1487
  3687  002138  2E03               	decfsz	??_LCD_intake^0,f,c
  3688  00213A  D7FC               	bra	u1487
  3689  00213C  0012               	return		;funcret
  3690  00213E                     __end_of_LCD_intake:
  3691                           	callstack 0
  3692                           
  3693 ;; *************** function _CAN_receive *****************
  3694 ;; Defined at:
  3695 ;;		line 313 in file "mcc_generated_files/ecan.c"
  3696 ;; Parameters:    Size  Location     Type
  3697 ;;  tempCanMsg      2   21[COMRAM] PTR struct .
  3698 ;;		 -> rx(14), 
  3699 ;; Auto vars:     Size  Location     Type
  3700 ;;  returnValue     1   23[COMRAM] unsigned char 
  3701 ;; Return value:  Size  Location     Type
  3702 ;;                  1    wreg      unsigned char 
  3703 ;; Registers used:
  3704 ;;		wreg, fsr2l, fsr2h, status,2, status,0, cstack
  3705 ;; Tracked objects:
  3706 ;;		On entry : 0/0
  3707 ;;		On exit  : 0/0
  3708 ;;		Unchanged: 0/0
  3709 ;; Data sizes:     COMRAM   BANK0   BANK1   BANK2   BANK3   BANK4   BANK5   BANK6   BANK7   BANK8   BANK9  BANK10  BANK1
      +1  BANK12  BANK13  BANK14
  3710 ;;      Params:         2       0       0       0       0       0       0       0       0       0       0       0       
      +0       0       0       0
  3711 ;;      Locals:         1       0       0       0       0       0       0       0       0       0       0       0       
      +0       0       0       0
  3712 ;;      Temps:          0       0       0       0       0       0       0       0       0       0       0       0       
      +0       0       0       0
  3713 ;;      Totals:         3       0       0       0       0       0       0       0       0       0       0       0       
      +0       0       0       0
  3714 ;;Total ram usage:        3 bytes
  3715 ;; Hardware stack levels used: 1
  3716 ;; Hardware stack levels required when called: 4
  3717 ;; This function calls:
  3718 ;;		_convertReg2ExtendedCANid
  3719 ;;		_convertReg2StandardCANid
  3720 ;; This function is called by:
  3721 ;;		_main
  3722 ;; This function uses a non-reentrant model
  3723 ;;
  3724                           
  3725                           	psect	text22
  3726  001404                     __ptext22:
  3727                           	callstack 0
  3728  001404                     _CAN_receive:
  3729                           	callstack 26
  3730  001404                     
  3731                           ;mcc_generated_files/ecan.c: 313: uint8_t CAN_receive(uCAN_MSG *tempCanMsg);mcc_generate
      +                          d_files/ecan.c: 314: {;mcc_generated_files/ecan.c: 315:     uint8_t returnValue = 0;
  3732  001404  0E00               	movlw	0
  3733  001406  6E18               	movwf	CAN_receive@returnValue^0,c
  3734  001408                     
  3735                           ;mcc_generated_files/ecan.c: 318:     if (RXB0CONbits.RXFUL != 0)
  3736  001408  AE60               	btfss	96,7,c	;volatile
  3737  00140A  EF09  F00A         	goto	u1271
  3738  00140E  EF0B  F00A         	goto	u1270
  3739  001412                     u1271:
  3740  001412  EF97  F00A         	goto	l561
  3741  001416                     u1270:
  3742  001416                     
  3743                           ;mcc_generated_files/ecan.c: 319:     {;mcc_generated_files/ecan.c: 320:         if ((RX
      +                          B0SIDL & 0x08) == 0x08)
  3744  001416  A662               	btfss	98,3,c	;volatile
  3745  001418  EF10  F00A         	goto	u1281
  3746  00141C  EF12  F00A         	goto	u1280
  3747  001420                     u1281:
  3748  001420  EF31  F00A         	goto	l2593
  3749  001424                     u1280:
  3750  001424                     
  3751                           ;mcc_generated_files/ecan.c: 321:         {;mcc_generated_files/ecan.c: 323:            
      +                           tempCanMsg->frame.idType = (uint8_t) 2;
  3752  001424  C016  FFD9         	movff	CAN_receive@tempCanMsg,fsr2l
  3753  001428  C017  FFDA         	movff	CAN_receive@tempCanMsg+1,fsr2h
  3754  00142C  0E02               	movlw	2
  3755  00142E  6EDF               	movwf	indf2,c
  3756  001430                     
  3757                           ;mcc_generated_files/ecan.c: 324:             tempCanMsg->frame.id = convertReg2Extended
      +                          CANid(RXB0EIDH, RXB0EIDL, RXB0SIDH, RXB0SIDL);
  3758  001430  CF64 F003          	movff	3940,convertReg2ExtendedCANid@tempRXBn_EIDL	;volatile
  3759  001434  CF61 F004          	movff	3937,convertReg2ExtendedCANid@tempRXBn_SIDH	;volatile
  3760  001438  CF62 F005          	movff	3938,convertReg2ExtendedCANid@tempRXBn_SIDL	;volatile
  3761  00143C  5063               	movf	99,w,c	;volatile
  3762  00143E  EC46  F00D         	call	_convertReg2ExtendedCANid
  3763  001442  EE20 F001          	lfsr	2,1
  3764  001446  5016               	movf	CAN_receive@tempCanMsg^0,w,c
  3765  001448  26D9               	addwf	fsr2l,f,c
  3766  00144A  5017               	movf	(CAN_receive@tempCanMsg+1)^0,w,c
  3767  00144C  22DA               	addwfc	fsr2h,f,c
  3768  00144E  C003  FFDE         	movff	?_convertReg2ExtendedCANid,postinc2
  3769  001452  C004  FFDE         	movff	?_convertReg2ExtendedCANid+1,postinc2
  3770  001456  C005  FFDE         	movff	?_convertReg2ExtendedCANid+2,postinc2
  3771  00145A  C006  FFDE         	movff	?_convertReg2ExtendedCANid+3,postinc2
  3772                           
  3773                           ;mcc_generated_files/ecan.c: 325:         }
  3774  00145E  EF4A  F00A         	goto	l2597
  3775  001462                     l2593:
  3776                           
  3777                           ;mcc_generated_files/ecan.c: 327:         {;mcc_generated_files/ecan.c: 329:            
      +                           tempCanMsg->frame.idType = (uint8_t) 1;
  3778  001462  C016  FFD9         	movff	CAN_receive@tempCanMsg,fsr2l
  3779  001466  C017  FFDA         	movff	CAN_receive@tempCanMsg+1,fsr2h
  3780  00146A  0E01               	movlw	1
  3781  00146C  6EDF               	movwf	indf2,c
  3782  00146E                     
  3783                           ;mcc_generated_files/ecan.c: 330:             tempCanMsg->frame.id = convertReg2Standard
      +                          CANid(RXB0SIDH, RXB0SIDL);
  3784  00146E  CF62 F003          	movff	3938,convertReg2StandardCANid@tempRXBn_SIDL	;volatile
  3785  001472  5061               	movf	97,w,c	;volatile
  3786  001474  ECA5  F00F         	call	_convertReg2StandardCANid
  3787  001478  EE20 F001          	lfsr	2,1
  3788  00147C  5016               	movf	CAN_receive@tempCanMsg^0,w,c
  3789  00147E  26D9               	addwf	fsr2l,f,c
  3790  001480  5017               	movf	(CAN_receive@tempCanMsg+1)^0,w,c
  3791  001482  22DA               	addwfc	fsr2h,f,c
  3792  001484  C003  FFDE         	movff	?_convertReg2StandardCANid,postinc2
  3793  001488  C004  FFDE         	movff	?_convertReg2StandardCANid+1,postinc2
  3794  00148C  C005  FFDE         	movff	?_convertReg2StandardCANid+2,postinc2
  3795  001490  C006  FFDE         	movff	?_convertReg2StandardCANid+3,postinc2
  3796  001494                     l2597:
  3797                           
  3798                           ;mcc_generated_files/ecan.c: 333:         tempCanMsg->frame.dlc = RXB0DLC;
  3799  001494  EE20 F005          	lfsr	2,5
  3800  001498  5016               	movf	CAN_receive@tempCanMsg^0,w,c
  3801  00149A  26D9               	addwf	fsr2l,f,c
  3802  00149C  5017               	movf	(CAN_receive@tempCanMsg+1)^0,w,c
  3803  00149E  22DA               	addwfc	fsr2h,f,c
  3804  0014A0  CF65 FFDF          	movff	3941,indf2	;volatile
  3805  0014A4                     
  3806                           ;mcc_generated_files/ecan.c: 334:         tempCanMsg->frame.data0 = RXB0D0;
  3807  0014A4  EE20 F006          	lfsr	2,6
  3808  0014A8  5016               	movf	CAN_receive@tempCanMsg^0,w,c
  3809  0014AA  26D9               	addwf	fsr2l,f,c
  3810  0014AC  5017               	movf	(CAN_receive@tempCanMsg+1)^0,w,c
  3811  0014AE  22DA               	addwfc	fsr2h,f,c
  3812  0014B0  CF66 FFDF          	movff	3942,indf2	;volatile
  3813  0014B4                     
  3814                           ;mcc_generated_files/ecan.c: 335:         tempCanMsg->frame.data1 = RXB0D1;
  3815  0014B4  EE20 F007          	lfsr	2,7
  3816  0014B8  5016               	movf	CAN_receive@tempCanMsg^0,w,c
  3817  0014BA  26D9               	addwf	fsr2l,f,c
  3818  0014BC  5017               	movf	(CAN_receive@tempCanMsg+1)^0,w,c
  3819  0014BE  22DA               	addwfc	fsr2h,f,c
  3820  0014C0  CF67 FFDF          	movff	3943,indf2	;volatile
  3821  0014C4                     
  3822                           ;mcc_generated_files/ecan.c: 336:         tempCanMsg->frame.data2 = RXB0D2;
  3823  0014C4  EE20 F008          	lfsr	2,8
  3824  0014C8  5016               	movf	CAN_receive@tempCanMsg^0,w,c
  3825  0014CA  26D9               	addwf	fsr2l,f,c
  3826  0014CC  5017               	movf	(CAN_receive@tempCanMsg+1)^0,w,c
  3827  0014CE  22DA               	addwfc	fsr2h,f,c
  3828  0014D0  CF68 FFDF          	movff	3944,indf2	;volatile
  3829  0014D4                     
  3830                           ;mcc_generated_files/ecan.c: 337:         tempCanMsg->frame.data3 = RXB0D3;
  3831  0014D4  EE20 F009          	lfsr	2,9
  3832  0014D8  5016               	movf	CAN_receive@tempCanMsg^0,w,c
  3833  0014DA  26D9               	addwf	fsr2l,f,c
  3834  0014DC  5017               	movf	(CAN_receive@tempCanMsg+1)^0,w,c
  3835  0014DE  22DA               	addwfc	fsr2h,f,c
  3836  0014E0  CF69 FFDF          	movff	3945,indf2	;volatile
  3837  0014E4                     
  3838                           ;mcc_generated_files/ecan.c: 338:         tempCanMsg->frame.data4 = RXB0D4;
  3839  0014E4  EE20 F00A          	lfsr	2,10
  3840  0014E8  5016               	movf	CAN_receive@tempCanMsg^0,w,c
  3841  0014EA  26D9               	addwf	fsr2l,f,c
  3842  0014EC  5017               	movf	(CAN_receive@tempCanMsg+1)^0,w,c
  3843  0014EE  22DA               	addwfc	fsr2h,f,c
  3844  0014F0  CF6A FFDF          	movff	3946,indf2	;volatile
  3845  0014F4                     
  3846                           ;mcc_generated_files/ecan.c: 339:         tempCanMsg->frame.data5 = RXB0D5;
  3847  0014F4  EE20 F00B          	lfsr	2,11
  3848  0014F8  5016               	movf	CAN_receive@tempCanMsg^0,w,c
  3849  0014FA  26D9               	addwf	fsr2l,f,c
  3850  0014FC  5017               	movf	(CAN_receive@tempCanMsg+1)^0,w,c
  3851  0014FE  22DA               	addwfc	fsr2h,f,c
  3852  001500  CF6B FFDF          	movff	3947,indf2	;volatile
  3853  001504                     
  3854                           ;mcc_generated_files/ecan.c: 340:         tempCanMsg->frame.data6 = RXB0D6;
  3855  001504  EE20 F00C          	lfsr	2,12
  3856  001508  5016               	movf	CAN_receive@tempCanMsg^0,w,c
  3857  00150A  26D9               	addwf	fsr2l,f,c
  3858  00150C  5017               	movf	(CAN_receive@tempCanMsg+1)^0,w,c
  3859  00150E  22DA               	addwfc	fsr2h,f,c
  3860  001510  CF6C FFDF          	movff	3948,indf2	;volatile
  3861  001514                     
  3862                           ;mcc_generated_files/ecan.c: 341:         tempCanMsg->frame.data7 = RXB0D7;
  3863  001514  EE20 F00D          	lfsr	2,13
  3864  001518  5016               	movf	CAN_receive@tempCanMsg^0,w,c
  3865  00151A  26D9               	addwf	fsr2l,f,c
  3866  00151C  5017               	movf	(CAN_receive@tempCanMsg+1)^0,w,c
  3867  00151E  22DA               	addwfc	fsr2h,f,c
  3868  001520  CF6D FFDF          	movff	3949,indf2	;volatile
  3869  001524                     
  3870                           ;mcc_generated_files/ecan.c: 342:         RXB0CONbits.RXFUL = 0;
  3871  001524  9E60               	bcf	96,7,c	;volatile
  3872  001526                     l2617:
  3873                           
  3874                           ;mcc_generated_files/ecan.c: 343:         returnValue = 1;
  3875  001526  0E01               	movlw	1
  3876  001528  6E18               	movwf	CAN_receive@returnValue^0,c
  3877                           
  3878                           ;mcc_generated_files/ecan.c: 344:     }
  3879  00152A  EF2A  F00B         	goto	l2651
  3880  00152E                     l561:
  3881  00152E  010F               	movlb	15	; () banked
  3882  001530  AF30               	btfss	48,7,b	;volatile
  3883  001532  EF9D  F00A         	goto	u1291
  3884  001536  EF9F  F00A         	goto	u1290
  3885  00153A                     u1291:
  3886  00153A  EF2A  F00B         	goto	l2651
  3887  00153E                     u1290:
  3888  00153E                     
  3889                           ; BSR set to: 15
  3890                           ;mcc_generated_files/ecan.c: 346:     {;mcc_generated_files/ecan.c: 347:         if ((RX
      +                          B1SIDL & 0x08) == 0x08)
  3891  00153E  A732               	btfss	50,3,b	;volatile
  3892  001540  EFA4  F00A         	goto	u1301
  3893  001544  EFA6  F00A         	goto	u1300
  3894  001548                     u1301:
  3895  001548  EFC5  F00A         	goto	l2625
  3896  00154C                     u1300:
  3897  00154C                     
  3898                           ; BSR set to: 15
  3899                           ;mcc_generated_files/ecan.c: 348:         {;mcc_generated_files/ecan.c: 350:            
      +                           tempCanMsg->frame.idType = (uint8_t) 2;
  3900  00154C  C016  FFD9         	movff	CAN_receive@tempCanMsg,fsr2l
  3901  001550  C017  FFDA         	movff	CAN_receive@tempCanMsg+1,fsr2h
  3902  001554  0E02               	movlw	2
  3903  001556  6EDF               	movwf	indf2,c
  3904  001558                     
  3905                           ; BSR set to: 15
  3906                           ;mcc_generated_files/ecan.c: 351:             tempCanMsg->frame.id = convertReg2Extended
      +                          CANid(RXB1EIDH, RXB1EIDL, RXB1SIDH, RXB1SIDL);
  3907  001558  CF34 F003          	movff	3892,convertReg2ExtendedCANid@tempRXBn_EIDL	;volatile
  3908  00155C  CF31 F004          	movff	3889,convertReg2ExtendedCANid@tempRXBn_SIDH	;volatile
  3909  001560  CF32 F005          	movff	3890,convertReg2ExtendedCANid@tempRXBn_SIDL	;volatile
  3910  001564  5133               	movf	51,w,b	;volatile
  3911  001566  EC46  F00D         	call	_convertReg2ExtendedCANid
  3912  00156A  EE20 F001          	lfsr	2,1
  3913  00156E  5016               	movf	CAN_receive@tempCanMsg^0,w,c
  3914  001570  26D9               	addwf	fsr2l,f,c
  3915  001572  5017               	movf	(CAN_receive@tempCanMsg+1)^0,w,c
  3916  001574  22DA               	addwfc	fsr2h,f,c
  3917  001576  C003  FFDE         	movff	?_convertReg2ExtendedCANid,postinc2
  3918  00157A  C004  FFDE         	movff	?_convertReg2ExtendedCANid+1,postinc2
  3919  00157E  C005  FFDE         	movff	?_convertReg2ExtendedCANid+2,postinc2
  3920  001582  C006  FFDE         	movff	?_convertReg2ExtendedCANid+3,postinc2
  3921                           
  3922                           ;mcc_generated_files/ecan.c: 352:         }
  3923  001586  EFDE  F00A         	goto	l2629
  3924  00158A                     l2625:
  3925                           
  3926                           ; BSR set to: 15
  3927                           ;mcc_generated_files/ecan.c: 354:         {;mcc_generated_files/ecan.c: 356:            
      +                           tempCanMsg->frame.idType = (uint8_t) 1;
  3928  00158A  C016  FFD9         	movff	CAN_receive@tempCanMsg,fsr2l
  3929  00158E  C017  FFDA         	movff	CAN_receive@tempCanMsg+1,fsr2h
  3930  001592  0E01               	movlw	1
  3931  001594  6EDF               	movwf	indf2,c
  3932  001596                     
  3933                           ; BSR set to: 15
  3934                           ;mcc_generated_files/ecan.c: 357:             tempCanMsg->frame.id = convertReg2Standard
      +                          CANid(RXB1SIDH, RXB1SIDL);
  3935  001596  CF32 F003          	movff	3890,convertReg2StandardCANid@tempRXBn_SIDL	;volatile
  3936  00159A  5131               	movf	49,w,b	;volatile
  3937  00159C  ECA5  F00F         	call	_convertReg2StandardCANid
  3938  0015A0  EE20 F001          	lfsr	2,1
  3939  0015A4  5016               	movf	CAN_receive@tempCanMsg^0,w,c
  3940  0015A6  26D9               	addwf	fsr2l,f,c
  3941  0015A8  5017               	movf	(CAN_receive@tempCanMsg+1)^0,w,c
  3942  0015AA  22DA               	addwfc	fsr2h,f,c
  3943  0015AC  C003  FFDE         	movff	?_convertReg2StandardCANid,postinc2
  3944  0015B0  C004  FFDE         	movff	?_convertReg2StandardCANid+1,postinc2
  3945  0015B4  C005  FFDE         	movff	?_convertReg2StandardCANid+2,postinc2
  3946  0015B8  C006  FFDE         	movff	?_convertReg2StandardCANid+3,postinc2
  3947  0015BC                     l2629:
  3948                           
  3949                           ;mcc_generated_files/ecan.c: 360:         tempCanMsg->frame.dlc = RXB1DLC;
  3950  0015BC  EE20 F005          	lfsr	2,5
  3951  0015C0  5016               	movf	CAN_receive@tempCanMsg^0,w,c
  3952  0015C2  26D9               	addwf	fsr2l,f,c
  3953  0015C4  5017               	movf	(CAN_receive@tempCanMsg+1)^0,w,c
  3954  0015C6  22DA               	addwfc	fsr2h,f,c
  3955  0015C8  CF35 FFDF          	movff	3893,indf2	;volatile
  3956  0015CC                     
  3957                           ;mcc_generated_files/ecan.c: 361:         tempCanMsg->frame.data0 = RXB1D0;
  3958  0015CC  EE20 F006          	lfsr	2,6
  3959  0015D0  5016               	movf	CAN_receive@tempCanMsg^0,w,c
  3960  0015D2  26D9               	addwf	fsr2l,f,c
  3961  0015D4  5017               	movf	(CAN_receive@tempCanMsg+1)^0,w,c
  3962  0015D6  22DA               	addwfc	fsr2h,f,c
  3963  0015D8  CF36 FFDF          	movff	3894,indf2	;volatile
  3964  0015DC                     
  3965                           ;mcc_generated_files/ecan.c: 362:         tempCanMsg->frame.data1 = RXB1D1;
  3966  0015DC  EE20 F007          	lfsr	2,7
  3967  0015E0  5016               	movf	CAN_receive@tempCanMsg^0,w,c
  3968  0015E2  26D9               	addwf	fsr2l,f,c
  3969  0015E4  5017               	movf	(CAN_receive@tempCanMsg+1)^0,w,c
  3970  0015E6  22DA               	addwfc	fsr2h,f,c
  3971  0015E8  CF37 FFDF          	movff	3895,indf2	;volatile
  3972  0015EC                     
  3973                           ;mcc_generated_files/ecan.c: 363:         tempCanMsg->frame.data2 = RXB1D2;
  3974  0015EC  EE20 F008          	lfsr	2,8
  3975  0015F0  5016               	movf	CAN_receive@tempCanMsg^0,w,c
  3976  0015F2  26D9               	addwf	fsr2l,f,c
  3977  0015F4  5017               	movf	(CAN_receive@tempCanMsg+1)^0,w,c
  3978  0015F6  22DA               	addwfc	fsr2h,f,c
  3979  0015F8  CF38 FFDF          	movff	3896,indf2	;volatile
  3980  0015FC                     
  3981                           ;mcc_generated_files/ecan.c: 364:         tempCanMsg->frame.data3 = RXB1D3;
  3982  0015FC  EE20 F009          	lfsr	2,9
  3983  001600  5016               	movf	CAN_receive@tempCanMsg^0,w,c
  3984  001602  26D9               	addwf	fsr2l,f,c
  3985  001604  5017               	movf	(CAN_receive@tempCanMsg+1)^0,w,c
  3986  001606  22DA               	addwfc	fsr2h,f,c
  3987  001608  CF39 FFDF          	movff	3897,indf2	;volatile
  3988  00160C                     
  3989                           ;mcc_generated_files/ecan.c: 365:         tempCanMsg->frame.data4 = RXB1D4;
  3990  00160C  EE20 F00A          	lfsr	2,10
  3991  001610  5016               	movf	CAN_receive@tempCanMsg^0,w,c
  3992  001612  26D9               	addwf	fsr2l,f,c
  3993  001614  5017               	movf	(CAN_receive@tempCanMsg+1)^0,w,c
  3994  001616  22DA               	addwfc	fsr2h,f,c
  3995  001618  CF3A FFDF          	movff	3898,indf2	;volatile
  3996  00161C                     
  3997                           ;mcc_generated_files/ecan.c: 366:         tempCanMsg->frame.data5 = RXB1D5;
  3998  00161C  EE20 F00B          	lfsr	2,11
  3999  001620  5016               	movf	CAN_receive@tempCanMsg^0,w,c
  4000  001622  26D9               	addwf	fsr2l,f,c
  4001  001624  5017               	movf	(CAN_receive@tempCanMsg+1)^0,w,c
  4002  001626  22DA               	addwfc	fsr2h,f,c
  4003  001628  CF3B FFDF          	movff	3899,indf2	;volatile
  4004  00162C                     
  4005                           ;mcc_generated_files/ecan.c: 367:         tempCanMsg->frame.data6 = RXB1D6;
  4006  00162C  EE20 F00C          	lfsr	2,12
  4007  001630  5016               	movf	CAN_receive@tempCanMsg^0,w,c
  4008  001632  26D9               	addwf	fsr2l,f,c
  4009  001634  5017               	movf	(CAN_receive@tempCanMsg+1)^0,w,c
  4010  001636  22DA               	addwfc	fsr2h,f,c
  4011  001638  CF3C FFDF          	movff	3900,indf2	;volatile
  4012  00163C                     
  4013                           ;mcc_generated_files/ecan.c: 368:         tempCanMsg->frame.data7 = RXB1D7;
  4014  00163C  EE20 F00D          	lfsr	2,13
  4015  001640  5016               	movf	CAN_receive@tempCanMsg^0,w,c
  4016  001642  26D9               	addwf	fsr2l,f,c
  4017  001644  5017               	movf	(CAN_receive@tempCanMsg+1)^0,w,c
  4018  001646  22DA               	addwfc	fsr2h,f,c
  4019  001648  CF3D FFDF          	movff	3901,indf2	;volatile
  4020  00164C                     
  4021                           ;mcc_generated_files/ecan.c: 369:         RXB1CONbits.RXFUL = 0;
  4022  00164C  010F               	movlb	15	; () banked
  4023  00164E  9F30               	bcf	48,7,b	;volatile
  4024  001650  EF93  F00A         	goto	l2617
  4025  001654                     l2651:
  4026                           
  4027                           ;mcc_generated_files/ecan.c: 372:     return (returnValue);
  4028  001654  5018               	movf	CAN_receive@returnValue^0,w,c
  4029  001656  0012               	return		;funcret
  4030  001658                     __end_of_CAN_receive:
  4031                           	callstack 0
  4032                           
  4033 ;; *************** function _convertReg2StandardCANid *****************
  4034 ;; Defined at:
  4035 ;;		line 451 in file "mcc_generated_files/ecan.c"
  4036 ;; Parameters:    Size  Location     Type
  4037 ;;  tempRXBn_SID    1    wreg     unsigned char 
  4038 ;;  tempRXBn_SID    1    2[COMRAM] unsigned char 
  4039 ;; Auto vars:     Size  Location     Type
  4040 ;;  tempRXBn_SID    1    8[COMRAM] unsigned char 
  4041 ;;  ConvertedID     4   13[COMRAM] unsigned long 
  4042 ;;  returnValue     4    9[COMRAM] unsigned long 
  4043 ;; Return value:  Size  Location     Type
  4044 ;;                  4    2[COMRAM] unsigned long 
  4045 ;; Registers used:
  4046 ;;		wreg, status,2, status,0
  4047 ;; Tracked objects:
  4048 ;;		On entry : 0/0
  4049 ;;		On exit  : 0/0
  4050 ;;		Unchanged: 0/0
  4051 ;; Data sizes:     COMRAM   BANK0   BANK1   BANK2   BANK3   BANK4   BANK5   BANK6   BANK7   BANK8   BANK9  BANK10  BANK1
      +1  BANK12  BANK13  BANK14
  4052 ;;      Params:         4       0       0       0       0       0       0       0       0       0       0       0       
      +0       0       0       0
  4053 ;;      Locals:         9       0       0       0       0       0       0       0       0       0       0       0       
      +0       0       0       0
  4054 ;;      Temps:          2       0       0       0       0       0       0       0       0       0       0       0       
      +0       0       0       0
  4055 ;;      Totals:        15       0       0       0       0       0       0       0       0       0       0       0       
      +0       0       0       0
  4056 ;;Total ram usage:       15 bytes
  4057 ;; Hardware stack levels used: 1
  4058 ;; Hardware stack levels required when called: 3
  4059 ;; This function calls:
  4060 ;;		Nothing
  4061 ;; This function is called by:
  4062 ;;		_CAN_receive
  4063 ;; This function uses a non-reentrant model
  4064 ;;
  4065                           
  4066                           	psect	text23
  4067  001F4A                     __ptext23:
  4068                           	callstack 0
  4069  001F4A                     _convertReg2StandardCANid:
  4070                           	callstack 26
  4071                           
  4072                           ;incstack = 0
  4073                           ;convertReg2StandardCANid@tempRXBn_SIDH stored from wreg
  4074  001F4A  6E09               	movwf	convertReg2StandardCANid@tempRXBn_SIDH^0,c
  4075  001F4C                     
  4076                           ;mcc_generated_files/ecan.c: 453:     uint32_t ConvertedID;;mcc_generated_files/ecan.c: 
      +                          457:     ConvertedID = (uint32_t)(tempRXBn_SIDH << 3);
  4077  001F4C  5009               	movf	convertReg2StandardCANid@tempRXBn_SIDH^0,w,c
  4078  001F4E  6E07               	movwf	??_convertReg2StandardCANid^0,c
  4079  001F50  6A08               	clrf	(??_convertReg2StandardCANid+1)^0,c
  4080  001F52  90D8               	bcf	status,0,c
  4081  001F54  3607               	rlcf	??_convertReg2StandardCANid^0,f,c
  4082  001F56  3608               	rlcf	(??_convertReg2StandardCANid+1)^0,f,c
  4083  001F58  90D8               	bcf	status,0,c
  4084  001F5A  3607               	rlcf	??_convertReg2StandardCANid^0,f,c
  4085  001F5C  3608               	rlcf	(??_convertReg2StandardCANid+1)^0,f,c
  4086  001F5E  90D8               	bcf	status,0,c
  4087  001F60  3607               	rlcf	??_convertReg2StandardCANid^0,f,c
  4088  001F62  3608               	rlcf	(??_convertReg2StandardCANid+1)^0,f,c
  4089  001F64  C007  F00E         	movff	??_convertReg2StandardCANid,convertReg2StandardCANid@ConvertedID
  4090  001F68  C008  F00F         	movff	??_convertReg2StandardCANid+1,convertReg2StandardCANid@ConvertedID+1
  4091  001F6C  0E00               	movlw	0
  4092  001F6E  BE0F               	btfsc	(convertReg2StandardCANid@ConvertedID+1)^0,7,c
  4093  001F70  0EFF               	movlw	-1
  4094  001F72  6E10               	movwf	(convertReg2StandardCANid@ConvertedID+2)^0,c
  4095  001F74  6E11               	movwf	(convertReg2StandardCANid@ConvertedID+3)^0,c
  4096  001F76                     
  4097                           ;mcc_generated_files/ecan.c: 458:     ConvertedID = ConvertedID + (uint32_t)(tempRXBn_SI
      +                          DL >> 5);
  4098  001F76  C003  F007         	movff	convertReg2StandardCANid@tempRXBn_SIDL,??_convertReg2StandardCANid
  4099  001F7A  0E05               	movlw	5
  4100  001F7C  6E08               	movwf	(??_convertReg2StandardCANid+1)^0,c
  4101  001F7E                     u915:
  4102  001F7E  90D8               	bcf	status,0,c
  4103  001F80  3207               	rrcf	??_convertReg2StandardCANid^0,f,c
  4104  001F82  2E08               	decfsz	(??_convertReg2StandardCANid+1)^0,f,c
  4105  001F84  EFBF  F00F         	goto	u915
  4106  001F88  5007               	movf	??_convertReg2StandardCANid^0,w,c
  4107  001F8A  240E               	addwf	convertReg2StandardCANid@ConvertedID^0,w,c
  4108  001F8C  6E0E               	movwf	convertReg2StandardCANid@ConvertedID^0,c
  4109  001F8E  0E00               	movlw	0
  4110  001F90  200F               	addwfc	(convertReg2StandardCANid@ConvertedID+1)^0,w,c
  4111  001F92  6E0F               	movwf	(convertReg2StandardCANid@ConvertedID+1)^0,c
  4112  001F94  0E00               	movlw	0
  4113  001F96  2010               	addwfc	(convertReg2StandardCANid@ConvertedID+2)^0,w,c
  4114  001F98  6E10               	movwf	(convertReg2StandardCANid@ConvertedID+2)^0,c
  4115  001F9A  0E00               	movlw	0
  4116  001F9C  2011               	addwfc	(convertReg2StandardCANid@ConvertedID+3)^0,w,c
  4117  001F9E  6E11               	movwf	(convertReg2StandardCANid@ConvertedID+3)^0,c
  4118  001FA0                     
  4119                           ;mcc_generated_files/ecan.c: 459:     returnValue = ConvertedID;
  4120  001FA0  C00E  F00A         	movff	convertReg2StandardCANid@ConvertedID,convertReg2StandardCANid@returnValue
  4121  001FA4  C00F  F00B         	movff	convertReg2StandardCANid@ConvertedID+1,convertReg2StandardCANid@returnValue+1
  4122  001FA8  C010  F00C         	movff	convertReg2StandardCANid@ConvertedID+2,convertReg2StandardCANid@returnValue+2
  4123  001FAC  C011  F00D         	movff	convertReg2StandardCANid@ConvertedID+3,convertReg2StandardCANid@returnValue+3
  4124  001FB0                     
  4125                           ;mcc_generated_files/ecan.c: 460:     return (returnValue);
  4126  001FB0  C00A  F003         	movff	convertReg2StandardCANid@returnValue,?_convertReg2StandardCANid
  4127  001FB4  C00B  F004         	movff	convertReg2StandardCANid@returnValue+1,?_convertReg2StandardCANid+1
  4128  001FB8  C00C  F005         	movff	convertReg2StandardCANid@returnValue+2,?_convertReg2StandardCANid+2
  4129  001FBC  C00D  F006         	movff	convertReg2StandardCANid@returnValue+3,?_convertReg2StandardCANid+3
  4130  001FC0  0012               	return		;funcret
  4131  001FC2                     __end_of_convertReg2StandardCANid:
  4132                           	callstack 0
  4133                           
  4134 ;; *************** function _convertReg2ExtendedCANid *****************
  4135 ;; Defined at:
  4136 ;;		line 431 in file "mcc_generated_files/ecan.c"
  4137 ;; Parameters:    Size  Location     Type
  4138 ;;  tempRXBn_EID    1    wreg     unsigned char 
  4139 ;;  tempRXBn_EID    1    2[COMRAM] unsigned char 
  4140 ;;  tempRXBn_SID    1    3[COMRAM] unsigned char 
  4141 ;;  tempRXBn_SID    1    4[COMRAM] unsigned char 
  4142 ;; Auto vars:     Size  Location     Type
  4143 ;;  tempRXBn_EID    1   10[COMRAM] unsigned char 
  4144 ;;  ConvertedID     4   17[COMRAM] unsigned long 
  4145 ;;  returnValue     4   11[COMRAM] unsigned long 
  4146 ;;  CAN_standard    1   16[COMRAM] unsigned char 
  4147 ;;  CAN_standard    1   15[COMRAM] unsigned char 
  4148 ;; Return value:  Size  Location     Type
  4149 ;;                  4    2[COMRAM] unsigned long 
  4150 ;; Registers used:
  4151 ;;		wreg, status,2, status,0
  4152 ;; Tracked objects:
  4153 ;;		On entry : 0/0
  4154 ;;		On exit  : 0/0
  4155 ;;		Unchanged: 0/0
  4156 ;; Data sizes:     COMRAM   BANK0   BANK1   BANK2   BANK3   BANK4   BANK5   BANK6   BANK7   BANK8   BANK9  BANK10  BANK1
      +1  BANK12  BANK13  BANK14
  4157 ;;      Params:         4       0       0       0       0       0       0       0       0       0       0       0       
      +0       0       0       0
  4158 ;;      Locals:        11       0       0       0       0       0       0       0       0       0       0       0       
      +0       0       0       0
  4159 ;;      Temps:          4       0       0       0       0       0       0       0       0       0       0       0       
      +0       0       0       0
  4160 ;;      Totals:        19       0       0       0       0       0       0       0       0       0       0       0       
      +0       0       0       0
  4161 ;;Total ram usage:       19 bytes
  4162 ;; Hardware stack levels used: 1
  4163 ;; Hardware stack levels required when called: 3
  4164 ;; This function calls:
  4165 ;;		Nothing
  4166 ;; This function is called by:
  4167 ;;		_CAN_receive
  4168 ;; This function uses a non-reentrant model
  4169 ;;
  4170                           
  4171                           	psect	text24
  4172  001A8C                     __ptext24:
  4173                           	callstack 0
  4174  001A8C                     _convertReg2ExtendedCANid:
  4175                           	callstack 26
  4176                           
  4177                           ;incstack = 0
  4178                           ;convertReg2ExtendedCANid@tempRXBn_EIDH stored from wreg
  4179  001A8C  6E0B               	movwf	convertReg2ExtendedCANid@tempRXBn_EIDH^0,c
  4180  001A8E                     
  4181                           ;mcc_generated_files/ecan.c: 433:     uint32_t ConvertedID = 0;
  4182  001A8E  0E00               	movlw	0
  4183  001A90  6E12               	movwf	convertReg2ExtendedCANid@ConvertedID^0,c
  4184  001A92  0E00               	movlw	0
  4185  001A94  6E13               	movwf	(convertReg2ExtendedCANid@ConvertedID+1)^0,c
  4186  001A96  0E00               	movlw	0
  4187  001A98  6E14               	movwf	(convertReg2ExtendedCANid@ConvertedID+2)^0,c
  4188  001A9A  0E00               	movlw	0
  4189  001A9C  6E15               	movwf	(convertReg2ExtendedCANid@ConvertedID+3)^0,c
  4190  001A9E                     
  4191                           ;mcc_generated_files/ecan.c: 434:     uint8_t CAN_standardLo_ID_lo2bits;;mcc_generated_f
      +                          iles/ecan.c: 435:     uint8_t CAN_standardLo_ID_hi3bits;;mcc_generated_files/ecan.c: 437
      +                          :     CAN_standardLo_ID_lo2bits = (uint8_t)(tempRXBn_SIDL & 0x03);
  4192  001A9E  5005               	movf	convertReg2ExtendedCANid@tempRXBn_SIDL^0,w,c
  4193  001AA0  0B03               	andlw	3
  4194  001AA2  6E10               	movwf	convertReg2ExtendedCANid@CAN_standardLo_ID_lo2bits^0,c
  4195  001AA4                     
  4196                           ;mcc_generated_files/ecan.c: 438:     CAN_standardLo_ID_hi3bits = (uint8_t)(tempRXBn_SID
      +                          L >> 5);
  4197  001AA4  3805               	swapf	convertReg2ExtendedCANid@tempRXBn_SIDL^0,w,c
  4198  001AA6  42E8               	rrncf	wreg,f,c
  4199  001AA8  0B07               	andlw	7
  4200  001AAA  6E11               	movwf	convertReg2ExtendedCANid@CAN_standardLo_ID_hi3bits^0,c
  4201  001AAC                     
  4202                           ;mcc_generated_files/ecan.c: 439:     ConvertedID = (uint32_t)(tempRXBn_SIDH << 3);
  4203  001AAC  5004               	movf	convertReg2ExtendedCANid@tempRXBn_SIDH^0,w,c
  4204  001AAE  6E07               	movwf	??_convertReg2ExtendedCANid^0,c
  4205  001AB0  6A08               	clrf	(??_convertReg2ExtendedCANid+1)^0,c
  4206  001AB2  90D8               	bcf	status,0,c
  4207  001AB4  3607               	rlcf	??_convertReg2ExtendedCANid^0,f,c
  4208  001AB6  3608               	rlcf	(??_convertReg2ExtendedCANid+1)^0,f,c
  4209  001AB8  90D8               	bcf	status,0,c
  4210  001ABA  3607               	rlcf	??_convertReg2ExtendedCANid^0,f,c
  4211  001ABC  3608               	rlcf	(??_convertReg2ExtendedCANid+1)^0,f,c
  4212  001ABE  90D8               	bcf	status,0,c
  4213  001AC0  3607               	rlcf	??_convertReg2ExtendedCANid^0,f,c
  4214  001AC2  3608               	rlcf	(??_convertReg2ExtendedCANid+1)^0,f,c
  4215  001AC4  C007  F012         	movff	??_convertReg2ExtendedCANid,convertReg2ExtendedCANid@ConvertedID
  4216  001AC8  C008  F013         	movff	??_convertReg2ExtendedCANid+1,convertReg2ExtendedCANid@ConvertedID+1
  4217  001ACC  0E00               	movlw	0
  4218  001ACE  BE13               	btfsc	(convertReg2ExtendedCANid@ConvertedID+1)^0,7,c
  4219  001AD0  0EFF               	movlw	-1
  4220  001AD2  6E14               	movwf	(convertReg2ExtendedCANid@ConvertedID+2)^0,c
  4221  001AD4  6E15               	movwf	(convertReg2ExtendedCANid@ConvertedID+3)^0,c
  4222  001AD6                     
  4223                           ;mcc_generated_files/ecan.c: 440:     ConvertedID = ConvertedID + CAN_standardLo_ID_hi3b
      +                          its;
  4224  001AD6  5011               	movf	convertReg2ExtendedCANid@CAN_standardLo_ID_hi3bits^0,w,c
  4225  001AD8  2412               	addwf	convertReg2ExtendedCANid@ConvertedID^0,w,c
  4226  001ADA  6E12               	movwf	convertReg2ExtendedCANid@ConvertedID^0,c
  4227  001ADC  0E00               	movlw	0
  4228  001ADE  2013               	addwfc	(convertReg2ExtendedCANid@ConvertedID+1)^0,w,c
  4229  001AE0  6E13               	movwf	(convertReg2ExtendedCANid@ConvertedID+1)^0,c
  4230  001AE2  0E00               	movlw	0
  4231  001AE4  2014               	addwfc	(convertReg2ExtendedCANid@ConvertedID+2)^0,w,c
  4232  001AE6  6E14               	movwf	(convertReg2ExtendedCANid@ConvertedID+2)^0,c
  4233  001AE8  0E00               	movlw	0
  4234  001AEA  2015               	addwfc	(convertReg2ExtendedCANid@ConvertedID+3)^0,w,c
  4235  001AEC  6E15               	movwf	(convertReg2ExtendedCANid@ConvertedID+3)^0,c
  4236  001AEE                     
  4237                           ;mcc_generated_files/ecan.c: 441:     ConvertedID = (ConvertedID << 2);
  4238  001AEE  C012  F007         	movff	convertReg2ExtendedCANid@ConvertedID,??_convertReg2ExtendedCANid
  4239  001AF2  C013  F008         	movff	convertReg2ExtendedCANid@ConvertedID+1,??_convertReg2ExtendedCANid+1
  4240  001AF6  C014  F009         	movff	convertReg2ExtendedCANid@ConvertedID+2,??_convertReg2ExtendedCANid+2
  4241  001AFA  C015  F00A         	movff	convertReg2ExtendedCANid@ConvertedID+3,??_convertReg2ExtendedCANid+3
  4242  001AFE  0E02               	movlw	2
  4243  001B00                     u905:
  4244  001B00  90D8               	bcf	status,0,c
  4245  001B02  3607               	rlcf	??_convertReg2ExtendedCANid^0,f,c
  4246  001B04  3608               	rlcf	(??_convertReg2ExtendedCANid+1)^0,f,c
  4247  001B06  3609               	rlcf	(??_convertReg2ExtendedCANid+2)^0,f,c
  4248  001B08  360A               	rlcf	(??_convertReg2ExtendedCANid+3)^0,f,c
  4249  001B0A  2EE8               	decfsz	wreg,f,c
  4250  001B0C  EF80  F00D         	goto	u905
  4251  001B10  C007  F012         	movff	??_convertReg2ExtendedCANid,convertReg2ExtendedCANid@ConvertedID
  4252  001B14  C008  F013         	movff	??_convertReg2ExtendedCANid+1,convertReg2ExtendedCANid@ConvertedID+1
  4253  001B18  C009  F014         	movff	??_convertReg2ExtendedCANid+2,convertReg2ExtendedCANid@ConvertedID+2
  4254  001B1C  C00A  F015         	movff	??_convertReg2ExtendedCANid+3,convertReg2ExtendedCANid@ConvertedID+3
  4255  001B20                     
  4256                           ;mcc_generated_files/ecan.c: 442:     ConvertedID = ConvertedID + CAN_standardLo_ID_lo2b
      +                          its;
  4257  001B20  5010               	movf	convertReg2ExtendedCANid@CAN_standardLo_ID_lo2bits^0,w,c
  4258  001B22  2412               	addwf	convertReg2ExtendedCANid@ConvertedID^0,w,c
  4259  001B24  6E12               	movwf	convertReg2ExtendedCANid@ConvertedID^0,c
  4260  001B26  0E00               	movlw	0
  4261  001B28  2013               	addwfc	(convertReg2ExtendedCANid@ConvertedID+1)^0,w,c
  4262  001B2A  6E13               	movwf	(convertReg2ExtendedCANid@ConvertedID+1)^0,c
  4263  001B2C  0E00               	movlw	0
  4264  001B2E  2014               	addwfc	(convertReg2ExtendedCANid@ConvertedID+2)^0,w,c
  4265  001B30  6E14               	movwf	(convertReg2ExtendedCANid@ConvertedID+2)^0,c
  4266  001B32  0E00               	movlw	0
  4267  001B34  2015               	addwfc	(convertReg2ExtendedCANid@ConvertedID+3)^0,w,c
  4268  001B36  6E15               	movwf	(convertReg2ExtendedCANid@ConvertedID+3)^0,c
  4269                           
  4270                           ;mcc_generated_files/ecan.c: 443:     ConvertedID = (ConvertedID << 8);
  4271  001B38  C012  F008         	movff	convertReg2ExtendedCANid@ConvertedID,??_convertReg2ExtendedCANid+1
  4272  001B3C  C013  F009         	movff	convertReg2ExtendedCANid@ConvertedID+1,??_convertReg2ExtendedCANid+2
  4273  001B40  C014  F00A         	movff	convertReg2ExtendedCANid@ConvertedID+2,??_convertReg2ExtendedCANid+3
  4274  001B44  6A07               	clrf	??_convertReg2ExtendedCANid^0,c
  4275  001B46  C007  F012         	movff	??_convertReg2ExtendedCANid,convertReg2ExtendedCANid@ConvertedID
  4276  001B4A  C008  F013         	movff	??_convertReg2ExtendedCANid+1,convertReg2ExtendedCANid@ConvertedID+1
  4277  001B4E  C009  F014         	movff	??_convertReg2ExtendedCANid+2,convertReg2ExtendedCANid@ConvertedID+2
  4278  001B52  C00A  F015         	movff	??_convertReg2ExtendedCANid+3,convertReg2ExtendedCANid@ConvertedID+3
  4279  001B56                     
  4280                           ;mcc_generated_files/ecan.c: 444:     ConvertedID = ConvertedID + tempRXBn_EIDH;
  4281  001B56  500B               	movf	convertReg2ExtendedCANid@tempRXBn_EIDH^0,w,c
  4282  001B58  2412               	addwf	convertReg2ExtendedCANid@ConvertedID^0,w,c
  4283  001B5A  6E12               	movwf	convertReg2ExtendedCANid@ConvertedID^0,c
  4284  001B5C  0E00               	movlw	0
  4285  001B5E  2013               	addwfc	(convertReg2ExtendedCANid@ConvertedID+1)^0,w,c
  4286  001B60  6E13               	movwf	(convertReg2ExtendedCANid@ConvertedID+1)^0,c
  4287  001B62  0E00               	movlw	0
  4288  001B64  2014               	addwfc	(convertReg2ExtendedCANid@ConvertedID+2)^0,w,c
  4289  001B66  6E14               	movwf	(convertReg2ExtendedCANid@ConvertedID+2)^0,c
  4290  001B68  0E00               	movlw	0
  4291  001B6A  2015               	addwfc	(convertReg2ExtendedCANid@ConvertedID+3)^0,w,c
  4292  001B6C  6E15               	movwf	(convertReg2ExtendedCANid@ConvertedID+3)^0,c
  4293  001B6E                     
  4294                           ;mcc_generated_files/ecan.c: 445:     ConvertedID = (ConvertedID << 8);
  4295  001B6E  C012  F008         	movff	convertReg2ExtendedCANid@ConvertedID,??_convertReg2ExtendedCANid+1
  4296  001B72  C013  F009         	movff	convertReg2ExtendedCANid@ConvertedID+1,??_convertReg2ExtendedCANid+2
  4297  001B76  C014  F00A         	movff	convertReg2ExtendedCANid@ConvertedID+2,??_convertReg2ExtendedCANid+3
  4298  001B7A  6A07               	clrf	??_convertReg2ExtendedCANid^0,c
  4299  001B7C  C007  F012         	movff	??_convertReg2ExtendedCANid,convertReg2ExtendedCANid@ConvertedID
  4300  001B80  C008  F013         	movff	??_convertReg2ExtendedCANid+1,convertReg2ExtendedCANid@ConvertedID+1
  4301  001B84  C009  F014         	movff	??_convertReg2ExtendedCANid+2,convertReg2ExtendedCANid@ConvertedID+2
  4302  001B88  C00A  F015         	movff	??_convertReg2ExtendedCANid+3,convertReg2ExtendedCANid@ConvertedID+3
  4303                           
  4304                           ;mcc_generated_files/ecan.c: 446:     ConvertedID = ConvertedID + tempRXBn_EIDL;
  4305  001B8C  5003               	movf	convertReg2ExtendedCANid@tempRXBn_EIDL^0,w,c
  4306  001B8E  2412               	addwf	convertReg2ExtendedCANid@ConvertedID^0,w,c
  4307  001B90  6E12               	movwf	convertReg2ExtendedCANid@ConvertedID^0,c
  4308  001B92  0E00               	movlw	0
  4309  001B94  2013               	addwfc	(convertReg2ExtendedCANid@ConvertedID+1)^0,w,c
  4310  001B96  6E13               	movwf	(convertReg2ExtendedCANid@ConvertedID+1)^0,c
  4311  001B98  0E00               	movlw	0
  4312  001B9A  2014               	addwfc	(convertReg2ExtendedCANid@ConvertedID+2)^0,w,c
  4313  001B9C  6E14               	movwf	(convertReg2ExtendedCANid@ConvertedID+2)^0,c
  4314  001B9E  0E00               	movlw	0
  4315  001BA0  2015               	addwfc	(convertReg2ExtendedCANid@ConvertedID+3)^0,w,c
  4316  001BA2  6E15               	movwf	(convertReg2ExtendedCANid@ConvertedID+3)^0,c
  4317  001BA4                     
  4318                           ;mcc_generated_files/ecan.c: 447:     returnValue = ConvertedID;
  4319  001BA4  C012  F00C         	movff	convertReg2ExtendedCANid@ConvertedID,convertReg2ExtendedCANid@returnValue
  4320  001BA8  C013  F00D         	movff	convertReg2ExtendedCANid@ConvertedID+1,convertReg2ExtendedCANid@returnValue+1
  4321  001BAC  C014  F00E         	movff	convertReg2ExtendedCANid@ConvertedID+2,convertReg2ExtendedCANid@returnValue+2
  4322  001BB0  C015  F00F         	movff	convertReg2ExtendedCANid@ConvertedID+3,convertReg2ExtendedCANid@returnValue+3
  4323  001BB4                     
  4324                           ;mcc_generated_files/ecan.c: 448:     return (returnValue);
  4325  001BB4  C00C  F003         	movff	convertReg2ExtendedCANid@returnValue,?_convertReg2ExtendedCANid
  4326  001BB8  C00D  F004         	movff	convertReg2ExtendedCANid@returnValue+1,?_convertReg2ExtendedCANid+1
  4327  001BBC  C00E  F005         	movff	convertReg2ExtendedCANid@returnValue+2,?_convertReg2ExtendedCANid+2
  4328  001BC0  C00F  F006         	movff	convertReg2ExtendedCANid@returnValue+3,?_convertReg2ExtendedCANid+3
  4329  001BC4  0012               	return		;funcret
  4330  001BC6                     __end_of_convertReg2ExtendedCANid:
  4331                           	callstack 0
  4332                           
  4333 ;; *************** function _INTERRUPT_InterruptManager *****************
  4334 ;; Defined at:
  4335 ;;		line 58 in file "mcc_generated_files/interrupt_manager.c"
  4336 ;; Parameters:    Size  Location     Type
  4337 ;;		None
  4338 ;; Auto vars:     Size  Location     Type
  4339 ;;		None
  4340 ;; Return value:  Size  Location     Type
  4341 ;;                  1    wreg      void 
  4342 ;; Registers used:
  4343 ;;		wreg, pcl, pclath, pclatu, tosl, cstack
  4344 ;; Tracked objects:
  4345 ;;		On entry : 0/0
  4346 ;;		On exit  : 0/0
  4347 ;;		Unchanged: 0/0
  4348 ;; Data sizes:     COMRAM   BANK0   BANK1   BANK2   BANK3   BANK4   BANK5   BANK6   BANK7   BANK8   BANK9  BANK10  BANK1
      +1  BANK12  BANK13  BANK14
  4349 ;;      Params:         0       0       0       0       0       0       0       0       0       0       0       0       
      +0       0       0       0
  4350 ;;      Locals:         0       0       0       0       0       0       0       0       0       0       0       0       
      +0       0       0       0
  4351 ;;      Temps:          2       0       0       0       0       0       0       0       0       0       0       0       
      +0       0       0       0
  4352 ;;      Totals:         2       0       0       0       0       0       0       0       0       0       0       0       
      +0       0       0       0
  4353 ;;Total ram usage:        2 bytes
  4354 ;; Hardware stack levels used: 1
  4355 ;; Hardware stack levels required when called: 2
  4356 ;; This function calls:
  4357 ;;		_ECAN_WAKI_ISR
  4358 ;; This function is called by:
  4359 ;;		Interrupt level 2
  4360 ;; This function uses a non-reentrant model
  4361 ;;
  4362                           
  4363                           	psect	intcode
  4364  000008                     __pintcode:
  4365                           	callstack 0
  4366  000008                     _INTERRUPT_InterruptManager:
  4367                           	callstack 22
  4368                           
  4369                           ;incstack = 0
  4370  000008  8235               	bsf	int$flags,1,c	;set compiler interrupt flag (level 2)
  4371  00000A  CFFA F001          	movff	pclath,??_INTERRUPT_InterruptManager
  4372  00000E  CFFB F002          	movff	pclatu,??_INTERRUPT_InterruptManager+1
  4373  000012                     
  4374                           ;mcc_generated_files/interrupt_manager.c: 61:     if(INTCONbits.PEIE == 1)
  4375  000012  ACF2               	btfss	242,6,c	;volatile
  4376  000014  EF0E  F000         	goto	i2u77_41
  4377  000018  EF10  F000         	goto	i2u77_40
  4378  00001C                     i2u77_41:
  4379  00001C  EF20  F000         	goto	i2l624
  4380  000020                     i2u77_40:
  4381  000020                     
  4382                           ;mcc_generated_files/interrupt_manager.c: 62:     {;mcc_generated_files/interrupt_manage
      +                          r.c: 63:         if(PIE5bits.WAKIE == 1 && PIR5bits.WAKIF == 1)
  4383  000020  AC76               	btfss	118,6,c	;volatile
  4384  000022  EF15  F000         	goto	i2u78_41
  4385  000026  EF17  F000         	goto	i2u78_40
  4386  00002A                     i2u78_41:
  4387  00002A  EF20  F000         	goto	i2l624
  4388  00002E                     i2u78_40:
  4389  00002E  AC77               	btfss	119,6,c	;volatile
  4390  000030  EF1C  F000         	goto	i2u79_41
  4391  000034  EF1E  F000         	goto	i2u79_40
  4392  000038                     i2u79_41:
  4393  000038  EF20  F000         	goto	i2l624
  4394  00003C                     i2u79_40:
  4395  00003C                     
  4396                           ;mcc_generated_files/interrupt_manager.c: 64:         {;mcc_generated_files/interrupt_ma
      +                          nager.c: 65:             ECAN_WAKI_ISR();
  4397  00003C  EC79  F010         	call	_ECAN_WAKI_ISR	;wreg free
  4398  000040                     i2l624:
  4399  000040  C002  FFFB         	movff	??_INTERRUPT_InterruptManager+1,pclatu
  4400  000044  C001  FFFA         	movff	??_INTERRUPT_InterruptManager,pclath
  4401  000048  9235               	bcf	int$flags,1,c	;clear compiler interrupt flag (level 2)
  4402  00004A  0011               	retfie		f
  4403  00004C                     __end_of_INTERRUPT_InterruptManager:
  4404                           	callstack 0
  4405                           
  4406 ;; *************** function _ECAN_WAKI_ISR *****************
  4407 ;; Defined at:
  4408 ;;		line 503 in file "mcc_generated_files/ecan.c"
  4409 ;; Parameters:    Size  Location     Type
  4410 ;;		None
  4411 ;; Auto vars:     Size  Location     Type
  4412 ;;		None
  4413 ;; Return value:  Size  Location     Type
  4414 ;;                  1    wreg      void 
  4415 ;; Registers used:
  4416 ;;		wreg, pcl, pclath, pclatu, tosl, cstack
  4417 ;; Tracked objects:
  4418 ;;		On entry : 0/0
  4419 ;;		On exit  : 0/0
  4420 ;;		Unchanged: 0/0
  4421 ;; Data sizes:     COMRAM   BANK0   BANK1   BANK2   BANK3   BANK4   BANK5   BANK6   BANK7   BANK8   BANK9  BANK10  BANK1
      +1  BANK12  BANK13  BANK14
  4422 ;;      Params:         0       0       0       0       0       0       0       0       0       0       0       0       
      +0       0       0       0
  4423 ;;      Locals:         0       0       0       0       0       0       0       0       0       0       0       0       
      +0       0       0       0
  4424 ;;      Temps:          0       0       0       0       0       0       0       0       0       0       0       0       
      +0       0       0       0
  4425 ;;      Totals:         0       0       0       0       0       0       0       0       0       0       0       0       
      +0       0       0       0
  4426 ;;Total ram usage:        0 bytes
  4427 ;; Hardware stack levels used: 1
  4428 ;; Hardware stack levels required when called: 1
  4429 ;; This function calls:
  4430 ;;		Absolute function
  4431 ;;		_WakeUpDefaultInterruptHandler
  4432 ;; This function is called by:
  4433 ;;		_INTERRUPT_InterruptManager
  4434 ;; This function uses a non-reentrant model
  4435 ;;
  4436                           
  4437                           	psect	text26
  4438  0020F2                     __ptext26:
  4439                           	callstack 0
  4440  0020F2                     _ECAN_WAKI_ISR:
  4441                           	callstack 22
  4442  0020F2                     
  4443                           ;mcc_generated_files/ecan.c: 505:     WakeUpInterruptHandler();
  4444  0020F2  D802               	call	i2u52_48
  4445  0020F4  EF85  F010         	goto	i2u52_49
  4446  0020F8                     i2u52_48:
  4447  0020F8  0005               	push	
  4448  0020FA  6EFA               	movwf	pclath,c
  4449  0020FC  5033               	movf	_WakeUpInterruptHandler^0,w,c
  4450  0020FE  6EFD               	movwf	tosl,c
  4451  002100  5034               	movf	(_WakeUpInterruptHandler+1)^0,w,c
  4452  002102  6EFE               	movwf	tosh,c
  4453  002104  6AFF               	clrf	tosu,c
  4454  002106  50FA               	movf	pclath,w,c
  4455  002108  0012               	return		;indir
  4456  00210A                     i2u52_49:
  4457  00210A                     
  4458                           ;mcc_generated_files/ecan.c: 506:     PIR5bits.WAKIF = 0;
  4459  00210A  9C77               	bcf	119,6,c	;volatile
  4460  00210C  0012               	return		;funcret
  4461  00210E                     __end_of_ECAN_WAKI_ISR:
  4462                           	callstack 0
  4463                           
  4464 ;; *************** function _WakeUpDefaultInterruptHandler *****************
  4465 ;; Defined at:
  4466 ;;		line 63 in file "mcc_generated_files/ecan.c"
  4467 ;; Parameters:    Size  Location     Type
  4468 ;;		None
  4469 ;; Auto vars:     Size  Location     Type
  4470 ;;		None
  4471 ;; Return value:  Size  Location     Type
  4472 ;;                  1    wreg      void 
  4473 ;; Registers used:
  4474 ;;		None
  4475 ;; Tracked objects:
  4476 ;;		On entry : 0/0
  4477 ;;		On exit  : 0/0
  4478 ;;		Unchanged: 0/0
  4479 ;; Data sizes:     COMRAM   BANK0   BANK1   BANK2   BANK3   BANK4   BANK5   BANK6   BANK7   BANK8   BANK9  BANK10  BANK1
      +1  BANK12  BANK13  BANK14
  4480 ;;      Params:         0       0       0       0       0       0       0       0       0       0       0       0       
      +0       0       0       0
  4481 ;;      Locals:         0       0       0       0       0       0       0       0       0       0       0       0       
      +0       0       0       0
  4482 ;;      Temps:          0       0       0       0       0       0       0       0       0       0       0       0       
      +0       0       0       0
  4483 ;;      Totals:         0       0       0       0       0       0       0       0       0       0       0       0       
      +0       0       0       0
  4484 ;;Total ram usage:        0 bytes
  4485 ;; Hardware stack levels used: 1
  4486 ;; This function calls:
  4487 ;;		Nothing
  4488 ;; This function is called by:
  4489 ;;		_ECAN_Initialize
  4490 ;;		_ECAN_WAKI_ISR
  4491 ;; This function uses a non-reentrant model
  4492 ;;
  4493                           
  4494                           	psect	text27
  4495  002180                     __ptext27:
  4496                           	callstack 0
  4497  002180                     _WakeUpDefaultInterruptHandler:
  4498                           	callstack 22
  4499  002180  0012               	return		;funcret
  4500  002182                     __end_of_WakeUpDefaultInterruptHandler:
  4501                           	callstack 0
  4502                           
  4503                           	psect	text28
  4504  000000                     __ptext28:
  4505                           	callstack 0
  4506  000000                     
  4507                           	psect	rparam
  4508  0000                     
  4509                           	psect	temp
  4510  000035                     btemp:
  4511                           	callstack 0
  4512  000035                     	ds	1
  4513  0000                     int$flags	set	btemp
  4514  0000                     wtemp8	set	btemp+1
  4515  0000                     ttemp5	set	btemp+1
  4516  0000                     ttemp6	set	btemp+4
  4517  0000                     ttemp7	set	btemp+8
  4518                           
  4519                           	psect	idloc
  4520                           
  4521                           ;Config register IDLOC0 @ 0x200000
  4522                           ;	unspecified, using default values
  4523  200000                     	org	2097152
  4524  200000  FF                 	db	255
  4525                           
  4526                           ;Config register IDLOC1 @ 0x200001
  4527                           ;	unspecified, using default values
  4528  200001                     	org	2097153
  4529  200001  FF                 	db	255
  4530                           
  4531                           ;Config register IDLOC2 @ 0x200002
  4532                           ;	unspecified, using default values
  4533  200002                     	org	2097154
  4534  200002  FF                 	db	255
  4535                           
  4536                           ;Config register IDLOC3 @ 0x200003
  4537                           ;	unspecified, using default values
  4538  200003                     	org	2097155
  4539  200003  FF                 	db	255
  4540                           
  4541                           ;Config register IDLOC4 @ 0x200004
  4542                           ;	unspecified, using default values
  4543  200004                     	org	2097156
  4544  200004  FF                 	db	255
  4545                           
  4546                           ;Config register IDLOC5 @ 0x200005
  4547                           ;	unspecified, using default values
  4548  200005                     	org	2097157
  4549  200005  FF                 	db	255
  4550                           
  4551                           ;Config register IDLOC6 @ 0x200006
  4552                           ;	unspecified, using default values
  4553  200006                     	org	2097158
  4554  200006  FF                 	db	255
  4555                           
  4556                           ;Config register IDLOC7 @ 0x200007
  4557                           ;	unspecified, using default values
  4558  200007                     	org	2097159
  4559  200007  FF                 	db	255
  4560                           
  4561                           	psect	config
  4562                           
  4563                           ;Config register CONFIG1L @ 0x300000
  4564                           ;	VREG Sleep Enable bit
  4565                           ;	RETEN = OFF, Ultra low-power regulator is Disabled (Controlled by REGSLP bit)
  4566                           ;	LF-INTOSC Low-power Enable bit
  4567                           ;	INTOSCSEL = HIGH, LF-INTOSC in High-power mode during Sleep
  4568                           ;	SOSC Power Selection and mode Configuration bits
  4569                           ;	SOSCSEL = DIG, Digital (SCLKI) mode
  4570                           ;	Extended Instruction Set
  4571                           ;	XINST = OFF, Disabled
  4572  300000                     	org	3145728
  4573  300000  15                 	db	21
  4574                           
  4575                           ;Config register CONFIG1H @ 0x300001
  4576                           ;	Oscillator
  4577                           ;	FOSC = HS2, HS oscillator (High power, 16 MHz - 25 MHz)
  4578                           ;	PLL x4 Enable bit
  4579                           ;	PLLCFG = OFF, Disabled
  4580                           ;	Fail-Safe Clock Monitor
  4581                           ;	FCMEN = OFF, Disabled
  4582                           ;	Internal External Oscillator Switch Over Mode
  4583                           ;	IESO = OFF, Disabled
  4584  300001                     	org	3145729
  4585  300001  02                 	db	2
  4586                           
  4587                           ;Config register CONFIG2L @ 0x300002
  4588                           ;	Power Up Timer
  4589                           ;	PWRTEN = OFF, Disabled
  4590                           ;	Brown Out Detect
  4591                           ;	BOREN = SBORDIS, Enabled in hardware, SBOREN disabled
  4592                           ;	Brown-out Reset Voltage bits
  4593                           ;	BORV = 3, 1.8V
  4594                           ;	BORMV Power level
  4595                           ;	BORPWR = ZPBORMV, ZPBORMV instead of BORMV is selected
  4596  300002                     	org	3145730
  4597  300002  7F                 	db	127
  4598                           
  4599                           ;Config register CONFIG2H @ 0x300003
  4600                           ;	Watchdog Timer
  4601                           ;	WDTEN = OFF, WDT disabled in hardware; SWDTEN bit disabled
  4602                           ;	Watchdog Postscaler
  4603                           ;	WDTPS = 1048576, 1:1048576
  4604  300003                     	org	3145731
  4605  300003  7C                 	db	124
  4606                           
  4607                           ; Padding undefined space
  4608  300004                     	org	3145732
  4609  300004  FF                 	db	255
  4610                           
  4611                           ;Config register CONFIG3H @ 0x300005
  4612                           ;	ECAN Mux bit
  4613                           ;	CANMX = PORTC, ECAN TX and RX pins are located on RC6 and RC7, respectively
  4614                           ;	MSSP address masking
  4615                           ;	MSSPMSK = MSK7, 7 Bit address masking mode
  4616                           ;	Master Clear Enable
  4617                           ;	MCLRE = ON, MCLR Enabled, RE3 Disabled
  4618  300005                     	org	3145733
  4619  300005  88                 	db	136
  4620                           
  4621                           ;Config register CONFIG4L @ 0x300006
  4622                           ;	Stack Overflow Reset
  4623                           ;	STVREN = ON, Enabled
  4624                           ;	Boot Block Size
  4625                           ;	BBSIZ = BB2K, 2K word Boot Block size
  4626  300006                     	org	3145734
  4627  300006  91                 	db	145
  4628                           
  4629                           ; Padding undefined space
  4630  300007                     	org	3145735
  4631  300007  FF                 	db	255
  4632                           
  4633                           ;Config register CONFIG5L @ 0x300008
  4634                           ;	Code Protect 00800-03FFF
  4635                           ;	CP0 = OFF, Disabled
  4636                           ;	Code Protect 04000-07FFF
  4637                           ;	CP1 = OFF, Disabled
  4638                           ;	Code Protect 08000-0BFFF
  4639                           ;	CP2 = OFF, Disabled
  4640                           ;	Code Protect 0C000-0FFFF
  4641                           ;	CP3 = OFF, Disabled
  4642  300008                     	org	3145736
  4643  300008  0F                 	db	15
  4644                           
  4645                           ;Config register CONFIG5H @ 0x300009
  4646                           ;	Code Protect Boot
  4647                           ;	CPB = OFF, Disabled
  4648                           ;	Data EE Read Protect
  4649                           ;	CPD = OFF, Disabled
  4650  300009                     	org	3145737
  4651  300009  C0                 	db	192
  4652                           
  4653                           ;Config register CONFIG6L @ 0x30000A
  4654                           ;	Table Write Protect 00800-03FFF
  4655                           ;	WRT0 = OFF, Disabled
  4656                           ;	Table Write Protect 04000-07FFF
  4657                           ;	WRT1 = OFF, Disabled
  4658                           ;	Table Write Protect 08000-0BFFF
  4659                           ;	WRT2 = OFF, Disabled
  4660                           ;	Table Write Protect 0C000-0FFFF
  4661                           ;	WRT3 = OFF, Disabled
  4662  30000A                     	org	3145738
  4663  30000A  0F                 	db	15
  4664                           
  4665                           ;Config register CONFIG6H @ 0x30000B
  4666                           ;	Config. Write Protect
  4667                           ;	WRTC = OFF, Disabled
  4668                           ;	Table Write Protect Boot
  4669                           ;	WRTB = OFF, Disabled
  4670                           ;	Data EE Write Protect
  4671                           ;	WRTD = OFF, Disabled
  4672  30000B                     	org	3145739
  4673  30000B  E0                 	db	224
  4674                           
  4675                           ;Config register CONFIG7L @ 0x30000C
  4676                           ;	Table Read Protect 00800-03FFF
  4677                           ;	EBTR0 = OFF, Disabled
  4678                           ;	Table Read Protect 04000-07FFF
  4679                           ;	EBTR1 = OFF, Disabled
  4680                           ;	Table Read Protect 08000-0BFFF
  4681                           ;	EBTR2 = OFF, Disabled
  4682                           ;	Table Read Protect 0C000-0FFFF
  4683                           ;	EBTR3 = OFF, Disabled
  4684  30000C                     	org	3145740
  4685  30000C  0F                 	db	15
  4686                           
  4687                           ;Config register CONFIG7H @ 0x30000D
  4688                           ;	Table Read Protect Boot
  4689                           ;	EBTRB = OFF, Disabled
  4690  30000D                     	org	3145741
  4691  30000D  40                 	db	64
  4692                           tosu	equ	0xFFF
  4693                           tosh	equ	0xFFE
  4694                           tosl	equ	0xFFD
  4695                           stkptr	equ	0xFFC
  4696                           pclatu	equ	0xFFB
  4697                           pclath	equ	0xFFA
  4698                           pcl	equ	0xFF9
  4699                           tblptru	equ	0xFF8
  4700                           tblptrh	equ	0xFF7
  4701                           tblptrl	equ	0xFF6
  4702                           tablat	equ	0xFF5
  4703                           prodh	equ	0xFF4
  4704                           prodl	equ	0xFF3
  4705                           indf0	equ	0xFEF
  4706                           postinc0	equ	0xFEE
  4707                           postdec0	equ	0xFED
  4708                           preinc0	equ	0xFEC
  4709                           plusw0	equ	0xFEB
  4710                           fsr0h	equ	0xFEA
  4711                           fsr0l	equ	0xFE9
  4712                           wreg	equ	0xFE8
  4713                           indf1	equ	0xFE7
  4714                           postinc1	equ	0xFE6
  4715                           postdec1	equ	0xFE5
  4716                           preinc1	equ	0xFE4
  4717                           plusw1	equ	0xFE3
  4718                           fsr1h	equ	0xFE2
  4719                           fsr1l	equ	0xFE1
  4720                           bsr	equ	0xFE0
  4721                           indf2	equ	0xFDF
  4722                           postinc2	equ	0xFDE
  4723                           postdec2	equ	0xFDD
  4724                           preinc2	equ	0xFDC
  4725                           plusw2	equ	0xFDB
  4726                           fsr2h	equ	0xFDA
  4727                           fsr2l	equ	0xFD9
  4728                           status	equ	0xFD8

Data Sizes:
    Strings     15
    Constant    0
    Data        60
    BSS         30
    Persistent  0
    Stack       0

Auto Spaces:
    Space          Size  Autos    Used
    COMRAM           94     36      52
    BANK0           160     72     146
    BANK1           256      0       0
    BANK2           256      0       0
    BANK3           256      0       0
    BANK4           256      0       0
    BANK5           256      0       0
    BANK6           256      0       0
    BANK7           256      0       0
    BANK8           256      0       0
    BANK9           256      0       0
    BANK10          256      0       0
    BANK11          256      0       0
    BANK12          256      0       0
    BANK13          256      0       0
    BANK14           65      0       0

Pointer List with Targets:

    ?___simple_search_fl...next	PTR struct chunk size(2) Largest target is 0

    free@c.....next	PTR struct chunk size(2) Largest target is 0

    free@c...next	PTR struct chunk size(2) Largest target is 0

    __simple_search_fl@best_last.....next	PTR struct chunk size(2) Largest target is 0

    __simple_search_fl@split.....next	PTR struct chunk size(2) Largest target is 0

    __simple_search_fl@split...next	PTR struct chunk size(2) Largest target is 0

    __simple_search_fl@split	PTR struct chunk size(2) Largest target is 0
		 -> NULL(NULL[0]), 

    __simple_search_fl@next...next	PTR struct chunk size(2) Largest target is 0

    __simple_search_fl@next	PTR struct chunk size(2) Largest target is 0
		 -> NULL(NULL[0]), 

    __simple_search_fl@best_last...next	PTR struct chunk size(2) Largest target is 0

    __simple_search_fl@best...next	PTR struct chunk size(2) Largest target is 0

    sp____simple_search_fl...next	PTR struct chunk size(2) Largest target is 0

    __freelist...next	PTR struct chunk size(2) Largest target is 0

    __simple_search_fl@last.....next	PTR struct chunk size(2) Largest target is 0

    __simple_search_fl@last...next	PTR struct chunk size(2) Largest target is 0

    S1835$next	PTR struct chunk size(2) Largest target is 0

    __simple_search_fl@c...next	PTR struct chunk size(2) Largest target is 0

    __simple_search_fl@c	PTR struct chunk size(2) Largest target is 0
		 -> NULL(NULL[0]), 

    __freelist	PTR struct chunk size(2) Largest target is 0
		 -> NULL(NULL[0]), 

    __simple_search_fl@last	PTR struct chunk size(2) Largest target is 0
		 -> NULL(NULL[0]), 

    __simple_search_fl@best_last	PTR struct chunk size(2) Largest target is 0
		 -> NULL(NULL[0]), 

    __simple_search_fl@best	PTR struct chunk size(2) Largest target is 0
		 -> NULL(NULL[0]), 

    __expand_heap@new_brkp	PTR unsigned char  size(2) Largest target is 0
		 -> __heap_hi(UNKNOWN), NULL(NULL[0]), 

    brkp	PTR unsigned char  size(2) Largest target is 0
		 -> __heap_hi(UNKNOWN), NULL(NULL[0]), 

    __expand_heap@pn	PTR unsigned int  size(2) Largest target is 2
		 -> malloc@m(COMRAM[2]), 

    malloc@sz	PTR unsigned int  size(2) Largest target is 3648
		 -> __heap_hi(UNKNOWN), RAM(DATA[3648]), NULL(NULL[0]), 

    sp____expand_heap	PTR void  size(2) Largest target is 0
		 -> __heap_hi(UNKNOWN), NULL(NULL[0]), 

    malloc@new	PTR unsigned char  size(2) Largest target is 3648
		 -> __heap_hi(UNKNOWN), RAM(DATA[3648]), NULL(NULL[0]), 

    malloc@end	PTR unsigned char  size(2) Largest target is 3648
		 -> __heap_hi(UNKNOWN), RAM(DATA[3648]), NULL(NULL[0]), 

    sp____simple_search_fl	PTR void  size(2) Largest target is 0
		 -> NULL(NULL[0]), 

    malloc@cur	PTR unsigned char  size(2) Largest target is 3648
		 -> __heap_hi(UNKNOWN), RAM(DATA[3648]), NULL(NULL[0]), 

    malloc@p	PTR void  size(2) Largest target is 3648
		 -> __heap_hi(UNKNOWN), RAM(DATA[3648]), NULL(NULL[0]), 

    ECAN_SetWakeUpInterruptHandler@handler	PTR FTN()void  size(2) Largest target is 1
		 -> WakeUpDefaultInterruptHandler(), 

    WakeUpInterruptHandler	PTR FTN()void  size(2) Largest target is 1
		 -> Absolute function(), WakeUpDefaultInterruptHandler(), 

    CAN_receive@tempCanMsg	PTR struct . size(2) Largest target is 14
		 -> rx(BANK0[14]), 

    updateEncoder@last	PTR int  size(2) Largest target is 3648
		 -> __heap_hi(UNKNOWN), RAM(DATA[3648]), NULL(NULL[0]), 

    updateEncoder@current	PTR int  size(2) Largest target is 3648
		 -> __heap_hi(UNKNOWN), RAM(DATA[3648]), NULL(NULL[0]), 

    LCD_print_string@str	PTR const unsigned char  size(2) Largest target is 60
		 -> STR_2(CODE[2]), STR_1(CODE[13]), main@menu(BANK0[60]), 

    main@prevState	PTR int  size(2) Largest target is 3648
		 -> __heap_hi(UNKNOWN), RAM(DATA[3648]), NULL(NULL[0]), 

    sp__malloc	PTR void  size(2) Largest target is 3648
		 -> __heap_hi(UNKNOWN), RAM(DATA[3648]), NULL(NULL[0]), 

    main@currentState	PTR int  size(2) Largest target is 3648
		 -> __heap_hi(UNKNOWN), RAM(DATA[3648]), NULL(NULL[0]), 


Critical Paths under _main in COMRAM

    _main->_malloc
    _updateEncoder->___awmod
    _malloc->___simple_search_fl
    _enterExitButtons->_enterButtonGetValue
    _enterExitButtons->_exitButtonGetValue
    _SYSTEM_Initialize->_ECAN_Initialize
    _ECAN_Initialize->_ECAN_SetWakeUpInterruptHandler
    _LCD_init->_LCD_print_string
    _LCD_print_string->_LCD_print
    _LCD_print->_LCD_set_pos
    _LCD_set_pos->_LCD_command
    _LCD_command->_LCD_intake
    _CAN_receive->_convertReg2ExtendedCANid

Critical Paths under _INTERRUPT_InterruptManager in COMRAM

    None.

Critical Paths under _main in BANK0

    None.

Critical Paths under _INTERRUPT_InterruptManager in BANK0

    None.

Critical Paths under _main in BANK1

    None.

Critical Paths under _INTERRUPT_InterruptManager in BANK1

    None.

Critical Paths under _main in BANK2

    None.

Critical Paths under _INTERRUPT_InterruptManager in BANK2

    None.

Critical Paths under _main in BANK3

    None.

Critical Paths under _INTERRUPT_InterruptManager in BANK3

    None.

Critical Paths under _main in BANK4

    None.

Critical Paths under _INTERRUPT_InterruptManager in BANK4

    None.

Critical Paths under _main in BANK5

    None.

Critical Paths under _INTERRUPT_InterruptManager in BANK5

    None.

Critical Paths under _main in BANK6

    None.

Critical Paths under _INTERRUPT_InterruptManager in BANK6

    None.

Critical Paths under _main in BANK7

    None.

Critical Paths under _INTERRUPT_InterruptManager in BANK7

    None.

Critical Paths under _main in BANK8

    None.

Critical Paths under _INTERRUPT_InterruptManager in BANK8

    None.

Critical Paths under _main in BANK9

    None.

Critical Paths under _INTERRUPT_InterruptManager in BANK9

    None.

Critical Paths under _main in BANK10

    None.

Critical Paths under _INTERRUPT_InterruptManager in BANK10

    None.

Critical Paths under _main in BANK11

    None.

Critical Paths under _INTERRUPT_InterruptManager in BANK11

    None.

Critical Paths under _main in BANK12

    None.

Critical Paths under _INTERRUPT_InterruptManager in BANK12

    None.

Critical Paths under _main in BANK13

    None.

Critical Paths under _INTERRUPT_InterruptManager in BANK13

    None.

Critical Paths under _main in BANK14

    None.

Critical Paths under _INTERRUPT_InterruptManager in BANK14

    None.

Call Graph Tables:

 ---------------------------------------------------------------------------------
 (Depth) Function   	        Calls       Base Space   Used Autos Params    Refs
 ---------------------------------------------------------------------------------
 (0) _main                                                74    74      0   11246
                                             34 COMRAM     2     2      0
                                              0 BANK0     72    72      0
                        _CAN_receive
                        _LCD_command
                           _LCD_init
                   _LCD_print_string
                  _SYSTEM_Initialize
                             ___wmul
                   _enterExitButtons
                             _malloc
                      _updateEncoder
 ---------------------------------------------------------------------------------
 (1) _updateEncoder                                       12     6      6    1010
                                              8 COMRAM    12     6      6
                            ___awmod
 ---------------------------------------------------------------------------------
 (2) ___awmod                                              6     2      4     474
                                              2 COMRAM     6     2      4
 ---------------------------------------------------------------------------------
 (1) _malloc                                              14    12      2    1815
                                             22 COMRAM    12    10      2
                      ___expand_heap
                 ___simple_search_fl
 ---------------------------------------------------------------------------------
 (2) ___simple_search_fl                                  20    18      2     915
                                              2 COMRAM    20    18      2
 ---------------------------------------------------------------------------------
 (2) ___expand_heap                                        8     6      2     224
                                              2 COMRAM     8     6      2
 ---------------------------------------------------------------------------------
 (1) _enterExitButtons                                     4     2      2     135
                                              5 COMRAM     4     2      2
                _enterButtonGetValue
                 _exitButtonGetValue
 ---------------------------------------------------------------------------------
 (2) _exitButtonGetValue                                   3     1      2       0
                                              2 COMRAM     3     1      2
 ---------------------------------------------------------------------------------
 (2) _enterButtonGetValue                                  3     1      2       0
                                              2 COMRAM     3     1      2
 ---------------------------------------------------------------------------------
 (1) ___wmul                                               6     2      4     693
                                              2 COMRAM     6     2      4
 ---------------------------------------------------------------------------------
 (1) _SYSTEM_Initialize                                    0     0      0     111
                    _ECAN_Initialize
               _INTERRUPT_Initialize
              _OSCILLATOR_Initialize
             _PIN_MANAGER_Initialize
 ---------------------------------------------------------------------------------
 (2) _PIN_MANAGER_Initialize                               0     0      0       0
 ---------------------------------------------------------------------------------
 (2) _OSCILLATOR_Initialize                                0     0      0       0
 ---------------------------------------------------------------------------------
 (2) _INTERRUPT_Initialize                                 0     0      0       0
 ---------------------------------------------------------------------------------
 (2) _ECAN_Initialize                                      1     1      0     111
                                              4 COMRAM     1     1      0
     _ECAN_SetWakeUpInterruptHandler
 ---------------------------------------------------------------------------------
 (3) _ECAN_SetWakeUpInterruptHandler                       2     0      2     111
                                              2 COMRAM     2     0      2
 ---------------------------------------------------------------------------------
 (1) _LCD_init                                             3     3      0    2586
                                             16 COMRAM     3     3      0
                        _LCD_command
                   _LCD_print_string
 ---------------------------------------------------------------------------------
 (1) _LCD_print_string                                     7     3      4    2496
                                              9 COMRAM     7     3      4
                          _LCD_print
                             ___wmul (ARG)
 ---------------------------------------------------------------------------------
 (2) _LCD_print                                            3     1      2     584
                                              6 COMRAM     3     1      2
                         _LCD_intake
                        _LCD_set_pos
 ---------------------------------------------------------------------------------
 (3) _LCD_set_pos                                          2     1      1     162
                                              4 COMRAM     2     1      1
                        _LCD_command
 ---------------------------------------------------------------------------------
 (4) _LCD_command                                          1     1      0      22
                                              3 COMRAM     1     1      0
                         _LCD_intake
 ---------------------------------------------------------------------------------
 (5) _LCD_intake                                           1     1      0       0
                                              2 COMRAM     1     1      0
 ---------------------------------------------------------------------------------
 (1) _CAN_receive                                          3     1      2    1877
                                             21 COMRAM     3     1      2
           _convertReg2ExtendedCANid
           _convertReg2StandardCANid
 ---------------------------------------------------------------------------------
 (2) _convertReg2StandardCANid                            15    11      4     292
                                              2 COMRAM    15    11      4
 ---------------------------------------------------------------------------------
 (2) _convertReg2ExtendedCANid                            19    15      4     899
                                              2 COMRAM    19    15      4
 ---------------------------------------------------------------------------------
 Estimated maximum stack depth 5
 ---------------------------------------------------------------------------------
 (Depth) Function   	        Calls       Base Space   Used Autos Params    Refs
 ---------------------------------------------------------------------------------
 (7) _INTERRUPT_InterruptManager                           2     2      0       0
                                              0 COMRAM     2     2      0
                      _ECAN_WAKI_ISR
 ---------------------------------------------------------------------------------
 (8) _ECAN_WAKI_ISR                                        0     0      0       0
                   Absolute function *
      _WakeUpDefaultInterruptHandler *
 ---------------------------------------------------------------------------------
 (9) _WakeUpDefaultInterruptHandler                        0     0      0       0
 ---------------------------------------------------------------------------------
 (9) Absolute function(Fake)                               0     0      0       0
 ---------------------------------------------------------------------------------
 Estimated maximum stack depth 9
 ---------------------------------------------------------------------------------

 Call Graph Graphs:

 _main (ROOT)
   _CAN_receive
     _convertReg2ExtendedCANid
     _convertReg2StandardCANid
   _LCD_command
     _LCD_intake
   _LCD_init
     _LCD_command
     _LCD_print_string
       _LCD_print
         _LCD_intake
         _LCD_set_pos
           _LCD_command
       ___wmul (ARG)
   _LCD_print_string
   _SYSTEM_Initialize
     _ECAN_Initialize
       _ECAN_SetWakeUpInterruptHandler
     _INTERRUPT_Initialize
     _OSCILLATOR_Initialize
     _PIN_MANAGER_Initialize
   ___wmul
   _enterExitButtons
     _enterButtonGetValue
     _exitButtonGetValue
   _malloc
     ___expand_heap
     ___simple_search_fl
   _updateEncoder
     ___awmod

 _INTERRUPT_InterruptManager (ROOT)
   _ECAN_WAKI_ISR
     Absolute function(Fake) *
     _WakeUpDefaultInterruptHandler *

 Address spaces:
Name               Size   Autos  Total    Cost      Usage
BIGRAM             E40      0       0      52        0.0%
EEDATA             400      0       0       0        0.0%
BITBANK13          100      0       0      49        0.0%
BANK13             100      0       0      22        0.0%
BITBANK12          100      0       0      48        0.0%
BANK12             100      0       0      21        0.0%
BITBANK11          100      0       0      47        0.0%
BANK11             100      0       0      20        0.0%
BITBANK10          100      0       0      46        0.0%
BANK10             100      0       0      19        0.0%
BITBANK9           100      0       0      45        0.0%
BANK9              100      0       0      18        0.0%
BITBANK8           100      0       0      44        0.0%
BANK8              100      0       0      17        0.0%
BITBANK7           100      0       0      43        0.0%
BANK7              100      0       0      16        0.0%
BITBANK6           100      0       0      42        0.0%
BANK6              100      0       0      15        0.0%
BITBANK5           100      0       0      41        0.0%
BANK5              100      0       0      14        0.0%
BITBANK4           100      0       0      12        0.0%
BANK4              100      0       0      13        0.0%
BITBANK3           100      0       0      10        0.0%
BANK3              100      0       0      11        0.0%
BITBANK2           100      0       0       8        0.0%
BANK2              100      0       0       9        0.0%
BITBANK1           100      0       0       6        0.0%
BANK1              100      0       0       7        0.0%
BITBANK0            A0      0       0       4        0.0%
BANK0               A0     48      92       5       91.2%
BITBIGSFRlllhll     62      0       0      37        0.0%
BITCOMRAM           5E      0       0       0        0.0%
COMRAM              5E     24      34       1       55.3%
BITBANK14           41      0       0      50        0.0%
BANK14              41      0       0      51        0.0%
BITBIGSFRhhllhl     34      0       0      26        0.0%
BITBIGSFRlllhhh     1D      0       0      33        0.0%
BITBIGSFRhhlh       1D      0       0      24        0.0%
BITBIGSFRhhh         D      0       0      23        0.0%
BITBIGSFRllhlhh      A      0       0      30        0.0%
BITBIGSFRllhh        5      0       0      29        0.0%
BITBIGSFRhll         4      0       0      28        0.0%
BITBIGSFRllhlhh      3      0       0      31        0.0%
BITBIGSFRhhlll       3      0       0      27        0.0%
BITBIGSFRlllhhh      2      0       0      36        0.0%
BITBIGSFRlllhhh      2      0       0      35        0.0%
BITBIGSFRlllhhh      2      0       0      34        0.0%
BITBIGSFRllhlll      2      0       0      32        0.0%
BITBIGSFRllllll      2      0       0      39        0.0%
BITBIGSFRhhllhh      1      0       0      25        0.0%
BITBIGSFRllllhl      1      0       0      38        0.0%
BIGSFR               0      0       0     200        0.0%
BITSFR_2             0      0       0     200        0.0%
SFR_2                0      0       0     200        0.0%
BITSFR_1             0      0       0     200        0.0%
SFR_1                0      0       0     200        0.0%
BITSFR               0      0       0     200        0.0%
SFR                  0      0       0     200        0.0%
STACK                0      0       0       2        0.0%
NULL                 0      0       0       0        0.0%
ABS                  0      0      C6      40        0.0%
DATA                 0      0      C6       3        0.0%
CODE                 0      0       0       0        0.0%


Microchip Technology PIC18 Macro Assembler V2.36 build 20220127204148 
Symbol Table                                                                                   Sat Jul 16 15:09:11 2022

                                               l33 2074                                                 l55 214E  
                                               l58 2160                                                 _rx 00E4  
                              ___wmul@multiplicand 0005                                                l131 213C  
                                              l141 2126                                                l134 2170  
                                              l138 20B8                                                l154 1EB6  
                                              l163 20F0                                                l149 1CB6  
                                              l166 20D4                                                l178 1F40  
                                              l179 1F48                                                l188 1946  
                                              l615 217E                                                l544 17FA  
                                              l561 152E                                                l627 209A  
                                              l591 1FC0                                                l568 1656  
                                              l588 1BC4                                                l599 217A  
                                              l871 1D66              ECAN_SetWakeUpInterruptHandler@handler 0003  
                                              u800 20AC                                                u801 20A8  
                                              u810 1670                                                u811 166C  
                                              u820 17FA                                                u821 17F6  
                                              u830 1BF8                                                u831 1BF4  
                                              u840 1C32                                                u920 1CCA  
                                              u905 1B00                                                u921 1CC6  
                                              u850 1C72                                                u930 1CE4  
                                              u915 1F7E                                                u931 1CE0  
                                              u860 1CA6                                                u940 1CFE  
                                              u941 1CFA                                                u870 1CB6  
                                              u950 1D1C                                                u871 1CB2  
                                              u847 1C28                                                u951 1D18  
                                              u880 20E8                                                u960 1D32  
                                              u857 1C68                                                u881 20E0  
                                              u961 1D2E                                                u890 20CC  
                                              u970 1D56                                                u867 1C9C  
                                              u891 20C4                                                u971 1D52  
                                              u980 0F3C                                                u981 0F38  
                                              u990 0F74                                                u991 0F70  
                                              u888 20EA                                                u898 20CE  
                                      ?_LCD_intake 0001                                       ___awmod@sign 0008  
                                              tosl 000FFD                                                wreg 000FE8  
                       ??_convertReg2StandardCANid 0007                                               l1320 1A32  
                                             l2201 211A                                               l2203 211C  
                                             l2211 2040                                               l1332 1D92  
                                             l2301 1F4C                                               l2205 211E  
                                             l2221 2150                                               l2213 2060  
                                             l1317 1A3E                                               l2303 1F4C  
                                             l2207 2122                                               l2231 1680  
                                             l2223 1658                                               l2215 2066  
                                             l1319 1A8A                                               l2305 1F76  
                                             l2209 2172                                               l2241 17BA  
                                             l2233 1682                                               l2225 165C  
                                             l2217 2072                                               l1337 1E14  
                                             l1353 1038                                               l1345 118A  
                                             l2321 1CD6                                               l2313 1CB8  
                                             l2307 1FA0                                               l2251 17DE  
                                             l2243 17BC                                               l2235 1688  
                                             l2227 1670                                               l2219 217C  
                                             l2411 1D8A                                               l2331 1D0E  
                                             l2323 1CE4                                               l2315 1CBC  
                                             l1356 1146                                               l2309 1FB0  
                                             l2181 2128                                               l2261 1BF8  
                                             l2253 17E0                                               l2245 17BE  
                                             l2237 168A                                               l2229 167E  
                                             l2421 1DF0                                               l2413 1DA8  
                                             l2501 19EC                                               l2333 1D1C  
                                             l2341 1D46                                               l2325 1CEC  
                                             l2317 1CCA                                               l2183 212E  
                                             l2191 209E                                               l2263 1C3A  
                                             l2255 17E4                                               l2247 17D0  
                                             l2239 168C                                               l2431 213E  
                                             l2423 1DF8                                               l2415 1DB0  
                                             l2407 1D68                                               l2351 0F3C  
                                             l2511 1A46                                               l2503 19FE  
                                             l2343 1D56                                               l2335 1D32  
                                             l2327 1CFE                                               l2319 1CD2  
                                             l2281 1AA4                                               l2601 14B4  
                                             l2185 2164                                               l2193 20AC  
                                             l2265 1C76                                               l2257 1BC6  
                                             l2441 1E24                                               l2249 17DC  
                                             l2433 2142                                               l2273 20BA  
                                             l2417 1DBC                                               l2409 1D78  
                                             l2361 0F86                                               l2513 1A4E  
                                             l2521 1A82                                               l2345 1D5E  
                                             l2337 1D3A                                               l2329 1D06  
                                             l2291 1B56                                               l2283 1AAC  
                                             l2611 1504                                               l2603 14C4  
                                             l2187 2168                                               l2195 20B0  
                                             l2259 1BCE                                               l2267 1C78  
                                             l2451 1E38                                               l2443 1E26  
                                             l2435 2146                                               l2531 1EC8  
                                             l2427 1E04                                               l2419 1DDA  
                                             l2371 0FEC                                               l2363 0FAA  
                                             l2355 0F48                                               l2515 1A5E  
                                             l2507 1A0A                                               l2339 1D40  
                                             l2293 1B6E                                               l2285 1AD6  
                                             l2277 1A8E                                               l2621 154C  
                                             l2613 1514                                               l2605 14D4  
                                             l2189 216C                                               l2453 1E3E  
                                             l2445 1E28                                               l2437 214A  
                                             l2269 20D6                                               l2533 1EE8  
                                             l2525 1EB8                                               l2373 0FFE  
                                             l2365 0FBE                                               l2357 0F54  
                                             l2381 1054                                               l2349 0F12  
                                             l2517 1A66                                               l2509 1A2A  
                                             l2701 1240                                               l2295 1BA4  
                                             l2287 1AEE                                               l2279 1A9E  
                                             l2631 15CC                                               l2623 1558  
                                             l2615 1524                                               l2607 14E4  
                                             l2199 2110                                               l2471 1EA0  
                                             l2455 1E44                                               l2447 1E2C  
                                             l2439 1E16                                               l2527 1EBC  
                                             l2391 10EE                                               l2383 1066  
                                             l2359 0F74                                               l2519 1A6E  
                                             l2711 12A6                                               l2703 1252  
                                             l2297 1BB4                                               l2289 1B20  
                                             l2641 161C                                               l2633 15DC  
                                             l2625 158A                                               l2617 1526  
                                             l2609 14F4                                               l2473 1EB0  
                                             l2465 1E72                                               l2457 1E58  
                                             l2449 1E32                                               l2537 1EF4  
                                             l2393 112A                                               l2385 1078  
                                             l2377 1028                                               l2369 0FCE  
                                             l2481 195A                                               l2561 1872  
                                             l2553 17FC                                               l2721 1302  
                                             l2713 12BA                                               l2705 1266  
                                             l2643 162C                                               l2635 15EC  
                                             l2627 1596                                               l2619 153E  
                                             l2651 1654                                               l2467 1E88  
                                             l2459 1E6E                                               l2539 1F14  
                                             l2395 115E                                               l2387 10BA  
                                             l2379 1040                                               l2491 1984  
                                             l2483 195E                                               l2475 1948  
                                             l2571 18F2                                               l2563 188C  
                                             l2555 180A                                               l2731 1340  
                                             l2715 12CC                                               l2723 1310  
                                             l2707 127A                                               l2645 163C  
                                             l2637 15FC                                               l2629 15BC  
                                             l2469 1E9E                                               l2805 1EDA  
                                             l2397 116A                                               l2389 10DE  
                                             l2493 1998                                               l2485 1966  
                                             l2477 1948                                               l2573 18FA  
                                             l2565 18AC                                               l2557 1830  
                                             l2733 136C                                               l2725 1322  
                                             l2741 13D0                                               l2717 12D0  
                                             l2709 1282                                               l2661 118C  
                                             l2647 164C                                               l2639 160C  
                                             l2591 1430                                               l2583 1404  
                                             l2655 2076                                               l2807 1F06  
                                             l2399 117E                                               l2495 19AA  
                                             l2487 1966                                               l2479 1948  
                                             l2567 18B8                                               l2575 1916  
                                             l2559 184A                                               l2743 13EC  
                                             l2727 1334                                               l2735 137A  
                                             l2719 12D6                                               l2671 119C  
                                             l2663 1190                                               l2593 1462  
                                             l2585 1408                                               l2657 2092  
                                             l2809 1F2A                                               l2497 19CC  
                                             l2489 197C                                               l2577 192E  
                                             l2569 18E6                                               l2737 1392  
                                             l2729 133A                                               l2681 11A8  
                                             l2673 119E                                               l2665 1192  
                                             l2595 146E                                               l2587 1416  
                                             l2499 19D8                                               l2579 193E  
                                             l2739 13A4                                               l2691 11E2  
                                             l2683 11AC                                               l2675 11A2  
                                             l2667 1198                                               l2597 1494  
                                             l2589 1424                                               l2693 1208  
                                             l2685 11B0                                               l2677 11A4  
                                             l2669 119A                                               l2599 14A4  
                                             l2695 122E                                               l2687 11BA  
                                             l2679 11A6                                               l2697 1238  
                                             l2689 11CE                                               l2699 1238  
                                             STR_1 0F01                                               STR_2 0F0E  
                                     ?_LCD_command 0001                                               u1000 0F86  
                                             u1001 0F82                                               u1010 0FEC  
                                             u1011 0FE8                                               u1100 1DDA  
                                             u1020 0FFE                                               u1101 1DD6  
                                             u1021 0FFA                                               u1110 1DF0  
                                             u1030 1024                                               u1111 1DEC  
                                             u1031 1020                                               u1120 1EB0  
                                             u1040 1066                                               u1200 181A  
                                             u1121 1EAC                                               u1041 1062  
                                             u1201 1814                                               u1050 1078  
                                             u1130 195A                                               u1210 181C  
                                             u1051 1074                                               u1131 1956  
                                             u1300 154C                                               u1060 10BA  
                                             u1140 197C                                               u1220 1842  
                                             u1301 1548                                               u1061 10B6  
                                             u1141 1978                                               u1221 183A  
                                             u1070 115E                                               u1150 19AA  
                                             u1230 1872                                               u1310 11F2  
                                             u1071 115A                                               u1151 19A6  
                                             u1231 186E                                               u1311 11EC  
                                             u1080 1D8A                                               u1160 19CC  
                                             u1240 188C                                               u1400 1392  
                                             u1320 11F4                                               u1081 1D86  
                                             u1161 19C8                                               u1241 1888  
                                             u1401 138E                                               u1090 1DA8  
                                             u1170 19FE                                               u1250 18AC  
                                             u1410 13A4                                               u1330 1218  
                                             u1091 1DA4                                               u1171 19FA  
                                             u1251 18A8                                               u1411 13A0  
                                             u1331 1212                                               u1180 1A2A  
                                             u1260 18E6                                               u1228 1844  
                                             u1420 13EC                                               u1340 121A  
                                             u1181 1A26                                               u1261 18E2  
                                             u1421 13E8                                               _LATA 000F89  
                                             u1270 1416                                               u1190 180A  
                                             _LATB 000F8A                                               u1271 1412  
                                             u1191 1806                                               u1351 124A  
                                             _LATC 000F8B                                               u1280 1424  
                                             u1360 12BA                                               _LATD 000F8C  
                                             u1281 1420                                               u1361 12B6  
                                             _LATE 000F8D                                               u1290 153E  
                                             u1370 12CC                                               u1291 153A  
                                             u1371 12C8                                               u1380 1322  
                                             u1437 13F2                                               u1381 131E  
                                             u1390 1334                                               u1447 1934  
                                             u1391 1330                                               u1457 1E1C  
                                             u1467 1E62                                               u1477 1E92  
                                             u1487 2134                                        main@counter 00A6  
                                   ?_updateEncoder 0009                                               _WPUB 000F5B  
                       __end_of_exitButtonGetValue 20D6                                               _brkp 002B  
                                             _main 118C                                               fsr0h 000FEA  
                                             fsr1h 000FE2                                               indf0 000FEF  
                                             fsr2h 000FDA                                               fsr0l 000FE9  
                                             indf2 000FDF                                               fsr1l 000FE1  
                                             fsr2l 000FD9                                               btemp 0035  
                                     ?_LCD_set_pos 0005                                               prodh 000FF4  
                                             prodl 000FF3                                               start 004C  
                                     ___param_bank 000000                                   __end_of_LCD_init 1EB8  
                    __end_of_OSCILLATOR_Initialize 2162                                              ?_main 0001  
                                  __end_of___awmod 1D68                               updateEncoder@counter 000D  
                                            _BSEL0 000E7D                                              _LATD5 007C65  
                                            _LATD6 007C66                                              _LATD7 007C67  
                             updateEncoder@current 0009                                              i2l602 210C  
                                            i2l535 2180                                              i2l624 0040  
                                            _MSEL0 000E79                                              _MSEL1 000E7A  
                                            _MSEL2 000E7B                                              _MSEL3 000E7C  
                                            _TRISA 000F92                                              _TRISB 000F93  
                                            _TRISC 000F94                                              _TRISD 000F95  
                                            _TRISE 000F96                              CAN_receive@tempCanMsg 0016  
                                            _errno 002D                                              pclath 000FFA  
                                            pclatu 000FFB                                              tablat 000FF5  
                                 ___expand_heap@pn 0003                                              plusw1 000FE3  
                                            plusw2 000FDB                                              ttemp5 0036  
                                            ttemp6 0039                                              ttemp7 003D  
              convertReg2ExtendedCANid@ConvertedID 0012                                              status 000FD8  
                                            wtemp8 0036                           __end_of_enterExitButtons 1F4A  
                                  __initialization 1FC2                                       __end_of_main 1404  
                                    ___expand_heap 1D68                        ?_INTERRUPT_InterruptManager 0001  
                                           ??_main 0023                                      __activetblptr 000003  
                              _enterButtonGetValue 20D6                    ??_WakeUpDefaultInterruptHandler 0001  
                                ??_ECAN_Initialize 0005                                  __end_of_LCD_print 2128  
                                  ??_updateEncoder 000F                                             _CANCON 000F6F  
                                           _ANCON0 000F5D                                             _ANCON1 000F5C  
                                           _CIOCON 000F70                                             i2l2113 0012  
                                           i2l2115 0020                                             i2l2117 002E  
                                           i2l2119 003C                                             i2l1841 20F2  
                                           i2l1843 210A                                             _OSCCON 000FD3  
                                           _RXB0D0 000F66                                             _RXB0D1 000F67  
                                           _RXB0D2 000F68                                             _RXB0D3 000F69  
                                           _RXB1D0 000F36                                             _RXB0D4 000F6A  
                                           _RXB1D1 000F37                                             _RXB0D5 000F6B  
                                           _RXB1D2 000F38                                             _RXB0D6 000F6C  
                                           _RXB1D3 000F39                                             _RXB0D7 000F6D  
                                           _RXB1D4 000F3A                                             _RXB1D5 000F3B  
                                           _RXB1D6 000F3C                                             _RXB1D7 000F3D  
                                           _TXB0D0 000F26                                             _TXB0D1 000F27  
                                           _TXB0D2 000F28                                             _TXB0D3 000F29  
                                           _TXB1D0 000F16                                             _TXB0D4 000F2A  
                                           _TXB1D1 000F17                                             _TXB0D5 000F2B  
                                           _TXB1D2 000F18                                             _TXB0D6 000F2C  
                                           _TXB1D3 000F19                                             _TXB0D7 000F2D  
                                           _TXB2D0 000F06                                             _TXB1D4 000F1A  
                                           _TXB2D1 000F07                                             _TXB1D5 000F1B  
                                           _TXB2D2 000F08                                             _TXB1D6 000F1C  
                                           _TXB2D3 000F09                                             _TXB1D7 000F1D  
                                           _TXB2D4 000F0A                                             _TXB2D5 000F0B  
                                           _TXB2D6 000F0C                                             _TXB2D7 000F0D  
                                           _TRISD5 007CAD                                             _TRISD6 007CAE  
                                           _TRISD7 007CAF                               ?_enterButtonGetValue 0003  
                                   ?___expand_heap 0003                            ___simple_search_fl@best 0015  
                          ___simple_search_fl@last 000F                            ___simple_search_fl@next 0011  
                                           ___wmul 2076                                          ??___awmod 0007  
                                           _malloc 1948                                             clear_0 1FE8  
                                           clear_1 1FF4                                    ___awmod@divisor 0005  
                                           isa$std 000001                                    ___awmod@counter 0007  
                                    main@prevState 00A0                                       __mediumconst 0000  
                 __end_of_convertReg2StandardCANid 1FC2                                             tblptrh 000FF7  
                                           tblptrl 000FF6                                             tblptru 000FF8  
                                _SYSTEM_Initialize 213E                                         __accesstop 0060  
                          __end_of__initialization 1FFA                              ??_enterButtonGetValue 0005  
                                        ?_LCD_init 0001                                 ?_SYSTEM_Initialize 0001  
                         _convertReg2ExtendedCANid 1A8C                             CAN_receive@returnValue 0018  
                                    ___rparam_used 000001                                         ___freelist 0029  
                                   __pcstackCOMRAM 0001                                       __pidataBANK0 2004  
                              ??_SYSTEM_Initialize 0006                                          LCD_init@i 0013  
                                     ??_LCD_intake 0003                                       LCD_set_pos@x 0006  
                                     LCD_set_pos@y 0005                                      _ECAN_WAKI_ISR 20F2  
            convertReg2StandardCANid@tempRXBn_SIDH 0009              convertReg2StandardCANid@tempRXBn_SIDL 0003  
                        __end_of_SYSTEM_Initialize 2150                         __end_of___simple_search_fl 118C  
                                     LCD_print@pos 0007                                         __pbssBANK0 00E4  
            __end_of_WakeUpDefaultInterruptHandler 2182                      _WakeUpDefaultInterruptHandler 2180  
                                       ??_LCD_init 0011                                    ??___expand_heap 0005  
                               __end_of_LCD_intake 213E                                            ?___wmul 0003  
                               _exitButtonGetValue 20BA                                            ?_malloc 0017  
                                          _ECANCON 000F72                                            _CANSTAT 000F6E  
                 ??_ECAN_SetWakeUpInterruptHandler 0005                    ?_ECAN_SetWakeUpInterruptHandler 0003  
                                          _BRGCON1 000E43                                            _BRGCON2 000E44  
                                          _BRGCON3 000E45                                ?_exitButtonGetValue 0003  
                                          _REFOCON 000F9A                                            _OSCCON2 000FD2  
                                   ?_ECAN_WAKI_ISR 0001                                            _RXB0DLC 000F65  
                                          _RXB1DLC 000F35                                            i2u52_48 20F8  
                                          i2u52_49 210A                                            _OSCTUNE 000F9B  
                                          i2u77_40 0020                                            i2u77_41 001C  
                                          i2u78_40 002E                                            i2u78_41 002A  
                                          i2u79_40 003C                                            i2u79_41 0038  
                                          _TXB0DLC 000F25                                            _TXB1DLC 000F15  
                                          _TXB2DLC 000F05                                            _RXFCON0 000E46  
                                          _RXFCON1 000E47                               ??_exitButtonGetValue 0005  
                                          __Hparam 0000                              enterExitButtons@latch 0006  
                                          __Lparam 0000                                  ?_enterExitButtons 0006  
                             ___simple_search_fl@c 0013                               ___simple_search_fl@n 0003  
                        ?_convertReg2StandardCANid 0003                                 ??_enterExitButtons 0008  
                                          ___awmod 1CB8                                    _ECAN_Initialize 1658  
                                     __psmallconst 0F00                           ___simple_search_fl@split 000D  
                                          __pcinit 1FC2                                            __ramtop 0F00  
                                 _LCD_print_string 1BC6                                            __ptext0 118C  
                                          __ptext1 17FC                                            __ptext2 1CB8  
                                          __ptext3 1948                                            __ptext4 0F12  
                                          __ptext5 1D68                                            __ptext6 1EB8  
                                          __ptext7 20BA                                            __ptext8 20D6  
                                          __ptext9 2076                              _OSCILLATOR_Initialize 2150  
                                 ___awmod@dividend 0003                           ??_PIN_MANAGER_Initialize 0003  
                             end_of_initialization 1FFA                             _WakeUpInterruptHandler 0033  
                                          malloc@m 001B                                            malloc@n 0017  
                                          malloc@p 001F                                          _LCD_print 210E  
                           ___expand_heap@new_brkp 0009                                      ??_CAN_receive 0018  
                 fp__WakeUpDefaultInterruptHandler 0000                     ?_WakeUpDefaultInterruptHandler 0001  
                                        _RXF10EIDH 000E5A                                          _RXF10EIDL 000E5B  
                                        _RXF11EIDH 000E5E                                          _RXF11EIDL 000E5F  
                                        _RXF12EIDH 000E62                                          _RXF12EIDL 000E63  
                                        _RXF13EIDH 000E66                                          _RXF13EIDL 000E67  
                                        _RXF14EIDH 000E6A                                          _RXF14EIDL 000E6B  
                                        _RXF15EIDH 000E6E                                          _RXF15EIDL 000E6F  
                                        _RXF10SIDH 000E58                                          _RXF10SIDL 000E59  
                                        _RXF11SIDH 000E5C                                          _RXF11SIDL 000E5D  
                                        _RXF12SIDH 000E60                                          _RXF12SIDL 000E61  
                                          postdec1 000FE5                                            postdec2 000FDD  
                                        _RXF13SIDH 000E64                                          _RXF13SIDL 000E65  
                                        _RXF14SIDH 000E68                                          _RXF14SIDL 000E69  
                                        _RXF15SIDH 000E6C                                          _RXF15SIDL 000E6D  
                                          postinc0 000FEE                                            postinc1 000FE6  
                                          postinc2 000FDE                                         main@F12780 00A8  
                                        _PORTCbits 000F82                                          _PORTDbits 000F83  
                                  ??_ECAN_WAKI_ISR 0001                         ??_convertReg2ExtendedCANid 0007  
                            __end_of_updateEncoder 1948                                         ?_LCD_print 0007  
                                 main@currentState 009E                            __end_of_ECAN_Initialize 17FC  
                     __end_of_INTERRUPT_Initialize 2180                                __end_of_CAN_receive 1658  
                                   __end_of___wmul 209C                                     __end_of_malloc 1A8C  
                           ?_OSCILLATOR_Initialize 0001                                    ___expand_heap@n 0007  
                              start_initialization 1FC2                                         malloc@lock 0025  
                      __end_of_enterButtonGetValue 20F2                                      ??_LCD_command 0004  
                                       LCD_print@x 0009                                      ??_LCD_set_pos 0006  
              convertReg2StandardCANid@returnValue 000A                                 ___simple_search_fl 0F12  
                     ___simple_search_fl@best_last 000B                                           ??___wmul 0007  
                                      __pdataBANK0 00A8                                           ??_malloc 0019  
                                    LCD_print@line 0008                                ?___simple_search_fl 0003  
                                        ___heap_hi 0E41                                          ___heap_lo 00F2  
                                      __pbssCOMRAM 0025                                      __pcstackBANK0 0060  
           __end_of_ECAN_SetWakeUpInterruptHandler 217C                     _ECAN_SetWakeUpInterruptHandler 2172  
                                      ??_LCD_print 0009                               ??___simple_search_fl 0005  
                         __end_of_LCD_print_string 1CB8                                        _CAN_receive 1404  
                              __end_of_LCD_command 2172                                   ?_ECAN_Initialize 0001  
                           _PIN_MANAGER_Initialize 2040                              __end_of___expand_heap 1E16  
                                        __pintcode 0008                                __end_of_LCD_set_pos 20BA  
                                         ?___awmod 0003                       ??_INTERRUPT_InterruptManager 0001  
                                      __smallconst 0F00                                        _COMSTATbits 000F71  
                 __end_of_convertReg2ExtendedCANid 1BC6                               _INTERRUPT_Initialize 217C  
                                   ___wmul@product 0007                                    main@lastCounter 009C  
                                         _LATDbits 000F8C                                           _LCD_init 1E16  
                                         _PIE5bits 000F76                                           _PIR5bits 000F77  
                                         _RXB0EIDH 000F63                                           _RXB0EIDL 000F64  
                                         _RXB1EIDH 000F33                                           _RXB1EIDL 000F34  
                                         _RCONbits 000FD0                                           _RXB0SIDH 000F61  
                                         _RXB0SIDL 000F62                                           _RXF0EIDH 000EE2  
                                         _RXB1SIDH 000F31                                           _RXF0EIDL 000EE3  
                                         _RXB1SIDL 000F32                                           _RXF1EIDH 000EE6  
                                         _RXF1EIDL 000EE7                                           _RXF2EIDH 000EEA  
                                         _RXF2EIDL 000EEB                                           _RXF3EIDH 000EEE  
                                         _RXF3EIDL 000EEF                                           _RXF4EIDH 000EF2  
                                         _RXF4EIDL 000EF3                                           _RXF5EIDH 000EF6  
                                         _RXF5EIDL 000EF7                                           _RXF6EIDH 000E4A  
                                         _RXF6EIDL 000E4B                                           _RXF0SIDH 000EE0  
                                         _RXF7EIDH 000E4E                                           _RXF0SIDL 000EE1  
                                         _RXF7EIDL 000E4F                                           _RXF1SIDH 000EE4  
                                         _RXF8EIDH 000E52                                           _TXB0EIDH 000F23  
                                         _TXB0EIDL 000F24                                           _RXF1SIDL 000EE5  
                                         _RXF8EIDL 000E53                                           _RXF2SIDH 000EE8  
                                         _RXF9EIDH 000E56                                           _TXB1EIDH 000F13  
                                         _TXB1EIDL 000F14                                           _RXF2SIDL 000EE9  
                                         _RXF9EIDL 000E57                                           _RXF3SIDH 000EEC  
                                         _TXB2EIDH 000F03                                           _TXB2EIDL 000F04  
                                         _RXF3SIDL 000EED                                           _RXF4SIDH 000EF0  
                                         _RXF4SIDL 000EF1                                           _RXF5SIDH 000EF4  
                                         _RXF5SIDL 000EF5                                           _RXF6SIDH 000E48  
                                         _RXF6SIDL 000E49                                           _RXM0EIDH 000EFA  
                                         _RXF7SIDH 000E4C                                           _RXM0EIDL 000EFB  
                                         _RXF7SIDL 000E4D                                           _RXM1EIDH 000EFE  
                                         _RXF8SIDH 000E50                                           _TXB0SIDH 000F21  
                                         _RXM1EIDL 000EFF                                           _RXF8SIDL 000E51  
                                         _TXB0SIDL 000F22                                           _RXF9SIDH 000E54  
                                         _TXB1SIDH 000F11                                           _RXF9SIDL 000E55  
                                         _TXB1SIDL 000F12                                           _TXB2SIDH 000F01  
                                         _TXB2SIDL 000F02                                           _RXFBCON0 000E71  
                                         _RXFBCON1 000E72                                           _RXFBCON2 000E73  
                                         _RXFBCON3 000E74                                           _RXFBCON4 000E75  
                                         _RXFBCON5 000E76                                           _RXFBCON6 000E77  
                                         _RXFBCON7 000E78                                           _RXM0SIDH 000EF8  
                                         _RXM0SIDL 000EF9                                           _RXM1SIDH 000EFC  
                                         _RXM1SIDL 000EFD                                  ___wmul@multiplier 0003  
                                updateEncoder@last 000B                                          main@latch 00A2  
                                      _INTCON2bits 000FF1                                          copy_data0 1FD6  
                            ?_INTERRUPT_Initialize 0001                                        _LCD_command 2162  
                                        malloc@end 002F                                          malloc@cur 0031  
                                        malloc@new 0021                           _convertReg2StandardCANid 1F4A  
                                      _LCD_set_pos 209C              convertReg2ExtendedCANid@tempRXBn_EIDH 000B  
            convertReg2ExtendedCANid@tempRXBn_EIDL 0003                                 main@exitBTNPressed 00A4  
            convertReg2ExtendedCANid@tempRXBn_SIDH 0004              convertReg2ExtendedCANid@tempRXBn_SIDL 0005  
                                         __Hrparam 0000                                           __Lrparam 0000  
                          ??_OSCILLATOR_Initialize 0003  convertReg2ExtendedCANid@CAN_standardLo_ID_hi3bits 0011  
convertReg2ExtendedCANid@CAN_standardLo_ID_lo2bits 0010                              __end_of_ECAN_WAKI_ISR 210E  
                                         __ptext10 213E                                           __ptext11 2040  
                                         __ptext20 2162                                           __ptext12 2150  
                                         __ptext21 2128                                           __ptext13 217C  
                                         __ptext22 1404                                           __ptext14 1658  
                                         __ptext23 1F4A                                           __ptext15 2172  
                                         __ptext24 1A8C                                           __ptext16 1E16  
                                         __ptext17 1BC6                                           __ptext26 20F2  
                                         __ptext18 210E                                           __ptext27 2180  
                                         __ptext19 209C                                           __ptext28 0000  
              convertReg2StandardCANid@ConvertedID 000E                convertReg2ExtendedCANid@returnValue 000C  
                                         isa$xinst 000000                          ?_convertReg2ExtendedCANid 0003  
                                         int$flags 0035                 __end_of_INTERRUPT_InterruptManager 004C  
                       _INTERRUPT_InterruptManager 0008                                           main@menu 0060  
                                      _RXB0CONbits 000F60                                           malloc@sz 001D  
                                       _LCD_intake 2128                                        _RXB1CONbits 000F30  
                                       _INTCONbits 000FF2                                   _enterExitButtons 1EB8  
                ___simple_search_fl@remaining_size 0009                             ??_INTERRUPT_Initialize 0003  
                               LCD_command@command 0004                                           intlevel2 0000  
                             LCD_print_string@line 000D                            ?_PIN_MANAGER_Initialize 0001  
                                ?_LCD_print_string 000A                                        _TXB0CONbits 000F20  
                                     ?_CAN_receive 0016                                        _TXB1CONbits 000F10  
                                      _TXB2CONbits 000F00                                 ??_LCD_print_string 000E  
                                  updateEncoder@DT 0013                                LCD_print_string@pos 000C  
                              LCD_print_string@str 000A                     __end_of_PIN_MANAGER_Initialize 2076  
                                    _updateEncoder 17FC                                  LCD_print_string@i 0010  
