

Microchip MPLAB XC8 Assembler V2.41 build 20230208172133 
                                                                                               Thu Sep 21 18:07:54 2023

Microchip MPLAB XC8 C Compiler v2.41 (Free license) build 20230208172133 Og1 
     1                           	processor	18F46K80
     2                           	fnconf	rparam,??,?,0
     3                           	pagewidth 120
     4                           	opt	flic
     5                           	psect	nvCOMRAM,global,class=COMRAM,space=1,delta=1,lowdata,noexec
     6                           	psect	cinit,global,reloc=2,class=CODE,delta=1
     7                           	psect	bssCOMRAM,global,class=COMRAM,space=1,delta=1,lowdata,noexec
     8                           	psect	bssBANK0,global,class=BANK0,space=1,delta=1,lowdata,noexec
     9                           	psect	cstackBANK0,global,class=BANK0,space=1,delta=1,lowdata,noexec
    10                           	psect	cstackCOMRAM,global,class=COMRAM,space=1,delta=1,lowdata,noexec
    11                           	psect	text0,global,reloc=2,class=CODE,delta=1
    12                           	psect	text1,global,reloc=2,class=CODE,delta=1
    13                           	psect	text2,global,reloc=2,class=CODE,delta=1
    14                           	psect	text3,global,reloc=2,class=CODE,delta=1
    15                           	psect	text4,global,reloc=2,class=CODE,delta=1
    16                           	psect	text5,global,reloc=2,class=CODE,delta=1
    17                           	psect	text6,global,reloc=2,class=CODE,delta=1
    18                           	psect	text7,global,reloc=2,class=CODE,delta=1
    19                           	psect	text8,global,reloc=2,class=CODE,delta=1
    20                           	psect	text9,global,reloc=2,class=CODE,delta=1
    21                           	psect	text10,global,reloc=2,class=CODE,delta=1
    22                           	psect	text11,global,reloc=2,class=CODE,delta=1
    23                           	psect	text12,global,reloc=2,class=CODE,delta=1
    24                           	psect	text13,global,reloc=2,class=CODE,delta=1
    25                           	psect	text14,global,reloc=2,class=CODE,delta=1
    26                           	psect	text15,global,reloc=2,class=CODE,delta=1
    27                           	psect	text16,global,reloc=2,class=CODE,delta=1
    28                           	psect	text17,global,reloc=2,class=CODE,delta=1
    29                           	psect	intcode,global,reloc=2,class=CODE,delta=1
    30                           	psect	text19,global,reloc=2,class=CODE,delta=1
    31                           	psect	text20,global,reloc=2,class=CODE,delta=1
    32                           	psect	text21,global,reloc=2,class=CODE,delta=1
    33                           	psect	text22,global,reloc=2,class=CODE,delta=1
    34                           	psect	text23,global,reloc=2,class=CODE,delta=1
    35                           	psect	text24,global,reloc=2,class=CODE,delta=1
    36                           	psect	text25,global,reloc=2,class=CODE,delta=1
    37                           	psect	text26,global,reloc=2,class=CODE,delta=1
    38                           	psect	text27,global,reloc=2,class=CODE,delta=1
    39                           	psect	text28,global,reloc=2,class=CODE,delta=1
    40                           	psect	text29,global,reloc=2,class=CODE,delta=1
    41                           	psect	text30,global,reloc=2,class=CODE,delta=1
    42                           	psect	text31,global,reloc=2,class=CODE,delta=1
    43                           	psect	text32,global,reloc=2,class=CODE,delta=1
    44                           	psect	text33,global,reloc=2,class=CODE,delta=1
    45                           	psect	text34,global,reloc=2,class=CODE,delta=1
    46                           	psect	text35,global,reloc=2,class=CODE,delta=1
    47                           	psect	text36,global,reloc=2,class=CODE,delta=1
    48                           	psect	text37,global,reloc=2,class=CODE,delta=1
    49                           	psect	intsave_regs,global,class=BIGRAM,space=1,delta=1,noexec
    50                           	psect	text38,global,reloc=2,class=CODE,delta=1
    51                           	psect	rparam,global,class=COMRAM,space=1,delta=1,noexec
    52                           	psect	temp,global,ovrld,common,class=COMRAM,space=1,delta=1
    53                           	psect	idloc,global,abs,ovrld,class=IDLOC,space=5,delta=1,noexec
    54                           	psect	config,global,abs,ovrld,class=CONFIG,space=4,delta=1,noexec
    55   000000                     
    56                           ; Version 2.35
    57                           ; Generated 05/05/2021 GMT
    58                           ; 
    59                           ; Copyright © 2021, Microchip Technology Inc. and its subsidiaries ("Microchip")
    60                           ; All rights reserved.
    61                           ; 
    62                           ; This software is developed by Microchip Technology Inc. and its subsidiaries ("Microch
      +                          ip").
    63                           ; 
    64                           ; Redistribution and use in source and binary forms, with or without modification, are
    65                           ; permitted provided that the following conditions are met:
    66                           ; 
    67                           ;     1. Redistributions of source code must retain the above copyright notice, this lis
      +                          t of
    68                           ;        conditions and the following disclaimer.
    69                           ; 
    70                           ;     2. Redistributions in binary form must reproduce the above copyright notice, this 
      +                          list
    71                           ;        of conditions and the following disclaimer in the documentation and/or other
    72                           ;        materials provided with the distribution. Publication is not required when
    73                           ;        this file is used in an embedded application.
    74                           ; 
    75                           ;     3. Microchip's name may not be used to endorse or promote products derived from th
      +                          is
    76                           ;        software without specific prior written permission.
    77                           ; 
    78                           ; THIS SOFTWARE IS PROVIDED BY MICROCHIP "AS IS" AND ANY EXPRESS OR IMPLIED WARRANTIES,
    79                           ; INCLUDING, BUT NOT LIMITED TO, THE IMPLIED WARRANTIES OF MERCHANTABILITY AND FITNESS F
      +                          OR
    80                           ; PURPOSE ARE DISCLAIMED.  IN NO EVENT SHALL MICROCHIP BE LIABLE FOR ANY DIRECT, INDIREC
      +                          T,
    81                           ; INCIDENTAL, SPECIAL, EXEMPLARY, OR CONSEQUENTIAL DAMAGES (INCLUDING BUT NOT LIMITED TO
    82                           ; PROCUREMENT OF SUBSTITUTE GOODS OR SERVICES; LOSS OF USE, DATA OR PROFITS; OR BUSINESS
    83                           ; INTERRUPTION) HOWSOEVER CAUSED AND ON ANY THEORY OF LIABILITY, WHETHER IN CONTRACT, ST
      +                          RICT
    84                           ; LIABILITY, OR TORT (INCLUDING NEGLIGENCE OR OTHERWISE) ARISING IN ANY WAY OUT OF THE U
      +                          SE OF
    85                           ; THIS SOFTWARE, EVEN IF ADVISED OF THE POSSIBILITY OF SUCH DAMAGE.
    86                           ; 
    87                           ; 
    88                           ; Code-generator required, PIC18F46K80 Definitions
    89                           ; 
    90                           ; SFR Addresses
    91   000000                     _INTCON2bits	set	4081
    92   000000                     _TRISD	set	3989
    93   000000                     _TRISC	set	3988
    94   000000                     _TRISB	set	3987
    95   000000                     _LATC	set	3979
    96   000000                     _LATB	set	3978
    97   000000                     _COMSTATbits	set	3953
    98   000000                     _RXB1SIDH	set	3889
    99   000000                     _RXB1SIDL	set	3890
   100   000000                     _RXB0D7	set	3949
   101   000000                     _RXB0D6	set	3948
   102   000000                     _RXB0D5	set	3947
   103   000000                     _RXB0D4	set	3946
   104   000000                     _RXB0D3	set	3945
   105   000000                     _RXB0D2	set	3944
   106   000000                     _RXB0D1	set	3943
   107   000000                     _RXB0D0	set	3942
   108   000000                     _RXB0DLC	set	3941
   109   000000                     _RXB0SIDH	set	3937
   110   000000                     _RXB0EIDL	set	3940
   111   000000                     _RXB0EIDH	set	3939
   112   000000                     _RXB0SIDL	set	3938
   113   000000                     _TXB2SIDL	set	3842
   114   000000                     _TXB2SIDH	set	3841
   115   000000                     _TXB2EIDH	set	3843
   116   000000                     _TXB2CONbits	set	3840
   117   000000                     _TXB1SIDL	set	3858
   118   000000                     _TXB1SIDH	set	3857
   119   000000                     _TXB1EIDH	set	3859
   120   000000                     _TXB1CONbits	set	3856
   121   000000                     _TXB0SIDL	set	3874
   122   000000                     _TXB0SIDH	set	3873
   123   000000                     _TXB0EIDH	set	3875
   124   000000                     _TXB0CONbits	set	3872
   125   000000                     _BRGCON3	set	3653
   126   000000                     _BRGCON2	set	3652
   127   000000                     _RXF15SIDL	set	3693
   128   000000                     _RXF15SIDH	set	3692
   129   000000                     _RXF15EIDH	set	3694
   130   000000                     _RXF14SIDL	set	3689
   131   000000                     _RXF14SIDH	set	3688
   132   000000                     _RXF14EIDL	set	3691
   133   000000                     _RXF14EIDH	set	3690
   134   000000                     _RXF13SIDL	set	3685
   135   000000                     _RXF13SIDH	set	3684
   136   000000                     _RXF13EIDL	set	3687
   137   000000                     _RXF13EIDH	set	3686
   138   000000                     _RXF12SIDL	set	3681
   139   000000                     _RXF12SIDH	set	3680
   140   000000                     _RXF12EIDL	set	3683
   141   000000                     _RXF12EIDH	set	3682
   142   000000                     _RXF11SIDL	set	3677
   143   000000                     _RXF11SIDH	set	3676
   144   000000                     _RXF11EIDL	set	3679
   145   000000                     _RXF11EIDH	set	3678
   146   000000                     _RXF10SIDL	set	3673
   147   000000                     _RXF10SIDH	set	3672
   148   000000                     _RXF10EIDL	set	3675
   149   000000                     _RXF10EIDH	set	3674
   150   000000                     _RXF9SIDL	set	3669
   151   000000                     _RXF9SIDH	set	3668
   152   000000                     _RXF9EIDL	set	3671
   153   000000                     _RXF9EIDH	set	3670
   154   000000                     _RXF8SIDL	set	3665
   155   000000                     _RXF8SIDH	set	3664
   156   000000                     _RXF8EIDL	set	3667
   157   000000                     _RXF8EIDH	set	3666
   158   000000                     _RXF7SIDL	set	3661
   159   000000                     _RXF7SIDH	set	3660
   160   000000                     _RXF7EIDL	set	3663
   161   000000                     _RXF7EIDH	set	3662
   162   000000                     _RXF6SIDL	set	3657
   163   000000                     _RXF6SIDH	set	3656
   164   000000                     _RXF6EIDL	set	3659
   165   000000                     _RXF6EIDH	set	3658
   166   000000                     _RXF5SIDL	set	3829
   167   000000                     _RXF5SIDH	set	3828
   168   000000                     _RXF5EIDL	set	3831
   169   000000                     _RXF5EIDH	set	3830
   170   000000                     _RXF4SIDL	set	3825
   171   000000                     _RXF4SIDH	set	3824
   172   000000                     _RXF4EIDL	set	3827
   173   000000                     _RXF4EIDH	set	3826
   174   000000                     _RXF3SIDL	set	3821
   175   000000                     _RXF3SIDH	set	3820
   176   000000                     _RXF3EIDL	set	3823
   177   000000                     _RXF3EIDH	set	3822
   178   000000                     _RXF2SIDL	set	3817
   179   000000                     _RXF2SIDH	set	3816
   180   000000                     _RXF2EIDL	set	3819
   181   000000                     _RXF2EIDH	set	3818
   182   000000                     _RXF1SIDL	set	3813
   183   000000                     _RXF1SIDH	set	3812
   184   000000                     _RXF1EIDL	set	3815
   185   000000                     _RXF1EIDH	set	3814
   186   000000                     _RXF0SIDL	set	3809
   187   000000                     _RXF0EIDL	set	3811
   188   000000                     _RXFBCON7	set	3704
   189   000000                     _RXFBCON6	set	3703
   190   000000                     _RXFBCON5	set	3702
   191   000000                     _RXFBCON4	set	3701
   192   000000                     _RXFBCON3	set	3700
   193   000000                     _RXFBCON2	set	3699
   194   000000                     _RXFBCON1	set	3698
   195   000000                     _RXFBCON0	set	3697
   196   000000                     _MSEL3	set	3708
   197   000000                     _MSEL2	set	3707
   198   000000                     _MSEL1	set	3706
   199   000000                     _MSEL0	set	3705
   200   000000                     _RXFCON1	set	3655
   201   000000                     _RXM1SIDL	set	3837
   202   000000                     _RXM1SIDH	set	3836
   203   000000                     _RXM1EIDL	set	3839
   204   000000                     _RXM1EIDH	set	3838
   205   000000                     _RXM0SIDL	set	3833
   206   000000                     _RXM0EIDL	set	3835
   207   000000                     _CIOCON	set	3952
   208   000000                     _ECANCON	set	3954
   209                           
   210                           	psect	nvCOMRAM
   211   000039                     __pnvCOMRAM:
   212                           	callstack 0
   213   000039                     _INT3_InterruptHandler:
   214                           	callstack 0
   215   000039                     	ds	2
   216   00003B                     _INT2_InterruptHandler:
   217                           	callstack 0
   218   00003B                     	ds	2
   219   00003D                     _INT1_InterruptHandler:
   220                           	callstack 0
   221   00003D                     	ds	2
   222   00003F                     _INT0_InterruptHandler:
   223                           	callstack 0
   224   00003F                     	ds	2
   225   000000                     _LATDbits	set	3980
   226   000000                     _BRGCON1	set	3651
   227   000000                     _RXFCON0	set	3654
   228   000000                     _BSEL0	set	3709
   229   000000                     _CANSTAT	set	3950
   230   000000                     _CANCON	set	3951
   231   000000                     _PIE5bits	set	3958
   232   000000                     _REFOCON	set	3994
   233   000000                     _OSCTUNE	set	3995
   234   000000                     _OSCCON2	set	4050
   235   000000                     _OSCCON	set	4051
   236   000000                     _INTCON3bits	set	4080
   237   000000                     _INTCONbits	set	4082
   238   000000                     _RCONbits	set	4048
   239   000000                     _LATA	set	3977
   240   000000                     _LATD	set	3980
   241   000000                     _LATE	set	3981
   242   000000                     _PIR5bits	set	3959
   243   000000                     _RXF0SIDH	set	3808
   244   000000                     _RXF0EIDH	set	3810
   245   000000                     _RXM0SIDH	set	3832
   246   000000                     _RXM0EIDH	set	3834
   247   000000                     _RXF15EIDL	set	3695
   248   000000                     _RXB1CONbits	set	3888
   249   000000                     _RXB0CONbits	set	3936
   250   000000                     _TXB0D7	set	3885
   251   000000                     _TXB0D6	set	3884
   252   000000                     _TXB0D5	set	3883
   253   000000                     _TXB0D4	set	3882
   254   000000                     _TXB0D3	set	3881
   255   000000                     _TXB0D2	set	3880
   256   000000                     _TXB0D1	set	3879
   257   000000                     _TXB0D0	set	3878
   258   000000                     _TXB0DLC	set	3877
   259   000000                     _TXB0EIDL	set	3876
   260   000000                     _TXB1D7	set	3869
   261   000000                     _TXB1D6	set	3868
   262   000000                     _TXB1D5	set	3867
   263   000000                     _TXB1D4	set	3866
   264   000000                     _TXB1D3	set	3865
   265   000000                     _TXB1D2	set	3864
   266   000000                     _TXB1D1	set	3863
   267   000000                     _TXB1D0	set	3862
   268   000000                     _TXB1DLC	set	3861
   269   000000                     _TXB1EIDL	set	3860
   270   000000                     _TXB2D7	set	3853
   271   000000                     _TXB2D6	set	3852
   272   000000                     _TXB2D5	set	3851
   273   000000                     _TXB2D4	set	3850
   274   000000                     _TXB2D3	set	3849
   275   000000                     _TXB2D2	set	3848
   276   000000                     _TXB2D1	set	3847
   277   000000                     _TXB2D0	set	3846
   278   000000                     _TXB2DLC	set	3845
   279   000000                     _TXB2EIDL	set	3844
   280   000000                     _WPUB	set	3931
   281   000000                     _ANCON1	set	3932
   282   000000                     _ANCON0	set	3933
   283   000000                     _RXB1D7	set	3901
   284   000000                     _RXB1D6	set	3900
   285   000000                     _RXB1D5	set	3899
   286   000000                     _RXB1D4	set	3898
   287   000000                     _RXB1D3	set	3897
   288   000000                     _RXB1D2	set	3896
   289   000000                     _RXB1D1	set	3895
   290   000000                     _RXB1D0	set	3894
   291   000000                     _RXB1DLC	set	3893
   292   000000                     _RXB1EIDL	set	3892
   293   000000                     _RXB1EIDH	set	3891
   294   000000                     _TRISA	set	3986
   295   000000                     _TRISE	set	3990
   296                           
   297                           ; #config settings
   298                           
   299                           	psect	cinit
   300   001244                     __pcinit:
   301                           	callstack 0
   302   001244                     start_initialization:
   303                           	callstack 0
   304   001244                     __initialization:
   305                           	callstack 0
   306                           
   307                           ; Clear objects allocated to BANK0 (28 bytes)
   308   001244  EE00  F060         	lfsr	0,__pbssBANK0
   309   001248  0E1C               	movlw	28
   310   00124A                     clear_0:
   311   00124A  6AEE               	clrf	postinc0,c
   312   00124C  06E8               	decf	wreg,f,c
   313   00124E  E1FD               	bnz	clear_0
   314                           
   315                           ; Clear objects allocated to COMRAM (18 bytes)
   316   001250  EE00  F027         	lfsr	0,__pbssCOMRAM
   317   001254  0E12               	movlw	18
   318   001256                     clear_1:
   319   001256  6AEE               	clrf	postinc0,c
   320   001258  06E8               	decf	wreg,f,c
   321   00125A  E1FD               	bnz	clear_1
   322   00125C                     end_of_initialization:
   323                           	callstack 0
   324   00125C                     __end_of__initialization:
   325                           	callstack 0
   326   00125C  9041               	bcf	int$flags,0,c	;clear compiler interrupt flag (level 1)
   327   00125E  9241               	bcf	int$flags,1,c	;clear compiler interrupt flag (level 2)
   328   001260  0E00               	movlw	low (__Lmediumconst shr (0+16))
   329   001262  6EF8               	movwf	tblptru,c
   330   001264  0100               	movlb	0
   331   001266  EFE9  F007         	goto	_main	;jump to C main() function
   332                           
   333                           	psect	bssCOMRAM
   334   000027                     __pbssCOMRAM:
   335                           	callstack 0
   336   000027                     _latchOn:
   337                           	callstack 0
   338   000027                     	ds	2
   339   000029                     _WakeUpInterruptHandler:
   340                           	callstack 0
   341   000029                     	ds	2
   342   00002B                     _txstop:
   343                           	callstack 0
   344   00002B                     	ds	14
   345                           
   346                           	psect	bssBANK0
   347   000060                     __pbssBANK0:
   348                           	callstack 0
   349   000060                     _txstart:
   350                           	callstack 0
   351   000060                     	ds	14
   352   00006E                     _rx:
   353                           	callstack 0
   354   00006E                     	ds	14
   355                           
   356                           	psect	cstackBANK0
   357   00007C                     __pcstackBANK0:
   358                           	callstack 0
   359   00007C                     convertReg2ExtendedCANid@tempRXBn_EIDH:
   360                           	callstack 0
   361   00007C                     convertReg2StandardCANid@tempRXBn_SIDH:
   362                           	callstack 0
   363   00007C                     convertCANid2Reg@tempPassedInID:
   364                           	callstack 0
   365                           
   366                           ; 4 bytes @ 0x0
   367   00007C                     	ds	1
   368   00007D                     convertReg2ExtendedCANid@returnValue:
   369                           	callstack 0
   370   00007D                     convertReg2StandardCANid@returnValue:
   371                           	callstack 0
   372                           
   373                           ; 4 bytes @ 0x1
   374   00007D                     	ds	3
   375   000080                     convertCANid2Reg@canIdType:
   376                           	callstack 0
   377                           
   378                           ; 1 bytes @ 0x4
   379   000080                     	ds	1
   380   000081                     convertReg2ExtendedCANid@CAN_standardLo_ID_lo2bits:
   381                           	callstack 0
   382   000081                     convertCANid2Reg@passedInEIDH:
   383                           	callstack 0
   384   000081                     convertReg2StandardCANid@ConvertedID:
   385                           	callstack 0
   386                           
   387                           ; 4 bytes @ 0x5
   388   000081                     	ds	1
   389   000082                     convertReg2ExtendedCANid@CAN_standardLo_ID_hi3bits:
   390                           	callstack 0
   391                           
   392                           ; 1 bytes @ 0x6
   393   000082                     	ds	1
   394   000083                     convertCANid2Reg@passedInEIDL:
   395                           	callstack 0
   396   000083                     convertReg2ExtendedCANid@ConvertedID:
   397                           	callstack 0
   398                           
   399                           ; 4 bytes @ 0x7
   400   000083                     	ds	2
   401   000085                     convertCANid2Reg@passedInSIDH:
   402                           	callstack 0
   403                           
   404                           ; 2 bytes @ 0x9
   405   000085                     	ds	2
   406   000087                     CAN_receive@tempCanMsg:
   407                           	callstack 0
   408   000087                     convertCANid2Reg@passedInSIDL:
   409                           	callstack 0
   410                           
   411                           ; 2 bytes @ 0xB
   412   000087                     	ds	2
   413   000089                     CAN_transmit@tempEIDH:
   414                           	callstack 0
   415   000089                     CAN_receive@returnValue:
   416                           	callstack 0
   417                           
   418                           ; 1 bytes @ 0xD
   419   000089                     	ds	1
   420   00008A                     CAN_transmit@tempEIDL:
   421                           	callstack 0
   422                           
   423                           ; 1 bytes @ 0xE
   424   00008A                     	ds	1
   425   00008B                     CAN_transmit@tempSIDH:
   426                           	callstack 0
   427                           
   428                           ; 1 bytes @ 0xF
   429   00008B                     	ds	1
   430   00008C                     CAN_transmit@tempSIDL:
   431                           	callstack 0
   432                           
   433                           ; 1 bytes @ 0x10
   434   00008C                     	ds	1
   435   00008D                     ??_shutdown:
   436                           
   437                           ; 1 bytes @ 0x11
   438   00008D                     	ds	2
   439                           
   440                           	psect	cstackCOMRAM
   441   000001                     __pcstackCOMRAM:
   442                           	callstack 0
   443   000001                     i2convertCANid2Reg@tempPassedInID:
   444                           	callstack 0
   445                           
   446                           ; 4 bytes @ 0x0
   447   000001                     	ds	4
   448   000005                     i2convertCANid2Reg@canIdType:
   449                           	callstack 0
   450                           
   451                           ; 1 bytes @ 0x4
   452   000005                     	ds	1
   453   000006                     i2convertCANid2Reg@passedInEIDH:
   454                           	callstack 0
   455                           
   456                           ; 2 bytes @ 0x5
   457   000006                     	ds	2
   458   000008                     i2convertCANid2Reg@passedInEIDL:
   459                           	callstack 0
   460                           
   461                           ; 2 bytes @ 0x7
   462   000008                     	ds	2
   463   00000A                     i2convertCANid2Reg@passedInSIDH:
   464                           	callstack 0
   465                           
   466                           ; 2 bytes @ 0x9
   467   00000A                     	ds	2
   468   00000C                     i2convertCANid2Reg@passedInSIDL:
   469                           	callstack 0
   470                           
   471                           ; 2 bytes @ 0xB
   472   00000C                     	ds	2
   473   00000E                     ??i2_convertCANid2Reg:
   474                           
   475                           ; 1 bytes @ 0xD
   476   00000E                     	ds	4
   477   000012                     i2convertCANid2Reg@wipSIDL:
   478                           	callstack 0
   479                           
   480                           ; 1 bytes @ 0x11
   481   000012                     	ds	1
   482   000013                     i2CAN_transmit@tempCanMsg:
   483                           	callstack 0
   484                           
   485                           ; 2 bytes @ 0x12
   486   000013                     	ds	2
   487   000015                     i2CAN_transmit@tempEIDH:
   488                           	callstack 0
   489                           
   490                           ; 1 bytes @ 0x14
   491   000015                     	ds	1
   492   000016                     i2CAN_transmit@tempEIDL:
   493                           	callstack 0
   494                           
   495                           ; 1 bytes @ 0x15
   496   000016                     	ds	1
   497   000017                     i2CAN_transmit@tempSIDH:
   498                           	callstack 0
   499                           
   500                           ; 1 bytes @ 0x16
   501   000017                     	ds	1
   502   000018                     i2CAN_transmit@tempSIDL:
   503                           	callstack 0
   504                           
   505                           ; 1 bytes @ 0x17
   506   000018                     	ds	1
   507   000019                     ??i2_shutdown:
   508                           
   509                           ; 1 bytes @ 0x18
   510   000019                     	ds	2
   511   00001B                     ??_INTERRUPT_InterruptManager:
   512   00001B                     
   513                           ; 1 bytes @ 0x1A
   514   00001B                     	ds	4
   515   00001F                     ??_convertCANid2Reg:
   516   00001F                     ?_convertReg2ExtendedCANid:
   517                           	callstack 0
   518   00001F                     ?_convertReg2StandardCANid:
   519                           	callstack 0
   520   00001F                     convertReg2ExtendedCANid@tempRXBn_EIDL:
   521                           	callstack 0
   522   00001F                     convertReg2StandardCANid@tempRXBn_SIDL:
   523                           	callstack 0
   524   00001F                     ECAN_SetWakeUpInterruptHandler@handler:
   525                           	callstack 0
   526   00001F                     INT0_SetInterruptHandler@InterruptHandler:
   527                           	callstack 0
   528   00001F                     INT1_SetInterruptHandler@InterruptHandler:
   529                           	callstack 0
   530   00001F                     INT2_SetInterruptHandler@InterruptHandler:
   531                           	callstack 0
   532   00001F                     INT3_SetInterruptHandler@InterruptHandler:
   533                           	callstack 0
   534                           
   535                           ; 2 bytes @ 0x1E
   536   00001F                     	ds	1
   537   000020                     convertReg2ExtendedCANid@tempRXBn_SIDH:
   538                           	callstack 0
   539                           
   540                           ; 1 bytes @ 0x1F
   541   000020                     	ds	1
   542   000021                     ??_ECAN_Initialize:
   543   000021                     convertReg2ExtendedCANid@tempRXBn_SIDL:
   544                           	callstack 0
   545                           
   546                           ; 1 bytes @ 0x20
   547   000021                     	ds	1
   548   000022                     
   549                           ; 1 bytes @ 0x21
   550   000022                     	ds	1
   551   000023                     ??_convertReg2ExtendedCANid:
   552   000023                     ??_convertReg2StandardCANid:
   553   000023                     convertCANid2Reg@wipSIDL:
   554                           	callstack 0
   555                           
   556                           ; 1 bytes @ 0x22
   557   000023                     	ds	1
   558   000024                     CAN_transmit@tempCanMsg:
   559                           	callstack 0
   560                           
   561                           ; 2 bytes @ 0x23
   562   000024                     	ds	2
   563   000026                     
   564                           ; 1 bytes @ 0x25
   565   000026                     	ds	1
   566   000027                     
   567                           ; 1 bytes @ 0x26
   568 ;;
   569 ;;Main: autosize = 0, tempsize = 0, incstack = 0, save=0
   570 ;;
   571 ;; *************** function _main *****************
   572 ;; Defined at:
   573 ;;		line 109 in file "main.c"
   574 ;; Parameters:    Size  Location     Type
   575 ;;		None
   576 ;; Auto vars:     Size  Location     Type
   577 ;;		None
   578 ;; Return value:  Size  Location     Type
   579 ;;                  1    wreg      void 
   580 ;; Registers used:
   581 ;;		wreg, fsr2l, fsr2h, status,2, status,0, cstack
   582 ;; Tracked objects:
   583 ;;		On entry : 0/0
   584 ;;		On exit  : 0/0
   585 ;;		Unchanged: 0/0
   586 ;; Data sizes:     COMRAM   BANK0   BANK1   BANK2   BANK3   BANK4   BANK5   BANK6   BANK7   BANK8   BANK9  BANK10  BANK1
      +1  BANK12  BANK13  BANK14
   587 ;;      Params:         0       0       0       0       0       0       0       0       0       0       0       0       
      +0       0       0       0
   588 ;;      Locals:         0       0       0       0       0       0       0       0       0       0       0       0       
      +0       0       0       0
   589 ;;      Temps:          0       0       0       0       0       0       0       0       0       0       0       0       
      +0       0       0       0
   590 ;;      Totals:         0       0       0       0       0       0       0       0       0       0       0       0       
      +0       0       0       0
   591 ;;Total ram usage:        0 bytes
   592 ;; Hardware stack levels required when called: 10
   593 ;; This function calls:
   594 ;;		_CAN_receive
   595 ;;		_INT3_SetInterruptHandler
   596 ;;		_SYSTEM_Initialize
   597 ;;		_shutdown
   598 ;; This function is called by:
   599 ;;		Startup code after reset
   600 ;; This function uses a non-reentrant model
   601 ;;
   602                           
   603                           	psect	text0
   604   000FD2                     __ptext0:
   605                           	callstack 0
   606   000FD2                     _main:
   607                           	callstack 21
   608   000FD2                     
   609                           ;main.c: 112:     SYSTEM_Initialize();
   610   000FD2  EC54  F009         	call	_SYSTEM_Initialize	;wreg free
   611                           
   612                           ;main.c: 113:     INT3_SetInterruptHandler(Pin3_ISR);
   613   000FD6  0E6A               	movlw	low _Pin3_ISR
   614   000FD8  6E1F               	movwf	INT3_SetInterruptHandler@InterruptHandler^0,c
   615   000FDA  0E12               	movlw	high _Pin3_ISR
   616   000FDC  6E20               	movwf	(INT3_SetInterruptHandler@InterruptHandler+1)^0,c
   617   000FDE  EC68  F009         	call	_INT3_SetInterruptHandler	;wreg free
   618   000FE2                     
   619                           ;main.c: 124:     (INTCONbits.GIE = 1);
   620   000FE2  8EF2               	bsf	242,7,c	;volatile
   621   000FE4                     
   622                           ;main.c: 127:     (INTCONbits.PEIE = 1);
   623   000FE4  8CF2               	bsf	242,6,c	;volatile
   624   000FE6                     l2931:
   625                           
   626                           ;main.c: 132:         if(CAN_receive(&rx)){
   627   000FE6  0E6E               	movlw	low _rx
   628   000FE8  0100               	movlb	0	; () banked
   629   000FEA  6F87               	movwf	CAN_receive@tempCanMsg& (0+255),b
   630   000FEC  0E00               	movlw	high _rx
   631   000FEE  6F88               	movwf	(CAN_receive@tempCanMsg+1)& (0+255),b
   632   000FF0  EC98  F003         	call	_CAN_receive	;wreg free
   633   000FF4  0900               	iorlw	0
   634   000FF6  B4D8               	btfsc	status,2,c
   635   000FF8  EF00  F008         	goto	u1201
   636   000FFC  EF02  F008         	goto	u1200
   637   001000                     u1201:
   638   001000  EFF3  F007         	goto	l2931
   639   001004                     u1200:
   640   001004                     
   641                           ;main.c: 133:             if(rx.frame.idType == 1){
   642   001004  0100               	movlb	0	; () banked
   643   001006  056E               	decf	_rx& (0+255),w,b
   644   001008  A4D8               	btfss	status,2,c
   645   00100A  EF09  F008         	goto	u1211
   646   00100E  EF0B  F008         	goto	u1210
   647   001012                     u1211:
   648   001012  EFF3  F007         	goto	l2931
   649   001016                     u1210:
   650   001016                     
   651                           ; BSR set to: 0
   652                           ;main.c: 134:                 if(rx.frame.id == 0x17){
   653   001016  0E17               	movlw	23
   654   001018  196F               	xorwf	(_rx+1)& (0+255),w,b
   655   00101A  1170               	iorwf	(_rx+2)& (0+255),w,b
   656   00101C  1171               	iorwf	(_rx+3)& (0+255),w,b
   657   00101E  1172               	iorwf	(_rx+4)& (0+255),w,b
   658   001020  A4D8               	btfss	status,2,c
   659   001022  EF15  F008         	goto	u1221
   660   001026  EF17  F008         	goto	u1220
   661   00102A                     u1221:
   662   00102A  EF1B  F008         	goto	l634
   663   00102E                     u1220:
   664   00102E                     
   665                           ; BSR set to: 0
   666                           ;main.c: 135:                     shutdown();
   667   00102E  EC1F  F008         	call	_shutdown	;wreg free
   668   001032  EFF3  F007         	goto	l2931
   669   001036                     l634:
   670                           
   671                           ; BSR set to: 0
   672   001036  EFF3  F007         	goto	l2931
   673   00103A  EF78  F000         	goto	start
   674   00103E                     __end_of_main:
   675                           	callstack 0
   676                           
   677 ;; *************** function _shutdown *****************
   678 ;; Defined at:
   679 ;;		line 77 in file "main.c"
   680 ;; Parameters:    Size  Location     Type
   681 ;;		None
   682 ;; Auto vars:     Size  Location     Type
   683 ;;		None
   684 ;; Return value:  Size  Location     Type
   685 ;;                  1    wreg      void 
   686 ;; Registers used:
   687 ;;		wreg, fsr2l, fsr2h, status,2, status,0, cstack
   688 ;; Tracked objects:
   689 ;;		On entry : 0/0
   690 ;;		On exit  : 0/0
   691 ;;		Unchanged: 0/0
   692 ;; Data sizes:     COMRAM   BANK0   BANK1   BANK2   BANK3   BANK4   BANK5   BANK6   BANK7   BANK8   BANK9  BANK10  BANK1
      +1  BANK12  BANK13  BANK14
   693 ;;      Params:         0       0       0       0       0       0       0       0       0       0       0       0       
      +0       0       0       0
   694 ;;      Locals:         0       0       0       0       0       0       0       0       0       0       0       0       
      +0       0       0       0
   695 ;;      Temps:          0       2       0       0       0       0       0       0       0       0       0       0       
      +0       0       0       0
   696 ;;      Totals:         0       2       0       0       0       0       0       0       0       0       0       0       
      +0       0       0       0
   697 ;;Total ram usage:        2 bytes
   698 ;; Hardware stack levels used: 1
   699 ;; Hardware stack levels required when called: 9
   700 ;; This function calls:
   701 ;;		_CAN_transmit
   702 ;; This function is called by:
   703 ;;		_main
   704 ;; This function uses a non-reentrant model
   705 ;;
   706                           
   707                           	psect	text1
   708   00103E                     __ptext1:
   709                           	callstack 0
   710   00103E                     _shutdown:
   711                           	callstack 21
   712   00103E                     
   713                           ;main.c: 80:     txstop.frame.idType = 1;
   714   00103E  0E01               	movlw	1
   715   001040  6E2B               	movwf	_txstop^0,c
   716                           
   717                           ;main.c: 81:     txstop.frame.id = 0x255;
   718   001042  0E55               	movlw	85
   719   001044  6E2C               	movwf	(_txstop+1)^0,c
   720   001046  0E02               	movlw	2
   721   001048  6E2D               	movwf	(_txstop+2)^0,c
   722   00104A  0E00               	movlw	0
   723   00104C  6E2E               	movwf	(_txstop+3)^0,c
   724   00104E  0E00               	movlw	0
   725   001050  6E2F               	movwf	(_txstop+4)^0,c
   726                           
   727                           ;main.c: 82:     txstop.frame.dlc = 0x1;
   728   001052  0E01               	movlw	1
   729   001054  6E30               	movwf	(_txstop+5)^0,c
   730                           
   731                           ;main.c: 83:     txstop.frame.data0 = 1;
   732   001056  0E01               	movlw	1
   733   001058  6E31               	movwf	(_txstop+6)^0,c
   734   00105A                     
   735                           ;main.c: 84:     CAN_transmit(&txstop);
   736   00105A  0E2B               	movlw	low _txstop
   737   00105C  6E24               	movwf	CAN_transmit@tempCanMsg^0,c
   738   00105E  0E00               	movlw	high _txstop
   739   001060  6E25               	movwf	(CAN_transmit@tempCanMsg+1)^0,c
   740   001062  EC7A  F000         	call	_CAN_transmit	;wreg free
   741   001066                     
   742                           ;main.c: 85:     _delay((unsigned long)((2000)*(20000000/4000.0)));
   743   001066  0E33               	movlw	51
   744   001068  0100               	movlb	0	; () banked
   745   00106A  6F8E               	movwf	(??_shutdown+1)& (0+255),b
   746   00106C  0EBB               	movlw	187
   747   00106E  6F8D               	movwf	??_shutdown& (0+255),b
   748   001070  0EDF               	movlw	223
   749   001072                     u1237:
   750   001072  2EE8               	decfsz	wreg,f,c
   751   001074  D7FE               	bra	u1237
   752   001076  2F8D               	decfsz	??_shutdown& (0+255),f,b
   753   001078  D7FC               	bra	u1237
   754   00107A  2F8E               	decfsz	(??_shutdown+1)& (0+255),f,b
   755   00107C  D7FA               	bra	u1237
   756   00107E  D000               	nop2	
   757   001080  928C               	bcf	140,1,c	;volatile
   758   001082                     
   759                           ;main.c: 88:     latchOn = 0;
   760   001082  0E00               	movlw	0
   761   001084  6E28               	movwf	(_latchOn+1)^0,c
   762   001086  0E00               	movlw	0
   763   001088  6E27               	movwf	_latchOn^0,c
   764   00108A  0012               	return		;funcret
   765   00108C                     __end_of_shutdown:
   766                           	callstack 0
   767                           
   768 ;; *************** function _CAN_transmit *****************
   769 ;; Defined at:
   770 ;;		line 236 in file "mcc_generated_files/ecan.c"
   771 ;; Parameters:    Size  Location     Type
   772 ;;  tempCanMsg      2   35[COMRAM] PTR struct .
   773 ;;		 -> txstop(14), txstart(14), 
   774 ;; Auto vars:     Size  Location     Type
   775 ;;  tempSIDL        1   16[BANK0 ] unsigned char 
   776 ;;  tempSIDH        1   15[BANK0 ] unsigned char 
   777 ;;  tempEIDL        1   14[BANK0 ] unsigned char 
   778 ;;  tempEIDH        1   13[BANK0 ] unsigned char 
   779 ;;  returnValue     1    0        unsigned char 
   780 ;; Return value:  Size  Location     Type
   781 ;;                  1    wreg      unsigned char 
   782 ;; Registers used:
   783 ;;		wreg, fsr2l, fsr2h, status,2, status,0, cstack
   784 ;; Tracked objects:
   785 ;;		On entry : 0/0
   786 ;;		On exit  : 0/0
   787 ;;		Unchanged: 0/0
   788 ;; Data sizes:     COMRAM   BANK0   BANK1   BANK2   BANK3   BANK4   BANK5   BANK6   BANK7   BANK8   BANK9  BANK10  BANK1
      +1  BANK12  BANK13  BANK14
   789 ;;      Params:         2       0       0       0       0       0       0       0       0       0       0       0       
      +0       0       0       0
   790 ;;      Locals:         0       4       0       0       0       0       0       0       0       0       0       0       
      +0       0       0       0
   791 ;;      Temps:          0       0       0       0       0       0       0       0       0       0       0       0       
      +0       0       0       0
   792 ;;      Totals:         2       4       0       0       0       0       0       0       0       0       0       0       
      +0       0       0       0
   793 ;;Total ram usage:        6 bytes
   794 ;; Hardware stack levels used: 1
   795 ;; Hardware stack levels required when called: 8
   796 ;; This function calls:
   797 ;;		_convertCANid2Reg
   798 ;; This function is called by:
   799 ;;		_shutdown
   800 ;; This function uses a non-reentrant model
   801 ;;
   802                           
   803                           	psect	text2
   804   0000F4                     __ptext2:
   805                           	callstack 0
   806   0000F4                     _CAN_transmit:
   807                           	callstack 21
   808   0000F4                     
   809                           ;mcc_generated_files/ecan.c: 236: uint8_t CAN_transmit(uCAN_MSG *tempCanMsg);mcc_generat
      +                          ed_files/ecan.c: 237: {;mcc_generated_files/ecan.c: 238:     uint8_t tempEIDH = 0;
   810   0000F4  0E00               	movlw	0
   811   0000F6  0100               	movlb	0	; () banked
   812   0000F8  6F89               	movwf	CAN_transmit@tempEIDH& (0+255),b
   813                           
   814                           ;mcc_generated_files/ecan.c: 239:     uint8_t tempEIDL = 0;
   815   0000FA  0E00               	movlw	0
   816   0000FC  6F8A               	movwf	CAN_transmit@tempEIDL& (0+255),b
   817                           
   818                           ;mcc_generated_files/ecan.c: 240:     uint8_t tempSIDH = 0;
   819   0000FE  0E00               	movlw	0
   820   000100  6F8B               	movwf	CAN_transmit@tempSIDH& (0+255),b
   821                           
   822                           ;mcc_generated_files/ecan.c: 241:     uint8_t tempSIDL = 0;
   823   000102  0E00               	movlw	0
   824   000104  6F8C               	movwf	CAN_transmit@tempSIDL& (0+255),b
   825   000106                     
   826                           ; BSR set to: 0
   827                           ;mcc_generated_files/ecan.c: 244:     if (TXB0CONbits.TXREQ != 1)
   828   000106  010F               	movlb	15	; () banked
   829   000108  B720               	btfsc	32,3,b	;volatile
   830   00010A  EF89  F000         	goto	u981
   831   00010E  EF8B  F000         	goto	u980
   832   000112                     u981:
   833   000112  EF06  F001         	goto	l429
   834   000116                     u980:
   835   000116                     
   836                           ; BSR set to: 15
   837                           ;mcc_generated_files/ecan.c: 245:     {;mcc_generated_files/ecan.c: 246:         convert
      +                          CANid2Reg(tempCanMsg->frame.id, tempCanMsg->frame.idType, &tempEIDH, &tempEIDL, &tempSID
      +                          H, &tempSIDL);
   838   000116  EE20 F001          	lfsr	2,1
   839   00011A  5024               	movf	CAN_transmit@tempCanMsg^0,w,c
   840   00011C  26D9               	addwf	fsr2l,f,c
   841   00011E  5025               	movf	(CAN_transmit@tempCanMsg+1)^0,w,c
   842   000120  22DA               	addwfc	fsr2h,f,c
   843   000122  CFDE F07C          	movff	postinc2,convertCANid2Reg@tempPassedInID
   844   000126  CFDE F07D          	movff	postinc2,convertCANid2Reg@tempPassedInID+1
   845   00012A  CFDE F07E          	movff	postinc2,convertCANid2Reg@tempPassedInID+2
   846   00012E  CFDE F07F          	movff	postinc2,convertCANid2Reg@tempPassedInID+3
   847   000132  C024  FFD9         	movff	CAN_transmit@tempCanMsg,fsr2l
   848   000136  C025  FFDA         	movff	CAN_transmit@tempCanMsg+1,fsr2h
   849   00013A  50DF               	movf	indf2,w,c
   850   00013C  0100               	movlb	0	; () banked
   851   00013E  6F80               	movwf	convertCANid2Reg@canIdType& (0+255),b
   852   000140  0E89               	movlw	low CAN_transmit@tempEIDH
   853   000142  6F81               	movwf	convertCANid2Reg@passedInEIDH& (0+255),b
   854   000144  0E00               	movlw	high CAN_transmit@tempEIDH
   855   000146  6F82               	movwf	(convertCANid2Reg@passedInEIDH+1)& (0+255),b
   856   000148  0E8A               	movlw	low CAN_transmit@tempEIDL
   857   00014A  6F83               	movwf	convertCANid2Reg@passedInEIDL& (0+255),b
   858   00014C  0E00               	movlw	high CAN_transmit@tempEIDL
   859   00014E  6F84               	movwf	(convertCANid2Reg@passedInEIDL+1)& (0+255),b
   860   000150  0E8B               	movlw	low CAN_transmit@tempSIDH
   861   000152  6F85               	movwf	convertCANid2Reg@passedInSIDH& (0+255),b
   862   000154  0E00               	movlw	high CAN_transmit@tempSIDH
   863   000156  6F86               	movwf	(convertCANid2Reg@passedInSIDH+1)& (0+255),b
   864   000158  0E8C               	movlw	low CAN_transmit@tempSIDL
   865   00015A  6F87               	movwf	convertCANid2Reg@passedInSIDL& (0+255),b
   866   00015C  0E00               	movlw	high CAN_transmit@tempSIDL
   867   00015E  6F88               	movwf	(convertCANid2Reg@passedInSIDL+1)& (0+255),b
   868   000160  EC9B  F005         	call	_convertCANid2Reg	;wreg free
   869   000164                     
   870                           ;mcc_generated_files/ecan.c: 248:         TXB0EIDH = tempEIDH;
   871   000164  C089  FF23         	movff	CAN_transmit@tempEIDH,3875	;volatile
   872   000168                     
   873                           ;mcc_generated_files/ecan.c: 249:         TXB0EIDL = tempEIDL;
   874   000168  C08A  FF24         	movff	CAN_transmit@tempEIDL,3876	;volatile
   875   00016C                     
   876                           ;mcc_generated_files/ecan.c: 250:         TXB0SIDH = tempSIDH;
   877   00016C  C08B  FF21         	movff	CAN_transmit@tempSIDH,3873	;volatile
   878   000170                     
   879                           ;mcc_generated_files/ecan.c: 251:         TXB0SIDL = tempSIDL;
   880   000170  C08C  FF22         	movff	CAN_transmit@tempSIDL,3874	;volatile
   881   000174                     
   882                           ;mcc_generated_files/ecan.c: 252:         TXB0DLC = tempCanMsg->frame.dlc;
   883   000174  EE20 F005          	lfsr	2,5
   884   000178  5024               	movf	CAN_transmit@tempCanMsg^0,w,c
   885   00017A  26D9               	addwf	fsr2l,f,c
   886   00017C  5025               	movf	(CAN_transmit@tempCanMsg+1)^0,w,c
   887   00017E  22DA               	addwfc	fsr2h,f,c
   888   000180  50DF               	movf	indf2,w,c
   889   000182  010F               	movlb	15	; () banked
   890   000184  6F25               	movwf	37,b	;volatile
   891   000186                     
   892                           ; BSR set to: 15
   893                           ;mcc_generated_files/ecan.c: 253:         TXB0D0 = tempCanMsg->frame.data0;
   894   000186  EE20 F006          	lfsr	2,6
   895   00018A  5024               	movf	CAN_transmit@tempCanMsg^0,w,c
   896   00018C  26D9               	addwf	fsr2l,f,c
   897   00018E  5025               	movf	(CAN_transmit@tempCanMsg+1)^0,w,c
   898   000190  22DA               	addwfc	fsr2h,f,c
   899   000192  50DF               	movf	indf2,w,c
   900   000194  6F26               	movwf	38,b	;volatile
   901   000196                     
   902                           ; BSR set to: 15
   903                           ;mcc_generated_files/ecan.c: 254:         TXB0D1 = tempCanMsg->frame.data1;
   904   000196  EE20 F007          	lfsr	2,7
   905   00019A  5024               	movf	CAN_transmit@tempCanMsg^0,w,c
   906   00019C  26D9               	addwf	fsr2l,f,c
   907   00019E  5025               	movf	(CAN_transmit@tempCanMsg+1)^0,w,c
   908   0001A0  22DA               	addwfc	fsr2h,f,c
   909   0001A2  50DF               	movf	indf2,w,c
   910   0001A4  6F27               	movwf	39,b	;volatile
   911   0001A6                     
   912                           ; BSR set to: 15
   913                           ;mcc_generated_files/ecan.c: 255:         TXB0D2 = tempCanMsg->frame.data2;
   914   0001A6  EE20 F008          	lfsr	2,8
   915   0001AA  5024               	movf	CAN_transmit@tempCanMsg^0,w,c
   916   0001AC  26D9               	addwf	fsr2l,f,c
   917   0001AE  5025               	movf	(CAN_transmit@tempCanMsg+1)^0,w,c
   918   0001B0  22DA               	addwfc	fsr2h,f,c
   919   0001B2  50DF               	movf	indf2,w,c
   920   0001B4  6F28               	movwf	40,b	;volatile
   921   0001B6                     
   922                           ; BSR set to: 15
   923                           ;mcc_generated_files/ecan.c: 256:         TXB0D3 = tempCanMsg->frame.data3;
   924   0001B6  EE20 F009          	lfsr	2,9
   925   0001BA  5024               	movf	CAN_transmit@tempCanMsg^0,w,c
   926   0001BC  26D9               	addwf	fsr2l,f,c
   927   0001BE  5025               	movf	(CAN_transmit@tempCanMsg+1)^0,w,c
   928   0001C0  22DA               	addwfc	fsr2h,f,c
   929   0001C2  50DF               	movf	indf2,w,c
   930   0001C4  6F29               	movwf	41,b	;volatile
   931   0001C6                     
   932                           ; BSR set to: 15
   933                           ;mcc_generated_files/ecan.c: 257:         TXB0D4 = tempCanMsg->frame.data4;
   934   0001C6  EE20 F00A          	lfsr	2,10
   935   0001CA  5024               	movf	CAN_transmit@tempCanMsg^0,w,c
   936   0001CC  26D9               	addwf	fsr2l,f,c
   937   0001CE  5025               	movf	(CAN_transmit@tempCanMsg+1)^0,w,c
   938   0001D0  22DA               	addwfc	fsr2h,f,c
   939   0001D2  50DF               	movf	indf2,w,c
   940   0001D4  6F2A               	movwf	42,b	;volatile
   941   0001D6                     
   942                           ; BSR set to: 15
   943                           ;mcc_generated_files/ecan.c: 258:         TXB0D5 = tempCanMsg->frame.data5;
   944   0001D6  EE20 F00B          	lfsr	2,11
   945   0001DA  5024               	movf	CAN_transmit@tempCanMsg^0,w,c
   946   0001DC  26D9               	addwf	fsr2l,f,c
   947   0001DE  5025               	movf	(CAN_transmit@tempCanMsg+1)^0,w,c
   948   0001E0  22DA               	addwfc	fsr2h,f,c
   949   0001E2  50DF               	movf	indf2,w,c
   950   0001E4  6F2B               	movwf	43,b	;volatile
   951   0001E6                     
   952                           ; BSR set to: 15
   953                           ;mcc_generated_files/ecan.c: 259:         TXB0D6 = tempCanMsg->frame.data6;
   954   0001E6  EE20 F00C          	lfsr	2,12
   955   0001EA  5024               	movf	CAN_transmit@tempCanMsg^0,w,c
   956   0001EC  26D9               	addwf	fsr2l,f,c
   957   0001EE  5025               	movf	(CAN_transmit@tempCanMsg+1)^0,w,c
   958   0001F0  22DA               	addwfc	fsr2h,f,c
   959   0001F2  50DF               	movf	indf2,w,c
   960   0001F4  6F2C               	movwf	44,b	;volatile
   961   0001F6                     
   962                           ; BSR set to: 15
   963                           ;mcc_generated_files/ecan.c: 260:         TXB0D7 = tempCanMsg->frame.data7;
   964   0001F6  EE20 F00D          	lfsr	2,13
   965   0001FA  5024               	movf	CAN_transmit@tempCanMsg^0,w,c
   966   0001FC  26D9               	addwf	fsr2l,f,c
   967   0001FE  5025               	movf	(CAN_transmit@tempCanMsg+1)^0,w,c
   968   000200  22DA               	addwfc	fsr2h,f,c
   969   000202  50DF               	movf	indf2,w,c
   970   000204  6F2D               	movwf	45,b	;volatile
   971   000206                     
   972                           ; BSR set to: 15
   973                           ;mcc_generated_files/ecan.c: 262:         TXB0CONbits.TXREQ = 1;
   974   000206  8720               	bsf	32,3,b	;volatile
   975   000208                     l2707:
   976                           
   977                           ; BSR set to: 15
   978                           ;mcc_generated_files/ecan.c: 265:     }
   979   000208  EF0A  F002         	goto	l434
   980   00020C                     l429:
   981                           
   982                           ; BSR set to: 15
   983   00020C  B710               	btfsc	16,3,b	;volatile
   984   00020E  EF0B  F001         	goto	u991
   985   000212  EF0D  F001         	goto	u990
   986   000216                     u991:
   987   000216  EF88  F001         	goto	l431
   988   00021A                     u990:
   989   00021A                     
   990                           ; BSR set to: 15
   991                           ;mcc_generated_files/ecan.c: 267:     {;mcc_generated_files/ecan.c: 269:         convert
      +                          CANid2Reg(tempCanMsg->frame.id, tempCanMsg->frame.idType, &tempEIDH, &tempEIDL, &tempSID
      +                          H, &tempSIDL);
   992   00021A  EE20 F001          	lfsr	2,1
   993   00021E  5024               	movf	CAN_transmit@tempCanMsg^0,w,c
   994   000220  26D9               	addwf	fsr2l,f,c
   995   000222  5025               	movf	(CAN_transmit@tempCanMsg+1)^0,w,c
   996   000224  22DA               	addwfc	fsr2h,f,c
   997   000226  CFDE F07C          	movff	postinc2,convertCANid2Reg@tempPassedInID
   998   00022A  CFDE F07D          	movff	postinc2,convertCANid2Reg@tempPassedInID+1
   999   00022E  CFDE F07E          	movff	postinc2,convertCANid2Reg@tempPassedInID+2
  1000   000232  CFDE F07F          	movff	postinc2,convertCANid2Reg@tempPassedInID+3
  1001   000236  C024  FFD9         	movff	CAN_transmit@tempCanMsg,fsr2l
  1002   00023A  C025  FFDA         	movff	CAN_transmit@tempCanMsg+1,fsr2h
  1003   00023E  50DF               	movf	indf2,w,c
  1004   000240  0100               	movlb	0	; () banked
  1005   000242  6F80               	movwf	convertCANid2Reg@canIdType& (0+255),b
  1006   000244  0E89               	movlw	low CAN_transmit@tempEIDH
  1007   000246  6F81               	movwf	convertCANid2Reg@passedInEIDH& (0+255),b
  1008   000248  0E00               	movlw	high CAN_transmit@tempEIDH
  1009   00024A  6F82               	movwf	(convertCANid2Reg@passedInEIDH+1)& (0+255),b
  1010   00024C  0E8A               	movlw	low CAN_transmit@tempEIDL
  1011   00024E  6F83               	movwf	convertCANid2Reg@passedInEIDL& (0+255),b
  1012   000250  0E00               	movlw	high CAN_transmit@tempEIDL
  1013   000252  6F84               	movwf	(convertCANid2Reg@passedInEIDL+1)& (0+255),b
  1014   000254  0E8B               	movlw	low CAN_transmit@tempSIDH
  1015   000256  6F85               	movwf	convertCANid2Reg@passedInSIDH& (0+255),b
  1016   000258  0E00               	movlw	high CAN_transmit@tempSIDH
  1017   00025A  6F86               	movwf	(convertCANid2Reg@passedInSIDH+1)& (0+255),b
  1018   00025C  0E8C               	movlw	low CAN_transmit@tempSIDL
  1019   00025E  6F87               	movwf	convertCANid2Reg@passedInSIDL& (0+255),b
  1020   000260  0E00               	movlw	high CAN_transmit@tempSIDL
  1021   000262  6F88               	movwf	(convertCANid2Reg@passedInSIDL+1)& (0+255),b
  1022   000264  EC9B  F005         	call	_convertCANid2Reg	;wreg free
  1023   000268                     
  1024                           ;mcc_generated_files/ecan.c: 271:         TXB1EIDH = tempEIDH;
  1025   000268  C089  FF13         	movff	CAN_transmit@tempEIDH,3859	;volatile
  1026   00026C                     
  1027                           ;mcc_generated_files/ecan.c: 272:         TXB1EIDL = tempEIDL;
  1028   00026C  C08A  FF14         	movff	CAN_transmit@tempEIDL,3860	;volatile
  1029   000270                     
  1030                           ;mcc_generated_files/ecan.c: 273:         TXB1SIDH = tempSIDH;
  1031   000270  C08B  FF11         	movff	CAN_transmit@tempSIDH,3857	;volatile
  1032   000274                     
  1033                           ;mcc_generated_files/ecan.c: 274:         TXB1SIDL = tempSIDL;
  1034   000274  C08C  FF12         	movff	CAN_transmit@tempSIDL,3858	;volatile
  1035   000278                     
  1036                           ;mcc_generated_files/ecan.c: 275:         TXB1DLC = tempCanMsg->frame.dlc;
  1037   000278  EE20 F005          	lfsr	2,5
  1038   00027C  5024               	movf	CAN_transmit@tempCanMsg^0,w,c
  1039   00027E  26D9               	addwf	fsr2l,f,c
  1040   000280  5025               	movf	(CAN_transmit@tempCanMsg+1)^0,w,c
  1041   000282  22DA               	addwfc	fsr2h,f,c
  1042   000284  50DF               	movf	indf2,w,c
  1043   000286  010F               	movlb	15	; () banked
  1044   000288  6F15               	movwf	21,b	;volatile
  1045   00028A                     
  1046                           ; BSR set to: 15
  1047                           ;mcc_generated_files/ecan.c: 276:         TXB1D0 = tempCanMsg->frame.data0;
  1048   00028A  EE20 F006          	lfsr	2,6
  1049   00028E  5024               	movf	CAN_transmit@tempCanMsg^0,w,c
  1050   000290  26D9               	addwf	fsr2l,f,c
  1051   000292  5025               	movf	(CAN_transmit@tempCanMsg+1)^0,w,c
  1052   000294  22DA               	addwfc	fsr2h,f,c
  1053   000296  50DF               	movf	indf2,w,c
  1054   000298  6F16               	movwf	22,b	;volatile
  1055   00029A                     
  1056                           ; BSR set to: 15
  1057                           ;mcc_generated_files/ecan.c: 277:         TXB1D1 = tempCanMsg->frame.data1;
  1058   00029A  EE20 F007          	lfsr	2,7
  1059   00029E  5024               	movf	CAN_transmit@tempCanMsg^0,w,c
  1060   0002A0  26D9               	addwf	fsr2l,f,c
  1061   0002A2  5025               	movf	(CAN_transmit@tempCanMsg+1)^0,w,c
  1062   0002A4  22DA               	addwfc	fsr2h,f,c
  1063   0002A6  50DF               	movf	indf2,w,c
  1064   0002A8  6F17               	movwf	23,b	;volatile
  1065   0002AA                     
  1066                           ; BSR set to: 15
  1067                           ;mcc_generated_files/ecan.c: 278:         TXB1D2 = tempCanMsg->frame.data2;
  1068   0002AA  EE20 F008          	lfsr	2,8
  1069   0002AE  5024               	movf	CAN_transmit@tempCanMsg^0,w,c
  1070   0002B0  26D9               	addwf	fsr2l,f,c
  1071   0002B2  5025               	movf	(CAN_transmit@tempCanMsg+1)^0,w,c
  1072   0002B4  22DA               	addwfc	fsr2h,f,c
  1073   0002B6  50DF               	movf	indf2,w,c
  1074   0002B8  6F18               	movwf	24,b	;volatile
  1075   0002BA                     
  1076                           ; BSR set to: 15
  1077                           ;mcc_generated_files/ecan.c: 279:         TXB1D3 = tempCanMsg->frame.data3;
  1078   0002BA  EE20 F009          	lfsr	2,9
  1079   0002BE  5024               	movf	CAN_transmit@tempCanMsg^0,w,c
  1080   0002C0  26D9               	addwf	fsr2l,f,c
  1081   0002C2  5025               	movf	(CAN_transmit@tempCanMsg+1)^0,w,c
  1082   0002C4  22DA               	addwfc	fsr2h,f,c
  1083   0002C6  50DF               	movf	indf2,w,c
  1084   0002C8  6F19               	movwf	25,b	;volatile
  1085   0002CA                     
  1086                           ; BSR set to: 15
  1087                           ;mcc_generated_files/ecan.c: 280:         TXB1D4 = tempCanMsg->frame.data4;
  1088   0002CA  EE20 F00A          	lfsr	2,10
  1089   0002CE  5024               	movf	CAN_transmit@tempCanMsg^0,w,c
  1090   0002D0  26D9               	addwf	fsr2l,f,c
  1091   0002D2  5025               	movf	(CAN_transmit@tempCanMsg+1)^0,w,c
  1092   0002D4  22DA               	addwfc	fsr2h,f,c
  1093   0002D6  50DF               	movf	indf2,w,c
  1094   0002D8  6F1A               	movwf	26,b	;volatile
  1095   0002DA                     
  1096                           ; BSR set to: 15
  1097                           ;mcc_generated_files/ecan.c: 281:         TXB1D5 = tempCanMsg->frame.data5;
  1098   0002DA  EE20 F00B          	lfsr	2,11
  1099   0002DE  5024               	movf	CAN_transmit@tempCanMsg^0,w,c
  1100   0002E0  26D9               	addwf	fsr2l,f,c
  1101   0002E2  5025               	movf	(CAN_transmit@tempCanMsg+1)^0,w,c
  1102   0002E4  22DA               	addwfc	fsr2h,f,c
  1103   0002E6  50DF               	movf	indf2,w,c
  1104   0002E8  6F1B               	movwf	27,b	;volatile
  1105   0002EA                     
  1106                           ; BSR set to: 15
  1107                           ;mcc_generated_files/ecan.c: 282:         TXB1D6 = tempCanMsg->frame.data6;
  1108   0002EA  EE20 F00C          	lfsr	2,12
  1109   0002EE  5024               	movf	CAN_transmit@tempCanMsg^0,w,c
  1110   0002F0  26D9               	addwf	fsr2l,f,c
  1111   0002F2  5025               	movf	(CAN_transmit@tempCanMsg+1)^0,w,c
  1112   0002F4  22DA               	addwfc	fsr2h,f,c
  1113   0002F6  50DF               	movf	indf2,w,c
  1114   0002F8  6F1C               	movwf	28,b	;volatile
  1115   0002FA                     
  1116                           ; BSR set to: 15
  1117                           ;mcc_generated_files/ecan.c: 283:         TXB1D7 = tempCanMsg->frame.data7;
  1118   0002FA  EE20 F00D          	lfsr	2,13
  1119   0002FE  5024               	movf	CAN_transmit@tempCanMsg^0,w,c
  1120   000300  26D9               	addwf	fsr2l,f,c
  1121   000302  5025               	movf	(CAN_transmit@tempCanMsg+1)^0,w,c
  1122   000304  22DA               	addwfc	fsr2h,f,c
  1123   000306  50DF               	movf	indf2,w,c
  1124   000308  6F1D               	movwf	29,b	;volatile
  1125   00030A                     
  1126                           ; BSR set to: 15
  1127                           ;mcc_generated_files/ecan.c: 285:         TXB1CONbits.TXREQ = 1;
  1128   00030A  8710               	bsf	16,3,b	;volatile
  1129   00030C  EF04  F001         	goto	l2707
  1130   000310                     l431:
  1131                           
  1132                           ; BSR set to: 15
  1133   000310  B700               	btfsc	0,3,b	;volatile
  1134   000312  EF8D  F001         	goto	u1001
  1135   000316  EF8F  F001         	goto	u1000
  1136   00031A                     u1001:
  1137   00031A  EF0A  F002         	goto	l430
  1138   00031E                     u1000:
  1139   00031E                     
  1140                           ; BSR set to: 15
  1141                           ;mcc_generated_files/ecan.c: 289:     {;mcc_generated_files/ecan.c: 291:         convert
      +                          CANid2Reg(tempCanMsg->frame.id, tempCanMsg->frame.idType, &tempEIDH, &tempEIDL, &tempSID
      +                          H, &tempSIDL);
  1142   00031E  EE20 F001          	lfsr	2,1
  1143   000322  5024               	movf	CAN_transmit@tempCanMsg^0,w,c
  1144   000324  26D9               	addwf	fsr2l,f,c
  1145   000326  5025               	movf	(CAN_transmit@tempCanMsg+1)^0,w,c
  1146   000328  22DA               	addwfc	fsr2h,f,c
  1147   00032A  CFDE F07C          	movff	postinc2,convertCANid2Reg@tempPassedInID
  1148   00032E  CFDE F07D          	movff	postinc2,convertCANid2Reg@tempPassedInID+1
  1149   000332  CFDE F07E          	movff	postinc2,convertCANid2Reg@tempPassedInID+2
  1150   000336  CFDE F07F          	movff	postinc2,convertCANid2Reg@tempPassedInID+3
  1151   00033A  C024  FFD9         	movff	CAN_transmit@tempCanMsg,fsr2l
  1152   00033E  C025  FFDA         	movff	CAN_transmit@tempCanMsg+1,fsr2h
  1153   000342  50DF               	movf	indf2,w,c
  1154   000344  0100               	movlb	0	; () banked
  1155   000346  6F80               	movwf	convertCANid2Reg@canIdType& (0+255),b
  1156   000348  0E89               	movlw	low CAN_transmit@tempEIDH
  1157   00034A  6F81               	movwf	convertCANid2Reg@passedInEIDH& (0+255),b
  1158   00034C  0E00               	movlw	high CAN_transmit@tempEIDH
  1159   00034E  6F82               	movwf	(convertCANid2Reg@passedInEIDH+1)& (0+255),b
  1160   000350  0E8A               	movlw	low CAN_transmit@tempEIDL
  1161   000352  6F83               	movwf	convertCANid2Reg@passedInEIDL& (0+255),b
  1162   000354  0E00               	movlw	high CAN_transmit@tempEIDL
  1163   000356  6F84               	movwf	(convertCANid2Reg@passedInEIDL+1)& (0+255),b
  1164   000358  0E8B               	movlw	low CAN_transmit@tempSIDH
  1165   00035A  6F85               	movwf	convertCANid2Reg@passedInSIDH& (0+255),b
  1166   00035C  0E00               	movlw	high CAN_transmit@tempSIDH
  1167   00035E  6F86               	movwf	(convertCANid2Reg@passedInSIDH+1)& (0+255),b
  1168   000360  0E8C               	movlw	low CAN_transmit@tempSIDL
  1169   000362  6F87               	movwf	convertCANid2Reg@passedInSIDL& (0+255),b
  1170   000364  0E00               	movlw	high CAN_transmit@tempSIDL
  1171   000366  6F88               	movwf	(convertCANid2Reg@passedInSIDL+1)& (0+255),b
  1172   000368  EC9B  F005         	call	_convertCANid2Reg	;wreg free
  1173   00036C                     
  1174                           ;mcc_generated_files/ecan.c: 293:         TXB2EIDH = tempEIDH;
  1175   00036C  C089  FF03         	movff	CAN_transmit@tempEIDH,3843	;volatile
  1176   000370                     
  1177                           ;mcc_generated_files/ecan.c: 294:         TXB2EIDL = tempEIDL;
  1178   000370  C08A  FF04         	movff	CAN_transmit@tempEIDL,3844	;volatile
  1179   000374                     
  1180                           ;mcc_generated_files/ecan.c: 295:         TXB2SIDH = tempSIDH;
  1181   000374  C08B  FF01         	movff	CAN_transmit@tempSIDH,3841	;volatile
  1182   000378                     
  1183                           ;mcc_generated_files/ecan.c: 296:         TXB2SIDL = tempSIDL;
  1184   000378  C08C  FF02         	movff	CAN_transmit@tempSIDL,3842	;volatile
  1185   00037C                     
  1186                           ;mcc_generated_files/ecan.c: 297:         TXB2DLC = tempCanMsg->frame.dlc;
  1187   00037C  EE20 F005          	lfsr	2,5
  1188   000380  5024               	movf	CAN_transmit@tempCanMsg^0,w,c
  1189   000382  26D9               	addwf	fsr2l,f,c
  1190   000384  5025               	movf	(CAN_transmit@tempCanMsg+1)^0,w,c
  1191   000386  22DA               	addwfc	fsr2h,f,c
  1192   000388  50DF               	movf	indf2,w,c
  1193   00038A  010F               	movlb	15	; () banked
  1194   00038C  6F05               	movwf	5,b	;volatile
  1195   00038E                     
  1196                           ; BSR set to: 15
  1197                           ;mcc_generated_files/ecan.c: 298:         TXB2D0 = tempCanMsg->frame.data0;
  1198   00038E  EE20 F006          	lfsr	2,6
  1199   000392  5024               	movf	CAN_transmit@tempCanMsg^0,w,c
  1200   000394  26D9               	addwf	fsr2l,f,c
  1201   000396  5025               	movf	(CAN_transmit@tempCanMsg+1)^0,w,c
  1202   000398  22DA               	addwfc	fsr2h,f,c
  1203   00039A  50DF               	movf	indf2,w,c
  1204   00039C  6F06               	movwf	6,b	;volatile
  1205   00039E                     
  1206                           ; BSR set to: 15
  1207                           ;mcc_generated_files/ecan.c: 299:         TXB2D1 = tempCanMsg->frame.data1;
  1208   00039E  EE20 F007          	lfsr	2,7
  1209   0003A2  5024               	movf	CAN_transmit@tempCanMsg^0,w,c
  1210   0003A4  26D9               	addwf	fsr2l,f,c
  1211   0003A6  5025               	movf	(CAN_transmit@tempCanMsg+1)^0,w,c
  1212   0003A8  22DA               	addwfc	fsr2h,f,c
  1213   0003AA  50DF               	movf	indf2,w,c
  1214   0003AC  6F07               	movwf	7,b	;volatile
  1215   0003AE                     
  1216                           ; BSR set to: 15
  1217                           ;mcc_generated_files/ecan.c: 300:         TXB2D2 = tempCanMsg->frame.data2;
  1218   0003AE  EE20 F008          	lfsr	2,8
  1219   0003B2  5024               	movf	CAN_transmit@tempCanMsg^0,w,c
  1220   0003B4  26D9               	addwf	fsr2l,f,c
  1221   0003B6  5025               	movf	(CAN_transmit@tempCanMsg+1)^0,w,c
  1222   0003B8  22DA               	addwfc	fsr2h,f,c
  1223   0003BA  50DF               	movf	indf2,w,c
  1224   0003BC  6F08               	movwf	8,b	;volatile
  1225   0003BE                     
  1226                           ; BSR set to: 15
  1227                           ;mcc_generated_files/ecan.c: 301:         TXB2D3 = tempCanMsg->frame.data3;
  1228   0003BE  EE20 F009          	lfsr	2,9
  1229   0003C2  5024               	movf	CAN_transmit@tempCanMsg^0,w,c
  1230   0003C4  26D9               	addwf	fsr2l,f,c
  1231   0003C6  5025               	movf	(CAN_transmit@tempCanMsg+1)^0,w,c
  1232   0003C8  22DA               	addwfc	fsr2h,f,c
  1233   0003CA  50DF               	movf	indf2,w,c
  1234   0003CC  6F09               	movwf	9,b	;volatile
  1235   0003CE                     
  1236                           ; BSR set to: 15
  1237                           ;mcc_generated_files/ecan.c: 302:         TXB2D4 = tempCanMsg->frame.data4;
  1238   0003CE  EE20 F00A          	lfsr	2,10
  1239   0003D2  5024               	movf	CAN_transmit@tempCanMsg^0,w,c
  1240   0003D4  26D9               	addwf	fsr2l,f,c
  1241   0003D6  5025               	movf	(CAN_transmit@tempCanMsg+1)^0,w,c
  1242   0003D8  22DA               	addwfc	fsr2h,f,c
  1243   0003DA  50DF               	movf	indf2,w,c
  1244   0003DC  6F0A               	movwf	10,b	;volatile
  1245   0003DE                     
  1246                           ; BSR set to: 15
  1247                           ;mcc_generated_files/ecan.c: 303:         TXB2D5 = tempCanMsg->frame.data5;
  1248   0003DE  EE20 F00B          	lfsr	2,11
  1249   0003E2  5024               	movf	CAN_transmit@tempCanMsg^0,w,c
  1250   0003E4  26D9               	addwf	fsr2l,f,c
  1251   0003E6  5025               	movf	(CAN_transmit@tempCanMsg+1)^0,w,c
  1252   0003E8  22DA               	addwfc	fsr2h,f,c
  1253   0003EA  50DF               	movf	indf2,w,c
  1254   0003EC  6F0B               	movwf	11,b	;volatile
  1255   0003EE                     
  1256                           ; BSR set to: 15
  1257                           ;mcc_generated_files/ecan.c: 304:         TXB2D6 = tempCanMsg->frame.data6;
  1258   0003EE  EE20 F00C          	lfsr	2,12
  1259   0003F2  5024               	movf	CAN_transmit@tempCanMsg^0,w,c
  1260   0003F4  26D9               	addwf	fsr2l,f,c
  1261   0003F6  5025               	movf	(CAN_transmit@tempCanMsg+1)^0,w,c
  1262   0003F8  22DA               	addwfc	fsr2h,f,c
  1263   0003FA  50DF               	movf	indf2,w,c
  1264   0003FC  6F0C               	movwf	12,b	;volatile
  1265   0003FE                     
  1266                           ; BSR set to: 15
  1267                           ;mcc_generated_files/ecan.c: 305:         TXB2D7 = tempCanMsg->frame.data7;
  1268   0003FE  EE20 F00D          	lfsr	2,13
  1269   000402  5024               	movf	CAN_transmit@tempCanMsg^0,w,c
  1270   000404  26D9               	addwf	fsr2l,f,c
  1271   000406  5025               	movf	(CAN_transmit@tempCanMsg+1)^0,w,c
  1272   000408  22DA               	addwfc	fsr2h,f,c
  1273   00040A  50DF               	movf	indf2,w,c
  1274   00040C  6F0D               	movwf	13,b	;volatile
  1275   00040E                     
  1276                           ; BSR set to: 15
  1277                           ;mcc_generated_files/ecan.c: 307:         TXB2CONbits.TXREQ = 1;
  1278   00040E  8700               	bsf	0,3,b	;volatile
  1279   000410  EF04  F001         	goto	l2707
  1280   000414                     l430:
  1281   000414                     l434:
  1282                           
  1283                           ; BSR set to: 15
  1284   000414  0012               	return		;funcret
  1285   000416                     __end_of_CAN_transmit:
  1286                           	callstack 0
  1287                           
  1288 ;; *************** function _convertCANid2Reg *****************
  1289 ;; Defined at:
  1290 ;;		line 463 in file "mcc_generated_files/ecan.c"
  1291 ;; Parameters:    Size  Location     Type
  1292 ;;  tempPassedIn    4    0[BANK0 ] unsigned long 
  1293 ;;  canIdType       1    4[BANK0 ] unsigned char 
  1294 ;;  passedInEIDH    2    5[BANK0 ] PTR unsigned char 
  1295 ;;		 -> CAN_transmit@tempEIDH(1), 
  1296 ;;  passedInEIDL    2    7[BANK0 ] PTR unsigned char 
  1297 ;;		 -> CAN_transmit@tempEIDL(1), 
  1298 ;;  passedInSIDH    2    9[BANK0 ] PTR unsigned char 
  1299 ;;		 -> CAN_transmit@tempSIDH(1), 
  1300 ;;  passedInSIDL    2   11[BANK0 ] PTR unsigned char 
  1301 ;;		 -> CAN_transmit@tempSIDL(1), 
  1302 ;; Auto vars:     Size  Location     Type
  1303 ;;  wipSIDL         1   34[COMRAM] unsigned char 
  1304 ;; Return value:  Size  Location     Type
  1305 ;;                  1    wreg      void 
  1306 ;; Registers used:
  1307 ;;		wreg, fsr2l, fsr2h, status,2, status,0
  1308 ;; Tracked objects:
  1309 ;;		On entry : 0/0
  1310 ;;		On exit  : 0/0
  1311 ;;		Unchanged: 0/0
  1312 ;; Data sizes:     COMRAM   BANK0   BANK1   BANK2   BANK3   BANK4   BANK5   BANK6   BANK7   BANK8   BANK9  BANK10  BANK1
      +1  BANK12  BANK13  BANK14
  1313 ;;      Params:         0      13       0       0       0       0       0       0       0       0       0       0       
      +0       0       0       0
  1314 ;;      Locals:         1       0       0       0       0       0       0       0       0       0       0       0       
      +0       0       0       0
  1315 ;;      Temps:          4       0       0       0       0       0       0       0       0       0       0       0       
      +0       0       0       0
  1316 ;;      Totals:         5      13       0       0       0       0       0       0       0       0       0       0       
      +0       0       0       0
  1317 ;;Total ram usage:       18 bytes
  1318 ;; Hardware stack levels used: 1
  1319 ;; Hardware stack levels required when called: 7
  1320 ;; This function calls:
  1321 ;;		Nothing
  1322 ;; This function is called by:
  1323 ;;		_CAN_transmit
  1324 ;; This function uses a non-reentrant model
  1325 ;;
  1326                           
  1327                           	psect	text3
  1328   000B36                     __ptext3:
  1329                           	callstack 0
  1330   000B36                     _convertCANid2Reg:
  1331                           	callstack 21
  1332   000B36                     
  1333                           ;mcc_generated_files/ecan.c: 466:     if (canIdType == 2) {
  1334   000B36  0E02               	movlw	2
  1335   000B38  0100               	movlb	0	; () banked
  1336   000B3A  1980               	xorwf	convertCANid2Reg@canIdType& (0+255),w,b
  1337   000B3C  A4D8               	btfss	status,2,c
  1338   000B3E  EFA3  F005         	goto	u941
  1339   000B42  EFA5  F005         	goto	u940
  1340   000B46                     u941:
  1341   000B46  EF28  F006         	goto	l2657
  1342   000B4A                     u940:
  1343   000B4A                     
  1344                           ; BSR set to: 0
  1345                           ;mcc_generated_files/ecan.c: 469:         *passedInEIDL = 0xFF & tempPassedInID;
  1346   000B4A  C083  FFD9         	movff	convertCANid2Reg@passedInEIDL,fsr2l
  1347   000B4E  C084  FFDA         	movff	convertCANid2Reg@passedInEIDL+1,fsr2h
  1348   000B52  C07C  FFDF         	movff	convertCANid2Reg@tempPassedInID,indf2
  1349   000B56                     
  1350                           ; BSR set to: 0
  1351                           ;mcc_generated_files/ecan.c: 470:         tempPassedInID = tempPassedInID >> 8;
  1352   000B56  C07C  F01F         	movff	convertCANid2Reg@tempPassedInID,??_convertCANid2Reg
  1353   000B5A  C07D  F020         	movff	convertCANid2Reg@tempPassedInID+1,??_convertCANid2Reg+1
  1354   000B5E  C07E  F021         	movff	convertCANid2Reg@tempPassedInID+2,??_convertCANid2Reg+2
  1355   000B62  C07F  F022         	movff	convertCANid2Reg@tempPassedInID+3,??_convertCANid2Reg+3
  1356   000B66  C020  F01F         	movff	??_convertCANid2Reg+1,??_convertCANid2Reg
  1357   000B6A  C021  F020         	movff	??_convertCANid2Reg+2,??_convertCANid2Reg+1
  1358   000B6E  C022  F021         	movff	??_convertCANid2Reg+3,??_convertCANid2Reg+2
  1359   000B72  6A22               	clrf	(??_convertCANid2Reg+3)^0,c
  1360   000B74  C01F  F07C         	movff	??_convertCANid2Reg,convertCANid2Reg@tempPassedInID
  1361   000B78  C020  F07D         	movff	??_convertCANid2Reg+1,convertCANid2Reg@tempPassedInID+1
  1362   000B7C  C021  F07E         	movff	??_convertCANid2Reg+2,convertCANid2Reg@tempPassedInID+2
  1363   000B80  C022  F07F         	movff	??_convertCANid2Reg+3,convertCANid2Reg@tempPassedInID+3
  1364   000B84                     
  1365                           ; BSR set to: 0
  1366                           ;mcc_generated_files/ecan.c: 473:         *passedInEIDH = 0xFF & tempPassedInID;
  1367   000B84  C081  FFD9         	movff	convertCANid2Reg@passedInEIDH,fsr2l
  1368   000B88  C082  FFDA         	movff	convertCANid2Reg@passedInEIDH+1,fsr2h
  1369   000B8C  C07C  FFDF         	movff	convertCANid2Reg@tempPassedInID,indf2
  1370                           
  1371                           ;mcc_generated_files/ecan.c: 474:         tempPassedInID = tempPassedInID >> 8;
  1372   000B90  C07C  F01F         	movff	convertCANid2Reg@tempPassedInID,??_convertCANid2Reg
  1373   000B94  C07D  F020         	movff	convertCANid2Reg@tempPassedInID+1,??_convertCANid2Reg+1
  1374   000B98  C07E  F021         	movff	convertCANid2Reg@tempPassedInID+2,??_convertCANid2Reg+2
  1375   000B9C  C07F  F022         	movff	convertCANid2Reg@tempPassedInID+3,??_convertCANid2Reg+3
  1376   000BA0  C020  F01F         	movff	??_convertCANid2Reg+1,??_convertCANid2Reg
  1377   000BA4  C021  F020         	movff	??_convertCANid2Reg+2,??_convertCANid2Reg+1
  1378   000BA8  C022  F021         	movff	??_convertCANid2Reg+3,??_convertCANid2Reg+2
  1379   000BAC  6A22               	clrf	(??_convertCANid2Reg+3)^0,c
  1380   000BAE  C01F  F07C         	movff	??_convertCANid2Reg,convertCANid2Reg@tempPassedInID
  1381   000BB2  C020  F07D         	movff	??_convertCANid2Reg+1,convertCANid2Reg@tempPassedInID+1
  1382   000BB6  C021  F07E         	movff	??_convertCANid2Reg+2,convertCANid2Reg@tempPassedInID+2
  1383   000BBA  C022  F07F         	movff	??_convertCANid2Reg+3,convertCANid2Reg@tempPassedInID+3
  1384   000BBE                     
  1385                           ; BSR set to: 0
  1386                           ;mcc_generated_files/ecan.c: 478:         wipSIDL = 0x03 & tempPassedInID;
  1387   000BBE  517C               	movf	convertCANid2Reg@tempPassedInID& (0+255),w,b
  1388   000BC0  0B03               	andlw	3
  1389   000BC2  6E23               	movwf	convertCANid2Reg@wipSIDL^0,c
  1390   000BC4                     
  1391                           ; BSR set to: 0
  1392                           ;mcc_generated_files/ecan.c: 479:         tempPassedInID = tempPassedInID << 3;
  1393   000BC4  C07C  F01F         	movff	convertCANid2Reg@tempPassedInID,??_convertCANid2Reg
  1394   000BC8  C07D  F020         	movff	convertCANid2Reg@tempPassedInID+1,??_convertCANid2Reg+1
  1395   000BCC  C07E  F021         	movff	convertCANid2Reg@tempPassedInID+2,??_convertCANid2Reg+2
  1396   000BD0  C07F  F022         	movff	convertCANid2Reg@tempPassedInID+3,??_convertCANid2Reg+3
  1397   000BD4  0E03               	movlw	3
  1398   000BD6                     u955:
  1399   000BD6  90D8               	bcf	status,0,c
  1400   000BD8  361F               	rlcf	??_convertCANid2Reg^0,f,c
  1401   000BDA  3620               	rlcf	(??_convertCANid2Reg+1)^0,f,c
  1402   000BDC  3621               	rlcf	(??_convertCANid2Reg+2)^0,f,c
  1403   000BDE  3622               	rlcf	(??_convertCANid2Reg+3)^0,f,c
  1404   000BE0  2EE8               	decfsz	wreg,f,c
  1405   000BE2  EFEB  F005         	goto	u955
  1406   000BE6  C01F  F07C         	movff	??_convertCANid2Reg,convertCANid2Reg@tempPassedInID
  1407   000BEA  C020  F07D         	movff	??_convertCANid2Reg+1,convertCANid2Reg@tempPassedInID+1
  1408   000BEE  C021  F07E         	movff	??_convertCANid2Reg+2,convertCANid2Reg@tempPassedInID+2
  1409   000BF2  C022  F07F         	movff	??_convertCANid2Reg+3,convertCANid2Reg@tempPassedInID+3
  1410   000BF6                     
  1411                           ; BSR set to: 0
  1412                           ;mcc_generated_files/ecan.c: 480:         wipSIDL = (0xE0 & tempPassedInID) + wipSIDL;
  1413   000BF6  517C               	movf	convertCANid2Reg@tempPassedInID& (0+255),w,b
  1414   000BF8  0BE0               	andlw	224
  1415   000BFA  2423               	addwf	convertCANid2Reg@wipSIDL^0,w,c
  1416   000BFC  6E23               	movwf	convertCANid2Reg@wipSIDL^0,c
  1417   000BFE                     
  1418                           ; BSR set to: 0
  1419                           ;mcc_generated_files/ecan.c: 481:         wipSIDL = (uint8_t)(wipSIDL + 0x08);
  1420   000BFE  5023               	movf	convertCANid2Reg@wipSIDL^0,w,c
  1421   000C00  0F08               	addlw	8
  1422   000C02  6E23               	movwf	convertCANid2Reg@wipSIDL^0,c
  1423   000C04                     
  1424                           ; BSR set to: 0
  1425                           ;mcc_generated_files/ecan.c: 482:         *passedInSIDL = (uint8_t)(0xEB & wipSIDL);
  1426   000C04  5023               	movf	convertCANid2Reg@wipSIDL^0,w,c
  1427   000C06  0BEB               	andlw	235
  1428   000C08  C087  FFD9         	movff	convertCANid2Reg@passedInSIDL,fsr2l
  1429   000C0C  C088  FFDA         	movff	convertCANid2Reg@passedInSIDL+1,fsr2h
  1430   000C10  6EDF               	movwf	indf2,c
  1431   000C12                     l2653:
  1432                           
  1433                           ; BSR set to: 0
  1434                           ;mcc_generated_files/ecan.c: 485:         tempPassedInID = tempPassedInID >> 8;
  1435   000C12  C07C  F01F         	movff	convertCANid2Reg@tempPassedInID,??_convertCANid2Reg
  1436   000C16  C07D  F020         	movff	convertCANid2Reg@tempPassedInID+1,??_convertCANid2Reg+1
  1437   000C1A  C07E  F021         	movff	convertCANid2Reg@tempPassedInID+2,??_convertCANid2Reg+2
  1438   000C1E  C07F  F022         	movff	convertCANid2Reg@tempPassedInID+3,??_convertCANid2Reg+3
  1439   000C22  C020  F01F         	movff	??_convertCANid2Reg+1,??_convertCANid2Reg
  1440   000C26  C021  F020         	movff	??_convertCANid2Reg+2,??_convertCANid2Reg+1
  1441   000C2A  C022  F021         	movff	??_convertCANid2Reg+3,??_convertCANid2Reg+2
  1442   000C2E  6A22               	clrf	(??_convertCANid2Reg+3)^0,c
  1443   000C30  C01F  F07C         	movff	??_convertCANid2Reg,convertCANid2Reg@tempPassedInID
  1444   000C34  C020  F07D         	movff	??_convertCANid2Reg+1,convertCANid2Reg@tempPassedInID+1
  1445   000C38  C021  F07E         	movff	??_convertCANid2Reg+2,convertCANid2Reg@tempPassedInID+2
  1446   000C3C  C022  F07F         	movff	??_convertCANid2Reg+3,convertCANid2Reg@tempPassedInID+3
  1447   000C40                     
  1448                           ; BSR set to: 0
  1449                           ;mcc_generated_files/ecan.c: 486:         *passedInSIDH = 0xFF & tempPassedInID;
  1450   000C40  C085  FFD9         	movff	convertCANid2Reg@passedInSIDH,fsr2l
  1451   000C44  C086  FFDA         	movff	convertCANid2Reg@passedInSIDH+1,fsr2h
  1452   000C48  C07C  FFDF         	movff	convertCANid2Reg@tempPassedInID,indf2
  1453                           
  1454                           ;mcc_generated_files/ecan.c: 487:     } else
  1455   000C4C  EF53  F006         	goto	l472
  1456   000C50                     l2657:
  1457                           
  1458                           ; BSR set to: 0
  1459                           ;mcc_generated_files/ecan.c: 488:     {;mcc_generated_files/ecan.c: 489:         *passed
      +                          InEIDH = 0;
  1460   000C50  C081  FFD9         	movff	convertCANid2Reg@passedInEIDH,fsr2l
  1461   000C54  C082  FFDA         	movff	convertCANid2Reg@passedInEIDH+1,fsr2h
  1462   000C58  6ADF               	clrf	indf2,c
  1463                           
  1464                           ;mcc_generated_files/ecan.c: 490:         *passedInEIDL = 0;
  1465   000C5A  C083  FFD9         	movff	convertCANid2Reg@passedInEIDL,fsr2l
  1466   000C5E  C084  FFDA         	movff	convertCANid2Reg@passedInEIDL+1,fsr2h
  1467   000C62  6ADF               	clrf	indf2,c
  1468   000C64                     
  1469                           ; BSR set to: 0
  1470                           ;mcc_generated_files/ecan.c: 491:         tempPassedInID = tempPassedInID << 5;
  1471   000C64  C07C  F01F         	movff	convertCANid2Reg@tempPassedInID,??_convertCANid2Reg
  1472   000C68  C07D  F020         	movff	convertCANid2Reg@tempPassedInID+1,??_convertCANid2Reg+1
  1473   000C6C  C07E  F021         	movff	convertCANid2Reg@tempPassedInID+2,??_convertCANid2Reg+2
  1474   000C70  C07F  F022         	movff	convertCANid2Reg@tempPassedInID+3,??_convertCANid2Reg+3
  1475   000C74  0E05               	movlw	5
  1476   000C76                     u965:
  1477   000C76  90D8               	bcf	status,0,c
  1478   000C78  361F               	rlcf	??_convertCANid2Reg^0,f,c
  1479   000C7A  3620               	rlcf	(??_convertCANid2Reg+1)^0,f,c
  1480   000C7C  3621               	rlcf	(??_convertCANid2Reg+2)^0,f,c
  1481   000C7E  3622               	rlcf	(??_convertCANid2Reg+3)^0,f,c
  1482   000C80  2EE8               	decfsz	wreg,f,c
  1483   000C82  EF3B  F006         	goto	u965
  1484   000C86  C01F  F07C         	movff	??_convertCANid2Reg,convertCANid2Reg@tempPassedInID
  1485   000C8A  C020  F07D         	movff	??_convertCANid2Reg+1,convertCANid2Reg@tempPassedInID+1
  1486   000C8E  C021  F07E         	movff	??_convertCANid2Reg+2,convertCANid2Reg@tempPassedInID+2
  1487   000C92  C022  F07F         	movff	??_convertCANid2Reg+3,convertCANid2Reg@tempPassedInID+3
  1488   000C96                     
  1489                           ; BSR set to: 0
  1490                           ;mcc_generated_files/ecan.c: 492:         *passedInSIDL = 0xFF & tempPassedInID;
  1491   000C96  C087  FFD9         	movff	convertCANid2Reg@passedInSIDL,fsr2l
  1492   000C9A  C088  FFDA         	movff	convertCANid2Reg@passedInSIDL+1,fsr2h
  1493   000C9E  C07C  FFDF         	movff	convertCANid2Reg@tempPassedInID,indf2
  1494   000CA2  EF09  F006         	goto	l2653
  1495   000CA6                     l472:
  1496                           
  1497                           ; BSR set to: 0
  1498   000CA6  0012               	return		;funcret
  1499   000CA8                     __end_of_convertCANid2Reg:
  1500                           	callstack 0
  1501                           
  1502 ;; *************** function _SYSTEM_Initialize *****************
  1503 ;; Defined at:
  1504 ;;		line 50 in file "mcc_generated_files/mcc.c"
  1505 ;; Parameters:    Size  Location     Type
  1506 ;;		None
  1507 ;; Auto vars:     Size  Location     Type
  1508 ;;		None
  1509 ;; Return value:  Size  Location     Type
  1510 ;;                  1    wreg      void 
  1511 ;; Registers used:
  1512 ;;		wreg, status,2, status,0, cstack
  1513 ;; Tracked objects:
  1514 ;;		On entry : 0/0
  1515 ;;		On exit  : 0/0
  1516 ;;		Unchanged: 0/0
  1517 ;; Data sizes:     COMRAM   BANK0   BANK1   BANK2   BANK3   BANK4   BANK5   BANK6   BANK7   BANK8   BANK9  BANK10  BANK1
      +1  BANK12  BANK13  BANK14
  1518 ;;      Params:         0       0       0       0       0       0       0       0       0       0       0       0       
      +0       0       0       0
  1519 ;;      Locals:         0       0       0       0       0       0       0       0       0       0       0       0       
      +0       0       0       0
  1520 ;;      Temps:          0       0       0       0       0       0       0       0       0       0       0       0       
      +0       0       0       0
  1521 ;;      Totals:         0       0       0       0       0       0       0       0       0       0       0       0       
      +0       0       0       0
  1522 ;;Total ram usage:        0 bytes
  1523 ;; Hardware stack levels used: 1
  1524 ;; Hardware stack levels required when called: 9
  1525 ;; This function calls:
  1526 ;;		_ECAN_Initialize
  1527 ;;		_EXT_INT_Initialize
  1528 ;;		_INTERRUPT_Initialize
  1529 ;;		_OSCILLATOR_Initialize
  1530 ;;		_PIN_MANAGER_Initialize
  1531 ;; This function is called by:
  1532 ;;		_main
  1533 ;; This function uses a non-reentrant model
  1534 ;;
  1535                           
  1536                           	psect	text4
  1537   0012A8                     __ptext4:
  1538                           	callstack 0
  1539   0012A8                     _SYSTEM_Initialize:
  1540                           	callstack 21
  1541   0012A8                     
  1542                           ;mcc_generated_files/mcc.c: 53:     INTERRUPT_Initialize();
  1543   0012A8  EC91  F009         	call	_INTERRUPT_Initialize	;wreg free
  1544   0012AC                     
  1545                           ;mcc_generated_files/mcc.c: 54:     PIN_MANAGER_Initialize();
  1546   0012AC  EC90  F008         	call	_PIN_MANAGER_Initialize	;wreg free
  1547   0012B0                     
  1548                           ;mcc_generated_files/mcc.c: 55:     OSCILLATOR_Initialize();
  1549   0012B0  EC5F  F009         	call	_OSCILLATOR_Initialize	;wreg free
  1550   0012B4                     
  1551                           ;mcc_generated_files/mcc.c: 56:     EXT_INT_Initialize();
  1552   0012B4  EC46  F008         	call	_EXT_INT_Initialize	;wreg free
  1553   0012B8                     
  1554                           ;mcc_generated_files/mcc.c: 57:     ECAN_Initialize();
  1555   0012B8  ECC9  F004         	call	_ECAN_Initialize	;wreg free
  1556   0012BC  0012               	return		;funcret
  1557   0012BE                     __end_of_SYSTEM_Initialize:
  1558                           	callstack 0
  1559                           
  1560 ;; *************** function _PIN_MANAGER_Initialize *****************
  1561 ;; Defined at:
  1562 ;;		line 55 in file "mcc_generated_files/pin_manager.c"
  1563 ;; Parameters:    Size  Location     Type
  1564 ;;		None
  1565 ;; Auto vars:     Size  Location     Type
  1566 ;;		None
  1567 ;; Return value:  Size  Location     Type
  1568 ;;                  1    wreg      void 
  1569 ;; Registers used:
  1570 ;;		wreg, status,2
  1571 ;; Tracked objects:
  1572 ;;		On entry : 0/0
  1573 ;;		On exit  : 0/0
  1574 ;;		Unchanged: 0/0
  1575 ;; Data sizes:     COMRAM   BANK0   BANK1   BANK2   BANK3   BANK4   BANK5   BANK6   BANK7   BANK8   BANK9  BANK10  BANK1
      +1  BANK12  BANK13  BANK14
  1576 ;;      Params:         0       0       0       0       0       0       0       0       0       0       0       0       
      +0       0       0       0
  1577 ;;      Locals:         0       0       0       0       0       0       0       0       0       0       0       0       
      +0       0       0       0
  1578 ;;      Temps:          0       0       0       0       0       0       0       0       0       0       0       0       
      +0       0       0       0
  1579 ;;      Totals:         0       0       0       0       0       0       0       0       0       0       0       0       
      +0       0       0       0
  1580 ;;Total ram usage:        0 bytes
  1581 ;; Hardware stack levels used: 1
  1582 ;; Hardware stack levels required when called: 7
  1583 ;; This function calls:
  1584 ;;		Nothing
  1585 ;; This function is called by:
  1586 ;;		_SYSTEM_Initialize
  1587 ;; This function uses a non-reentrant model
  1588 ;;
  1589                           
  1590                           	psect	text5
  1591   001120                     __ptext5:
  1592                           	callstack 0
  1593   001120                     _PIN_MANAGER_Initialize:
  1594                           	callstack 22
  1595   001120                     
  1596                           ;mcc_generated_files/pin_manager.c: 60:     LATE = 0x00;
  1597   001120  0E00               	movlw	0
  1598   001122  6E8D               	movwf	141,c	;volatile
  1599                           
  1600                           ;mcc_generated_files/pin_manager.c: 61:     LATD = 0x00;
  1601   001124  0E00               	movlw	0
  1602   001126  6E8C               	movwf	140,c	;volatile
  1603                           
  1604                           ;mcc_generated_files/pin_manager.c: 62:     LATA = 0x00;
  1605   001128  0E00               	movlw	0
  1606   00112A  6E89               	movwf	137,c	;volatile
  1607                           
  1608                           ;mcc_generated_files/pin_manager.c: 63:     LATB = 0x00;
  1609   00112C  0E00               	movlw	0
  1610   00112E  6E8A               	movwf	138,c	;volatile
  1611                           
  1612                           ;mcc_generated_files/pin_manager.c: 64:     LATC = 0x00;
  1613   001130  0E00               	movlw	0
  1614   001132  6E8B               	movwf	139,c	;volatile
  1615                           
  1616                           ;mcc_generated_files/pin_manager.c: 69:     TRISE = 0x07;
  1617   001134  0E07               	movlw	7
  1618   001136  6E96               	movwf	150,c	;volatile
  1619                           
  1620                           ;mcc_generated_files/pin_manager.c: 70:     TRISA = 0xEF;
  1621   001138  0EEF               	movlw	239
  1622   00113A  6E92               	movwf	146,c	;volatile
  1623   00113C                     
  1624                           ;mcc_generated_files/pin_manager.c: 71:     TRISB = 0xFF;
  1625   00113C  6893               	setf	147,c	;volatile
  1626                           
  1627                           ;mcc_generated_files/pin_manager.c: 72:     TRISC = 0xBF;
  1628   00113E  0EBF               	movlw	191
  1629   001140  6E94               	movwf	148,c	;volatile
  1630                           
  1631                           ;mcc_generated_files/pin_manager.c: 73:     TRISD = 0xFD;
  1632   001142  0EFD               	movlw	253
  1633   001144  6E95               	movwf	149,c	;volatile
  1634   001146                     
  1635                           ;mcc_generated_files/pin_manager.c: 78:     ANCON0 = 0xFF;
  1636   001146  010F               	movlb	15	; () banked
  1637   001148  695D               	setf	93,b	;volatile
  1638                           
  1639                           ;mcc_generated_files/pin_manager.c: 79:     ANCON1 = 0x7A;
  1640   00114A  0E7A               	movlw	122
  1641   00114C  6F5C               	movwf	92,b	;volatile
  1642                           
  1643                           ;mcc_generated_files/pin_manager.c: 84:     WPUB = 0x00;
  1644   00114E  0E00               	movlw	0
  1645   001150  6F5B               	movwf	91,b	;volatile
  1646   001152                     
  1647                           ; BSR set to: 15
  1648                           ;mcc_generated_files/pin_manager.c: 85:     INTCON2bits.nRBPU = 1;
  1649   001152  8EF1               	bsf	241,7,c	;volatile
  1650   001154                     
  1651                           ; BSR set to: 15
  1652   001154  0012               	return		;funcret
  1653   001156                     __end_of_PIN_MANAGER_Initialize:
  1654                           	callstack 0
  1655                           
  1656 ;; *************** function _OSCILLATOR_Initialize *****************
  1657 ;; Defined at:
  1658 ;;		line 60 in file "mcc_generated_files/mcc.c"
  1659 ;; Parameters:    Size  Location     Type
  1660 ;;		None
  1661 ;; Auto vars:     Size  Location     Type
  1662 ;;		None
  1663 ;; Return value:  Size  Location     Type
  1664 ;;                  1    wreg      void 
  1665 ;; Registers used:
  1666 ;;		wreg, status,2
  1667 ;; Tracked objects:
  1668 ;;		On entry : 0/0
  1669 ;;		On exit  : 0/0
  1670 ;;		Unchanged: 0/0
  1671 ;; Data sizes:     COMRAM   BANK0   BANK1   BANK2   BANK3   BANK4   BANK5   BANK6   BANK7   BANK8   BANK9  BANK10  BANK1
      +1  BANK12  BANK13  BANK14
  1672 ;;      Params:         0       0       0       0       0       0       0       0       0       0       0       0       
      +0       0       0       0
  1673 ;;      Locals:         0       0       0       0       0       0       0       0       0       0       0       0       
      +0       0       0       0
  1674 ;;      Temps:          0       0       0       0       0       0       0       0       0       0       0       0       
      +0       0       0       0
  1675 ;;      Totals:         0       0       0       0       0       0       0       0       0       0       0       0       
      +0       0       0       0
  1676 ;;Total ram usage:        0 bytes
  1677 ;; Hardware stack levels used: 1
  1678 ;; Hardware stack levels required when called: 7
  1679 ;; This function calls:
  1680 ;;		Nothing
  1681 ;; This function is called by:
  1682 ;;		_SYSTEM_Initialize
  1683 ;; This function uses a non-reentrant model
  1684 ;;
  1685                           
  1686                           	psect	text6
  1687   0012BE                     __ptext6:
  1688                           	callstack 0
  1689   0012BE                     _OSCILLATOR_Initialize:
  1690                           	callstack 22
  1691   0012BE                     
  1692                           ;mcc_generated_files/mcc.c: 63:     OSCCON = 0x60;
  1693   0012BE  0E60               	movlw	96
  1694   0012C0  6ED3               	movwf	211,c	;volatile
  1695                           
  1696                           ;mcc_generated_files/mcc.c: 65:     OSCCON2 = 0x00;
  1697   0012C2  0E00               	movlw	0
  1698   0012C4  6ED2               	movwf	210,c	;volatile
  1699                           
  1700                           ;mcc_generated_files/mcc.c: 67:     OSCTUNE = 0x00;
  1701   0012C6  0E00               	movlw	0
  1702   0012C8  6E9B               	movwf	155,c	;volatile
  1703                           
  1704                           ;mcc_generated_files/mcc.c: 69:     REFOCON = 0x00;
  1705   0012CA  0E00               	movlw	0
  1706   0012CC  6E9A               	movwf	154,c	;volatile
  1707   0012CE  0012               	return		;funcret
  1708   0012D0                     __end_of_OSCILLATOR_Initialize:
  1709                           	callstack 0
  1710                           
  1711 ;; *************** function _INTERRUPT_Initialize *****************
  1712 ;; Defined at:
  1713 ;;		line 52 in file "mcc_generated_files/interrupt_manager.c"
  1714 ;; Parameters:    Size  Location     Type
  1715 ;;		None
  1716 ;; Auto vars:     Size  Location     Type
  1717 ;;		None
  1718 ;; Return value:  Size  Location     Type
  1719 ;;                  1    wreg      void 
  1720 ;; Registers used:
  1721 ;;		None
  1722 ;; Tracked objects:
  1723 ;;		On entry : 0/0
  1724 ;;		On exit  : 0/0
  1725 ;;		Unchanged: 0/0
  1726 ;; Data sizes:     COMRAM   BANK0   BANK1   BANK2   BANK3   BANK4   BANK5   BANK6   BANK7   BANK8   BANK9  BANK10  BANK1
      +1  BANK12  BANK13  BANK14
  1727 ;;      Params:         0       0       0       0       0       0       0       0       0       0       0       0       
      +0       0       0       0
  1728 ;;      Locals:         0       0       0       0       0       0       0       0       0       0       0       0       
      +0       0       0       0
  1729 ;;      Temps:          0       0       0       0       0       0       0       0       0       0       0       0       
      +0       0       0       0
  1730 ;;      Totals:         0       0       0       0       0       0       0       0       0       0       0       0       
      +0       0       0       0
  1731 ;;Total ram usage:        0 bytes
  1732 ;; Hardware stack levels used: 1
  1733 ;; Hardware stack levels required when called: 7
  1734 ;; This function calls:
  1735 ;;		Nothing
  1736 ;; This function is called by:
  1737 ;;		_SYSTEM_Initialize
  1738 ;; This function uses a non-reentrant model
  1739 ;;
  1740                           
  1741                           	psect	text7
  1742   001322                     __ptext7:
  1743                           	callstack 0
  1744   001322                     _INTERRUPT_Initialize:
  1745                           	callstack 22
  1746   001322                     
  1747                           ;mcc_generated_files/interrupt_manager.c: 55:     RCONbits.IPEN = 0;
  1748   001322  9ED0               	bcf	208,7,c	;volatile
  1749   001324  0012               	return		;funcret
  1750   001326                     __end_of_INTERRUPT_Initialize:
  1751                           	callstack 0
  1752                           
  1753 ;; *************** function _EXT_INT_Initialize *****************
  1754 ;; Defined at:
  1755 ;;		line 141 in file "mcc_generated_files/ext_int.c"
  1756 ;; Parameters:    Size  Location     Type
  1757 ;;		None
  1758 ;; Auto vars:     Size  Location     Type
  1759 ;;		None
  1760 ;; Return value:  Size  Location     Type
  1761 ;;                  1    wreg      void 
  1762 ;; Registers used:
  1763 ;;		wreg, status,2, status,0, cstack
  1764 ;; Tracked objects:
  1765 ;;		On entry : 0/0
  1766 ;;		On exit  : 0/0
  1767 ;;		Unchanged: 0/0
  1768 ;; Data sizes:     COMRAM   BANK0   BANK1   BANK2   BANK3   BANK4   BANK5   BANK6   BANK7   BANK8   BANK9  BANK10  BANK1
      +1  BANK12  BANK13  BANK14
  1769 ;;      Params:         0       0       0       0       0       0       0       0       0       0       0       0       
      +0       0       0       0
  1770 ;;      Locals:         0       0       0       0       0       0       0       0       0       0       0       0       
      +0       0       0       0
  1771 ;;      Temps:          0       0       0       0       0       0       0       0       0       0       0       0       
      +0       0       0       0
  1772 ;;      Totals:         0       0       0       0       0       0       0       0       0       0       0       0       
      +0       0       0       0
  1773 ;;Total ram usage:        0 bytes
  1774 ;; Hardware stack levels used: 1
  1775 ;; Hardware stack levels required when called: 8
  1776 ;; This function calls:
  1777 ;;		_INT0_SetInterruptHandler
  1778 ;;		_INT1_SetInterruptHandler
  1779 ;;		_INT2_SetInterruptHandler
  1780 ;;		_INT3_SetInterruptHandler
  1781 ;; This function is called by:
  1782 ;;		_SYSTEM_Initialize
  1783 ;; This function uses a non-reentrant model
  1784 ;;
  1785                           
  1786                           	psect	text8
  1787   00108C                     __ptext8:
  1788                           	callstack 0
  1789   00108C                     _EXT_INT_Initialize:
  1790                           	callstack 21
  1791   00108C                     
  1792                           ;mcc_generated_files/ext_int.c: 146:     (INTCONbits.INT0IF = 0);
  1793   00108C  92F2               	bcf	242,1,c	;volatile
  1794                           
  1795                           ;mcc_generated_files/ext_int.c: 147:     (INTCON2bits.INTEDG0 = 1);
  1796   00108E  8CF1               	bsf	241,6,c	;volatile
  1797   001090                     
  1798                           ;mcc_generated_files/ext_int.c: 149:     INT0_SetInterruptHandler(INT0_DefaultInterruptH
      +                          andler);
  1799   001090  0E2C               	movlw	low _INT0_DefaultInterruptHandler
  1800   001092  6E1F               	movwf	INT0_SetInterruptHandler@InterruptHandler^0,c
  1801   001094  0E13               	movlw	high _INT0_DefaultInterruptHandler
  1802   001096  6E20               	movwf	(INT0_SetInterruptHandler@InterruptHandler+1)^0,c
  1803   001098  EC77  F009         	call	_INT0_SetInterruptHandler	;wreg free
  1804   00109C                     
  1805                           ;mcc_generated_files/ext_int.c: 150:     (INTCONbits.INT0IE = 1);
  1806   00109C  88F2               	bsf	242,4,c	;volatile
  1807   00109E                     
  1808                           ;mcc_generated_files/ext_int.c: 155:     (INTCON3bits.INT1IF = 0);
  1809   00109E  90F0               	bcf	240,0,c	;volatile
  1810   0010A0                     
  1811                           ;mcc_generated_files/ext_int.c: 156:     (INTCON2bits.INTEDG1 = 1);
  1812   0010A0  8AF1               	bsf	241,5,c	;volatile
  1813                           
  1814                           ;mcc_generated_files/ext_int.c: 158:     INT1_SetInterruptHandler(INT1_DefaultInterruptH
      +                          andler);
  1815   0010A2  0E2A               	movlw	low _INT1_DefaultInterruptHandler
  1816   0010A4  6E1F               	movwf	INT1_SetInterruptHandler@InterruptHandler^0,c
  1817   0010A6  0E13               	movlw	high _INT1_DefaultInterruptHandler
  1818   0010A8  6E20               	movwf	(INT1_SetInterruptHandler@InterruptHandler+1)^0,c
  1819   0010AA  EC72  F009         	call	_INT1_SetInterruptHandler	;wreg free
  1820   0010AE                     
  1821                           ;mcc_generated_files/ext_int.c: 159:     (INTCON3bits.INT1IE = 1);
  1822   0010AE  86F0               	bsf	240,3,c	;volatile
  1823   0010B0                     
  1824                           ;mcc_generated_files/ext_int.c: 164:     (INTCON3bits.INT2IF = 0);
  1825   0010B0  92F0               	bcf	240,1,c	;volatile
  1826   0010B2                     
  1827                           ;mcc_generated_files/ext_int.c: 165:     (INTCON2bits.INTEDG2 = 1);
  1828   0010B2  88F1               	bsf	241,4,c	;volatile
  1829                           
  1830                           ;mcc_generated_files/ext_int.c: 167:     INT2_SetInterruptHandler(INT2_DefaultInterruptH
      +                          andler);
  1831   0010B4  0E28               	movlw	low _INT2_DefaultInterruptHandler
  1832   0010B6  6E1F               	movwf	INT2_SetInterruptHandler@InterruptHandler^0,c
  1833   0010B8  0E13               	movlw	high _INT2_DefaultInterruptHandler
  1834   0010BA  6E20               	movwf	(INT2_SetInterruptHandler@InterruptHandler+1)^0,c
  1835   0010BC  EC6D  F009         	call	_INT2_SetInterruptHandler	;wreg free
  1836   0010C0                     
  1837                           ;mcc_generated_files/ext_int.c: 168:     (INTCON3bits.INT2IE = 1);
  1838   0010C0  88F0               	bsf	240,4,c	;volatile
  1839   0010C2                     
  1840                           ;mcc_generated_files/ext_int.c: 173:     (INTCON3bits.INT3IF = 0);
  1841   0010C2  94F0               	bcf	240,2,c	;volatile
  1842   0010C4                     
  1843                           ;mcc_generated_files/ext_int.c: 174:     (INTCON2bits.INTEDG3 = 1);
  1844   0010C4  86F1               	bsf	241,3,c	;volatile
  1845                           
  1846                           ;mcc_generated_files/ext_int.c: 176:     INT3_SetInterruptHandler(INT3_DefaultInterruptH
      +                          andler);
  1847   0010C6  0E26               	movlw	low _INT3_DefaultInterruptHandler
  1848   0010C8  6E1F               	movwf	INT3_SetInterruptHandler@InterruptHandler^0,c
  1849   0010CA  0E13               	movlw	high _INT3_DefaultInterruptHandler
  1850   0010CC  6E20               	movwf	(INT3_SetInterruptHandler@InterruptHandler+1)^0,c
  1851   0010CE  EC68  F009         	call	_INT3_SetInterruptHandler	;wreg free
  1852   0010D2                     
  1853                           ;mcc_generated_files/ext_int.c: 177:     (INTCON3bits.INT3IE = 1);
  1854   0010D2  8AF0               	bsf	240,5,c	;volatile
  1855   0010D4  0012               	return		;funcret
  1856   0010D6                     __end_of_EXT_INT_Initialize:
  1857                           	callstack 0
  1858                           
  1859 ;; *************** function _INT3_SetInterruptHandler *****************
  1860 ;; Defined at:
  1861 ;;		line 133 in file "mcc_generated_files/ext_int.c"
  1862 ;; Parameters:    Size  Location     Type
  1863 ;;  InterruptHan    2   30[COMRAM] PTR FTN()void 
  1864 ;;		 -> Pin3_ISR(1), INT3_DefaultInterruptHandler(1), 
  1865 ;; Auto vars:     Size  Location     Type
  1866 ;;		None
  1867 ;; Return value:  Size  Location     Type
  1868 ;;                  1    wreg      void 
  1869 ;; Registers used:
  1870 ;;		wreg, status,2, status,0
  1871 ;; Tracked objects:
  1872 ;;		On entry : 0/0
  1873 ;;		On exit  : 0/0
  1874 ;;		Unchanged: 0/0
  1875 ;; Data sizes:     COMRAM   BANK0   BANK1   BANK2   BANK3   BANK4   BANK5   BANK6   BANK7   BANK8   BANK9  BANK10  BANK1
      +1  BANK12  BANK13  BANK14
  1876 ;;      Params:         2       0       0       0       0       0       0       0       0       0       0       0       
      +0       0       0       0
  1877 ;;      Locals:         0       0       0       0       0       0       0       0       0       0       0       0       
      +0       0       0       0
  1878 ;;      Temps:          0       0       0       0       0       0       0       0       0       0       0       0       
      +0       0       0       0
  1879 ;;      Totals:         2       0       0       0       0       0       0       0       0       0       0       0       
      +0       0       0       0
  1880 ;;Total ram usage:        2 bytes
  1881 ;; Hardware stack levels used: 1
  1882 ;; Hardware stack levels required when called: 7
  1883 ;; This function calls:
  1884 ;;		Nothing
  1885 ;; This function is called by:
  1886 ;;		_EXT_INT_Initialize
  1887 ;;		_main
  1888 ;; This function uses a non-reentrant model
  1889 ;;
  1890                           
  1891                           	psect	text9
  1892   0012D0                     __ptext9:
  1893                           	callstack 0
  1894   0012D0                     _INT3_SetInterruptHandler:
  1895                           	callstack 21
  1896   0012D0                     
  1897                           ;mcc_generated_files/ext_int.c: 134:     INT3_InterruptHandler = InterruptHandler;
  1898   0012D0  C01F  F039         	movff	INT3_SetInterruptHandler@InterruptHandler,_INT3_InterruptHandler
  1899   0012D4  C020  F03A         	movff	INT3_SetInterruptHandler@InterruptHandler+1,_INT3_InterruptHandler+1
  1900   0012D8  0012               	return		;funcret
  1901   0012DA                     __end_of_INT3_SetInterruptHandler:
  1902                           	callstack 0
  1903                           
  1904 ;; *************** function _INT2_SetInterruptHandler *****************
  1905 ;; Defined at:
  1906 ;;		line 107 in file "mcc_generated_files/ext_int.c"
  1907 ;; Parameters:    Size  Location     Type
  1908 ;;  InterruptHan    2   30[COMRAM] PTR FTN()void 
  1909 ;;		 -> INT2_DefaultInterruptHandler(1), 
  1910 ;; Auto vars:     Size  Location     Type
  1911 ;;		None
  1912 ;; Return value:  Size  Location     Type
  1913 ;;                  1    wreg      void 
  1914 ;; Registers used:
  1915 ;;		wreg, status,2, status,0
  1916 ;; Tracked objects:
  1917 ;;		On entry : 0/0
  1918 ;;		On exit  : 0/0
  1919 ;;		Unchanged: 0/0
  1920 ;; Data sizes:     COMRAM   BANK0   BANK1   BANK2   BANK3   BANK4   BANK5   BANK6   BANK7   BANK8   BANK9  BANK10  BANK1
      +1  BANK12  BANK13  BANK14
  1921 ;;      Params:         2       0       0       0       0       0       0       0       0       0       0       0       
      +0       0       0       0
  1922 ;;      Locals:         0       0       0       0       0       0       0       0       0       0       0       0       
      +0       0       0       0
  1923 ;;      Temps:          0       0       0       0       0       0       0       0       0       0       0       0       
      +0       0       0       0
  1924 ;;      Totals:         2       0       0       0       0       0       0       0       0       0       0       0       
      +0       0       0       0
  1925 ;;Total ram usage:        2 bytes
  1926 ;; Hardware stack levels used: 1
  1927 ;; Hardware stack levels required when called: 7
  1928 ;; This function calls:
  1929 ;;		Nothing
  1930 ;; This function is called by:
  1931 ;;		_EXT_INT_Initialize
  1932 ;; This function uses a non-reentrant model
  1933 ;;
  1934                           
  1935                           	psect	text10
  1936   0012DA                     __ptext10:
  1937                           	callstack 0
  1938   0012DA                     _INT2_SetInterruptHandler:
  1939                           	callstack 21
  1940   0012DA                     
  1941                           ;mcc_generated_files/ext_int.c: 108:     INT2_InterruptHandler = InterruptHandler;
  1942   0012DA  C01F  F03B         	movff	INT2_SetInterruptHandler@InterruptHandler,_INT2_InterruptHandler
  1943   0012DE  C020  F03C         	movff	INT2_SetInterruptHandler@InterruptHandler+1,_INT2_InterruptHandler+1
  1944   0012E2  0012               	return		;funcret
  1945   0012E4                     __end_of_INT2_SetInterruptHandler:
  1946                           	callstack 0
  1947                           
  1948 ;; *************** function _INT1_SetInterruptHandler *****************
  1949 ;; Defined at:
  1950 ;;		line 81 in file "mcc_generated_files/ext_int.c"
  1951 ;; Parameters:    Size  Location     Type
  1952 ;;  InterruptHan    2   30[COMRAM] PTR FTN()void 
  1953 ;;		 -> INT1_DefaultInterruptHandler(1), 
  1954 ;; Auto vars:     Size  Location     Type
  1955 ;;		None
  1956 ;; Return value:  Size  Location     Type
  1957 ;;                  1    wreg      void 
  1958 ;; Registers used:
  1959 ;;		wreg, status,2, status,0
  1960 ;; Tracked objects:
  1961 ;;		On entry : 0/0
  1962 ;;		On exit  : 0/0
  1963 ;;		Unchanged: 0/0
  1964 ;; Data sizes:     COMRAM   BANK0   BANK1   BANK2   BANK3   BANK4   BANK5   BANK6   BANK7   BANK8   BANK9  BANK10  BANK1
      +1  BANK12  BANK13  BANK14
  1965 ;;      Params:         2       0       0       0       0       0       0       0       0       0       0       0       
      +0       0       0       0
  1966 ;;      Locals:         0       0       0       0       0       0       0       0       0       0       0       0       
      +0       0       0       0
  1967 ;;      Temps:          0       0       0       0       0       0       0       0       0       0       0       0       
      +0       0       0       0
  1968 ;;      Totals:         2       0       0       0       0       0       0       0       0       0       0       0       
      +0       0       0       0
  1969 ;;Total ram usage:        2 bytes
  1970 ;; Hardware stack levels used: 1
  1971 ;; Hardware stack levels required when called: 7
  1972 ;; This function calls:
  1973 ;;		Nothing
  1974 ;; This function is called by:
  1975 ;;		_EXT_INT_Initialize
  1976 ;; This function uses a non-reentrant model
  1977 ;;
  1978                           
  1979                           	psect	text11
  1980   0012E4                     __ptext11:
  1981                           	callstack 0
  1982   0012E4                     _INT1_SetInterruptHandler:
  1983                           	callstack 21
  1984   0012E4                     
  1985                           ;mcc_generated_files/ext_int.c: 82:     INT1_InterruptHandler = InterruptHandler;
  1986   0012E4  C01F  F03D         	movff	INT1_SetInterruptHandler@InterruptHandler,_INT1_InterruptHandler
  1987   0012E8  C020  F03E         	movff	INT1_SetInterruptHandler@InterruptHandler+1,_INT1_InterruptHandler+1
  1988   0012EC  0012               	return		;funcret
  1989   0012EE                     __end_of_INT1_SetInterruptHandler:
  1990                           	callstack 0
  1991                           
  1992 ;; *************** function _INT0_SetInterruptHandler *****************
  1993 ;; Defined at:
  1994 ;;		line 55 in file "mcc_generated_files/ext_int.c"
  1995 ;; Parameters:    Size  Location     Type
  1996 ;;  InterruptHan    2   30[COMRAM] PTR FTN()void 
  1997 ;;		 -> INT0_DefaultInterruptHandler(1), 
  1998 ;; Auto vars:     Size  Location     Type
  1999 ;;		None
  2000 ;; Return value:  Size  Location     Type
  2001 ;;                  1    wreg      void 
  2002 ;; Registers used:
  2003 ;;		wreg, status,2, status,0
  2004 ;; Tracked objects:
  2005 ;;		On entry : 0/0
  2006 ;;		On exit  : 0/0
  2007 ;;		Unchanged: 0/0
  2008 ;; Data sizes:     COMRAM   BANK0   BANK1   BANK2   BANK3   BANK4   BANK5   BANK6   BANK7   BANK8   BANK9  BANK10  BANK1
      +1  BANK12  BANK13  BANK14
  2009 ;;      Params:         2       0       0       0       0       0       0       0       0       0       0       0       
      +0       0       0       0
  2010 ;;      Locals:         0       0       0       0       0       0       0       0       0       0       0       0       
      +0       0       0       0
  2011 ;;      Temps:          0       0       0       0       0       0       0       0       0       0       0       0       
      +0       0       0       0
  2012 ;;      Totals:         2       0       0       0       0       0       0       0       0       0       0       0       
      +0       0       0       0
  2013 ;;Total ram usage:        2 bytes
  2014 ;; Hardware stack levels used: 1
  2015 ;; Hardware stack levels required when called: 7
  2016 ;; This function calls:
  2017 ;;		Nothing
  2018 ;; This function is called by:
  2019 ;;		_EXT_INT_Initialize
  2020 ;; This function uses a non-reentrant model
  2021 ;;
  2022                           
  2023                           	psect	text12
  2024   0012EE                     __ptext12:
  2025                           	callstack 0
  2026   0012EE                     _INT0_SetInterruptHandler:
  2027                           	callstack 21
  2028   0012EE                     
  2029                           ;mcc_generated_files/ext_int.c: 56:     INT0_InterruptHandler = InterruptHandler;
  2030   0012EE  C01F  F03F         	movff	INT0_SetInterruptHandler@InterruptHandler,_INT0_InterruptHandler
  2031   0012F2  C020  F040         	movff	INT0_SetInterruptHandler@InterruptHandler+1,_INT0_InterruptHandler+1
  2032   0012F6  0012               	return		;funcret
  2033   0012F8                     __end_of_INT0_SetInterruptHandler:
  2034                           	callstack 0
  2035                           
  2036 ;; *************** function _ECAN_Initialize *****************
  2037 ;; Defined at:
  2038 ;;		line 65 in file "mcc_generated_files/ecan.c"
  2039 ;; Parameters:    Size  Location     Type
  2040 ;;		None
  2041 ;; Auto vars:     Size  Location     Type
  2042 ;;		None
  2043 ;; Return value:  Size  Location     Type
  2044 ;;                  1    wreg      void 
  2045 ;; Registers used:
  2046 ;;		wreg, status,2, status,0, cstack
  2047 ;; Tracked objects:
  2048 ;;		On entry : 0/0
  2049 ;;		On exit  : 0/0
  2050 ;;		Unchanged: 0/0
  2051 ;; Data sizes:     COMRAM   BANK0   BANK1   BANK2   BANK3   BANK4   BANK5   BANK6   BANK7   BANK8   BANK9  BANK10  BANK1
      +1  BANK12  BANK13  BANK14
  2052 ;;      Params:         0       0       0       0       0       0       0       0       0       0       0       0       
      +0       0       0       0
  2053 ;;      Locals:         0       0       0       0       0       0       0       0       0       0       0       0       
      +0       0       0       0
  2054 ;;      Temps:          1       0       0       0       0       0       0       0       0       0       0       0       
      +0       0       0       0
  2055 ;;      Totals:         1       0       0       0       0       0       0       0       0       0       0       0       
      +0       0       0       0
  2056 ;;Total ram usage:        1 bytes
  2057 ;; Hardware stack levels used: 1
  2058 ;; Hardware stack levels required when called: 8
  2059 ;; This function calls:
  2060 ;;		_ECAN_SetWakeUpInterruptHandler
  2061 ;; This function is called by:
  2062 ;;		_SYSTEM_Initialize
  2063 ;; This function uses a non-reentrant model
  2064 ;;
  2065                           
  2066                           	psect	text13
  2067   000992                     __ptext13:
  2068                           	callstack 0
  2069   000992                     _ECAN_Initialize:
  2070                           	callstack 21
  2071   000992                     
  2072                           ;mcc_generated_files/ecan.c: 67:     CANCON = 0x80;
  2073   000992  0E80               	movlw	128
  2074   000994  6E6F               	movwf	111,c	;volatile
  2075   000996                     l2173:
  2076   000996  506E               	movf	110,w,c	;volatile
  2077   000998  0BE0               	andlw	224
  2078   00099A  0A80               	xorlw	128
  2079   00099C  A4D8               	btfss	status,2,c
  2080   00099E  EFD3  F004         	goto	u611
  2081   0009A2  EFD5  F004         	goto	u610
  2082   0009A6                     u611:
  2083   0009A6  EFCB  F004         	goto	l2173
  2084   0009AA                     u610:
  2085   0009AA                     
  2086                           ;mcc_generated_files/ecan.c: 73:     ECANCON = 0x40;
  2087   0009AA  0E40               	movlw	64
  2088   0009AC  6E72               	movwf	114,c	;volatile
  2089                           
  2090                           ;mcc_generated_files/ecan.c: 78:     CIOCON = 0x20;
  2091   0009AE  0E20               	movlw	32
  2092   0009B0  6E70               	movwf	112,c	;volatile
  2093                           
  2094                           ;mcc_generated_files/ecan.c: 92:     BSEL0 = 0x00;
  2095   0009B2  0E00               	movlw	0
  2096   0009B4  010E               	movlb	14	; () banked
  2097   0009B6  6F7D               	movwf	125,b	;volatile
  2098   0009B8                     
  2099                           ; BSR set to: 14
  2100                           ;mcc_generated_files/ecan.c: 97:     RXM0EIDH = 0xFF;
  2101   0009B8  69FA               	setf	250,b	;volatile
  2102   0009BA                     
  2103                           ; BSR set to: 14
  2104                           ;mcc_generated_files/ecan.c: 98:     RXM0EIDL = 0xFF;
  2105   0009BA  69FB               	setf	251,b	;volatile
  2106   0009BC                     
  2107                           ; BSR set to: 14
  2108                           ;mcc_generated_files/ecan.c: 99:     RXM0SIDH = 0xFF;
  2109   0009BC  69F8               	setf	248,b	;volatile
  2110                           
  2111                           ;mcc_generated_files/ecan.c: 100:     RXM0SIDL = 0xE3;
  2112   0009BE  0EE3               	movlw	227
  2113   0009C0  6FF9               	movwf	249,b	;volatile
  2114   0009C2                     
  2115                           ; BSR set to: 14
  2116                           ;mcc_generated_files/ecan.c: 101:     RXM1EIDH = 0xFF;
  2117   0009C2  69FE               	setf	254,b	;volatile
  2118   0009C4                     
  2119                           ; BSR set to: 14
  2120                           ;mcc_generated_files/ecan.c: 102:     RXM1EIDL = 0xFF;
  2121   0009C4  69FF               	setf	255,b	;volatile
  2122   0009C6                     
  2123                           ; BSR set to: 14
  2124                           ;mcc_generated_files/ecan.c: 103:     RXM1SIDH = 0xFF;
  2125   0009C6  69FC               	setf	252,b	;volatile
  2126                           
  2127                           ;mcc_generated_files/ecan.c: 104:     RXM1SIDL = 0xE3;
  2128   0009C8  0EE3               	movlw	227
  2129   0009CA  6FFD               	movwf	253,b	;volatile
  2130                           
  2131                           ;mcc_generated_files/ecan.c: 109:     RXFCON0 = 0x01;
  2132   0009CC  0E01               	movlw	1
  2133   0009CE  6F46               	movwf	70,b	;volatile
  2134                           
  2135                           ;mcc_generated_files/ecan.c: 110:     RXFCON1 = 0x00;
  2136   0009D0  0E00               	movlw	0
  2137   0009D2  6F47               	movwf	71,b	;volatile
  2138                           
  2139                           ;mcc_generated_files/ecan.c: 114:     MSEL0 = 0x00;
  2140   0009D4  0E00               	movlw	0
  2141   0009D6  6F79               	movwf	121,b	;volatile
  2142                           
  2143                           ;mcc_generated_files/ecan.c: 115:     MSEL1 = 0x00;
  2144   0009D8  0E00               	movlw	0
  2145   0009DA  6F7A               	movwf	122,b	;volatile
  2146                           
  2147                           ;mcc_generated_files/ecan.c: 116:     MSEL2 = 0x00;
  2148   0009DC  0E00               	movlw	0
  2149   0009DE  6F7B               	movwf	123,b	;volatile
  2150                           
  2151                           ;mcc_generated_files/ecan.c: 117:     MSEL3 = 0x00;
  2152   0009E0  0E00               	movlw	0
  2153   0009E2  6F7C               	movwf	124,b	;volatile
  2154                           
  2155                           ;mcc_generated_files/ecan.c: 122:     RXFBCON0 = 0x00;
  2156   0009E4  0E00               	movlw	0
  2157   0009E6  6F71               	movwf	113,b	;volatile
  2158                           
  2159                           ;mcc_generated_files/ecan.c: 123:     RXFBCON1 = 0x00;
  2160   0009E8  0E00               	movlw	0
  2161   0009EA  6F72               	movwf	114,b	;volatile
  2162                           
  2163                           ;mcc_generated_files/ecan.c: 124:     RXFBCON2 = 0x00;
  2164   0009EC  0E00               	movlw	0
  2165   0009EE  6F73               	movwf	115,b	;volatile
  2166                           
  2167                           ;mcc_generated_files/ecan.c: 125:     RXFBCON3 = 0x00;
  2168   0009F0  0E00               	movlw	0
  2169   0009F2  6F74               	movwf	116,b	;volatile
  2170                           
  2171                           ;mcc_generated_files/ecan.c: 126:     RXFBCON4 = 0x00;
  2172   0009F4  0E00               	movlw	0
  2173   0009F6  6F75               	movwf	117,b	;volatile
  2174                           
  2175                           ;mcc_generated_files/ecan.c: 127:     RXFBCON5 = 0x00;
  2176   0009F8  0E00               	movlw	0
  2177   0009FA  6F76               	movwf	118,b	;volatile
  2178                           
  2179                           ;mcc_generated_files/ecan.c: 128:     RXFBCON6 = 0x00;
  2180   0009FC  0E00               	movlw	0
  2181   0009FE  6F77               	movwf	119,b	;volatile
  2182                           
  2183                           ;mcc_generated_files/ecan.c: 129:     RXFBCON7 = 0x00;
  2184   000A00  0E00               	movlw	0
  2185   000A02  6F78               	movwf	120,b	;volatile
  2186                           
  2187                           ;mcc_generated_files/ecan.c: 134:     RXF0EIDH = 0x00;
  2188   000A04  0E00               	movlw	0
  2189   000A06  6FE2               	movwf	226,b	;volatile
  2190                           
  2191                           ;mcc_generated_files/ecan.c: 135:     RXF0EIDL = 0x00;
  2192   000A08  0E00               	movlw	0
  2193   000A0A  6FE3               	movwf	227,b	;volatile
  2194                           
  2195                           ;mcc_generated_files/ecan.c: 136:     RXF0SIDH = 0x02;
  2196   000A0C  0E02               	movlw	2
  2197   000A0E  6FE0               	movwf	224,b	;volatile
  2198                           
  2199                           ;mcc_generated_files/ecan.c: 137:     RXF0SIDL = 0xE0;
  2200   000A10  0EE0               	movlw	224
  2201   000A12  6FE1               	movwf	225,b	;volatile
  2202                           
  2203                           ;mcc_generated_files/ecan.c: 138:     RXF1EIDH = 0x00;
  2204   000A14  0E00               	movlw	0
  2205   000A16  6FE6               	movwf	230,b	;volatile
  2206                           
  2207                           ;mcc_generated_files/ecan.c: 139:     RXF1EIDL = 0x00;
  2208   000A18  0E00               	movlw	0
  2209   000A1A  6FE7               	movwf	231,b	;volatile
  2210                           
  2211                           ;mcc_generated_files/ecan.c: 140:     RXF1SIDH = 0x00;
  2212   000A1C  0E00               	movlw	0
  2213   000A1E  6FE4               	movwf	228,b	;volatile
  2214                           
  2215                           ;mcc_generated_files/ecan.c: 141:     RXF1SIDL = 0x00;
  2216   000A20  0E00               	movlw	0
  2217   000A22  6FE5               	movwf	229,b	;volatile
  2218                           
  2219                           ;mcc_generated_files/ecan.c: 142:     RXF2EIDH = 0x00;
  2220   000A24  0E00               	movlw	0
  2221   000A26  6FEA               	movwf	234,b	;volatile
  2222                           
  2223                           ;mcc_generated_files/ecan.c: 143:     RXF2EIDL = 0x00;
  2224   000A28  0E00               	movlw	0
  2225   000A2A  6FEB               	movwf	235,b	;volatile
  2226                           
  2227                           ;mcc_generated_files/ecan.c: 144:     RXF2SIDH = 0x00;
  2228   000A2C  0E00               	movlw	0
  2229   000A2E  6FE8               	movwf	232,b	;volatile
  2230                           
  2231                           ;mcc_generated_files/ecan.c: 145:     RXF2SIDL = 0x00;
  2232   000A30  0E00               	movlw	0
  2233   000A32  6FE9               	movwf	233,b	;volatile
  2234                           
  2235                           ;mcc_generated_files/ecan.c: 146:     RXF3EIDH = 0x00;
  2236   000A34  0E00               	movlw	0
  2237   000A36  6FEE               	movwf	238,b	;volatile
  2238                           
  2239                           ;mcc_generated_files/ecan.c: 147:     RXF3EIDL = 0x00;
  2240   000A38  0E00               	movlw	0
  2241   000A3A  6FEF               	movwf	239,b	;volatile
  2242                           
  2243                           ;mcc_generated_files/ecan.c: 148:     RXF3SIDH = 0x00;
  2244   000A3C  0E00               	movlw	0
  2245   000A3E  6FEC               	movwf	236,b	;volatile
  2246                           
  2247                           ;mcc_generated_files/ecan.c: 149:     RXF3SIDL = 0x00;
  2248   000A40  0E00               	movlw	0
  2249   000A42  6FED               	movwf	237,b	;volatile
  2250                           
  2251                           ;mcc_generated_files/ecan.c: 150:     RXF4EIDH = 0x00;
  2252   000A44  0E00               	movlw	0
  2253   000A46  6FF2               	movwf	242,b	;volatile
  2254                           
  2255                           ;mcc_generated_files/ecan.c: 151:     RXF4EIDL = 0x00;
  2256   000A48  0E00               	movlw	0
  2257   000A4A  6FF3               	movwf	243,b	;volatile
  2258                           
  2259                           ;mcc_generated_files/ecan.c: 152:     RXF4SIDH = 0x00;
  2260   000A4C  0E00               	movlw	0
  2261   000A4E  6FF0               	movwf	240,b	;volatile
  2262                           
  2263                           ;mcc_generated_files/ecan.c: 153:     RXF4SIDL = 0x00;
  2264   000A50  0E00               	movlw	0
  2265   000A52  6FF1               	movwf	241,b	;volatile
  2266                           
  2267                           ;mcc_generated_files/ecan.c: 154:     RXF5EIDH = 0x00;
  2268   000A54  0E00               	movlw	0
  2269   000A56  6FF6               	movwf	246,b	;volatile
  2270                           
  2271                           ;mcc_generated_files/ecan.c: 155:     RXF5EIDL = 0x00;
  2272   000A58  0E00               	movlw	0
  2273   000A5A  6FF7               	movwf	247,b	;volatile
  2274                           
  2275                           ;mcc_generated_files/ecan.c: 156:     RXF5SIDH = 0x00;
  2276   000A5C  0E00               	movlw	0
  2277   000A5E  6FF4               	movwf	244,b	;volatile
  2278                           
  2279                           ;mcc_generated_files/ecan.c: 157:     RXF5SIDL = 0x00;
  2280   000A60  0E00               	movlw	0
  2281   000A62  6FF5               	movwf	245,b	;volatile
  2282                           
  2283                           ;mcc_generated_files/ecan.c: 159:     RXF6EIDH = 0x00;
  2284   000A64  0E00               	movlw	0
  2285   000A66  6F4A               	movwf	74,b	;volatile
  2286                           
  2287                           ;mcc_generated_files/ecan.c: 160:     RXF6EIDL = 0x00;
  2288   000A68  0E00               	movlw	0
  2289   000A6A  6F4B               	movwf	75,b	;volatile
  2290                           
  2291                           ;mcc_generated_files/ecan.c: 161:     RXF6SIDH = 0x00;
  2292   000A6C  0E00               	movlw	0
  2293   000A6E  6F48               	movwf	72,b	;volatile
  2294                           
  2295                           ;mcc_generated_files/ecan.c: 162:     RXF6SIDL = 0x00;
  2296   000A70  0E00               	movlw	0
  2297   000A72  6F49               	movwf	73,b	;volatile
  2298                           
  2299                           ;mcc_generated_files/ecan.c: 163:     RXF7EIDH = 0x00;
  2300   000A74  0E00               	movlw	0
  2301   000A76  6F4E               	movwf	78,b	;volatile
  2302                           
  2303                           ;mcc_generated_files/ecan.c: 164:     RXF7EIDL = 0x00;
  2304   000A78  0E00               	movlw	0
  2305   000A7A  6F4F               	movwf	79,b	;volatile
  2306                           
  2307                           ;mcc_generated_files/ecan.c: 165:     RXF7SIDH = 0x00;
  2308   000A7C  0E00               	movlw	0
  2309   000A7E  6F4C               	movwf	76,b	;volatile
  2310                           
  2311                           ;mcc_generated_files/ecan.c: 166:     RXF7SIDL = 0x00;
  2312   000A80  0E00               	movlw	0
  2313   000A82  6F4D               	movwf	77,b	;volatile
  2314                           
  2315                           ;mcc_generated_files/ecan.c: 167:     RXF8EIDH = 0x00;
  2316   000A84  0E00               	movlw	0
  2317   000A86  6F52               	movwf	82,b	;volatile
  2318                           
  2319                           ;mcc_generated_files/ecan.c: 168:     RXF8EIDL = 0x00;
  2320   000A88  0E00               	movlw	0
  2321   000A8A  6F53               	movwf	83,b	;volatile
  2322                           
  2323                           ;mcc_generated_files/ecan.c: 169:     RXF8SIDH = 0x00;
  2324   000A8C  0E00               	movlw	0
  2325   000A8E  6F50               	movwf	80,b	;volatile
  2326                           
  2327                           ;mcc_generated_files/ecan.c: 170:     RXF8SIDL = 0x00;
  2328   000A90  0E00               	movlw	0
  2329   000A92  6F51               	movwf	81,b	;volatile
  2330                           
  2331                           ;mcc_generated_files/ecan.c: 171:     RXF9EIDH = 0x00;
  2332   000A94  0E00               	movlw	0
  2333   000A96  6F56               	movwf	86,b	;volatile
  2334                           
  2335                           ;mcc_generated_files/ecan.c: 172:     RXF9EIDL = 0x00;
  2336   000A98  0E00               	movlw	0
  2337   000A9A  6F57               	movwf	87,b	;volatile
  2338                           
  2339                           ;mcc_generated_files/ecan.c: 173:     RXF9SIDH = 0x00;
  2340   000A9C  0E00               	movlw	0
  2341   000A9E  6F54               	movwf	84,b	;volatile
  2342                           
  2343                           ;mcc_generated_files/ecan.c: 174:     RXF9SIDL = 0x00;
  2344   000AA0  0E00               	movlw	0
  2345   000AA2  6F55               	movwf	85,b	;volatile
  2346                           
  2347                           ;mcc_generated_files/ecan.c: 175:     RXF10EIDH = 0x00;
  2348   000AA4  0E00               	movlw	0
  2349   000AA6  6F5A               	movwf	90,b	;volatile
  2350                           
  2351                           ;mcc_generated_files/ecan.c: 176:     RXF10EIDL = 0x00;
  2352   000AA8  0E00               	movlw	0
  2353   000AAA  6F5B               	movwf	91,b	;volatile
  2354                           
  2355                           ;mcc_generated_files/ecan.c: 177:     RXF10SIDH = 0x00;
  2356   000AAC  0E00               	movlw	0
  2357   000AAE  6F58               	movwf	88,b	;volatile
  2358                           
  2359                           ;mcc_generated_files/ecan.c: 178:     RXF10SIDL = 0x00;
  2360   000AB0  0E00               	movlw	0
  2361   000AB2  6F59               	movwf	89,b	;volatile
  2362                           
  2363                           ;mcc_generated_files/ecan.c: 179:     RXF11EIDH = 0x00;
  2364   000AB4  0E00               	movlw	0
  2365   000AB6  6F5E               	movwf	94,b	;volatile
  2366                           
  2367                           ;mcc_generated_files/ecan.c: 180:     RXF11EIDL = 0x00;
  2368   000AB8  0E00               	movlw	0
  2369   000ABA  6F5F               	movwf	95,b	;volatile
  2370                           
  2371                           ;mcc_generated_files/ecan.c: 181:     RXF11SIDH = 0x00;
  2372   000ABC  0E00               	movlw	0
  2373   000ABE  6F5C               	movwf	92,b	;volatile
  2374                           
  2375                           ;mcc_generated_files/ecan.c: 182:     RXF11SIDL = 0x00;
  2376   000AC0  0E00               	movlw	0
  2377   000AC2  6F5D               	movwf	93,b	;volatile
  2378                           
  2379                           ;mcc_generated_files/ecan.c: 183:     RXF12EIDH = 0x00;
  2380   000AC4  0E00               	movlw	0
  2381   000AC6  6F62               	movwf	98,b	;volatile
  2382                           
  2383                           ;mcc_generated_files/ecan.c: 184:     RXF12EIDL = 0x00;
  2384   000AC8  0E00               	movlw	0
  2385   000ACA  6F63               	movwf	99,b	;volatile
  2386                           
  2387                           ;mcc_generated_files/ecan.c: 185:     RXF12SIDH = 0x00;
  2388   000ACC  0E00               	movlw	0
  2389   000ACE  6F60               	movwf	96,b	;volatile
  2390                           
  2391                           ;mcc_generated_files/ecan.c: 186:     RXF12SIDL = 0x00;
  2392   000AD0  0E00               	movlw	0
  2393   000AD2  6F61               	movwf	97,b	;volatile
  2394                           
  2395                           ;mcc_generated_files/ecan.c: 187:     RXF13EIDH = 0x00;
  2396   000AD4  0E00               	movlw	0
  2397   000AD6  6F66               	movwf	102,b	;volatile
  2398                           
  2399                           ;mcc_generated_files/ecan.c: 188:     RXF13EIDL = 0x00;
  2400   000AD8  0E00               	movlw	0
  2401   000ADA  6F67               	movwf	103,b	;volatile
  2402                           
  2403                           ;mcc_generated_files/ecan.c: 189:     RXF13SIDH = 0x00;
  2404   000ADC  0E00               	movlw	0
  2405   000ADE  6F64               	movwf	100,b	;volatile
  2406                           
  2407                           ;mcc_generated_files/ecan.c: 190:     RXF13SIDL = 0x00;
  2408   000AE0  0E00               	movlw	0
  2409   000AE2  6F65               	movwf	101,b	;volatile
  2410                           
  2411                           ;mcc_generated_files/ecan.c: 191:     RXF14EIDH = 0x00;
  2412   000AE4  0E00               	movlw	0
  2413   000AE6  6F6A               	movwf	106,b	;volatile
  2414                           
  2415                           ;mcc_generated_files/ecan.c: 192:     RXF14EIDL = 0x00;
  2416   000AE8  0E00               	movlw	0
  2417   000AEA  6F6B               	movwf	107,b	;volatile
  2418                           
  2419                           ;mcc_generated_files/ecan.c: 193:     RXF14SIDH = 0x00;
  2420   000AEC  0E00               	movlw	0
  2421   000AEE  6F68               	movwf	104,b	;volatile
  2422                           
  2423                           ;mcc_generated_files/ecan.c: 194:     RXF14SIDL = 0x00;
  2424   000AF0  0E00               	movlw	0
  2425   000AF2  6F69               	movwf	105,b	;volatile
  2426   000AF4                     
  2427                           ; BSR set to: 14
  2428                           ;mcc_generated_files/ecan.c: 195:     RXF15EIDH = 0xFF;
  2429   000AF4  696E               	setf	110,b	;volatile
  2430   000AF6                     
  2431                           ; BSR set to: 14
  2432                           ;mcc_generated_files/ecan.c: 196:     RXF15EIDL = 0xFF;
  2433   000AF6  696F               	setf	111,b	;volatile
  2434   000AF8                     
  2435                           ; BSR set to: 14
  2436                           ;mcc_generated_files/ecan.c: 197:     RXF15SIDH = 0xFF;
  2437   000AF8  696C               	setf	108,b	;volatile
  2438                           
  2439                           ;mcc_generated_files/ecan.c: 198:     RXF15SIDL = 0xE3;
  2440   000AFA  0EE3               	movlw	227
  2441   000AFC  6F6D               	movwf	109,b	;volatile
  2442                           
  2443                           ;mcc_generated_files/ecan.c: 213:     BRGCON1 = 0x01;
  2444   000AFE  0E01               	movlw	1
  2445   000B00  6F43               	movwf	67,b	;volatile
  2446                           
  2447                           ;mcc_generated_files/ecan.c: 214:     BRGCON2 = 0xA8;
  2448   000B02  0EA8               	movlw	168
  2449   000B04  6F44               	movwf	68,b	;volatile
  2450                           
  2451                           ;mcc_generated_files/ecan.c: 215:     BRGCON3 = 0x01;
  2452   000B06  0E01               	movlw	1
  2453   000B08  6F45               	movwf	69,b	;volatile
  2454   000B0A                     
  2455                           ; BSR set to: 14
  2456                           ;mcc_generated_files/ecan.c: 217:     ECAN_SetWakeUpInterruptHandler(WakeUpDefaultInterr
      +                          uptHandler);
  2457   000B0A  0E2E               	movlw	low _WakeUpDefaultInterruptHandler
  2458   000B0C  6E1F               	movwf	ECAN_SetWakeUpInterruptHandler@handler^0,c
  2459   000B0E  0E13               	movlw	high _WakeUpDefaultInterruptHandler
  2460   000B10  6E20               	movwf	(ECAN_SetWakeUpInterruptHandler@handler+1)^0,c
  2461   000B12  EC7C  F009         	call	_ECAN_SetWakeUpInterruptHandler	;wreg free
  2462   000B16                     
  2463                           ;mcc_generated_files/ecan.c: 218:     PIR5bits.WAKIF = 0;
  2464   000B16  9C77               	bcf	119,6,c	;volatile
  2465   000B18                     
  2466                           ;mcc_generated_files/ecan.c: 219:     PIE5bits.WAKIE = 1;
  2467   000B18  8C76               	bsf	118,6,c	;volatile
  2468   000B1A                     
  2469                           ;mcc_generated_files/ecan.c: 221:     CANCON = 0x00;
  2470   000B1A  0E00               	movlw	0
  2471   000B1C  6E6F               	movwf	111,c	;volatile
  2472   000B1E                     l2203:
  2473   000B1E  CF6E F021          	movff	3950,??_ECAN_Initialize	;volatile
  2474   000B22  0EE0               	movlw	224
  2475   000B24  1621               	andwf	??_ECAN_Initialize^0,f,c
  2476   000B26  A4D8               	btfss	status,2,c
  2477   000B28  EF98  F005         	goto	u621
  2478   000B2C  EF9A  F005         	goto	u620
  2479   000B30                     u621:
  2480   000B30  EF8F  F005         	goto	l2203
  2481   000B34                     u620:
  2482   000B34  0012               	return		;funcret
  2483   000B36                     __end_of_ECAN_Initialize:
  2484                           	callstack 0
  2485                           
  2486 ;; *************** function _ECAN_SetWakeUpInterruptHandler *****************
  2487 ;; Defined at:
  2488 ;;		line 498 in file "mcc_generated_files/ecan.c"
  2489 ;; Parameters:    Size  Location     Type
  2490 ;;  handler         2   30[COMRAM] PTR FTN()void 
  2491 ;;		 -> WakeUpDefaultInterruptHandler(1), 
  2492 ;; Auto vars:     Size  Location     Type
  2493 ;;		None
  2494 ;; Return value:  Size  Location     Type
  2495 ;;                  1    wreg      void 
  2496 ;; Registers used:
  2497 ;;		wreg, status,2, status,0
  2498 ;; Tracked objects:
  2499 ;;		On entry : 0/0
  2500 ;;		On exit  : 0/0
  2501 ;;		Unchanged: 0/0
  2502 ;; Data sizes:     COMRAM   BANK0   BANK1   BANK2   BANK3   BANK4   BANK5   BANK6   BANK7   BANK8   BANK9  BANK10  BANK1
      +1  BANK12  BANK13  BANK14
  2503 ;;      Params:         2       0       0       0       0       0       0       0       0       0       0       0       
      +0       0       0       0
  2504 ;;      Locals:         0       0       0       0       0       0       0       0       0       0       0       0       
      +0       0       0       0
  2505 ;;      Temps:          0       0       0       0       0       0       0       0       0       0       0       0       
      +0       0       0       0
  2506 ;;      Totals:         2       0       0       0       0       0       0       0       0       0       0       0       
      +0       0       0       0
  2507 ;;Total ram usage:        2 bytes
  2508 ;; Hardware stack levels used: 1
  2509 ;; Hardware stack levels required when called: 7
  2510 ;; This function calls:
  2511 ;;		Nothing
  2512 ;; This function is called by:
  2513 ;;		_ECAN_Initialize
  2514 ;; This function uses a non-reentrant model
  2515 ;;
  2516                           
  2517                           	psect	text14
  2518   0012F8                     __ptext14:
  2519                           	callstack 0
  2520   0012F8                     _ECAN_SetWakeUpInterruptHandler:
  2521                           	callstack 21
  2522   0012F8                     
  2523                           ;mcc_generated_files/ecan.c: 498: void ECAN_SetWakeUpInterruptHandler(void (*handler)(vo
      +                          id));mcc_generated_files/ecan.c: 499: {;mcc_generated_files/ecan.c: 500:     WakeUpInter
      +                          ruptHandler = handler;
  2524   0012F8  C01F  F029         	movff	ECAN_SetWakeUpInterruptHandler@handler,_WakeUpInterruptHandler
  2525   0012FC  C020  F02A         	movff	ECAN_SetWakeUpInterruptHandler@handler+1,_WakeUpInterruptHandler+1
  2526   001300  0012               	return		;funcret
  2527   001302                     __end_of_ECAN_SetWakeUpInterruptHandler:
  2528                           	callstack 0
  2529                           
  2530 ;; *************** function _CAN_receive *****************
  2531 ;; Defined at:
  2532 ;;		line 313 in file "mcc_generated_files/ecan.c"
  2533 ;; Parameters:    Size  Location     Type
  2534 ;;  tempCanMsg      2   11[BANK0 ] PTR struct .
  2535 ;;		 -> rx(14), 
  2536 ;; Auto vars:     Size  Location     Type
  2537 ;;  returnValue     1   13[BANK0 ] unsigned char 
  2538 ;; Return value:  Size  Location     Type
  2539 ;;                  1    wreg      unsigned char 
  2540 ;; Registers used:
  2541 ;;		wreg, fsr2l, fsr2h, status,2, status,0, cstack
  2542 ;; Tracked objects:
  2543 ;;		On entry : 0/0
  2544 ;;		On exit  : 0/0
  2545 ;;		Unchanged: 0/0
  2546 ;; Data sizes:     COMRAM   BANK0   BANK1   BANK2   BANK3   BANK4   BANK5   BANK6   BANK7   BANK8   BANK9  BANK10  BANK1
      +1  BANK12  BANK13  BANK14
  2547 ;;      Params:         0       2       0       0       0       0       0       0       0       0       0       0       
      +0       0       0       0
  2548 ;;      Locals:         0       1       0       0       0       0       0       0       0       0       0       0       
      +0       0       0       0
  2549 ;;      Temps:          0       0       0       0       0       0       0       0       0       0       0       0       
      +0       0       0       0
  2550 ;;      Totals:         0       3       0       0       0       0       0       0       0       0       0       0       
      +0       0       0       0
  2551 ;;Total ram usage:        3 bytes
  2552 ;; Hardware stack levels used: 1
  2553 ;; Hardware stack levels required when called: 8
  2554 ;; This function calls:
  2555 ;;		_convertReg2ExtendedCANid
  2556 ;;		_convertReg2StandardCANid
  2557 ;; This function is called by:
  2558 ;;		_main
  2559 ;; This function uses a non-reentrant model
  2560 ;;
  2561                           
  2562                           	psect	text15
  2563   000730                     __ptext15:
  2564                           	callstack 0
  2565   000730                     _CAN_receive:
  2566                           	callstack 22
  2567   000730                     
  2568                           ;mcc_generated_files/ecan.c: 313: uint8_t CAN_receive(uCAN_MSG *tempCanMsg);mcc_generate
      +                          d_files/ecan.c: 314: {;mcc_generated_files/ecan.c: 315:     uint8_t returnValue = 0;
  2569   000730  0E00               	movlw	0
  2570   000732  0100               	movlb	0	; () banked
  2571   000734  6F89               	movwf	CAN_receive@returnValue& (0+255),b
  2572   000736                     
  2573                           ; BSR set to: 0
  2574                           ;mcc_generated_files/ecan.c: 318:     if (RXB0CONbits.RXFUL != 0)
  2575   000736  AE60               	btfss	96,7,c	;volatile
  2576   000738  EFA0  F003         	goto	u1051
  2577   00073C  EFA2  F003         	goto	u1050
  2578   000740                     u1051:
  2579   000740  EF31  F004         	goto	l437
  2580   000744                     u1050:
  2581   000744                     
  2582                           ; BSR set to: 0
  2583                           ;mcc_generated_files/ecan.c: 319:     {;mcc_generated_files/ecan.c: 320:         if ((RX
      +                          B0SIDL & 0x08) == 0x08)
  2584   000744  A662               	btfss	98,3,c	;volatile
  2585   000746  EFA7  F003         	goto	u1061
  2586   00074A  EFA9  F003         	goto	u1060
  2587   00074E                     u1061:
  2588   00074E  EFC9  F003         	goto	l2829
  2589   000752                     u1060:
  2590   000752                     
  2591                           ; BSR set to: 0
  2592                           ;mcc_generated_files/ecan.c: 321:         {;mcc_generated_files/ecan.c: 323:            
      +                           tempCanMsg->frame.idType = (uint8_t) 2;
  2593   000752  C087  FFD9         	movff	CAN_receive@tempCanMsg,fsr2l
  2594   000756  C088  FFDA         	movff	CAN_receive@tempCanMsg+1,fsr2h
  2595   00075A  0E02               	movlw	2
  2596   00075C  6EDF               	movwf	indf2,c
  2597   00075E                     
  2598                           ; BSR set to: 0
  2599                           ;mcc_generated_files/ecan.c: 324:             tempCanMsg->frame.id = convertReg2Extended
      +                          CANid(RXB0EIDH, RXB0EIDL, RXB0SIDH, RXB0SIDL);
  2600   00075E  CF64 F01F          	movff	3940,convertReg2ExtendedCANid@tempRXBn_EIDL	;volatile
  2601   000762  CF61 F020          	movff	3937,convertReg2ExtendedCANid@tempRXBn_SIDH	;volatile
  2602   000766  CF62 F021          	movff	3938,convertReg2ExtendedCANid@tempRXBn_SIDL	;volatile
  2603   00076A  5063               	movf	99,w,c	;volatile
  2604   00076C  EC0C  F007         	call	_convertReg2ExtendedCANid
  2605   000770  0100               	movlb	0	; () banked
  2606   000772  EE20 F001          	lfsr	2,1
  2607   000776  5187               	movf	CAN_receive@tempCanMsg& (0+255),w,b
  2608   000778  26D9               	addwf	fsr2l,f,c
  2609   00077A  5188               	movf	(CAN_receive@tempCanMsg+1)& (0+255),w,b
  2610   00077C  22DA               	addwfc	fsr2h,f,c
  2611   00077E  C01F  FFDE         	movff	?_convertReg2ExtendedCANid,postinc2
  2612   000782  C020  FFDE         	movff	?_convertReg2ExtendedCANid+1,postinc2
  2613   000786  C021  FFDE         	movff	?_convertReg2ExtendedCANid+2,postinc2
  2614   00078A  C022  FFDE         	movff	?_convertReg2ExtendedCANid+3,postinc2
  2615                           
  2616                           ;mcc_generated_files/ecan.c: 325:         }
  2617   00078E  EFE3  F003         	goto	l2833
  2618   000792                     l2829:
  2619                           
  2620                           ; BSR set to: 0
  2621                           ;mcc_generated_files/ecan.c: 327:         {;mcc_generated_files/ecan.c: 329:            
      +                           tempCanMsg->frame.idType = (uint8_t) 1;
  2622   000792  C087  FFD9         	movff	CAN_receive@tempCanMsg,fsr2l
  2623   000796  C088  FFDA         	movff	CAN_receive@tempCanMsg+1,fsr2h
  2624   00079A  0E01               	movlw	1
  2625   00079C  6EDF               	movwf	indf2,c
  2626   00079E                     
  2627                           ; BSR set to: 0
  2628                           ;mcc_generated_files/ecan.c: 330:             tempCanMsg->frame.id = convertReg2Standard
      +                          CANid(RXB0SIDH, RXB0SIDL);
  2629   00079E  CF62 F01F          	movff	3938,convertReg2StandardCANid@tempRXBn_SIDL	;volatile
  2630   0007A2  5061               	movf	97,w,c	;volatile
  2631   0007A4  ECAB  F007         	call	_convertReg2StandardCANid
  2632   0007A8  0100               	movlb	0	; () banked
  2633   0007AA  EE20 F001          	lfsr	2,1
  2634   0007AE  5187               	movf	CAN_receive@tempCanMsg& (0+255),w,b
  2635   0007B0  26D9               	addwf	fsr2l,f,c
  2636   0007B2  5188               	movf	(CAN_receive@tempCanMsg+1)& (0+255),w,b
  2637   0007B4  22DA               	addwfc	fsr2h,f,c
  2638   0007B6  C01F  FFDE         	movff	?_convertReg2StandardCANid,postinc2
  2639   0007BA  C020  FFDE         	movff	?_convertReg2StandardCANid+1,postinc2
  2640   0007BE  C021  FFDE         	movff	?_convertReg2StandardCANid+2,postinc2
  2641   0007C2  C022  FFDE         	movff	?_convertReg2StandardCANid+3,postinc2
  2642   0007C6                     l2833:
  2643                           
  2644                           ; BSR set to: 0
  2645                           ;mcc_generated_files/ecan.c: 333:         tempCanMsg->frame.dlc = RXB0DLC;
  2646   0007C6  EE20 F005          	lfsr	2,5
  2647   0007CA  5187               	movf	CAN_receive@tempCanMsg& (0+255),w,b
  2648   0007CC  26D9               	addwf	fsr2l,f,c
  2649   0007CE  5188               	movf	(CAN_receive@tempCanMsg+1)& (0+255),w,b
  2650   0007D0  22DA               	addwfc	fsr2h,f,c
  2651   0007D2  CF65 FFDF          	movff	3941,indf2	;volatile
  2652   0007D6                     
  2653                           ; BSR set to: 0
  2654                           ;mcc_generated_files/ecan.c: 334:         tempCanMsg->frame.data0 = RXB0D0;
  2655   0007D6  EE20 F006          	lfsr	2,6
  2656   0007DA  5187               	movf	CAN_receive@tempCanMsg& (0+255),w,b
  2657   0007DC  26D9               	addwf	fsr2l,f,c
  2658   0007DE  5188               	movf	(CAN_receive@tempCanMsg+1)& (0+255),w,b
  2659   0007E0  22DA               	addwfc	fsr2h,f,c
  2660   0007E2  CF66 FFDF          	movff	3942,indf2	;volatile
  2661   0007E6                     
  2662                           ; BSR set to: 0
  2663                           ;mcc_generated_files/ecan.c: 335:         tempCanMsg->frame.data1 = RXB0D1;
  2664   0007E6  EE20 F007          	lfsr	2,7
  2665   0007EA  5187               	movf	CAN_receive@tempCanMsg& (0+255),w,b
  2666   0007EC  26D9               	addwf	fsr2l,f,c
  2667   0007EE  5188               	movf	(CAN_receive@tempCanMsg+1)& (0+255),w,b
  2668   0007F0  22DA               	addwfc	fsr2h,f,c
  2669   0007F2  CF67 FFDF          	movff	3943,indf2	;volatile
  2670   0007F6                     
  2671                           ; BSR set to: 0
  2672                           ;mcc_generated_files/ecan.c: 336:         tempCanMsg->frame.data2 = RXB0D2;
  2673   0007F6  EE20 F008          	lfsr	2,8
  2674   0007FA  5187               	movf	CAN_receive@tempCanMsg& (0+255),w,b
  2675   0007FC  26D9               	addwf	fsr2l,f,c
  2676   0007FE  5188               	movf	(CAN_receive@tempCanMsg+1)& (0+255),w,b
  2677   000800  22DA               	addwfc	fsr2h,f,c
  2678   000802  CF68 FFDF          	movff	3944,indf2	;volatile
  2679   000806                     
  2680                           ; BSR set to: 0
  2681                           ;mcc_generated_files/ecan.c: 337:         tempCanMsg->frame.data3 = RXB0D3;
  2682   000806  EE20 F009          	lfsr	2,9
  2683   00080A  5187               	movf	CAN_receive@tempCanMsg& (0+255),w,b
  2684   00080C  26D9               	addwf	fsr2l,f,c
  2685   00080E  5188               	movf	(CAN_receive@tempCanMsg+1)& (0+255),w,b
  2686   000810  22DA               	addwfc	fsr2h,f,c
  2687   000812  CF69 FFDF          	movff	3945,indf2	;volatile
  2688   000816                     
  2689                           ; BSR set to: 0
  2690                           ;mcc_generated_files/ecan.c: 338:         tempCanMsg->frame.data4 = RXB0D4;
  2691   000816  EE20 F00A          	lfsr	2,10
  2692   00081A  5187               	movf	CAN_receive@tempCanMsg& (0+255),w,b
  2693   00081C  26D9               	addwf	fsr2l,f,c
  2694   00081E  5188               	movf	(CAN_receive@tempCanMsg+1)& (0+255),w,b
  2695   000820  22DA               	addwfc	fsr2h,f,c
  2696   000822  CF6A FFDF          	movff	3946,indf2	;volatile
  2697   000826                     
  2698                           ; BSR set to: 0
  2699                           ;mcc_generated_files/ecan.c: 339:         tempCanMsg->frame.data5 = RXB0D5;
  2700   000826  EE20 F00B          	lfsr	2,11
  2701   00082A  5187               	movf	CAN_receive@tempCanMsg& (0+255),w,b
  2702   00082C  26D9               	addwf	fsr2l,f,c
  2703   00082E  5188               	movf	(CAN_receive@tempCanMsg+1)& (0+255),w,b
  2704   000830  22DA               	addwfc	fsr2h,f,c
  2705   000832  CF6B FFDF          	movff	3947,indf2	;volatile
  2706   000836                     
  2707                           ; BSR set to: 0
  2708                           ;mcc_generated_files/ecan.c: 340:         tempCanMsg->frame.data6 = RXB0D6;
  2709   000836  EE20 F00C          	lfsr	2,12
  2710   00083A  5187               	movf	CAN_receive@tempCanMsg& (0+255),w,b
  2711   00083C  26D9               	addwf	fsr2l,f,c
  2712   00083E  5188               	movf	(CAN_receive@tempCanMsg+1)& (0+255),w,b
  2713   000840  22DA               	addwfc	fsr2h,f,c
  2714   000842  CF6C FFDF          	movff	3948,indf2	;volatile
  2715   000846                     
  2716                           ; BSR set to: 0
  2717                           ;mcc_generated_files/ecan.c: 341:         tempCanMsg->frame.data7 = RXB0D7;
  2718   000846  EE20 F00D          	lfsr	2,13
  2719   00084A  5187               	movf	CAN_receive@tempCanMsg& (0+255),w,b
  2720   00084C  26D9               	addwf	fsr2l,f,c
  2721   00084E  5188               	movf	(CAN_receive@tempCanMsg+1)& (0+255),w,b
  2722   000850  22DA               	addwfc	fsr2h,f,c
  2723   000852  CF6D FFDF          	movff	3949,indf2	;volatile
  2724   000856                     
  2725                           ; BSR set to: 0
  2726                           ;mcc_generated_files/ecan.c: 342:         RXB0CONbits.RXFUL = 0;
  2727   000856  9E60               	bcf	96,7,c	;volatile
  2728   000858                     l2853:
  2729                           
  2730                           ;mcc_generated_files/ecan.c: 343:         returnValue = 1;
  2731   000858  0E01               	movlw	1
  2732   00085A  0100               	movlb	0	; () banked
  2733   00085C  6F89               	movwf	CAN_receive@returnValue& (0+255),b
  2734                           
  2735                           ;mcc_generated_files/ecan.c: 344:     }
  2736   00085E  EFC6  F004         	goto	l2887
  2737   000862                     l437:
  2738                           
  2739                           ; BSR set to: 0
  2740   000862  010F               	movlb	15	; () banked
  2741   000864  AF30               	btfss	48,7,b	;volatile
  2742   000866  EF37  F004         	goto	u1071
  2743   00086A  EF39  F004         	goto	u1070
  2744   00086E                     u1071:
  2745   00086E  EFC6  F004         	goto	l2887
  2746   000872                     u1070:
  2747   000872                     
  2748                           ; BSR set to: 15
  2749                           ;mcc_generated_files/ecan.c: 346:     {;mcc_generated_files/ecan.c: 347:         if ((RX
      +                          B1SIDL & 0x08) == 0x08)
  2750   000872  A732               	btfss	50,3,b	;volatile
  2751   000874  EF3E  F004         	goto	u1081
  2752   000878  EF40  F004         	goto	u1080
  2753   00087C                     u1081:
  2754   00087C  EF60  F004         	goto	l2861
  2755   000880                     u1080:
  2756   000880                     
  2757                           ; BSR set to: 15
  2758                           ;mcc_generated_files/ecan.c: 348:         {;mcc_generated_files/ecan.c: 350:            
      +                           tempCanMsg->frame.idType = (uint8_t) 2;
  2759   000880  C087  FFD9         	movff	CAN_receive@tempCanMsg,fsr2l
  2760   000884  C088  FFDA         	movff	CAN_receive@tempCanMsg+1,fsr2h
  2761   000888  0E02               	movlw	2
  2762   00088A  6EDF               	movwf	indf2,c
  2763   00088C                     
  2764                           ; BSR set to: 15
  2765                           ;mcc_generated_files/ecan.c: 351:             tempCanMsg->frame.id = convertReg2Extended
      +                          CANid(RXB1EIDH, RXB1EIDL, RXB1SIDH, RXB1SIDL);
  2766   00088C  CF34 F01F          	movff	3892,convertReg2ExtendedCANid@tempRXBn_EIDL	;volatile
  2767   000890  CF31 F020          	movff	3889,convertReg2ExtendedCANid@tempRXBn_SIDH	;volatile
  2768   000894  CF32 F021          	movff	3890,convertReg2ExtendedCANid@tempRXBn_SIDL	;volatile
  2769   000898  5133               	movf	51,w,b	;volatile
  2770   00089A  EC0C  F007         	call	_convertReg2ExtendedCANid
  2771   00089E  0100               	movlb	0	; () banked
  2772   0008A0  EE20 F001          	lfsr	2,1
  2773   0008A4  5187               	movf	CAN_receive@tempCanMsg& (0+255),w,b
  2774   0008A6  26D9               	addwf	fsr2l,f,c
  2775   0008A8  5188               	movf	(CAN_receive@tempCanMsg+1)& (0+255),w,b
  2776   0008AA  22DA               	addwfc	fsr2h,f,c
  2777   0008AC  C01F  FFDE         	movff	?_convertReg2ExtendedCANid,postinc2
  2778   0008B0  C020  FFDE         	movff	?_convertReg2ExtendedCANid+1,postinc2
  2779   0008B4  C021  FFDE         	movff	?_convertReg2ExtendedCANid+2,postinc2
  2780   0008B8  C022  FFDE         	movff	?_convertReg2ExtendedCANid+3,postinc2
  2781                           
  2782                           ;mcc_generated_files/ecan.c: 352:         }
  2783   0008BC  EF7A  F004         	goto	l2865
  2784   0008C0                     l2861:
  2785                           
  2786                           ; BSR set to: 15
  2787                           ;mcc_generated_files/ecan.c: 354:         {;mcc_generated_files/ecan.c: 356:            
      +                           tempCanMsg->frame.idType = (uint8_t) 1;
  2788   0008C0  C087  FFD9         	movff	CAN_receive@tempCanMsg,fsr2l
  2789   0008C4  C088  FFDA         	movff	CAN_receive@tempCanMsg+1,fsr2h
  2790   0008C8  0E01               	movlw	1
  2791   0008CA  6EDF               	movwf	indf2,c
  2792   0008CC                     
  2793                           ; BSR set to: 15
  2794                           ;mcc_generated_files/ecan.c: 357:             tempCanMsg->frame.id = convertReg2Standard
      +                          CANid(RXB1SIDH, RXB1SIDL);
  2795   0008CC  CF32 F01F          	movff	3890,convertReg2StandardCANid@tempRXBn_SIDL	;volatile
  2796   0008D0  5131               	movf	49,w,b	;volatile
  2797   0008D2  ECAB  F007         	call	_convertReg2StandardCANid
  2798   0008D6  0100               	movlb	0	; () banked
  2799   0008D8  EE20 F001          	lfsr	2,1
  2800   0008DC  5187               	movf	CAN_receive@tempCanMsg& (0+255),w,b
  2801   0008DE  26D9               	addwf	fsr2l,f,c
  2802   0008E0  5188               	movf	(CAN_receive@tempCanMsg+1)& (0+255),w,b
  2803   0008E2  22DA               	addwfc	fsr2h,f,c
  2804   0008E4  C01F  FFDE         	movff	?_convertReg2StandardCANid,postinc2
  2805   0008E8  C020  FFDE         	movff	?_convertReg2StandardCANid+1,postinc2
  2806   0008EC  C021  FFDE         	movff	?_convertReg2StandardCANid+2,postinc2
  2807   0008F0  C022  FFDE         	movff	?_convertReg2StandardCANid+3,postinc2
  2808   0008F4                     l2865:
  2809                           
  2810                           ; BSR set to: 0
  2811                           ;mcc_generated_files/ecan.c: 360:         tempCanMsg->frame.dlc = RXB1DLC;
  2812   0008F4  EE20 F005          	lfsr	2,5
  2813   0008F8  5187               	movf	CAN_receive@tempCanMsg& (0+255),w,b
  2814   0008FA  26D9               	addwf	fsr2l,f,c
  2815   0008FC  5188               	movf	(CAN_receive@tempCanMsg+1)& (0+255),w,b
  2816   0008FE  22DA               	addwfc	fsr2h,f,c
  2817   000900  CF35 FFDF          	movff	3893,indf2	;volatile
  2818   000904                     
  2819                           ; BSR set to: 0
  2820                           ;mcc_generated_files/ecan.c: 361:         tempCanMsg->frame.data0 = RXB1D0;
  2821   000904  EE20 F006          	lfsr	2,6
  2822   000908  5187               	movf	CAN_receive@tempCanMsg& (0+255),w,b
  2823   00090A  26D9               	addwf	fsr2l,f,c
  2824   00090C  5188               	movf	(CAN_receive@tempCanMsg+1)& (0+255),w,b
  2825   00090E  22DA               	addwfc	fsr2h,f,c
  2826   000910  CF36 FFDF          	movff	3894,indf2	;volatile
  2827   000914                     
  2828                           ; BSR set to: 0
  2829                           ;mcc_generated_files/ecan.c: 362:         tempCanMsg->frame.data1 = RXB1D1;
  2830   000914  EE20 F007          	lfsr	2,7
  2831   000918  5187               	movf	CAN_receive@tempCanMsg& (0+255),w,b
  2832   00091A  26D9               	addwf	fsr2l,f,c
  2833   00091C  5188               	movf	(CAN_receive@tempCanMsg+1)& (0+255),w,b
  2834   00091E  22DA               	addwfc	fsr2h,f,c
  2835   000920  CF37 FFDF          	movff	3895,indf2	;volatile
  2836   000924                     
  2837                           ; BSR set to: 0
  2838                           ;mcc_generated_files/ecan.c: 363:         tempCanMsg->frame.data2 = RXB1D2;
  2839   000924  EE20 F008          	lfsr	2,8
  2840   000928  5187               	movf	CAN_receive@tempCanMsg& (0+255),w,b
  2841   00092A  26D9               	addwf	fsr2l,f,c
  2842   00092C  5188               	movf	(CAN_receive@tempCanMsg+1)& (0+255),w,b
  2843   00092E  22DA               	addwfc	fsr2h,f,c
  2844   000930  CF38 FFDF          	movff	3896,indf2	;volatile
  2845   000934                     
  2846                           ; BSR set to: 0
  2847                           ;mcc_generated_files/ecan.c: 364:         tempCanMsg->frame.data3 = RXB1D3;
  2848   000934  EE20 F009          	lfsr	2,9
  2849   000938  5187               	movf	CAN_receive@tempCanMsg& (0+255),w,b
  2850   00093A  26D9               	addwf	fsr2l,f,c
  2851   00093C  5188               	movf	(CAN_receive@tempCanMsg+1)& (0+255),w,b
  2852   00093E  22DA               	addwfc	fsr2h,f,c
  2853   000940  CF39 FFDF          	movff	3897,indf2	;volatile
  2854   000944                     
  2855                           ; BSR set to: 0
  2856                           ;mcc_generated_files/ecan.c: 365:         tempCanMsg->frame.data4 = RXB1D4;
  2857   000944  EE20 F00A          	lfsr	2,10
  2858   000948  5187               	movf	CAN_receive@tempCanMsg& (0+255),w,b
  2859   00094A  26D9               	addwf	fsr2l,f,c
  2860   00094C  5188               	movf	(CAN_receive@tempCanMsg+1)& (0+255),w,b
  2861   00094E  22DA               	addwfc	fsr2h,f,c
  2862   000950  CF3A FFDF          	movff	3898,indf2	;volatile
  2863   000954                     
  2864                           ; BSR set to: 0
  2865                           ;mcc_generated_files/ecan.c: 366:         tempCanMsg->frame.data5 = RXB1D5;
  2866   000954  EE20 F00B          	lfsr	2,11
  2867   000958  5187               	movf	CAN_receive@tempCanMsg& (0+255),w,b
  2868   00095A  26D9               	addwf	fsr2l,f,c
  2869   00095C  5188               	movf	(CAN_receive@tempCanMsg+1)& (0+255),w,b
  2870   00095E  22DA               	addwfc	fsr2h,f,c
  2871   000960  CF3B FFDF          	movff	3899,indf2	;volatile
  2872   000964                     
  2873                           ; BSR set to: 0
  2874                           ;mcc_generated_files/ecan.c: 367:         tempCanMsg->frame.data6 = RXB1D6;
  2875   000964  EE20 F00C          	lfsr	2,12
  2876   000968  5187               	movf	CAN_receive@tempCanMsg& (0+255),w,b
  2877   00096A  26D9               	addwf	fsr2l,f,c
  2878   00096C  5188               	movf	(CAN_receive@tempCanMsg+1)& (0+255),w,b
  2879   00096E  22DA               	addwfc	fsr2h,f,c
  2880   000970  CF3C FFDF          	movff	3900,indf2	;volatile
  2881   000974                     
  2882                           ; BSR set to: 0
  2883                           ;mcc_generated_files/ecan.c: 368:         tempCanMsg->frame.data7 = RXB1D7;
  2884   000974  EE20 F00D          	lfsr	2,13
  2885   000978  5187               	movf	CAN_receive@tempCanMsg& (0+255),w,b
  2886   00097A  26D9               	addwf	fsr2l,f,c
  2887   00097C  5188               	movf	(CAN_receive@tempCanMsg+1)& (0+255),w,b
  2888   00097E  22DA               	addwfc	fsr2h,f,c
  2889   000980  CF3D FFDF          	movff	3901,indf2	;volatile
  2890   000984                     
  2891                           ; BSR set to: 0
  2892                           ;mcc_generated_files/ecan.c: 369:         RXB1CONbits.RXFUL = 0;
  2893   000984  010F               	movlb	15	; () banked
  2894   000986  9F30               	bcf	48,7,b	;volatile
  2895   000988  EF2C  F004         	goto	l2853
  2896   00098C                     l2887:
  2897                           
  2898                           ;mcc_generated_files/ecan.c: 372:     return (returnValue);
  2899   00098C  0100               	movlb	0	; () banked
  2900   00098E  5189               	movf	CAN_receive@returnValue& (0+255),w,b
  2901   000990                     
  2902                           ; BSR set to: 0
  2903   000990  0012               	return		;funcret
  2904   000992                     __end_of_CAN_receive:
  2905                           	callstack 0
  2906                           
  2907 ;; *************** function _convertReg2StandardCANid *****************
  2908 ;; Defined at:
  2909 ;;		line 451 in file "mcc_generated_files/ecan.c"
  2910 ;; Parameters:    Size  Location     Type
  2911 ;;  tempRXBn_SID    1    wreg     unsigned char 
  2912 ;;  tempRXBn_SID    1   30[COMRAM] unsigned char 
  2913 ;; Auto vars:     Size  Location     Type
  2914 ;;  tempRXBn_SID    1    0[BANK0 ] unsigned char 
  2915 ;;  ConvertedID     4    5[BANK0 ] unsigned long 
  2916 ;;  returnValue     4    1[BANK0 ] unsigned long 
  2917 ;; Return value:  Size  Location     Type
  2918 ;;                  4   30[COMRAM] unsigned long 
  2919 ;; Registers used:
  2920 ;;		wreg, status,2, status,0
  2921 ;; Tracked objects:
  2922 ;;		On entry : 0/0
  2923 ;;		On exit  : 0/0
  2924 ;;		Unchanged: 0/0
  2925 ;; Data sizes:     COMRAM   BANK0   BANK1   BANK2   BANK3   BANK4   BANK5   BANK6   BANK7   BANK8   BANK9  BANK10  BANK1
      +1  BANK12  BANK13  BANK14
  2926 ;;      Params:         4       0       0       0       0       0       0       0       0       0       0       0       
      +0       0       0       0
  2927 ;;      Locals:         0       9       0       0       0       0       0       0       0       0       0       0       
      +0       0       0       0
  2928 ;;      Temps:          2       0       0       0       0       0       0       0       0       0       0       0       
      +0       0       0       0
  2929 ;;      Totals:         6       9       0       0       0       0       0       0       0       0       0       0       
      +0       0       0       0
  2930 ;;Total ram usage:       15 bytes
  2931 ;; Hardware stack levels used: 1
  2932 ;; Hardware stack levels required when called: 7
  2933 ;; This function calls:
  2934 ;;		Nothing
  2935 ;; This function is called by:
  2936 ;;		_CAN_receive
  2937 ;; This function uses a non-reentrant model
  2938 ;;
  2939                           
  2940                           	psect	text16
  2941   000F56                     __ptext16:
  2942                           	callstack 0
  2943   000F56                     _convertReg2StandardCANid:
  2944                           	callstack 22
  2945                           
  2946                           ; BSR set to: 0
  2947                           ;incstack = 0
  2948                           ;convertReg2StandardCANid@tempRXBn_SIDH stored from wreg
  2949   000F56  0100               	movlb	0	; () banked
  2950   000F58  6F7C               	movwf	convertReg2StandardCANid@tempRXBn_SIDH& (0+255),b
  2951   000F5A                     
  2952                           ;mcc_generated_files/ecan.c: 453:     uint32_t ConvertedID;;mcc_generated_files/ecan.c: 
      +                          457:     ConvertedID = (uint32_t)(tempRXBn_SIDH << 3);
  2953   000F5A  0100               	movlb	0	; () banked
  2954   000F5C  517C               	movf	convertReg2StandardCANid@tempRXBn_SIDH& (0+255),w,b
  2955   000F5E  6E23               	movwf	??_convertReg2StandardCANid^0,c
  2956   000F60  6A24               	clrf	(??_convertReg2StandardCANid+1)^0,c
  2957   000F62  90D8               	bcf	status,0,c
  2958   000F64  3623               	rlcf	??_convertReg2StandardCANid^0,f,c
  2959   000F66  3624               	rlcf	(??_convertReg2StandardCANid+1)^0,f,c
  2960   000F68  90D8               	bcf	status,0,c
  2961   000F6A  3623               	rlcf	??_convertReg2StandardCANid^0,f,c
  2962   000F6C  3624               	rlcf	(??_convertReg2StandardCANid+1)^0,f,c
  2963   000F6E  90D8               	bcf	status,0,c
  2964   000F70  3623               	rlcf	??_convertReg2StandardCANid^0,f,c
  2965   000F72  3624               	rlcf	(??_convertReg2StandardCANid+1)^0,f,c
  2966   000F74  C023  F081         	movff	??_convertReg2StandardCANid,convertReg2StandardCANid@ConvertedID
  2967   000F78  C024  F082         	movff	??_convertReg2StandardCANid+1,convertReg2StandardCANid@ConvertedID+1
  2968   000F7C  0E00               	movlw	0
  2969   000F7E  BF82               	btfsc	(convertReg2StandardCANid@ConvertedID+1)& (0+255),7,b
  2970   000F80  0EFF               	movlw	-1
  2971   000F82  6F83               	movwf	(convertReg2StandardCANid@ConvertedID+2)& (0+255),b
  2972   000F84  6F84               	movwf	(convertReg2StandardCANid@ConvertedID+3)& (0+255),b
  2973   000F86                     
  2974                           ; BSR set to: 0
  2975                           ;mcc_generated_files/ecan.c: 458:     ConvertedID = ConvertedID + (uint32_t)(tempRXBn_SI
      +                          DL >> 5);
  2976   000F86  C01F  F023         	movff	convertReg2StandardCANid@tempRXBn_SIDL,??_convertReg2StandardCANid
  2977   000F8A  0E05               	movlw	5
  2978   000F8C  6E24               	movwf	(??_convertReg2StandardCANid+1)^0,c
  2979   000F8E                     u1025:
  2980   000F8E  90D8               	bcf	status,0,c
  2981   000F90  3223               	rrcf	??_convertReg2StandardCANid^0,f,c
  2982   000F92  2E24               	decfsz	(??_convertReg2StandardCANid+1)^0,f,c
  2983   000F94  EFC7  F007         	goto	u1025
  2984   000F98  5023               	movf	??_convertReg2StandardCANid^0,w,c
  2985   000F9A  2581               	addwf	convertReg2StandardCANid@ConvertedID& (0+255),w,b
  2986   000F9C  6F81               	movwf	convertReg2StandardCANid@ConvertedID& (0+255),b
  2987   000F9E  0E00               	movlw	0
  2988   000FA0  2182               	addwfc	(convertReg2StandardCANid@ConvertedID+1)& (0+255),w,b
  2989   000FA2  6F82               	movwf	(convertReg2StandardCANid@ConvertedID+1)& (0+255),b
  2990   000FA4  0E00               	movlw	0
  2991   000FA6  2183               	addwfc	(convertReg2StandardCANid@ConvertedID+2)& (0+255),w,b
  2992   000FA8  6F83               	movwf	(convertReg2StandardCANid@ConvertedID+2)& (0+255),b
  2993   000FAA  0E00               	movlw	0
  2994   000FAC  2184               	addwfc	(convertReg2StandardCANid@ConvertedID+3)& (0+255),w,b
  2995   000FAE  6F84               	movwf	(convertReg2StandardCANid@ConvertedID+3)& (0+255),b
  2996   000FB0                     
  2997                           ; BSR set to: 0
  2998                           ;mcc_generated_files/ecan.c: 459:     returnValue = ConvertedID;
  2999   000FB0  C081  F07D         	movff	convertReg2StandardCANid@ConvertedID,convertReg2StandardCANid@returnValue
  3000   000FB4  C082  F07E         	movff	convertReg2StandardCANid@ConvertedID+1,convertReg2StandardCANid@returnValue+1
  3001   000FB8  C083  F07F         	movff	convertReg2StandardCANid@ConvertedID+2,convertReg2StandardCANid@returnValue+2
  3002   000FBC  C084  F080         	movff	convertReg2StandardCANid@ConvertedID+3,convertReg2StandardCANid@returnValue+3
  3003   000FC0                     
  3004                           ; BSR set to: 0
  3005                           ;mcc_generated_files/ecan.c: 460:     return (returnValue);
  3006   000FC0  C07D  F01F         	movff	convertReg2StandardCANid@returnValue,?_convertReg2StandardCANid
  3007   000FC4  C07E  F020         	movff	convertReg2StandardCANid@returnValue+1,?_convertReg2StandardCANid+1
  3008   000FC8  C07F  F021         	movff	convertReg2StandardCANid@returnValue+2,?_convertReg2StandardCANid+2
  3009   000FCC  C080  F022         	movff	convertReg2StandardCANid@returnValue+3,?_convertReg2StandardCANid+3
  3010   000FD0                     
  3011                           ; BSR set to: 0
  3012   000FD0  0012               	return		;funcret
  3013   000FD2                     __end_of_convertReg2StandardCANid:
  3014                           	callstack 0
  3015                           
  3016 ;; *************** function _convertReg2ExtendedCANid *****************
  3017 ;; Defined at:
  3018 ;;		line 431 in file "mcc_generated_files/ecan.c"
  3019 ;; Parameters:    Size  Location     Type
  3020 ;;  tempRXBn_EID    1    wreg     unsigned char 
  3021 ;;  tempRXBn_EID    1   30[COMRAM] unsigned char 
  3022 ;;  tempRXBn_SID    1   31[COMRAM] unsigned char 
  3023 ;;  tempRXBn_SID    1   32[COMRAM] unsigned char 
  3024 ;; Auto vars:     Size  Location     Type
  3025 ;;  tempRXBn_EID    1    0[BANK0 ] unsigned char 
  3026 ;;  ConvertedID     4    7[BANK0 ] unsigned long 
  3027 ;;  returnValue     4    1[BANK0 ] unsigned long 
  3028 ;;  CAN_standard    1    6[BANK0 ] unsigned char 
  3029 ;;  CAN_standard    1    5[BANK0 ] unsigned char 
  3030 ;; Return value:  Size  Location     Type
  3031 ;;                  4   30[COMRAM] unsigned long 
  3032 ;; Registers used:
  3033 ;;		wreg, status,2, status,0
  3034 ;; Tracked objects:
  3035 ;;		On entry : 0/0
  3036 ;;		On exit  : 0/0
  3037 ;;		Unchanged: 0/0
  3038 ;; Data sizes:     COMRAM   BANK0   BANK1   BANK2   BANK3   BANK4   BANK5   BANK6   BANK7   BANK8   BANK9  BANK10  BANK1
      +1  BANK12  BANK13  BANK14
  3039 ;;      Params:         4       0       0       0       0       0       0       0       0       0       0       0       
      +0       0       0       0
  3040 ;;      Locals:         0      11       0       0       0       0       0       0       0       0       0       0       
      +0       0       0       0
  3041 ;;      Temps:          4       0       0       0       0       0       0       0       0       0       0       0       
      +0       0       0       0
  3042 ;;      Totals:         8      11       0       0       0       0       0       0       0       0       0       0       
      +0       0       0       0
  3043 ;;Total ram usage:       19 bytes
  3044 ;; Hardware stack levels used: 1
  3045 ;; Hardware stack levels required when called: 7
  3046 ;; This function calls:
  3047 ;;		Nothing
  3048 ;; This function is called by:
  3049 ;;		_CAN_receive
  3050 ;; This function uses a non-reentrant model
  3051 ;;
  3052                           
  3053                           	psect	text17
  3054   000E18                     __ptext17:
  3055                           	callstack 0
  3056   000E18                     _convertReg2ExtendedCANid:
  3057                           	callstack 22
  3058                           
  3059                           ; BSR set to: 0
  3060                           ;incstack = 0
  3061                           ;convertReg2ExtendedCANid@tempRXBn_EIDH stored from wreg
  3062   000E18  0100               	movlb	0	; () banked
  3063   000E1A  6F7C               	movwf	convertReg2ExtendedCANid@tempRXBn_EIDH& (0+255),b
  3064   000E1C                     
  3065                           ;mcc_generated_files/ecan.c: 433:     uint32_t ConvertedID = 0;
  3066   000E1C  0E00               	movlw	0
  3067   000E1E  0100               	movlb	0	; () banked
  3068   000E20  6F83               	movwf	convertReg2ExtendedCANid@ConvertedID& (0+255),b
  3069   000E22  0E00               	movlw	0
  3070   000E24  6F84               	movwf	(convertReg2ExtendedCANid@ConvertedID+1)& (0+255),b
  3071   000E26  0E00               	movlw	0
  3072   000E28  6F85               	movwf	(convertReg2ExtendedCANid@ConvertedID+2)& (0+255),b
  3073   000E2A  0E00               	movlw	0
  3074   000E2C  6F86               	movwf	(convertReg2ExtendedCANid@ConvertedID+3)& (0+255),b
  3075   000E2E                     
  3076                           ; BSR set to: 0
  3077                           ;mcc_generated_files/ecan.c: 434:     uint8_t CAN_standardLo_ID_lo2bits;;mcc_generated_f
      +                          iles/ecan.c: 435:     uint8_t CAN_standardLo_ID_hi3bits;;mcc_generated_files/ecan.c: 437
      +                          :     CAN_standardLo_ID_lo2bits = (uint8_t)(tempRXBn_SIDL & 0x03);
  3078   000E2E  5021               	movf	convertReg2ExtendedCANid@tempRXBn_SIDL^0,w,c
  3079   000E30  0B03               	andlw	3
  3080   000E32  6F81               	movwf	convertReg2ExtendedCANid@CAN_standardLo_ID_lo2bits& (0+255),b
  3081   000E34                     
  3082                           ; BSR set to: 0
  3083                           ;mcc_generated_files/ecan.c: 438:     CAN_standardLo_ID_hi3bits = (uint8_t)(tempRXBn_SID
      +                          L >> 5);
  3084   000E34  3821               	swapf	convertReg2ExtendedCANid@tempRXBn_SIDL^0,w,c
  3085   000E36  42E8               	rrncf	wreg,f,c
  3086   000E38  0B07               	andlw	7
  3087   000E3A  6F82               	movwf	convertReg2ExtendedCANid@CAN_standardLo_ID_hi3bits& (0+255),b
  3088   000E3C                     
  3089                           ; BSR set to: 0
  3090                           ;mcc_generated_files/ecan.c: 439:     ConvertedID = (uint32_t)(tempRXBn_SIDH << 3);
  3091   000E3C  5020               	movf	convertReg2ExtendedCANid@tempRXBn_SIDH^0,w,c
  3092   000E3E  6E23               	movwf	??_convertReg2ExtendedCANid^0,c
  3093   000E40  6A24               	clrf	(??_convertReg2ExtendedCANid+1)^0,c
  3094   000E42  90D8               	bcf	status,0,c
  3095   000E44  3623               	rlcf	??_convertReg2ExtendedCANid^0,f,c
  3096   000E46  3624               	rlcf	(??_convertReg2ExtendedCANid+1)^0,f,c
  3097   000E48  90D8               	bcf	status,0,c
  3098   000E4A  3623               	rlcf	??_convertReg2ExtendedCANid^0,f,c
  3099   000E4C  3624               	rlcf	(??_convertReg2ExtendedCANid+1)^0,f,c
  3100   000E4E  90D8               	bcf	status,0,c
  3101   000E50  3623               	rlcf	??_convertReg2ExtendedCANid^0,f,c
  3102   000E52  3624               	rlcf	(??_convertReg2ExtendedCANid+1)^0,f,c
  3103   000E54  C023  F083         	movff	??_convertReg2ExtendedCANid,convertReg2ExtendedCANid@ConvertedID
  3104   000E58  C024  F084         	movff	??_convertReg2ExtendedCANid+1,convertReg2ExtendedCANid@ConvertedID+1
  3105   000E5C  0E00               	movlw	0
  3106   000E5E  BF84               	btfsc	(convertReg2ExtendedCANid@ConvertedID+1)& (0+255),7,b
  3107   000E60  0EFF               	movlw	-1
  3108   000E62  6F85               	movwf	(convertReg2ExtendedCANid@ConvertedID+2)& (0+255),b
  3109   000E64  6F86               	movwf	(convertReg2ExtendedCANid@ConvertedID+3)& (0+255),b
  3110   000E66                     
  3111                           ; BSR set to: 0
  3112                           ;mcc_generated_files/ecan.c: 440:     ConvertedID = ConvertedID + CAN_standardLo_ID_hi3b
      +                          its;
  3113   000E66  5182               	movf	convertReg2ExtendedCANid@CAN_standardLo_ID_hi3bits& (0+255),w,b
  3114   000E68  2583               	addwf	convertReg2ExtendedCANid@ConvertedID& (0+255),w,b
  3115   000E6A  6F83               	movwf	convertReg2ExtendedCANid@ConvertedID& (0+255),b
  3116   000E6C  0E00               	movlw	0
  3117   000E6E  2184               	addwfc	(convertReg2ExtendedCANid@ConvertedID+1)& (0+255),w,b
  3118   000E70  6F84               	movwf	(convertReg2ExtendedCANid@ConvertedID+1)& (0+255),b
  3119   000E72  0E00               	movlw	0
  3120   000E74  2185               	addwfc	(convertReg2ExtendedCANid@ConvertedID+2)& (0+255),w,b
  3121   000E76  6F85               	movwf	(convertReg2ExtendedCANid@ConvertedID+2)& (0+255),b
  3122   000E78  0E00               	movlw	0
  3123   000E7A  2186               	addwfc	(convertReg2ExtendedCANid@ConvertedID+3)& (0+255),w,b
  3124   000E7C  6F86               	movwf	(convertReg2ExtendedCANid@ConvertedID+3)& (0+255),b
  3125   000E7E                     
  3126                           ; BSR set to: 0
  3127                           ;mcc_generated_files/ecan.c: 441:     ConvertedID = (ConvertedID << 2);
  3128   000E7E  C083  F023         	movff	convertReg2ExtendedCANid@ConvertedID,??_convertReg2ExtendedCANid
  3129   000E82  C084  F024         	movff	convertReg2ExtendedCANid@ConvertedID+1,??_convertReg2ExtendedCANid+1
  3130   000E86  C085  F025         	movff	convertReg2ExtendedCANid@ConvertedID+2,??_convertReg2ExtendedCANid+2
  3131   000E8A  C086  F026         	movff	convertReg2ExtendedCANid@ConvertedID+3,??_convertReg2ExtendedCANid+3
  3132   000E8E  0E02               	movlw	2
  3133   000E90                     u1015:
  3134   000E90  90D8               	bcf	status,0,c
  3135   000E92  3623               	rlcf	??_convertReg2ExtendedCANid^0,f,c
  3136   000E94  3624               	rlcf	(??_convertReg2ExtendedCANid+1)^0,f,c
  3137   000E96  3625               	rlcf	(??_convertReg2ExtendedCANid+2)^0,f,c
  3138   000E98  3626               	rlcf	(??_convertReg2ExtendedCANid+3)^0,f,c
  3139   000E9A  2EE8               	decfsz	wreg,f,c
  3140   000E9C  EF48  F007         	goto	u1015
  3141   000EA0  C023  F083         	movff	??_convertReg2ExtendedCANid,convertReg2ExtendedCANid@ConvertedID
  3142   000EA4  C024  F084         	movff	??_convertReg2ExtendedCANid+1,convertReg2ExtendedCANid@ConvertedID+1
  3143   000EA8  C025  F085         	movff	??_convertReg2ExtendedCANid+2,convertReg2ExtendedCANid@ConvertedID+2
  3144   000EAC  C026  F086         	movff	??_convertReg2ExtendedCANid+3,convertReg2ExtendedCANid@ConvertedID+3
  3145   000EB0                     
  3146                           ; BSR set to: 0
  3147                           ;mcc_generated_files/ecan.c: 442:     ConvertedID = ConvertedID + CAN_standardLo_ID_lo2b
      +                          its;
  3148   000EB0  5181               	movf	convertReg2ExtendedCANid@CAN_standardLo_ID_lo2bits& (0+255),w,b
  3149   000EB2  2583               	addwf	convertReg2ExtendedCANid@ConvertedID& (0+255),w,b
  3150   000EB4  6F83               	movwf	convertReg2ExtendedCANid@ConvertedID& (0+255),b
  3151   000EB6  0E00               	movlw	0
  3152   000EB8  2184               	addwfc	(convertReg2ExtendedCANid@ConvertedID+1)& (0+255),w,b
  3153   000EBA  6F84               	movwf	(convertReg2ExtendedCANid@ConvertedID+1)& (0+255),b
  3154   000EBC  0E00               	movlw	0
  3155   000EBE  2185               	addwfc	(convertReg2ExtendedCANid@ConvertedID+2)& (0+255),w,b
  3156   000EC0  6F85               	movwf	(convertReg2ExtendedCANid@ConvertedID+2)& (0+255),b
  3157   000EC2  0E00               	movlw	0
  3158   000EC4  2186               	addwfc	(convertReg2ExtendedCANid@ConvertedID+3)& (0+255),w,b
  3159   000EC6  6F86               	movwf	(convertReg2ExtendedCANid@ConvertedID+3)& (0+255),b
  3160                           
  3161                           ;mcc_generated_files/ecan.c: 443:     ConvertedID = (ConvertedID << 8);
  3162   000EC8  C083  F024         	movff	convertReg2ExtendedCANid@ConvertedID,??_convertReg2ExtendedCANid+1
  3163   000ECC  C084  F025         	movff	convertReg2ExtendedCANid@ConvertedID+1,??_convertReg2ExtendedCANid+2
  3164   000ED0  C085  F026         	movff	convertReg2ExtendedCANid@ConvertedID+2,??_convertReg2ExtendedCANid+3
  3165   000ED4  6A23               	clrf	??_convertReg2ExtendedCANid^0,c
  3166   000ED6  C023  F083         	movff	??_convertReg2ExtendedCANid,convertReg2ExtendedCANid@ConvertedID
  3167   000EDA  C024  F084         	movff	??_convertReg2ExtendedCANid+1,convertReg2ExtendedCANid@ConvertedID+1
  3168   000EDE  C025  F085         	movff	??_convertReg2ExtendedCANid+2,convertReg2ExtendedCANid@ConvertedID+2
  3169   000EE2  C026  F086         	movff	??_convertReg2ExtendedCANid+3,convertReg2ExtendedCANid@ConvertedID+3
  3170   000EE6                     
  3171                           ; BSR set to: 0
  3172                           ;mcc_generated_files/ecan.c: 444:     ConvertedID = ConvertedID + tempRXBn_EIDH;
  3173   000EE6  517C               	movf	convertReg2ExtendedCANid@tempRXBn_EIDH& (0+255),w,b
  3174   000EE8  2583               	addwf	convertReg2ExtendedCANid@ConvertedID& (0+255),w,b
  3175   000EEA  6F83               	movwf	convertReg2ExtendedCANid@ConvertedID& (0+255),b
  3176   000EEC  0E00               	movlw	0
  3177   000EEE  2184               	addwfc	(convertReg2ExtendedCANid@ConvertedID+1)& (0+255),w,b
  3178   000EF0  6F84               	movwf	(convertReg2ExtendedCANid@ConvertedID+1)& (0+255),b
  3179   000EF2  0E00               	movlw	0
  3180   000EF4  2185               	addwfc	(convertReg2ExtendedCANid@ConvertedID+2)& (0+255),w,b
  3181   000EF6  6F85               	movwf	(convertReg2ExtendedCANid@ConvertedID+2)& (0+255),b
  3182   000EF8  0E00               	movlw	0
  3183   000EFA  2186               	addwfc	(convertReg2ExtendedCANid@ConvertedID+3)& (0+255),w,b
  3184   000EFC  6F86               	movwf	(convertReg2ExtendedCANid@ConvertedID+3)& (0+255),b
  3185   000EFE                     
  3186                           ; BSR set to: 0
  3187                           ;mcc_generated_files/ecan.c: 445:     ConvertedID = (ConvertedID << 8);
  3188   000EFE  C083  F024         	movff	convertReg2ExtendedCANid@ConvertedID,??_convertReg2ExtendedCANid+1
  3189   000F02  C084  F025         	movff	convertReg2ExtendedCANid@ConvertedID+1,??_convertReg2ExtendedCANid+2
  3190   000F06  C085  F026         	movff	convertReg2ExtendedCANid@ConvertedID+2,??_convertReg2ExtendedCANid+3
  3191   000F0A  6A23               	clrf	??_convertReg2ExtendedCANid^0,c
  3192   000F0C  C023  F083         	movff	??_convertReg2ExtendedCANid,convertReg2ExtendedCANid@ConvertedID
  3193   000F10  C024  F084         	movff	??_convertReg2ExtendedCANid+1,convertReg2ExtendedCANid@ConvertedID+1
  3194   000F14  C025  F085         	movff	??_convertReg2ExtendedCANid+2,convertReg2ExtendedCANid@ConvertedID+2
  3195   000F18  C026  F086         	movff	??_convertReg2ExtendedCANid+3,convertReg2ExtendedCANid@ConvertedID+3
  3196                           
  3197                           ;mcc_generated_files/ecan.c: 446:     ConvertedID = ConvertedID + tempRXBn_EIDL;
  3198   000F1C  501F               	movf	convertReg2ExtendedCANid@tempRXBn_EIDL^0,w,c
  3199   000F1E  2583               	addwf	convertReg2ExtendedCANid@ConvertedID& (0+255),w,b
  3200   000F20  6F83               	movwf	convertReg2ExtendedCANid@ConvertedID& (0+255),b
  3201   000F22  0E00               	movlw	0
  3202   000F24  2184               	addwfc	(convertReg2ExtendedCANid@ConvertedID+1)& (0+255),w,b
  3203   000F26  6F84               	movwf	(convertReg2ExtendedCANid@ConvertedID+1)& (0+255),b
  3204   000F28  0E00               	movlw	0
  3205   000F2A  2185               	addwfc	(convertReg2ExtendedCANid@ConvertedID+2)& (0+255),w,b
  3206   000F2C  6F85               	movwf	(convertReg2ExtendedCANid@ConvertedID+2)& (0+255),b
  3207   000F2E  0E00               	movlw	0
  3208   000F30  2186               	addwfc	(convertReg2ExtendedCANid@ConvertedID+3)& (0+255),w,b
  3209   000F32  6F86               	movwf	(convertReg2ExtendedCANid@ConvertedID+3)& (0+255),b
  3210   000F34                     
  3211                           ; BSR set to: 0
  3212                           ;mcc_generated_files/ecan.c: 447:     returnValue = ConvertedID;
  3213   000F34  C083  F07D         	movff	convertReg2ExtendedCANid@ConvertedID,convertReg2ExtendedCANid@returnValue
  3214   000F38  C084  F07E         	movff	convertReg2ExtendedCANid@ConvertedID+1,convertReg2ExtendedCANid@returnValue+1
  3215   000F3C  C085  F07F         	movff	convertReg2ExtendedCANid@ConvertedID+2,convertReg2ExtendedCANid@returnValue+2
  3216   000F40  C086  F080         	movff	convertReg2ExtendedCANid@ConvertedID+3,convertReg2ExtendedCANid@returnValue+3
  3217   000F44                     
  3218                           ; BSR set to: 0
  3219                           ;mcc_generated_files/ecan.c: 448:     return (returnValue);
  3220   000F44  C07D  F01F         	movff	convertReg2ExtendedCANid@returnValue,?_convertReg2ExtendedCANid
  3221   000F48  C07E  F020         	movff	convertReg2ExtendedCANid@returnValue+1,?_convertReg2ExtendedCANid+1
  3222   000F4C  C07F  F021         	movff	convertReg2ExtendedCANid@returnValue+2,?_convertReg2ExtendedCANid+2
  3223   000F50  C080  F022         	movff	convertReg2ExtendedCANid@returnValue+3,?_convertReg2ExtendedCANid+3
  3224   000F54                     
  3225                           ; BSR set to: 0
  3226   000F54  0012               	return		;funcret
  3227   000F56                     __end_of_convertReg2ExtendedCANid:
  3228                           	callstack 0
  3229                           
  3230 ;; *************** function _INTERRUPT_InterruptManager *****************
  3231 ;; Defined at:
  3232 ;;		line 58 in file "mcc_generated_files/interrupt_manager.c"
  3233 ;; Parameters:    Size  Location     Type
  3234 ;;		None
  3235 ;; Auto vars:     Size  Location     Type
  3236 ;;		None
  3237 ;; Return value:  Size  Location     Type
  3238 ;;                  1    wreg      void 
  3239 ;; Registers used:
  3240 ;;		wreg, fsr2l, fsr2h, status,2, status,0, pcl, pclath, pclatu, tosl, cstack
  3241 ;; Tracked objects:
  3242 ;;		On entry : 0/0
  3243 ;;		On exit  : 0/0
  3244 ;;		Unchanged: 0/0
  3245 ;; Data sizes:     COMRAM   BANK0   BANK1   BANK2   BANK3   BANK4   BANK5   BANK6   BANK7   BANK8   BANK9  BANK10  BANK1
      +1  BANK12  BANK13  BANK14
  3246 ;;      Params:         0       0       0       0       0       0       0       0       0       0       0       0       
      +0       0       0       0
  3247 ;;      Locals:         0       0       0       0       0       0       0       0       0       0       0       0       
      +0       0       0       0
  3248 ;;      Temps:          4       0       0       0       0       0       0       0       0       0       0       0       
      +0       0       0       0
  3249 ;;      Totals:         4       0       0       0       0       0       0       0       0       0       0       0       
      +0       0       0       0
  3250 ;;Total ram usage:        4 bytes
  3251 ;; Hardware stack levels used: 1
  3252 ;; Hardware stack levels required when called: 6
  3253 ;; This function calls:
  3254 ;;		_ECAN_WAKI_ISR
  3255 ;;		_INT0_ISR
  3256 ;;		_INT1_ISR
  3257 ;;		_INT2_ISR
  3258 ;;		_INT3_ISR
  3259 ;; This function is called by:
  3260 ;;		Interrupt level 2
  3261 ;; This function uses a non-reentrant model
  3262 ;;
  3263                           
  3264                           	psect	intcode
  3265   000008                     __pintcode:
  3266                           	callstack 0
  3267   000008                     _INTERRUPT_InterruptManager:
  3268                           	callstack 21
  3269                           
  3270                           ; BSR set to: 0
  3271                           ;incstack = 0
  3272   000008  8241               	bsf	int$flags,1,c	;set compiler interrupt flag (level 2)
  3273   00000A  CFFA F01B          	movff	pclath,??_INTERRUPT_InterruptManager
  3274   00000E  CFFB F01C          	movff	pclatu,??_INTERRUPT_InterruptManager+1
  3275   000012  CFD9 F01D          	movff	fsr2l,??_INTERRUPT_InterruptManager+2
  3276   000016  CFDA F01E          	movff	fsr2h,??_INTERRUPT_InterruptManager+3
  3277   00001A                     
  3278                           ;mcc_generated_files/interrupt_manager.c: 61:     if(INTCONbits.INT0IE == 1 && INTCONbit
      +                          s.INT0IF == 1)
  3279   00001A  A8F2               	btfss	242,4,c	;volatile
  3280   00001C  EF12  F000         	goto	i2u109_41
  3281   000020  EF14  F000         	goto	i2u109_40
  3282   000024                     i2u109_41:
  3283   000024  EF1F  F000         	goto	i2l52
  3284   000028                     i2u109_40:
  3285   000028  A2F2               	btfss	242,1,c	;volatile
  3286   00002A  EF19  F000         	goto	i2u110_41
  3287   00002E  EF1B  F000         	goto	i2u110_40
  3288   000032                     i2u110_41:
  3289   000032  EF1F  F000         	goto	i2l52
  3290   000036                     i2u110_40:
  3291   000036                     
  3292                           ;mcc_generated_files/interrupt_manager.c: 62:     {;mcc_generated_files/interrupt_manage
      +                          r.c: 63:         INT0_ISR();
  3293   000036  EC8D  F009         	call	_INT0_ISR	;wreg free
  3294                           
  3295                           ;mcc_generated_files/interrupt_manager.c: 64:     }
  3296   00003A  EF6E  F000         	goto	i2l64
  3297   00003E                     i2l52:
  3298   00003E  AAF0               	btfss	240,5,c	;volatile
  3299   000040  EF24  F000         	goto	i2u111_41
  3300   000044  EF26  F000         	goto	i2u111_40
  3301   000048                     i2u111_41:
  3302   000048  EF31  F000         	goto	i2l54
  3303   00004C                     i2u111_40:
  3304   00004C  A4F0               	btfss	240,2,c	;volatile
  3305   00004E  EF2B  F000         	goto	i2u112_41
  3306   000052  EF2D  F000         	goto	i2u112_40
  3307   000056                     i2u112_41:
  3308   000056  EF31  F000         	goto	i2l54
  3309   00005A                     i2u112_40:
  3310   00005A                     
  3311                           ;mcc_generated_files/interrupt_manager.c: 66:     {;mcc_generated_files/interrupt_manage
      +                          r.c: 67:         INT3_ISR();
  3312   00005A  EC81  F009         	call	_INT3_ISR	;wreg free
  3313                           
  3314                           ;mcc_generated_files/interrupt_manager.c: 68:     }
  3315   00005E  EF6E  F000         	goto	i2l64
  3316   000062                     i2l54:
  3317   000062  A6F0               	btfss	240,3,c	;volatile
  3318   000064  EF36  F000         	goto	i2u113_41
  3319   000068  EF38  F000         	goto	i2u113_40
  3320   00006C                     i2u113_41:
  3321   00006C  EF43  F000         	goto	i2l56
  3322   000070                     i2u113_40:
  3323   000070  A0F0               	btfss	240,0,c	;volatile
  3324   000072  EF3D  F000         	goto	i2u114_41
  3325   000076  EF3F  F000         	goto	i2u114_40
  3326   00007A                     i2u114_41:
  3327   00007A  EF43  F000         	goto	i2l56
  3328   00007E                     i2u114_40:
  3329   00007E                     
  3330                           ;mcc_generated_files/interrupt_manager.c: 70:     {;mcc_generated_files/interrupt_manage
      +                          r.c: 71:         INT1_ISR();
  3331   00007E  EC89  F009         	call	_INT1_ISR	;wreg free
  3332                           
  3333                           ;mcc_generated_files/interrupt_manager.c: 72:     }
  3334   000082  EF6E  F000         	goto	i2l64
  3335   000086                     i2l56:
  3336   000086  A8F0               	btfss	240,4,c	;volatile
  3337   000088  EF48  F000         	goto	i2u115_41
  3338   00008C  EF4A  F000         	goto	i2u115_40
  3339   000090                     i2u115_41:
  3340   000090  EF55  F000         	goto	i2l58
  3341   000094                     i2u115_40:
  3342   000094  A2F0               	btfss	240,1,c	;volatile
  3343   000096  EF4F  F000         	goto	i2u116_41
  3344   00009A  EF51  F000         	goto	i2u116_40
  3345   00009E                     i2u116_41:
  3346   00009E  EF55  F000         	goto	i2l58
  3347   0000A2                     i2u116_40:
  3348   0000A2                     
  3349                           ;mcc_generated_files/interrupt_manager.c: 74:     {;mcc_generated_files/interrupt_manage
      +                          r.c: 75:         INT2_ISR();
  3350   0000A2  EC85  F009         	call	_INT2_ISR	;wreg free
  3351                           
  3352                           ;mcc_generated_files/interrupt_manager.c: 76:     }
  3353   0000A6  EF6E  F000         	goto	i2l64
  3354   0000AA                     i2l58:
  3355   0000AA  ACF2               	btfss	242,6,c	;volatile
  3356   0000AC  EF5A  F000         	goto	i2u117_41
  3357   0000B0  EF5C  F000         	goto	i2u117_40
  3358   0000B4                     i2u117_41:
  3359   0000B4  EF6E  F000         	goto	i2l59
  3360   0000B8                     i2u117_40:
  3361   0000B8                     
  3362                           ;mcc_generated_files/interrupt_manager.c: 78:     {;mcc_generated_files/interrupt_manage
      +                          r.c: 79:         if(PIE5bits.WAKIE == 1 && PIR5bits.WAKIF == 1)
  3363   0000B8  AC76               	btfss	118,6,c	;volatile
  3364   0000BA  EF61  F000         	goto	i2u118_41
  3365   0000BE  EF63  F000         	goto	i2u118_40
  3366   0000C2                     i2u118_41:
  3367   0000C2  EF6E  F000         	goto	i2l59
  3368   0000C6                     i2u118_40:
  3369   0000C6  AC77               	btfss	119,6,c	;volatile
  3370   0000C8  EF68  F000         	goto	i2u119_41
  3371   0000CC  EF6A  F000         	goto	i2u119_40
  3372   0000D0                     i2u119_41:
  3373   0000D0  EF6E  F000         	goto	i2l59
  3374   0000D4                     i2u119_40:
  3375   0000D4                     
  3376                           ;mcc_generated_files/interrupt_manager.c: 80:         {;mcc_generated_files/interrupt_ma
      +                          nager.c: 81:             ECAN_WAKI_ISR();
  3377   0000D4  EC45  F009         	call	_ECAN_WAKI_ISR	;wreg free
  3378                           
  3379                           ;mcc_generated_files/interrupt_manager.c: 82:         }
  3380   0000D8  EF6E  F000         	goto	i2l64
  3381   0000DC                     i2l59:
  3382   0000DC                     i2l64:
  3383   0000DC  C01E  FFDA         	movff	??_INTERRUPT_InterruptManager+3,fsr2h
  3384   0000E0  C01D  FFD9         	movff	??_INTERRUPT_InterruptManager+2,fsr2l
  3385   0000E4  C01C  FFFB         	movff	??_INTERRUPT_InterruptManager+1,pclatu
  3386   0000E8  C01B  FFFA         	movff	??_INTERRUPT_InterruptManager,pclath
  3387   0000EC  9241               	bcf	int$flags,1,c	;clear compiler interrupt flag (level 2)
  3388   0000EE  0011               	retfie		f
  3389   0000F0                     __end_of_INTERRUPT_InterruptManager:
  3390                           	callstack 0
  3391                           
  3392 ;; *************** function _INT3_ISR *****************
  3393 ;; Defined at:
  3394 ;;		line 115 in file "mcc_generated_files/ext_int.c"
  3395 ;; Parameters:    Size  Location     Type
  3396 ;;		None
  3397 ;; Auto vars:     Size  Location     Type
  3398 ;;		None
  3399 ;; Return value:  Size  Location     Type
  3400 ;;                  1    wreg      void 
  3401 ;; Registers used:
  3402 ;;		wreg, fsr2l, fsr2h, status,2, status,0, pcl, pclath, pclatu, tosl, cstack
  3403 ;; Tracked objects:
  3404 ;;		On entry : 0/0
  3405 ;;		On exit  : 0/0
  3406 ;;		Unchanged: 0/0
  3407 ;; Data sizes:     COMRAM   BANK0   BANK1   BANK2   BANK3   BANK4   BANK5   BANK6   BANK7   BANK8   BANK9  BANK10  BANK1
      +1  BANK12  BANK13  BANK14
  3408 ;;      Params:         0       0       0       0       0       0       0       0       0       0       0       0       
      +0       0       0       0
  3409 ;;      Locals:         0       0       0       0       0       0       0       0       0       0       0       0       
      +0       0       0       0
  3410 ;;      Temps:          0       0       0       0       0       0       0       0       0       0       0       0       
      +0       0       0       0
  3411 ;;      Totals:         0       0       0       0       0       0       0       0       0       0       0       0       
      +0       0       0       0
  3412 ;;Total ram usage:        0 bytes
  3413 ;; Hardware stack levels used: 1
  3414 ;; Hardware stack levels required when called: 5
  3415 ;; This function calls:
  3416 ;;		_INT3_CallBack
  3417 ;; This function is called by:
  3418 ;;		_INTERRUPT_InterruptManager
  3419 ;; This function uses a non-reentrant model
  3420 ;;
  3421                           
  3422                           	psect	text19
  3423   001302                     __ptext19:
  3424                           	callstack 0
  3425   001302                     _INT3_ISR:
  3426                           	callstack 21
  3427   001302                     
  3428                           ;mcc_generated_files/ext_int.c: 117:     (INTCON3bits.INT3IF = 0);
  3429   001302  94F0               	bcf	240,2,c	;volatile
  3430   001304                     
  3431                           ;mcc_generated_files/ext_int.c: 120:     INT3_CallBack();
  3432   001304  ECC6  F008         	call	_INT3_CallBack	;wreg free
  3433   001308  0012               	return		;funcret
  3434   00130A                     __end_of_INT3_ISR:
  3435                           	callstack 0
  3436                           
  3437 ;; *************** function _INT3_CallBack *****************
  3438 ;; Defined at:
  3439 ;;		line 124 in file "mcc_generated_files/ext_int.c"
  3440 ;; Parameters:    Size  Location     Type
  3441 ;;		None
  3442 ;; Auto vars:     Size  Location     Type
  3443 ;;		None
  3444 ;; Return value:  Size  Location     Type
  3445 ;;                  1    wreg      void 
  3446 ;; Registers used:
  3447 ;;		wreg, fsr2l, fsr2h, status,2, status,0, pcl, pclath, pclatu, tosl, cstack
  3448 ;; Tracked objects:
  3449 ;;		On entry : 0/0
  3450 ;;		On exit  : 0/0
  3451 ;;		Unchanged: 0/0
  3452 ;; Data sizes:     COMRAM   BANK0   BANK1   BANK2   BANK3   BANK4   BANK5   BANK6   BANK7   BANK8   BANK9  BANK10  BANK1
      +1  BANK12  BANK13  BANK14
  3453 ;;      Params:         0       0       0       0       0       0       0       0       0       0       0       0       
      +0       0       0       0
  3454 ;;      Locals:         0       0       0       0       0       0       0       0       0       0       0       0       
      +0       0       0       0
  3455 ;;      Temps:          0       0       0       0       0       0       0       0       0       0       0       0       
      +0       0       0       0
  3456 ;;      Totals:         0       0       0       0       0       0       0       0       0       0       0       0       
      +0       0       0       0
  3457 ;;Total ram usage:        0 bytes
  3458 ;; Hardware stack levels used: 1
  3459 ;; Hardware stack levels required when called: 4
  3460 ;; This function calls:
  3461 ;;		NULL
  3462 ;;		_INT3_DefaultInterruptHandler
  3463 ;;		_Pin3_ISR
  3464 ;; This function is called by:
  3465 ;;		_INT3_ISR
  3466 ;; This function uses a non-reentrant model
  3467 ;;
  3468                           
  3469                           	psect	text20
  3470   00118C                     __ptext20:
  3471                           	callstack 0
  3472   00118C                     _INT3_CallBack:
  3473                           	callstack 21
  3474   00118C                     
  3475                           ;mcc_generated_files/ext_int.c: 127:     if(INT3_InterruptHandler)
  3476   00118C  5039               	movf	_INT3_InterruptHandler^0,w,c
  3477   00118E  103A               	iorwf	(_INT3_InterruptHandler+1)^0,w,c
  3478   001190  B4D8               	btfsc	status,2,c
  3479   001192  EFCD  F008         	goto	i2u103_41
  3480   001196  EFCF  F008         	goto	i2u103_40
  3481   00119A                     i2u103_41:
  3482   00119A  EFDC  F008         	goto	i2l582
  3483   00119E                     i2u103_40:
  3484   00119E                     
  3485                           ;mcc_generated_files/ext_int.c: 128:     {;mcc_generated_files/ext_int.c: 129:         I
      +                          NT3_InterruptHandler();
  3486   00119E  D802               	call	i2u104_48
  3487   0011A0  EFDC  F008         	goto	i2u104_49
  3488   0011A4                     i2u104_48:
  3489   0011A4  0005               	push	
  3490   0011A6  6EFA               	movwf	pclath,c
  3491   0011A8  5039               	movf	_INT3_InterruptHandler^0,w,c
  3492   0011AA  6EFD               	movwf	tosl,c
  3493   0011AC  503A               	movf	(_INT3_InterruptHandler+1)^0,w,c
  3494   0011AE  6EFE               	movwf	tosh,c
  3495   0011B0  50F8               	movf	tblptru,w,c
  3496   0011B2  6EFF               	movwf	tosu,c
  3497   0011B4  50FA               	movf	pclath,w,c
  3498   0011B6  0012               	return		;indir
  3499   0011B8                     i2u104_49:
  3500   0011B8                     i2l582:
  3501   0011B8  0012               	return		;funcret
  3502   0011BA                     __end_of_INT3_CallBack:
  3503                           	callstack 0
  3504                           
  3505 ;; *************** function _INT3_DefaultInterruptHandler *****************
  3506 ;; Defined at:
  3507 ;;		line 137 in file "mcc_generated_files/ext_int.c"
  3508 ;; Parameters:    Size  Location     Type
  3509 ;;		None
  3510 ;; Auto vars:     Size  Location     Type
  3511 ;;		None
  3512 ;; Return value:  Size  Location     Type
  3513 ;;                  1    wreg      void 
  3514 ;; Registers used:
  3515 ;;		None
  3516 ;; Tracked objects:
  3517 ;;		On entry : 0/0
  3518 ;;		On exit  : 0/0
  3519 ;;		Unchanged: 0/0
  3520 ;; Data sizes:     COMRAM   BANK0   BANK1   BANK2   BANK3   BANK4   BANK5   BANK6   BANK7   BANK8   BANK9  BANK10  BANK1
      +1  BANK12  BANK13  BANK14
  3521 ;;      Params:         0       0       0       0       0       0       0       0       0       0       0       0       
      +0       0       0       0
  3522 ;;      Locals:         0       0       0       0       0       0       0       0       0       0       0       0       
      +0       0       0       0
  3523 ;;      Temps:          0       0       0       0       0       0       0       0       0       0       0       0       
      +0       0       0       0
  3524 ;;      Totals:         0       0       0       0       0       0       0       0       0       0       0       0       
      +0       0       0       0
  3525 ;;Total ram usage:        0 bytes
  3526 ;; Hardware stack levels used: 1
  3527 ;; This function calls:
  3528 ;;		Nothing
  3529 ;; This function is called by:
  3530 ;;		_EXT_INT_Initialize
  3531 ;;		_INT3_CallBack
  3532 ;; This function uses a non-reentrant model
  3533 ;;
  3534                           
  3535                           	psect	text21
  3536   001326                     __ptext21:
  3537                           	callstack 0
  3538   001326                     _INT3_DefaultInterruptHandler:
  3539                           	callstack 24
  3540   001326  0012               	return		;funcret
  3541   001328                     __end_of_INT3_DefaultInterruptHandler:
  3542                           	callstack 0
  3543                           
  3544 ;; *************** function _Pin3_ISR *****************
  3545 ;; Defined at:
  3546 ;;		line 91 in file "main.c"
  3547 ;; Parameters:    Size  Location     Type
  3548 ;;		None
  3549 ;; Auto vars:     Size  Location     Type
  3550 ;;		None
  3551 ;; Return value:  Size  Location     Type
  3552 ;;                  1    wreg      void 
  3553 ;; Registers used:
  3554 ;;		wreg, fsr2l, fsr2h, status,2, status,0, cstack
  3555 ;; Tracked objects:
  3556 ;;		On entry : 0/0
  3557 ;;		On exit  : 0/0
  3558 ;;		Unchanged: 0/0
  3559 ;; Data sizes:     COMRAM   BANK0   BANK1   BANK2   BANK3   BANK4   BANK5   BANK6   BANK7   BANK8   BANK9  BANK10  BANK1
      +1  BANK12  BANK13  BANK14
  3560 ;;      Params:         0       0       0       0       0       0       0       0       0       0       0       0       
      +0       0       0       0
  3561 ;;      Locals:         0       0       0       0       0       0       0       0       0       0       0       0       
      +0       0       0       0
  3562 ;;      Temps:          0       0       0       0       0       0       0       0       0       0       0       0       
      +0       0       0       0
  3563 ;;      Totals:         0       0       0       0       0       0       0       0       0       0       0       0       
      +0       0       0       0
  3564 ;;Total ram usage:        0 bytes
  3565 ;; Hardware stack levels used: 1
  3566 ;; Hardware stack levels required when called: 3
  3567 ;; This function calls:
  3568 ;;		_startup
  3569 ;;		i2_shutdown
  3570 ;; This function is called by:
  3571 ;;		_main
  3572 ;;		_INT3_CallBack
  3573 ;; This function uses a non-reentrant model
  3574 ;;
  3575                           
  3576                           	psect	text22
  3577   00126A                     __ptext22:
  3578                           	callstack 0
  3579   00126A                     _Pin3_ISR:
  3580                           	callstack 21
  3581   00126A                     
  3582                           ;main.c: 92:     if(latchOn){
  3583   00126A  5027               	movf	_latchOn^0,w,c
  3584   00126C  1028               	iorwf	(_latchOn+1)^0,w,c
  3585   00126E  B4D8               	btfsc	status,2,c
  3586   001270  EF3C  F009         	goto	i2u97_41
  3587   001274  EF3E  F009         	goto	i2u97_40
  3588   001278                     i2u97_41:
  3589   001278  EF42  F009         	goto	i2l2671
  3590   00127C                     i2u97_40:
  3591   00127C                     
  3592                           ;main.c: 93:         shutdown();
  3593   00127C  EC6B  F008         	call	i2_shutdown	;wreg free
  3594                           
  3595                           ;main.c: 94:     }else{
  3596   001280  EF44  F009         	goto	i2l628
  3597   001284                     i2l2671:
  3598                           
  3599                           ;main.c: 95:         startup();
  3600   001284  ECAB  F008         	call	_startup	;wreg free
  3601   001288                     i2l628:
  3602   001288  0012               	return		;funcret
  3603   00128A                     __end_of_Pin3_ISR:
  3604                           	callstack 0
  3605                           
  3606 ;; *************** function i2_shutdown *****************
  3607 ;; Defined at:
  3608 ;;		line 77 in file "main.c"
  3609 ;; Parameters:    Size  Location     Type
  3610 ;;		None
  3611 ;; Auto vars:     Size  Location     Type
  3612 ;;		None
  3613 ;; Return value:  Size  Location     Type
  3614 ;;                  1    wreg      void 
  3615 ;; Registers used:
  3616 ;;		wreg, fsr2l, fsr2h, status,2, status,0, cstack
  3617 ;; Tracked objects:
  3618 ;;		On entry : 0/0
  3619 ;;		On exit  : 0/0
  3620 ;;		Unchanged: 0/0
  3621 ;; Data sizes:     COMRAM   BANK0   BANK1   BANK2   BANK3   BANK4   BANK5   BANK6   BANK7   BANK8   BANK9  BANK10  BANK1
      +1  BANK12  BANK13  BANK14
  3622 ;;      Params:         0       0       0       0       0       0       0       0       0       0       0       0       
      +0       0       0       0
  3623 ;;      Locals:         0       0       0       0       0       0       0       0       0       0       0       0       
      +0       0       0       0
  3624 ;;      Temps:          2       0       0       0       0       0       0       0       0       0       0       0       
      +0       0       0       0
  3625 ;;      Totals:         2       0       0       0       0       0       0       0       0       0       0       0       
      +0       0       0       0
  3626 ;;Total ram usage:        2 bytes
  3627 ;; Hardware stack levels used: 1
  3628 ;; Hardware stack levels required when called: 2
  3629 ;; This function calls:
  3630 ;;		i2_CAN_transmit
  3631 ;; This function is called by:
  3632 ;;		_Pin3_ISR
  3633 ;; This function uses a non-reentrant model
  3634 ;;
  3635                           
  3636                           	psect	text23
  3637   0010D6                     __ptext23:
  3638                           	callstack 0
  3639   0010D6                     i2_shutdown:
  3640                           	callstack 21
  3641   0010D6                     
  3642                           ;main.c: 80:     txstop.frame.idType = 1;
  3643   0010D6  0E01               	movlw	1
  3644   0010D8  6E2B               	movwf	_txstop^0,c
  3645                           
  3646                           ;main.c: 81:     txstop.frame.id = 0x255;
  3647   0010DA  0E55               	movlw	85
  3648   0010DC  6E2C               	movwf	(_txstop+1)^0,c
  3649   0010DE  0E02               	movlw	2
  3650   0010E0  6E2D               	movwf	(_txstop+2)^0,c
  3651   0010E2  0E00               	movlw	0
  3652   0010E4  6E2E               	movwf	(_txstop+3)^0,c
  3653   0010E6  0E00               	movlw	0
  3654   0010E8  6E2F               	movwf	(_txstop+4)^0,c
  3655                           
  3656                           ;main.c: 82:     txstop.frame.dlc = 0x1;
  3657   0010EA  0E01               	movlw	1
  3658   0010EC  6E30               	movwf	(_txstop+5)^0,c
  3659                           
  3660                           ;main.c: 83:     txstop.frame.data0 = 1;
  3661   0010EE  0E01               	movlw	1
  3662   0010F0  6E31               	movwf	(_txstop+6)^0,c
  3663   0010F2                     
  3664                           ;main.c: 84:     CAN_transmit(&txstop);
  3665   0010F2  0E2B               	movlw	low _txstop
  3666   0010F4  6E13               	movwf	i2CAN_transmit@tempCanMsg^0,c
  3667   0010F6  0E00               	movlw	high _txstop
  3668   0010F8  6E14               	movwf	(i2CAN_transmit@tempCanMsg+1)^0,c
  3669   0010FA  EC0B  F002         	call	i2_CAN_transmit	;wreg free
  3670   0010FE                     
  3671                           ;main.c: 85:     _delay((unsigned long)((2000)*(20000000/4000.0)));
  3672   0010FE  0E33               	movlw	51
  3673   001100  6E1A               	movwf	(??i2_shutdown+1)^0,c
  3674   001102  0EBB               	movlw	187
  3675   001104  6E19               	movwf	??i2_shutdown^0,c
  3676   001106  0EE0               	movlw	224
  3677   001108                     i2u124_47:
  3678   001108  2EE8               	decfsz	wreg,f,c
  3679   00110A  D7FE               	bra	i2u124_47
  3680   00110C  2E19               	decfsz	??i2_shutdown^0,f,c
  3681   00110E  D7FC               	bra	i2u124_47
  3682   001110  2E1A               	decfsz	(??i2_shutdown+1)^0,f,c
  3683   001112  D7FA               	bra	i2u124_47
  3684   001114  928C               	bcf	140,1,c	;volatile
  3685   001116                     
  3686                           ;main.c: 88:     latchOn = 0;
  3687   001116  0E00               	movlw	0
  3688   001118  6E28               	movwf	(_latchOn+1)^0,c
  3689   00111A  0E00               	movlw	0
  3690   00111C  6E27               	movwf	_latchOn^0,c
  3691   00111E  0012               	return		;funcret
  3692   001120                     __end_ofi2_shutdown:
  3693                           	callstack 0
  3694                           
  3695 ;; *************** function _startup *****************
  3696 ;; Defined at:
  3697 ;;		line 62 in file "main.c"
  3698 ;; Parameters:    Size  Location     Type
  3699 ;;		None
  3700 ;; Auto vars:     Size  Location     Type
  3701 ;;		None
  3702 ;; Return value:  Size  Location     Type
  3703 ;;                  1    wreg      void 
  3704 ;; Registers used:
  3705 ;;		wreg, fsr2l, fsr2h, status,2, status,0, cstack
  3706 ;; Tracked objects:
  3707 ;;		On entry : 0/0
  3708 ;;		On exit  : 0/0
  3709 ;;		Unchanged: 0/0
  3710 ;; Data sizes:     COMRAM   BANK0   BANK1   BANK2   BANK3   BANK4   BANK5   BANK6   BANK7   BANK8   BANK9  BANK10  BANK1
      +1  BANK12  BANK13  BANK14
  3711 ;;      Params:         0       0       0       0       0       0       0       0       0       0       0       0       
      +0       0       0       0
  3712 ;;      Locals:         0       0       0       0       0       0       0       0       0       0       0       0       
      +0       0       0       0
  3713 ;;      Temps:          0       0       0       0       0       0       0       0       0       0       0       0       
      +0       0       0       0
  3714 ;;      Totals:         0       0       0       0       0       0       0       0       0       0       0       0       
      +0       0       0       0
  3715 ;;Total ram usage:        0 bytes
  3716 ;; Hardware stack levels used: 1
  3717 ;; Hardware stack levels required when called: 2
  3718 ;; This function calls:
  3719 ;;		i2_CAN_transmit
  3720 ;; This function is called by:
  3721 ;;		_Pin3_ISR
  3722 ;; This function uses a non-reentrant model
  3723 ;;
  3724                           
  3725                           	psect	text24
  3726   001156                     __ptext24:
  3727                           	callstack 0
  3728   001156                     _startup:
  3729                           	callstack 21
  3730   001156  828C               	bsf	140,1,c	;volatile
  3731   001158                     
  3732                           ;main.c: 67:     txstart.frame.idType = 1;
  3733   001158  0E01               	movlw	1
  3734   00115A  0100               	movlb	0	; () banked
  3735   00115C  6F60               	movwf	_txstart& (0+255),b
  3736                           
  3737                           ;main.c: 68:     txstart.frame.id = 0x31;
  3738   00115E  0E31               	movlw	49
  3739   001160  6F61               	movwf	(_txstart+1)& (0+255),b
  3740   001162  0E00               	movlw	0
  3741   001164  6F62               	movwf	(_txstart+2)& (0+255),b
  3742   001166  0E00               	movlw	0
  3743   001168  6F63               	movwf	(_txstart+3)& (0+255),b
  3744   00116A  0E00               	movlw	0
  3745   00116C  6F64               	movwf	(_txstart+4)& (0+255),b
  3746                           
  3747                           ;main.c: 69:     txstart.frame.dlc = 0x1;
  3748   00116E  0E01               	movlw	1
  3749   001170  6F65               	movwf	(_txstart+5)& (0+255),b
  3750                           
  3751                           ;main.c: 70:     txstart.frame.data0 = 1;
  3752   001172  0E01               	movlw	1
  3753   001174  6F66               	movwf	(_txstart+6)& (0+255),b
  3754   001176                     
  3755                           ; BSR set to: 0
  3756                           ;main.c: 71:     CAN_transmit(&txstart);
  3757   001176  0E60               	movlw	low _txstart
  3758   001178  6E13               	movwf	i2CAN_transmit@tempCanMsg^0,c
  3759   00117A  0E00               	movlw	high _txstart
  3760   00117C  6E14               	movwf	(i2CAN_transmit@tempCanMsg+1)^0,c
  3761   00117E  EC0B  F002         	call	i2_CAN_transmit	;wreg free
  3762   001182                     
  3763                           ;main.c: 73:     latchOn = 1;
  3764   001182  0E00               	movlw	0
  3765   001184  6E28               	movwf	(_latchOn+1)^0,c
  3766   001186  0E01               	movlw	1
  3767   001188  6E27               	movwf	_latchOn^0,c
  3768   00118A  0012               	return		;funcret
  3769   00118C                     __end_of_startup:
  3770                           	callstack 0
  3771                           
  3772 ;; *************** function i2_CAN_transmit *****************
  3773 ;; Defined at:
  3774 ;;		line 236 in file "mcc_generated_files/ecan.c"
  3775 ;; Parameters:    Size  Location     Type
  3776 ;;  tempCanMsg      2   18[COMRAM] PTR struct .
  3777 ;;		 -> txstop(14), txstart(14), 
  3778 ;; Auto vars:     Size  Location     Type
  3779 ;;  tempSIDL        1   23[COMRAM] unsigned char 
  3780 ;;  tempSIDH        1   22[COMRAM] unsigned char 
  3781 ;;  tempEIDL        1   21[COMRAM] unsigned char 
  3782 ;;  tempEIDH        1   20[COMRAM] unsigned char 
  3783 ;;  returnValue     1    0        unsigned char 
  3784 ;; Return value:  Size  Location     Type
  3785 ;;                  1    wreg      unsigned char 
  3786 ;; Registers used:
  3787 ;;		wreg, fsr2l, fsr2h, status,2, status,0, cstack
  3788 ;; Tracked objects:
  3789 ;;		On entry : 0/0
  3790 ;;		On exit  : 0/0
  3791 ;;		Unchanged: 0/0
  3792 ;; Data sizes:     COMRAM   BANK0   BANK1   BANK2   BANK3   BANK4   BANK5   BANK6   BANK7   BANK8   BANK9  BANK10  BANK1
      +1  BANK12  BANK13  BANK14
  3793 ;;      Params:         2       0       0       0       0       0       0       0       0       0       0       0       
      +0       0       0       0
  3794 ;;      Locals:         4       0       0       0       0       0       0       0       0       0       0       0       
      +0       0       0       0
  3795 ;;      Temps:          0       0       0       0       0       0       0       0       0       0       0       0       
      +0       0       0       0
  3796 ;;      Totals:         6       0       0       0       0       0       0       0       0       0       0       0       
      +0       0       0       0
  3797 ;;Total ram usage:        6 bytes
  3798 ;; Hardware stack levels used: 1
  3799 ;; Hardware stack levels required when called: 1
  3800 ;; This function calls:
  3801 ;;		i2_convertCANid2Reg
  3802 ;; This function is called by:
  3803 ;;		_startup
  3804 ;;		i2_shutdown
  3805 ;; This function uses a non-reentrant model
  3806 ;;
  3807                           
  3808                           	psect	text25
  3809   000416                     __ptext25:
  3810                           	callstack 0
  3811   000416                     i2_CAN_transmit:
  3812                           	callstack 21
  3813   000416                     
  3814                           ;mcc_generated_files/ecan.c: 236: uint8_t CAN_transmit(uCAN_MSG *tempCanMsg);mcc_generat
      +                          ed_files/ecan.c: 237: {;mcc_generated_files/ecan.c: 238:     uint8_t tempEIDH = 0;
  3815   000416  0E00               	movlw	0
  3816   000418  6E15               	movwf	i2CAN_transmit@tempEIDH^0,c
  3817                           
  3818                           ;mcc_generated_files/ecan.c: 239:     uint8_t tempEIDL = 0;
  3819   00041A  0E00               	movlw	0
  3820   00041C  6E16               	movwf	i2CAN_transmit@tempEIDL^0,c
  3821                           
  3822                           ;mcc_generated_files/ecan.c: 240:     uint8_t tempSIDH = 0;
  3823   00041E  0E00               	movlw	0
  3824   000420  6E17               	movwf	i2CAN_transmit@tempSIDH^0,c
  3825                           
  3826                           ;mcc_generated_files/ecan.c: 241:     uint8_t tempSIDL = 0;
  3827   000422  0E00               	movlw	0
  3828   000424  6E18               	movwf	i2CAN_transmit@tempSIDL^0,c
  3829   000426                     
  3830                           ;mcc_generated_files/ecan.c: 244:     if (TXB0CONbits.TXREQ != 1)
  3831   000426  010F               	movlb	15	; () banked
  3832   000428  B720               	btfsc	32,3,b	;volatile
  3833   00042A  EF19  F002         	goto	i2u91_41
  3834   00042E  EF1B  F002         	goto	i2u91_40
  3835   000432                     i2u91_41:
  3836   000432  EF95  F002         	goto	i2l429
  3837   000436                     i2u91_40:
  3838   000436                     
  3839                           ; BSR set to: 15
  3840                           ;mcc_generated_files/ecan.c: 245:     {;mcc_generated_files/ecan.c: 246:         convert
      +                          CANid2Reg(tempCanMsg->frame.id, tempCanMsg->frame.idType, &tempEIDH, &tempEIDL, &tempSID
      +                          H, &tempSIDL);
  3841   000436  EE20 F001          	lfsr	2,1
  3842   00043A  5013               	movf	i2CAN_transmit@tempCanMsg^0,w,c
  3843   00043C  26D9               	addwf	fsr2l,f,c
  3844   00043E  5014               	movf	(i2CAN_transmit@tempCanMsg+1)^0,w,c
  3845   000440  22DA               	addwfc	fsr2h,f,c
  3846   000442  CFDE F001          	movff	postinc2,i2convertCANid2Reg@tempPassedInID
  3847   000446  CFDE F002          	movff	postinc2,i2convertCANid2Reg@tempPassedInID+1
  3848   00044A  CFDE F003          	movff	postinc2,i2convertCANid2Reg@tempPassedInID+2
  3849   00044E  CFDE F004          	movff	postinc2,i2convertCANid2Reg@tempPassedInID+3
  3850   000452  C013  FFD9         	movff	i2CAN_transmit@tempCanMsg,fsr2l
  3851   000456  C014  FFDA         	movff	i2CAN_transmit@tempCanMsg+1,fsr2h
  3852   00045A  50DF               	movf	indf2,w,c
  3853   00045C  6E05               	movwf	i2convertCANid2Reg@canIdType^0,c
  3854   00045E  0E15               	movlw	low i2CAN_transmit@tempEIDH
  3855   000460  6E06               	movwf	i2convertCANid2Reg@passedInEIDH^0,c
  3856   000462  0E00               	movlw	high i2CAN_transmit@tempEIDH
  3857   000464  6E07               	movwf	(i2convertCANid2Reg@passedInEIDH+1)^0,c
  3858   000466  0E16               	movlw	low i2CAN_transmit@tempEIDL
  3859   000468  6E08               	movwf	i2convertCANid2Reg@passedInEIDL^0,c
  3860   00046A  0E00               	movlw	high i2CAN_transmit@tempEIDL
  3861   00046C  6E09               	movwf	(i2convertCANid2Reg@passedInEIDL+1)^0,c
  3862   00046E  0E17               	movlw	low i2CAN_transmit@tempSIDH
  3863   000470  6E0A               	movwf	i2convertCANid2Reg@passedInSIDH^0,c
  3864   000472  0E00               	movlw	high i2CAN_transmit@tempSIDH
  3865   000474  6E0B               	movwf	(i2convertCANid2Reg@passedInSIDH+1)^0,c
  3866   000476  0E18               	movlw	low i2CAN_transmit@tempSIDL
  3867   000478  6E0C               	movwf	i2convertCANid2Reg@passedInSIDL^0,c
  3868   00047A  0E00               	movlw	high i2CAN_transmit@tempSIDL
  3869   00047C  6E0D               	movwf	(i2convertCANid2Reg@passedInSIDL+1)^0,c
  3870   00047E  EC54  F006         	call	i2_convertCANid2Reg	;wreg free
  3871   000482                     
  3872                           ;mcc_generated_files/ecan.c: 248:         TXB0EIDH = tempEIDH;
  3873   000482  C015  FF23         	movff	i2CAN_transmit@tempEIDH,3875	;volatile
  3874   000486                     
  3875                           ;mcc_generated_files/ecan.c: 249:         TXB0EIDL = tempEIDL;
  3876   000486  C016  FF24         	movff	i2CAN_transmit@tempEIDL,3876	;volatile
  3877   00048A                     
  3878                           ;mcc_generated_files/ecan.c: 250:         TXB0SIDH = tempSIDH;
  3879   00048A  C017  FF21         	movff	i2CAN_transmit@tempSIDH,3873	;volatile
  3880   00048E                     
  3881                           ;mcc_generated_files/ecan.c: 251:         TXB0SIDL = tempSIDL;
  3882   00048E  C018  FF22         	movff	i2CAN_transmit@tempSIDL,3874	;volatile
  3883   000492                     
  3884                           ;mcc_generated_files/ecan.c: 252:         TXB0DLC = tempCanMsg->frame.dlc;
  3885   000492  EE20 F005          	lfsr	2,5
  3886   000496  5013               	movf	i2CAN_transmit@tempCanMsg^0,w,c
  3887   000498  26D9               	addwf	fsr2l,f,c
  3888   00049A  5014               	movf	(i2CAN_transmit@tempCanMsg+1)^0,w,c
  3889   00049C  22DA               	addwfc	fsr2h,f,c
  3890   00049E  50DF               	movf	indf2,w,c
  3891   0004A0  010F               	movlb	15	; () banked
  3892   0004A2  6F25               	movwf	37,b	;volatile
  3893   0004A4                     
  3894                           ; BSR set to: 15
  3895                           ;mcc_generated_files/ecan.c: 253:         TXB0D0 = tempCanMsg->frame.data0;
  3896   0004A4  EE20 F006          	lfsr	2,6
  3897   0004A8  5013               	movf	i2CAN_transmit@tempCanMsg^0,w,c
  3898   0004AA  26D9               	addwf	fsr2l,f,c
  3899   0004AC  5014               	movf	(i2CAN_transmit@tempCanMsg+1)^0,w,c
  3900   0004AE  22DA               	addwfc	fsr2h,f,c
  3901   0004B0  50DF               	movf	indf2,w,c
  3902   0004B2  6F26               	movwf	38,b	;volatile
  3903   0004B4                     
  3904                           ; BSR set to: 15
  3905                           ;mcc_generated_files/ecan.c: 254:         TXB0D1 = tempCanMsg->frame.data1;
  3906   0004B4  EE20 F007          	lfsr	2,7
  3907   0004B8  5013               	movf	i2CAN_transmit@tempCanMsg^0,w,c
  3908   0004BA  26D9               	addwf	fsr2l,f,c
  3909   0004BC  5014               	movf	(i2CAN_transmit@tempCanMsg+1)^0,w,c
  3910   0004BE  22DA               	addwfc	fsr2h,f,c
  3911   0004C0  50DF               	movf	indf2,w,c
  3912   0004C2  6F27               	movwf	39,b	;volatile
  3913   0004C4                     
  3914                           ; BSR set to: 15
  3915                           ;mcc_generated_files/ecan.c: 255:         TXB0D2 = tempCanMsg->frame.data2;
  3916   0004C4  EE20 F008          	lfsr	2,8
  3917   0004C8  5013               	movf	i2CAN_transmit@tempCanMsg^0,w,c
  3918   0004CA  26D9               	addwf	fsr2l,f,c
  3919   0004CC  5014               	movf	(i2CAN_transmit@tempCanMsg+1)^0,w,c
  3920   0004CE  22DA               	addwfc	fsr2h,f,c
  3921   0004D0  50DF               	movf	indf2,w,c
  3922   0004D2  6F28               	movwf	40,b	;volatile
  3923   0004D4                     
  3924                           ; BSR set to: 15
  3925                           ;mcc_generated_files/ecan.c: 256:         TXB0D3 = tempCanMsg->frame.data3;
  3926   0004D4  EE20 F009          	lfsr	2,9
  3927   0004D8  5013               	movf	i2CAN_transmit@tempCanMsg^0,w,c
  3928   0004DA  26D9               	addwf	fsr2l,f,c
  3929   0004DC  5014               	movf	(i2CAN_transmit@tempCanMsg+1)^0,w,c
  3930   0004DE  22DA               	addwfc	fsr2h,f,c
  3931   0004E0  50DF               	movf	indf2,w,c
  3932   0004E2  6F29               	movwf	41,b	;volatile
  3933   0004E4                     
  3934                           ; BSR set to: 15
  3935                           ;mcc_generated_files/ecan.c: 257:         TXB0D4 = tempCanMsg->frame.data4;
  3936   0004E4  EE20 F00A          	lfsr	2,10
  3937   0004E8  5013               	movf	i2CAN_transmit@tempCanMsg^0,w,c
  3938   0004EA  26D9               	addwf	fsr2l,f,c
  3939   0004EC  5014               	movf	(i2CAN_transmit@tempCanMsg+1)^0,w,c
  3940   0004EE  22DA               	addwfc	fsr2h,f,c
  3941   0004F0  50DF               	movf	indf2,w,c
  3942   0004F2  6F2A               	movwf	42,b	;volatile
  3943   0004F4                     
  3944                           ; BSR set to: 15
  3945                           ;mcc_generated_files/ecan.c: 258:         TXB0D5 = tempCanMsg->frame.data5;
  3946   0004F4  EE20 F00B          	lfsr	2,11
  3947   0004F8  5013               	movf	i2CAN_transmit@tempCanMsg^0,w,c
  3948   0004FA  26D9               	addwf	fsr2l,f,c
  3949   0004FC  5014               	movf	(i2CAN_transmit@tempCanMsg+1)^0,w,c
  3950   0004FE  22DA               	addwfc	fsr2h,f,c
  3951   000500  50DF               	movf	indf2,w,c
  3952   000502  6F2B               	movwf	43,b	;volatile
  3953   000504                     
  3954                           ; BSR set to: 15
  3955                           ;mcc_generated_files/ecan.c: 259:         TXB0D6 = tempCanMsg->frame.data6;
  3956   000504  EE20 F00C          	lfsr	2,12
  3957   000508  5013               	movf	i2CAN_transmit@tempCanMsg^0,w,c
  3958   00050A  26D9               	addwf	fsr2l,f,c
  3959   00050C  5014               	movf	(i2CAN_transmit@tempCanMsg+1)^0,w,c
  3960   00050E  22DA               	addwfc	fsr2h,f,c
  3961   000510  50DF               	movf	indf2,w,c
  3962   000512  6F2C               	movwf	44,b	;volatile
  3963   000514                     
  3964                           ; BSR set to: 15
  3965                           ;mcc_generated_files/ecan.c: 260:         TXB0D7 = tempCanMsg->frame.data7;
  3966   000514  EE20 F00D          	lfsr	2,13
  3967   000518  5013               	movf	i2CAN_transmit@tempCanMsg^0,w,c
  3968   00051A  26D9               	addwf	fsr2l,f,c
  3969   00051C  5014               	movf	(i2CAN_transmit@tempCanMsg+1)^0,w,c
  3970   00051E  22DA               	addwfc	fsr2h,f,c
  3971   000520  50DF               	movf	indf2,w,c
  3972   000522  6F2D               	movwf	45,b	;volatile
  3973   000524                     
  3974                           ; BSR set to: 15
  3975                           ;mcc_generated_files/ecan.c: 262:         TXB0CONbits.TXREQ = 1;
  3976   000524  8720               	bsf	32,3,b	;volatile
  3977   000526                     i2l2549:
  3978                           
  3979                           ; BSR set to: 15
  3980                           ;mcc_generated_files/ecan.c: 265:     }
  3981   000526  EF97  F003         	goto	i2l434
  3982   00052A                     i2l429:
  3983                           
  3984                           ; BSR set to: 15
  3985   00052A  B710               	btfsc	16,3,b	;volatile
  3986   00052C  EF9A  F002         	goto	i2u92_41
  3987   000530  EF9C  F002         	goto	i2u92_40
  3988   000534                     i2u92_41:
  3989   000534  EF16  F003         	goto	i2l431
  3990   000538                     i2u92_40:
  3991   000538                     
  3992                           ; BSR set to: 15
  3993                           ;mcc_generated_files/ecan.c: 267:     {;mcc_generated_files/ecan.c: 269:         convert
      +                          CANid2Reg(tempCanMsg->frame.id, tempCanMsg->frame.idType, &tempEIDH, &tempEIDL, &tempSID
      +                          H, &tempSIDL);
  3994   000538  EE20 F001          	lfsr	2,1
  3995   00053C  5013               	movf	i2CAN_transmit@tempCanMsg^0,w,c
  3996   00053E  26D9               	addwf	fsr2l,f,c
  3997   000540  5014               	movf	(i2CAN_transmit@tempCanMsg+1)^0,w,c
  3998   000542  22DA               	addwfc	fsr2h,f,c
  3999   000544  CFDE F001          	movff	postinc2,i2convertCANid2Reg@tempPassedInID
  4000   000548  CFDE F002          	movff	postinc2,i2convertCANid2Reg@tempPassedInID+1
  4001   00054C  CFDE F003          	movff	postinc2,i2convertCANid2Reg@tempPassedInID+2
  4002   000550  CFDE F004          	movff	postinc2,i2convertCANid2Reg@tempPassedInID+3
  4003   000554  C013  FFD9         	movff	i2CAN_transmit@tempCanMsg,fsr2l
  4004   000558  C014  FFDA         	movff	i2CAN_transmit@tempCanMsg+1,fsr2h
  4005   00055C  50DF               	movf	indf2,w,c
  4006   00055E  6E05               	movwf	i2convertCANid2Reg@canIdType^0,c
  4007   000560  0E15               	movlw	low i2CAN_transmit@tempEIDH
  4008   000562  6E06               	movwf	i2convertCANid2Reg@passedInEIDH^0,c
  4009   000564  0E00               	movlw	high i2CAN_transmit@tempEIDH
  4010   000566  6E07               	movwf	(i2convertCANid2Reg@passedInEIDH+1)^0,c
  4011   000568  0E16               	movlw	low i2CAN_transmit@tempEIDL
  4012   00056A  6E08               	movwf	i2convertCANid2Reg@passedInEIDL^0,c
  4013   00056C  0E00               	movlw	high i2CAN_transmit@tempEIDL
  4014   00056E  6E09               	movwf	(i2convertCANid2Reg@passedInEIDL+1)^0,c
  4015   000570  0E17               	movlw	low i2CAN_transmit@tempSIDH
  4016   000572  6E0A               	movwf	i2convertCANid2Reg@passedInSIDH^0,c
  4017   000574  0E00               	movlw	high i2CAN_transmit@tempSIDH
  4018   000576  6E0B               	movwf	(i2convertCANid2Reg@passedInSIDH+1)^0,c
  4019   000578  0E18               	movlw	low i2CAN_transmit@tempSIDL
  4020   00057A  6E0C               	movwf	i2convertCANid2Reg@passedInSIDL^0,c
  4021   00057C  0E00               	movlw	high i2CAN_transmit@tempSIDL
  4022   00057E  6E0D               	movwf	(i2convertCANid2Reg@passedInSIDL+1)^0,c
  4023   000580  EC54  F006         	call	i2_convertCANid2Reg	;wreg free
  4024   000584                     
  4025                           ;mcc_generated_files/ecan.c: 271:         TXB1EIDH = tempEIDH;
  4026   000584  C015  FF13         	movff	i2CAN_transmit@tempEIDH,3859	;volatile
  4027   000588                     
  4028                           ;mcc_generated_files/ecan.c: 272:         TXB1EIDL = tempEIDL;
  4029   000588  C016  FF14         	movff	i2CAN_transmit@tempEIDL,3860	;volatile
  4030   00058C                     
  4031                           ;mcc_generated_files/ecan.c: 273:         TXB1SIDH = tempSIDH;
  4032   00058C  C017  FF11         	movff	i2CAN_transmit@tempSIDH,3857	;volatile
  4033   000590                     
  4034                           ;mcc_generated_files/ecan.c: 274:         TXB1SIDL = tempSIDL;
  4035   000590  C018  FF12         	movff	i2CAN_transmit@tempSIDL,3858	;volatile
  4036   000594                     
  4037                           ;mcc_generated_files/ecan.c: 275:         TXB1DLC = tempCanMsg->frame.dlc;
  4038   000594  EE20 F005          	lfsr	2,5
  4039   000598  5013               	movf	i2CAN_transmit@tempCanMsg^0,w,c
  4040   00059A  26D9               	addwf	fsr2l,f,c
  4041   00059C  5014               	movf	(i2CAN_transmit@tempCanMsg+1)^0,w,c
  4042   00059E  22DA               	addwfc	fsr2h,f,c
  4043   0005A0  50DF               	movf	indf2,w,c
  4044   0005A2  010F               	movlb	15	; () banked
  4045   0005A4  6F15               	movwf	21,b	;volatile
  4046   0005A6                     
  4047                           ; BSR set to: 15
  4048                           ;mcc_generated_files/ecan.c: 276:         TXB1D0 = tempCanMsg->frame.data0;
  4049   0005A6  EE20 F006          	lfsr	2,6
  4050   0005AA  5013               	movf	i2CAN_transmit@tempCanMsg^0,w,c
  4051   0005AC  26D9               	addwf	fsr2l,f,c
  4052   0005AE  5014               	movf	(i2CAN_transmit@tempCanMsg+1)^0,w,c
  4053   0005B0  22DA               	addwfc	fsr2h,f,c
  4054   0005B2  50DF               	movf	indf2,w,c
  4055   0005B4  6F16               	movwf	22,b	;volatile
  4056   0005B6                     
  4057                           ; BSR set to: 15
  4058                           ;mcc_generated_files/ecan.c: 277:         TXB1D1 = tempCanMsg->frame.data1;
  4059   0005B6  EE20 F007          	lfsr	2,7
  4060   0005BA  5013               	movf	i2CAN_transmit@tempCanMsg^0,w,c
  4061   0005BC  26D9               	addwf	fsr2l,f,c
  4062   0005BE  5014               	movf	(i2CAN_transmit@tempCanMsg+1)^0,w,c
  4063   0005C0  22DA               	addwfc	fsr2h,f,c
  4064   0005C2  50DF               	movf	indf2,w,c
  4065   0005C4  6F17               	movwf	23,b	;volatile
  4066   0005C6                     
  4067                           ; BSR set to: 15
  4068                           ;mcc_generated_files/ecan.c: 278:         TXB1D2 = tempCanMsg->frame.data2;
  4069   0005C6  EE20 F008          	lfsr	2,8
  4070   0005CA  5013               	movf	i2CAN_transmit@tempCanMsg^0,w,c
  4071   0005CC  26D9               	addwf	fsr2l,f,c
  4072   0005CE  5014               	movf	(i2CAN_transmit@tempCanMsg+1)^0,w,c
  4073   0005D0  22DA               	addwfc	fsr2h,f,c
  4074   0005D2  50DF               	movf	indf2,w,c
  4075   0005D4  6F18               	movwf	24,b	;volatile
  4076   0005D6                     
  4077                           ; BSR set to: 15
  4078                           ;mcc_generated_files/ecan.c: 279:         TXB1D3 = tempCanMsg->frame.data3;
  4079   0005D6  EE20 F009          	lfsr	2,9
  4080   0005DA  5013               	movf	i2CAN_transmit@tempCanMsg^0,w,c
  4081   0005DC  26D9               	addwf	fsr2l,f,c
  4082   0005DE  5014               	movf	(i2CAN_transmit@tempCanMsg+1)^0,w,c
  4083   0005E0  22DA               	addwfc	fsr2h,f,c
  4084   0005E2  50DF               	movf	indf2,w,c
  4085   0005E4  6F19               	movwf	25,b	;volatile
  4086   0005E6                     
  4087                           ; BSR set to: 15
  4088                           ;mcc_generated_files/ecan.c: 280:         TXB1D4 = tempCanMsg->frame.data4;
  4089   0005E6  EE20 F00A          	lfsr	2,10
  4090   0005EA  5013               	movf	i2CAN_transmit@tempCanMsg^0,w,c
  4091   0005EC  26D9               	addwf	fsr2l,f,c
  4092   0005EE  5014               	movf	(i2CAN_transmit@tempCanMsg+1)^0,w,c
  4093   0005F0  22DA               	addwfc	fsr2h,f,c
  4094   0005F2  50DF               	movf	indf2,w,c
  4095   0005F4  6F1A               	movwf	26,b	;volatile
  4096   0005F6                     
  4097                           ; BSR set to: 15
  4098                           ;mcc_generated_files/ecan.c: 281:         TXB1D5 = tempCanMsg->frame.data5;
  4099   0005F6  EE20 F00B          	lfsr	2,11
  4100   0005FA  5013               	movf	i2CAN_transmit@tempCanMsg^0,w,c
  4101   0005FC  26D9               	addwf	fsr2l,f,c
  4102   0005FE  5014               	movf	(i2CAN_transmit@tempCanMsg+1)^0,w,c
  4103   000600  22DA               	addwfc	fsr2h,f,c
  4104   000602  50DF               	movf	indf2,w,c
  4105   000604  6F1B               	movwf	27,b	;volatile
  4106   000606                     
  4107                           ; BSR set to: 15
  4108                           ;mcc_generated_files/ecan.c: 282:         TXB1D6 = tempCanMsg->frame.data6;
  4109   000606  EE20 F00C          	lfsr	2,12
  4110   00060A  5013               	movf	i2CAN_transmit@tempCanMsg^0,w,c
  4111   00060C  26D9               	addwf	fsr2l,f,c
  4112   00060E  5014               	movf	(i2CAN_transmit@tempCanMsg+1)^0,w,c
  4113   000610  22DA               	addwfc	fsr2h,f,c
  4114   000612  50DF               	movf	indf2,w,c
  4115   000614  6F1C               	movwf	28,b	;volatile
  4116   000616                     
  4117                           ; BSR set to: 15
  4118                           ;mcc_generated_files/ecan.c: 283:         TXB1D7 = tempCanMsg->frame.data7;
  4119   000616  EE20 F00D          	lfsr	2,13
  4120   00061A  5013               	movf	i2CAN_transmit@tempCanMsg^0,w,c
  4121   00061C  26D9               	addwf	fsr2l,f,c
  4122   00061E  5014               	movf	(i2CAN_transmit@tempCanMsg+1)^0,w,c
  4123   000620  22DA               	addwfc	fsr2h,f,c
  4124   000622  50DF               	movf	indf2,w,c
  4125   000624  6F1D               	movwf	29,b	;volatile
  4126   000626                     
  4127                           ; BSR set to: 15
  4128                           ;mcc_generated_files/ecan.c: 285:         TXB1CONbits.TXREQ = 1;
  4129   000626  8710               	bsf	16,3,b	;volatile
  4130   000628  EF93  F002         	goto	i2l2549
  4131   00062C                     i2l431:
  4132                           
  4133                           ; BSR set to: 15
  4134   00062C  B700               	btfsc	0,3,b	;volatile
  4135   00062E  EF1B  F003         	goto	i2u93_41
  4136   000632  EF1D  F003         	goto	i2u93_40
  4137   000636                     i2u93_41:
  4138   000636  EF97  F003         	goto	i2l430
  4139   00063A                     i2u93_40:
  4140   00063A                     
  4141                           ; BSR set to: 15
  4142                           ;mcc_generated_files/ecan.c: 289:     {;mcc_generated_files/ecan.c: 291:         convert
      +                          CANid2Reg(tempCanMsg->frame.id, tempCanMsg->frame.idType, &tempEIDH, &tempEIDL, &tempSID
      +                          H, &tempSIDL);
  4143   00063A  EE20 F001          	lfsr	2,1
  4144   00063E  5013               	movf	i2CAN_transmit@tempCanMsg^0,w,c
  4145   000640  26D9               	addwf	fsr2l,f,c
  4146   000642  5014               	movf	(i2CAN_transmit@tempCanMsg+1)^0,w,c
  4147   000644  22DA               	addwfc	fsr2h,f,c
  4148   000646  CFDE F001          	movff	postinc2,i2convertCANid2Reg@tempPassedInID
  4149   00064A  CFDE F002          	movff	postinc2,i2convertCANid2Reg@tempPassedInID+1
  4150   00064E  CFDE F003          	movff	postinc2,i2convertCANid2Reg@tempPassedInID+2
  4151   000652  CFDE F004          	movff	postinc2,i2convertCANid2Reg@tempPassedInID+3
  4152   000656  C013  FFD9         	movff	i2CAN_transmit@tempCanMsg,fsr2l
  4153   00065A  C014  FFDA         	movff	i2CAN_transmit@tempCanMsg+1,fsr2h
  4154   00065E  50DF               	movf	indf2,w,c
  4155   000660  6E05               	movwf	i2convertCANid2Reg@canIdType^0,c
  4156   000662  0E15               	movlw	low i2CAN_transmit@tempEIDH
  4157   000664  6E06               	movwf	i2convertCANid2Reg@passedInEIDH^0,c
  4158   000666  0E00               	movlw	high i2CAN_transmit@tempEIDH
  4159   000668  6E07               	movwf	(i2convertCANid2Reg@passedInEIDH+1)^0,c
  4160   00066A  0E16               	movlw	low i2CAN_transmit@tempEIDL
  4161   00066C  6E08               	movwf	i2convertCANid2Reg@passedInEIDL^0,c
  4162   00066E  0E00               	movlw	high i2CAN_transmit@tempEIDL
  4163   000670  6E09               	movwf	(i2convertCANid2Reg@passedInEIDL+1)^0,c
  4164   000672  0E17               	movlw	low i2CAN_transmit@tempSIDH
  4165   000674  6E0A               	movwf	i2convertCANid2Reg@passedInSIDH^0,c
  4166   000676  0E00               	movlw	high i2CAN_transmit@tempSIDH
  4167   000678  6E0B               	movwf	(i2convertCANid2Reg@passedInSIDH+1)^0,c
  4168   00067A  0E18               	movlw	low i2CAN_transmit@tempSIDL
  4169   00067C  6E0C               	movwf	i2convertCANid2Reg@passedInSIDL^0,c
  4170   00067E  0E00               	movlw	high i2CAN_transmit@tempSIDL
  4171   000680  6E0D               	movwf	(i2convertCANid2Reg@passedInSIDL+1)^0,c
  4172   000682  EC54  F006         	call	i2_convertCANid2Reg	;wreg free
  4173   000686                     
  4174                           ;mcc_generated_files/ecan.c: 293:         TXB2EIDH = tempEIDH;
  4175   000686  C015  FF03         	movff	i2CAN_transmit@tempEIDH,3843	;volatile
  4176   00068A                     
  4177                           ;mcc_generated_files/ecan.c: 294:         TXB2EIDL = tempEIDL;
  4178   00068A  C016  FF04         	movff	i2CAN_transmit@tempEIDL,3844	;volatile
  4179   00068E                     
  4180                           ;mcc_generated_files/ecan.c: 295:         TXB2SIDH = tempSIDH;
  4181   00068E  C017  FF01         	movff	i2CAN_transmit@tempSIDH,3841	;volatile
  4182   000692                     
  4183                           ;mcc_generated_files/ecan.c: 296:         TXB2SIDL = tempSIDL;
  4184   000692  C018  FF02         	movff	i2CAN_transmit@tempSIDL,3842	;volatile
  4185   000696                     
  4186                           ;mcc_generated_files/ecan.c: 297:         TXB2DLC = tempCanMsg->frame.dlc;
  4187   000696  EE20 F005          	lfsr	2,5
  4188   00069A  5013               	movf	i2CAN_transmit@tempCanMsg^0,w,c
  4189   00069C  26D9               	addwf	fsr2l,f,c
  4190   00069E  5014               	movf	(i2CAN_transmit@tempCanMsg+1)^0,w,c
  4191   0006A0  22DA               	addwfc	fsr2h,f,c
  4192   0006A2  50DF               	movf	indf2,w,c
  4193   0006A4  010F               	movlb	15	; () banked
  4194   0006A6  6F05               	movwf	5,b	;volatile
  4195   0006A8                     
  4196                           ; BSR set to: 15
  4197                           ;mcc_generated_files/ecan.c: 298:         TXB2D0 = tempCanMsg->frame.data0;
  4198   0006A8  EE20 F006          	lfsr	2,6
  4199   0006AC  5013               	movf	i2CAN_transmit@tempCanMsg^0,w,c
  4200   0006AE  26D9               	addwf	fsr2l,f,c
  4201   0006B0  5014               	movf	(i2CAN_transmit@tempCanMsg+1)^0,w,c
  4202   0006B2  22DA               	addwfc	fsr2h,f,c
  4203   0006B4  50DF               	movf	indf2,w,c
  4204   0006B6  6F06               	movwf	6,b	;volatile
  4205   0006B8                     
  4206                           ; BSR set to: 15
  4207                           ;mcc_generated_files/ecan.c: 299:         TXB2D1 = tempCanMsg->frame.data1;
  4208   0006B8  EE20 F007          	lfsr	2,7
  4209   0006BC  5013               	movf	i2CAN_transmit@tempCanMsg^0,w,c
  4210   0006BE  26D9               	addwf	fsr2l,f,c
  4211   0006C0  5014               	movf	(i2CAN_transmit@tempCanMsg+1)^0,w,c
  4212   0006C2  22DA               	addwfc	fsr2h,f,c
  4213   0006C4  50DF               	movf	indf2,w,c
  4214   0006C6  6F07               	movwf	7,b	;volatile
  4215   0006C8                     
  4216                           ; BSR set to: 15
  4217                           ;mcc_generated_files/ecan.c: 300:         TXB2D2 = tempCanMsg->frame.data2;
  4218   0006C8  EE20 F008          	lfsr	2,8
  4219   0006CC  5013               	movf	i2CAN_transmit@tempCanMsg^0,w,c
  4220   0006CE  26D9               	addwf	fsr2l,f,c
  4221   0006D0  5014               	movf	(i2CAN_transmit@tempCanMsg+1)^0,w,c
  4222   0006D2  22DA               	addwfc	fsr2h,f,c
  4223   0006D4  50DF               	movf	indf2,w,c
  4224   0006D6  6F08               	movwf	8,b	;volatile
  4225   0006D8                     
  4226                           ; BSR set to: 15
  4227                           ;mcc_generated_files/ecan.c: 301:         TXB2D3 = tempCanMsg->frame.data3;
  4228   0006D8  EE20 F009          	lfsr	2,9
  4229   0006DC  5013               	movf	i2CAN_transmit@tempCanMsg^0,w,c
  4230   0006DE  26D9               	addwf	fsr2l,f,c
  4231   0006E0  5014               	movf	(i2CAN_transmit@tempCanMsg+1)^0,w,c
  4232   0006E2  22DA               	addwfc	fsr2h,f,c
  4233   0006E4  50DF               	movf	indf2,w,c
  4234   0006E6  6F09               	movwf	9,b	;volatile
  4235   0006E8                     
  4236                           ; BSR set to: 15
  4237                           ;mcc_generated_files/ecan.c: 302:         TXB2D4 = tempCanMsg->frame.data4;
  4238   0006E8  EE20 F00A          	lfsr	2,10
  4239   0006EC  5013               	movf	i2CAN_transmit@tempCanMsg^0,w,c
  4240   0006EE  26D9               	addwf	fsr2l,f,c
  4241   0006F0  5014               	movf	(i2CAN_transmit@tempCanMsg+1)^0,w,c
  4242   0006F2  22DA               	addwfc	fsr2h,f,c
  4243   0006F4  50DF               	movf	indf2,w,c
  4244   0006F6  6F0A               	movwf	10,b	;volatile
  4245   0006F8                     
  4246                           ; BSR set to: 15
  4247                           ;mcc_generated_files/ecan.c: 303:         TXB2D5 = tempCanMsg->frame.data5;
  4248   0006F8  EE20 F00B          	lfsr	2,11
  4249   0006FC  5013               	movf	i2CAN_transmit@tempCanMsg^0,w,c
  4250   0006FE  26D9               	addwf	fsr2l,f,c
  4251   000700  5014               	movf	(i2CAN_transmit@tempCanMsg+1)^0,w,c
  4252   000702  22DA               	addwfc	fsr2h,f,c
  4253   000704  50DF               	movf	indf2,w,c
  4254   000706  6F0B               	movwf	11,b	;volatile
  4255   000708                     
  4256                           ; BSR set to: 15
  4257                           ;mcc_generated_files/ecan.c: 304:         TXB2D6 = tempCanMsg->frame.data6;
  4258   000708  EE20 F00C          	lfsr	2,12
  4259   00070C  5013               	movf	i2CAN_transmit@tempCanMsg^0,w,c
  4260   00070E  26D9               	addwf	fsr2l,f,c
  4261   000710  5014               	movf	(i2CAN_transmit@tempCanMsg+1)^0,w,c
  4262   000712  22DA               	addwfc	fsr2h,f,c
  4263   000714  50DF               	movf	indf2,w,c
  4264   000716  6F0C               	movwf	12,b	;volatile
  4265   000718                     
  4266                           ; BSR set to: 15
  4267                           ;mcc_generated_files/ecan.c: 305:         TXB2D7 = tempCanMsg->frame.data7;
  4268   000718  EE20 F00D          	lfsr	2,13
  4269   00071C  5013               	movf	i2CAN_transmit@tempCanMsg^0,w,c
  4270   00071E  26D9               	addwf	fsr2l,f,c
  4271   000720  5014               	movf	(i2CAN_transmit@tempCanMsg+1)^0,w,c
  4272   000722  22DA               	addwfc	fsr2h,f,c
  4273   000724  50DF               	movf	indf2,w,c
  4274   000726  6F0D               	movwf	13,b	;volatile
  4275   000728                     
  4276                           ; BSR set to: 15
  4277                           ;mcc_generated_files/ecan.c: 307:         TXB2CONbits.TXREQ = 1;
  4278   000728  8700               	bsf	0,3,b	;volatile
  4279   00072A  EF93  F002         	goto	i2l2549
  4280   00072E                     i2l430:
  4281   00072E                     i2l434:
  4282                           
  4283                           ; BSR set to: 15
  4284   00072E  0012               	return		;funcret
  4285   000730                     __end_ofi2_CAN_transmit:
  4286                           	callstack 0
  4287                           
  4288 ;; *************** function i2_convertCANid2Reg *****************
  4289 ;; Defined at:
  4290 ;;		line 463 in file "mcc_generated_files/ecan.c"
  4291 ;; Parameters:    Size  Location     Type
  4292 ;;  tempPassedIn    4    0[COMRAM] unsigned long 
  4293 ;;  canIdType       1    4[COMRAM] unsigned char 
  4294 ;;  passedInEIDH    2    5[COMRAM] PTR unsigned char 
  4295 ;;		 -> i2CAN_transmit@tempEIDH(1), CAN_transmit@tempEIDH(1), 
  4296 ;;  passedInEIDL    2    7[COMRAM] PTR unsigned char 
  4297 ;;		 -> i2CAN_transmit@tempEIDL(1), CAN_transmit@tempEIDL(1), 
  4298 ;;  passedInSIDH    2    9[COMRAM] PTR unsigned char 
  4299 ;;		 -> i2CAN_transmit@tempSIDH(1), CAN_transmit@tempSIDH(1), 
  4300 ;;  passedInSIDL    2   11[COMRAM] PTR unsigned char 
  4301 ;;		 -> i2CAN_transmit@tempSIDL(1), CAN_transmit@tempSIDL(1), 
  4302 ;; Auto vars:     Size  Location     Type
  4303 ;;  wipSIDL         1   17[COMRAM] unsigned char 
  4304 ;; Return value:  Size  Location     Type
  4305 ;;                  1    wreg      void 
  4306 ;; Registers used:
  4307 ;;		wreg, fsr2l, fsr2h, status,2, status,0
  4308 ;; Tracked objects:
  4309 ;;		On entry : 0/0
  4310 ;;		On exit  : 0/0
  4311 ;;		Unchanged: 0/0
  4312 ;; Data sizes:     COMRAM   BANK0   BANK1   BANK2   BANK3   BANK4   BANK5   BANK6   BANK7   BANK8   BANK9  BANK10  BANK1
      +1  BANK12  BANK13  BANK14
  4313 ;;      Params:        13       0       0       0       0       0       0       0       0       0       0       0       
      +0       0       0       0
  4314 ;;      Locals:         1       0       0       0       0       0       0       0       0       0       0       0       
      +0       0       0       0
  4315 ;;      Temps:          4       0       0       0       0       0       0       0       0       0       0       0       
      +0       0       0       0
  4316 ;;      Totals:        18       0       0       0       0       0       0       0       0       0       0       0       
      +0       0       0       0
  4317 ;;Total ram usage:       18 bytes
  4318 ;; Hardware stack levels used: 1
  4319 ;; This function calls:
  4320 ;;		Nothing
  4321 ;; This function is called by:
  4322 ;;		i2_CAN_transmit
  4323 ;; This function uses a non-reentrant model
  4324 ;;
  4325                           
  4326                           	psect	text26
  4327   000CA8                     __ptext26:
  4328                           	callstack 0
  4329   000CA8                     i2_convertCANid2Reg:
  4330                           	callstack 21
  4331   000CA8                     
  4332                           ;mcc_generated_files/ecan.c: 466:     if (canIdType == 2) {
  4333   000CA8  0E02               	movlw	2
  4334   000CAA  1805               	xorwf	i2convertCANid2Reg@canIdType^0,w,c
  4335   000CAC  A4D8               	btfss	status,2,c
  4336   000CAE  EF5B  F006         	goto	i2u88_41
  4337   000CB2  EF5D  F006         	goto	i2u88_40
  4338   000CB6                     i2u88_41:
  4339   000CB6  EFE0  F006         	goto	i2l2505
  4340   000CBA                     i2u88_40:
  4341   000CBA                     
  4342                           ;mcc_generated_files/ecan.c: 469:         *passedInEIDL = 0xFF & tempPassedInID;
  4343   000CBA  C008  FFD9         	movff	i2convertCANid2Reg@passedInEIDL,fsr2l
  4344   000CBE  C009  FFDA         	movff	i2convertCANid2Reg@passedInEIDL+1,fsr2h
  4345   000CC2  C001  FFDF         	movff	i2convertCANid2Reg@tempPassedInID,indf2
  4346   000CC6                     
  4347                           ;mcc_generated_files/ecan.c: 470:         tempPassedInID = tempPassedInID >> 8;
  4348   000CC6  C001  F00E         	movff	i2convertCANid2Reg@tempPassedInID,??i2_convertCANid2Reg
  4349   000CCA  C002  F00F         	movff	i2convertCANid2Reg@tempPassedInID+1,??i2_convertCANid2Reg+1
  4350   000CCE  C003  F010         	movff	i2convertCANid2Reg@tempPassedInID+2,??i2_convertCANid2Reg+2
  4351   000CD2  C004  F011         	movff	i2convertCANid2Reg@tempPassedInID+3,??i2_convertCANid2Reg+3
  4352   000CD6  C00F  F00E         	movff	??i2_convertCANid2Reg+1,??i2_convertCANid2Reg
  4353   000CDA  C010  F00F         	movff	??i2_convertCANid2Reg+2,??i2_convertCANid2Reg+1
  4354   000CDE  C011  F010         	movff	??i2_convertCANid2Reg+3,??i2_convertCANid2Reg+2
  4355   000CE2  6A11               	clrf	(??i2_convertCANid2Reg+3)^0,c
  4356   000CE4  C00E  F001         	movff	??i2_convertCANid2Reg,i2convertCANid2Reg@tempPassedInID
  4357   000CE8  C00F  F002         	movff	??i2_convertCANid2Reg+1,i2convertCANid2Reg@tempPassedInID+1
  4358   000CEC  C010  F003         	movff	??i2_convertCANid2Reg+2,i2convertCANid2Reg@tempPassedInID+2
  4359   000CF0  C011  F004         	movff	??i2_convertCANid2Reg+3,i2convertCANid2Reg@tempPassedInID+3
  4360   000CF4                     
  4361                           ;mcc_generated_files/ecan.c: 473:         *passedInEIDH = 0xFF & tempPassedInID;
  4362   000CF4  C006  FFD9         	movff	i2convertCANid2Reg@passedInEIDH,fsr2l
  4363   000CF8  C007  FFDA         	movff	i2convertCANid2Reg@passedInEIDH+1,fsr2h
  4364   000CFC  C001  FFDF         	movff	i2convertCANid2Reg@tempPassedInID,indf2
  4365                           
  4366                           ;mcc_generated_files/ecan.c: 474:         tempPassedInID = tempPassedInID >> 8;
  4367   000D00  C001  F00E         	movff	i2convertCANid2Reg@tempPassedInID,??i2_convertCANid2Reg
  4368   000D04  C002  F00F         	movff	i2convertCANid2Reg@tempPassedInID+1,??i2_convertCANid2Reg+1
  4369   000D08  C003  F010         	movff	i2convertCANid2Reg@tempPassedInID+2,??i2_convertCANid2Reg+2
  4370   000D0C  C004  F011         	movff	i2convertCANid2Reg@tempPassedInID+3,??i2_convertCANid2Reg+3
  4371   000D10  C00F  F00E         	movff	??i2_convertCANid2Reg+1,??i2_convertCANid2Reg
  4372   000D14  C010  F00F         	movff	??i2_convertCANid2Reg+2,??i2_convertCANid2Reg+1
  4373   000D18  C011  F010         	movff	??i2_convertCANid2Reg+3,??i2_convertCANid2Reg+2
  4374   000D1C  6A11               	clrf	(??i2_convertCANid2Reg+3)^0,c
  4375   000D1E  C00E  F001         	movff	??i2_convertCANid2Reg,i2convertCANid2Reg@tempPassedInID
  4376   000D22  C00F  F002         	movff	??i2_convertCANid2Reg+1,i2convertCANid2Reg@tempPassedInID+1
  4377   000D26  C010  F003         	movff	??i2_convertCANid2Reg+2,i2convertCANid2Reg@tempPassedInID+2
  4378   000D2A  C011  F004         	movff	??i2_convertCANid2Reg+3,i2convertCANid2Reg@tempPassedInID+3
  4379   000D2E                     
  4380                           ;mcc_generated_files/ecan.c: 478:         wipSIDL = 0x03 & tempPassedInID;
  4381   000D2E  5001               	movf	i2convertCANid2Reg@tempPassedInID^0,w,c
  4382   000D30  0B03               	andlw	3
  4383   000D32  6E12               	movwf	i2convertCANid2Reg@wipSIDL^0,c
  4384   000D34                     
  4385                           ;mcc_generated_files/ecan.c: 479:         tempPassedInID = tempPassedInID << 3;
  4386   000D34  C001  F00E         	movff	i2convertCANid2Reg@tempPassedInID,??i2_convertCANid2Reg
  4387   000D38  C002  F00F         	movff	i2convertCANid2Reg@tempPassedInID+1,??i2_convertCANid2Reg+1
  4388   000D3C  C003  F010         	movff	i2convertCANid2Reg@tempPassedInID+2,??i2_convertCANid2Reg+2
  4389   000D40  C004  F011         	movff	i2convertCANid2Reg@tempPassedInID+3,??i2_convertCANid2Reg+3
  4390   000D44  0E03               	movlw	3
  4391   000D46                     i2u89_45:
  4392   000D46  90D8               	bcf	status,0,c
  4393   000D48  360E               	rlcf	??i2_convertCANid2Reg^0,f,c
  4394   000D4A  360F               	rlcf	(??i2_convertCANid2Reg+1)^0,f,c
  4395   000D4C  3610               	rlcf	(??i2_convertCANid2Reg+2)^0,f,c
  4396   000D4E  3611               	rlcf	(??i2_convertCANid2Reg+3)^0,f,c
  4397   000D50  2EE8               	decfsz	wreg,f,c
  4398   000D52  EFA3  F006         	goto	i2u89_45
  4399   000D56  C00E  F001         	movff	??i2_convertCANid2Reg,i2convertCANid2Reg@tempPassedInID
  4400   000D5A  C00F  F002         	movff	??i2_convertCANid2Reg+1,i2convertCANid2Reg@tempPassedInID+1
  4401   000D5E  C010  F003         	movff	??i2_convertCANid2Reg+2,i2convertCANid2Reg@tempPassedInID+2
  4402   000D62  C011  F004         	movff	??i2_convertCANid2Reg+3,i2convertCANid2Reg@tempPassedInID+3
  4403   000D66                     
  4404                           ;mcc_generated_files/ecan.c: 480:         wipSIDL = (0xE0 & tempPassedInID) + wipSIDL;
  4405   000D66  5001               	movf	i2convertCANid2Reg@tempPassedInID^0,w,c
  4406   000D68  0BE0               	andlw	224
  4407   000D6A  2412               	addwf	i2convertCANid2Reg@wipSIDL^0,w,c
  4408   000D6C  6E12               	movwf	i2convertCANid2Reg@wipSIDL^0,c
  4409   000D6E                     
  4410                           ;mcc_generated_files/ecan.c: 481:         wipSIDL = (uint8_t)(wipSIDL + 0x08);
  4411   000D6E  5012               	movf	i2convertCANid2Reg@wipSIDL^0,w,c
  4412   000D70  0F08               	addlw	8
  4413   000D72  6E12               	movwf	i2convertCANid2Reg@wipSIDL^0,c
  4414   000D74                     
  4415                           ;mcc_generated_files/ecan.c: 482:         *passedInSIDL = (uint8_t)(0xEB & wipSIDL);
  4416   000D74  5012               	movf	i2convertCANid2Reg@wipSIDL^0,w,c
  4417   000D76  0BEB               	andlw	235
  4418   000D78  C00C  FFD9         	movff	i2convertCANid2Reg@passedInSIDL,fsr2l
  4419   000D7C  C00D  FFDA         	movff	i2convertCANid2Reg@passedInSIDL+1,fsr2h
  4420   000D80  6EDF               	movwf	indf2,c
  4421   000D82                     i2l2501:
  4422                           
  4423                           ;mcc_generated_files/ecan.c: 485:         tempPassedInID = tempPassedInID >> 8;
  4424   000D82  C001  F00E         	movff	i2convertCANid2Reg@tempPassedInID,??i2_convertCANid2Reg
  4425   000D86  C002  F00F         	movff	i2convertCANid2Reg@tempPassedInID+1,??i2_convertCANid2Reg+1
  4426   000D8A  C003  F010         	movff	i2convertCANid2Reg@tempPassedInID+2,??i2_convertCANid2Reg+2
  4427   000D8E  C004  F011         	movff	i2convertCANid2Reg@tempPassedInID+3,??i2_convertCANid2Reg+3
  4428   000D92  C00F  F00E         	movff	??i2_convertCANid2Reg+1,??i2_convertCANid2Reg
  4429   000D96  C010  F00F         	movff	??i2_convertCANid2Reg+2,??i2_convertCANid2Reg+1
  4430   000D9A  C011  F010         	movff	??i2_convertCANid2Reg+3,??i2_convertCANid2Reg+2
  4431   000D9E  6A11               	clrf	(??i2_convertCANid2Reg+3)^0,c
  4432   000DA0  C00E  F001         	movff	??i2_convertCANid2Reg,i2convertCANid2Reg@tempPassedInID
  4433   000DA4  C00F  F002         	movff	??i2_convertCANid2Reg+1,i2convertCANid2Reg@tempPassedInID+1
  4434   000DA8  C010  F003         	movff	??i2_convertCANid2Reg+2,i2convertCANid2Reg@tempPassedInID+2
  4435   000DAC  C011  F004         	movff	??i2_convertCANid2Reg+3,i2convertCANid2Reg@tempPassedInID+3
  4436   000DB0                     
  4437                           ;mcc_generated_files/ecan.c: 486:         *passedInSIDH = 0xFF & tempPassedInID;
  4438   000DB0  C00A  FFD9         	movff	i2convertCANid2Reg@passedInSIDH,fsr2l
  4439   000DB4  C00B  FFDA         	movff	i2convertCANid2Reg@passedInSIDH+1,fsr2h
  4440   000DB8  C001  FFDF         	movff	i2convertCANid2Reg@tempPassedInID,indf2
  4441                           
  4442                           ;mcc_generated_files/ecan.c: 487:     } else
  4443   000DBC  EF0B  F007         	goto	i2l472
  4444   000DC0                     i2l2505:
  4445                           
  4446                           ;mcc_generated_files/ecan.c: 488:     {;mcc_generated_files/ecan.c: 489:         *passed
      +                          InEIDH = 0;
  4447   000DC0  C006  FFD9         	movff	i2convertCANid2Reg@passedInEIDH,fsr2l
  4448   000DC4  C007  FFDA         	movff	i2convertCANid2Reg@passedInEIDH+1,fsr2h
  4449   000DC8  6ADF               	clrf	indf2,c
  4450                           
  4451                           ;mcc_generated_files/ecan.c: 490:         *passedInEIDL = 0;
  4452   000DCA  C008  FFD9         	movff	i2convertCANid2Reg@passedInEIDL,fsr2l
  4453   000DCE  C009  FFDA         	movff	i2convertCANid2Reg@passedInEIDL+1,fsr2h
  4454   000DD2  6ADF               	clrf	indf2,c
  4455   000DD4                     
  4456                           ;mcc_generated_files/ecan.c: 491:         tempPassedInID = tempPassedInID << 5;
  4457   000DD4  C001  F00E         	movff	i2convertCANid2Reg@tempPassedInID,??i2_convertCANid2Reg
  4458   000DD8  C002  F00F         	movff	i2convertCANid2Reg@tempPassedInID+1,??i2_convertCANid2Reg+1
  4459   000DDC  C003  F010         	movff	i2convertCANid2Reg@tempPassedInID+2,??i2_convertCANid2Reg+2
  4460   000DE0  C004  F011         	movff	i2convertCANid2Reg@tempPassedInID+3,??i2_convertCANid2Reg+3
  4461   000DE4  0E05               	movlw	5
  4462   000DE6                     i2u90_45:
  4463   000DE6  90D8               	bcf	status,0,c
  4464   000DE8  360E               	rlcf	??i2_convertCANid2Reg^0,f,c
  4465   000DEA  360F               	rlcf	(??i2_convertCANid2Reg+1)^0,f,c
  4466   000DEC  3610               	rlcf	(??i2_convertCANid2Reg+2)^0,f,c
  4467   000DEE  3611               	rlcf	(??i2_convertCANid2Reg+3)^0,f,c
  4468   000DF0  2EE8               	decfsz	wreg,f,c
  4469   000DF2  EFF3  F006         	goto	i2u90_45
  4470   000DF6  C00E  F001         	movff	??i2_convertCANid2Reg,i2convertCANid2Reg@tempPassedInID
  4471   000DFA  C00F  F002         	movff	??i2_convertCANid2Reg+1,i2convertCANid2Reg@tempPassedInID+1
  4472   000DFE  C010  F003         	movff	??i2_convertCANid2Reg+2,i2convertCANid2Reg@tempPassedInID+2
  4473   000E02  C011  F004         	movff	??i2_convertCANid2Reg+3,i2convertCANid2Reg@tempPassedInID+3
  4474   000E06                     
  4475                           ;mcc_generated_files/ecan.c: 492:         *passedInSIDL = 0xFF & tempPassedInID;
  4476   000E06  C00C  FFD9         	movff	i2convertCANid2Reg@passedInSIDL,fsr2l
  4477   000E0A  C00D  FFDA         	movff	i2convertCANid2Reg@passedInSIDL+1,fsr2h
  4478   000E0E  C001  FFDF         	movff	i2convertCANid2Reg@tempPassedInID,indf2
  4479   000E12  EFC1  F006         	goto	i2l2501
  4480   000E16                     i2l472:
  4481   000E16  0012               	return		;funcret
  4482   000E18                     __end_ofi2_convertCANid2Reg:
  4483                           	callstack 0
  4484                           
  4485 ;; *************** function _INT2_ISR *****************
  4486 ;; Defined at:
  4487 ;;		line 89 in file "mcc_generated_files/ext_int.c"
  4488 ;; Parameters:    Size  Location     Type
  4489 ;;		None
  4490 ;; Auto vars:     Size  Location     Type
  4491 ;;		None
  4492 ;; Return value:  Size  Location     Type
  4493 ;;                  1    wreg      void 
  4494 ;; Registers used:
  4495 ;;		wreg, status,2, status,0, pcl, pclath, pclatu, tosl, cstack
  4496 ;; Tracked objects:
  4497 ;;		On entry : 0/0
  4498 ;;		On exit  : 0/0
  4499 ;;		Unchanged: 0/0
  4500 ;; Data sizes:     COMRAM   BANK0   BANK1   BANK2   BANK3   BANK4   BANK5   BANK6   BANK7   BANK8   BANK9  BANK10  BANK1
      +1  BANK12  BANK13  BANK14
  4501 ;;      Params:         0       0       0       0       0       0       0       0       0       0       0       0       
      +0       0       0       0
  4502 ;;      Locals:         0       0       0       0       0       0       0       0       0       0       0       0       
      +0       0       0       0
  4503 ;;      Temps:          0       0       0       0       0       0       0       0       0       0       0       0       
      +0       0       0       0
  4504 ;;      Totals:         0       0       0       0       0       0       0       0       0       0       0       0       
      +0       0       0       0
  4505 ;;Total ram usage:        0 bytes
  4506 ;; Hardware stack levels used: 1
  4507 ;; Hardware stack levels required when called: 2
  4508 ;; This function calls:
  4509 ;;		_INT2_CallBack
  4510 ;; This function is called by:
  4511 ;;		_INTERRUPT_InterruptManager
  4512 ;; This function uses a non-reentrant model
  4513 ;;
  4514                           
  4515                           	psect	text27
  4516   00130A                     __ptext27:
  4517                           	callstack 0
  4518   00130A                     _INT2_ISR:
  4519                           	callstack 24
  4520   00130A                     
  4521                           ;mcc_generated_files/ext_int.c: 91:     (INTCON3bits.INT2IF = 0);
  4522   00130A  92F0               	bcf	240,1,c	;volatile
  4523   00130C                     
  4524                           ;mcc_generated_files/ext_int.c: 94:     INT2_CallBack();
  4525   00130C  ECDD  F008         	call	_INT2_CallBack	;wreg free
  4526   001310  0012               	return		;funcret
  4527   001312                     __end_of_INT2_ISR:
  4528                           	callstack 0
  4529                           
  4530 ;; *************** function _INT2_CallBack *****************
  4531 ;; Defined at:
  4532 ;;		line 98 in file "mcc_generated_files/ext_int.c"
  4533 ;; Parameters:    Size  Location     Type
  4534 ;;		None
  4535 ;; Auto vars:     Size  Location     Type
  4536 ;;		None
  4537 ;; Return value:  Size  Location     Type
  4538 ;;                  1    wreg      void 
  4539 ;; Registers used:
  4540 ;;		wreg, status,2, status,0, pcl, pclath, pclatu, tosl, cstack
  4541 ;; Tracked objects:
  4542 ;;		On entry : 0/0
  4543 ;;		On exit  : 0/0
  4544 ;;		Unchanged: 0/0
  4545 ;; Data sizes:     COMRAM   BANK0   BANK1   BANK2   BANK3   BANK4   BANK5   BANK6   BANK7   BANK8   BANK9  BANK10  BANK1
      +1  BANK12  BANK13  BANK14
  4546 ;;      Params:         0       0       0       0       0       0       0       0       0       0       0       0       
      +0       0       0       0
  4547 ;;      Locals:         0       0       0       0       0       0       0       0       0       0       0       0       
      +0       0       0       0
  4548 ;;      Temps:          0       0       0       0       0       0       0       0       0       0       0       0       
      +0       0       0       0
  4549 ;;      Totals:         0       0       0       0       0       0       0       0       0       0       0       0       
      +0       0       0       0
  4550 ;;Total ram usage:        0 bytes
  4551 ;; Hardware stack levels used: 1
  4552 ;; Hardware stack levels required when called: 1
  4553 ;; This function calls:
  4554 ;;		NULL
  4555 ;;		_INT2_DefaultInterruptHandler
  4556 ;; This function is called by:
  4557 ;;		_INT2_ISR
  4558 ;; This function uses a non-reentrant model
  4559 ;;
  4560                           
  4561                           	psect	text28
  4562   0011BA                     __ptext28:
  4563                           	callstack 0
  4564   0011BA                     _INT2_CallBack:
  4565                           	callstack 24
  4566   0011BA                     
  4567                           ;mcc_generated_files/ext_int.c: 101:     if(INT2_InterruptHandler)
  4568   0011BA  503B               	movf	_INT2_InterruptHandler^0,w,c
  4569   0011BC  103C               	iorwf	(_INT2_InterruptHandler+1)^0,w,c
  4570   0011BE  B4D8               	btfsc	status,2,c
  4571   0011C0  EFE4  F008         	goto	i2u22_41
  4572   0011C4  EFE6  F008         	goto	i2u22_40
  4573   0011C8                     i2u22_41:
  4574   0011C8  EFF3  F008         	goto	i2l569
  4575   0011CC                     i2u22_40:
  4576   0011CC                     
  4577                           ;mcc_generated_files/ext_int.c: 102:     {;mcc_generated_files/ext_int.c: 103:         I
      +                          NT2_InterruptHandler();
  4578   0011CC  D802               	call	i2u23_48
  4579   0011CE  EFF3  F008         	goto	i2u23_49
  4580   0011D2                     i2u23_48:
  4581   0011D2  0005               	push	
  4582   0011D4  6EFA               	movwf	pclath,c
  4583   0011D6  503B               	movf	_INT2_InterruptHandler^0,w,c
  4584   0011D8  6EFD               	movwf	tosl,c
  4585   0011DA  503C               	movf	(_INT2_InterruptHandler+1)^0,w,c
  4586   0011DC  6EFE               	movwf	tosh,c
  4587   0011DE  50F8               	movf	tblptru,w,c
  4588   0011E0  6EFF               	movwf	tosu,c
  4589   0011E2  50FA               	movf	pclath,w,c
  4590   0011E4  0012               	return		;indir
  4591   0011E6                     i2u23_49:
  4592   0011E6                     i2l569:
  4593   0011E6  0012               	return		;funcret
  4594   0011E8                     __end_of_INT2_CallBack:
  4595                           	callstack 0
  4596                           
  4597 ;; *************** function _INT2_DefaultInterruptHandler *****************
  4598 ;; Defined at:
  4599 ;;		line 111 in file "mcc_generated_files/ext_int.c"
  4600 ;; Parameters:    Size  Location     Type
  4601 ;;		None
  4602 ;; Auto vars:     Size  Location     Type
  4603 ;;		None
  4604 ;; Return value:  Size  Location     Type
  4605 ;;                  1    wreg      void 
  4606 ;; Registers used:
  4607 ;;		None
  4608 ;; Tracked objects:
  4609 ;;		On entry : 0/0
  4610 ;;		On exit  : 0/0
  4611 ;;		Unchanged: 0/0
  4612 ;; Data sizes:     COMRAM   BANK0   BANK1   BANK2   BANK3   BANK4   BANK5   BANK6   BANK7   BANK8   BANK9  BANK10  BANK1
      +1  BANK12  BANK13  BANK14
  4613 ;;      Params:         0       0       0       0       0       0       0       0       0       0       0       0       
      +0       0       0       0
  4614 ;;      Locals:         0       0       0       0       0       0       0       0       0       0       0       0       
      +0       0       0       0
  4615 ;;      Temps:          0       0       0       0       0       0       0       0       0       0       0       0       
      +0       0       0       0
  4616 ;;      Totals:         0       0       0       0       0       0       0       0       0       0       0       0       
      +0       0       0       0
  4617 ;;Total ram usage:        0 bytes
  4618 ;; Hardware stack levels used: 1
  4619 ;; This function calls:
  4620 ;;		Nothing
  4621 ;; This function is called by:
  4622 ;;		_EXT_INT_Initialize
  4623 ;;		_INT2_CallBack
  4624 ;; This function uses a non-reentrant model
  4625 ;;
  4626                           
  4627                           	psect	text29
  4628   001328                     __ptext29:
  4629                           	callstack 0
  4630   001328                     _INT2_DefaultInterruptHandler:
  4631                           	callstack 24
  4632   001328  0012               	return		;funcret
  4633   00132A                     __end_of_INT2_DefaultInterruptHandler:
  4634                           	callstack 0
  4635                           
  4636 ;; *************** function _INT1_ISR *****************
  4637 ;; Defined at:
  4638 ;;		line 63 in file "mcc_generated_files/ext_int.c"
  4639 ;; Parameters:    Size  Location     Type
  4640 ;;		None
  4641 ;; Auto vars:     Size  Location     Type
  4642 ;;		None
  4643 ;; Return value:  Size  Location     Type
  4644 ;;                  1    wreg      void 
  4645 ;; Registers used:
  4646 ;;		wreg, status,2, status,0, pcl, pclath, pclatu, tosl, cstack
  4647 ;; Tracked objects:
  4648 ;;		On entry : 0/0
  4649 ;;		On exit  : 0/0
  4650 ;;		Unchanged: 0/0
  4651 ;; Data sizes:     COMRAM   BANK0   BANK1   BANK2   BANK3   BANK4   BANK5   BANK6   BANK7   BANK8   BANK9  BANK10  BANK1
      +1  BANK12  BANK13  BANK14
  4652 ;;      Params:         0       0       0       0       0       0       0       0       0       0       0       0       
      +0       0       0       0
  4653 ;;      Locals:         0       0       0       0       0       0       0       0       0       0       0       0       
      +0       0       0       0
  4654 ;;      Temps:          0       0       0       0       0       0       0       0       0       0       0       0       
      +0       0       0       0
  4655 ;;      Totals:         0       0       0       0       0       0       0       0       0       0       0       0       
      +0       0       0       0
  4656 ;;Total ram usage:        0 bytes
  4657 ;; Hardware stack levels used: 1
  4658 ;; Hardware stack levels required when called: 2
  4659 ;; This function calls:
  4660 ;;		_INT1_CallBack
  4661 ;; This function is called by:
  4662 ;;		_INTERRUPT_InterruptManager
  4663 ;; This function uses a non-reentrant model
  4664 ;;
  4665                           
  4666                           	psect	text30
  4667   001312                     __ptext30:
  4668                           	callstack 0
  4669   001312                     _INT1_ISR:
  4670                           	callstack 24
  4671   001312                     
  4672                           ;mcc_generated_files/ext_int.c: 65:     (INTCON3bits.INT1IF = 0);
  4673   001312  90F0               	bcf	240,0,c	;volatile
  4674   001314                     
  4675                           ;mcc_generated_files/ext_int.c: 68:     INT1_CallBack();
  4676   001314  ECF4  F008         	call	_INT1_CallBack	;wreg free
  4677   001318  0012               	return		;funcret
  4678   00131A                     __end_of_INT1_ISR:
  4679                           	callstack 0
  4680                           
  4681 ;; *************** function _INT1_CallBack *****************
  4682 ;; Defined at:
  4683 ;;		line 72 in file "mcc_generated_files/ext_int.c"
  4684 ;; Parameters:    Size  Location     Type
  4685 ;;		None
  4686 ;; Auto vars:     Size  Location     Type
  4687 ;;		None
  4688 ;; Return value:  Size  Location     Type
  4689 ;;                  1    wreg      void 
  4690 ;; Registers used:
  4691 ;;		wreg, status,2, status,0, pcl, pclath, pclatu, tosl, cstack
  4692 ;; Tracked objects:
  4693 ;;		On entry : 0/0
  4694 ;;		On exit  : 0/0
  4695 ;;		Unchanged: 0/0
  4696 ;; Data sizes:     COMRAM   BANK0   BANK1   BANK2   BANK3   BANK4   BANK5   BANK6   BANK7   BANK8   BANK9  BANK10  BANK1
      +1  BANK12  BANK13  BANK14
  4697 ;;      Params:         0       0       0       0       0       0       0       0       0       0       0       0       
      +0       0       0       0
  4698 ;;      Locals:         0       0       0       0       0       0       0       0       0       0       0       0       
      +0       0       0       0
  4699 ;;      Temps:          0       0       0       0       0       0       0       0       0       0       0       0       
      +0       0       0       0
  4700 ;;      Totals:         0       0       0       0       0       0       0       0       0       0       0       0       
      +0       0       0       0
  4701 ;;Total ram usage:        0 bytes
  4702 ;; Hardware stack levels used: 1
  4703 ;; Hardware stack levels required when called: 1
  4704 ;; This function calls:
  4705 ;;		NULL
  4706 ;;		_INT1_DefaultInterruptHandler
  4707 ;; This function is called by:
  4708 ;;		_INT1_ISR
  4709 ;; This function uses a non-reentrant model
  4710 ;;
  4711                           
  4712                           	psect	text31
  4713   0011E8                     __ptext31:
  4714                           	callstack 0
  4715   0011E8                     _INT1_CallBack:
  4716                           	callstack 24
  4717   0011E8                     
  4718                           ;mcc_generated_files/ext_int.c: 75:     if(INT1_InterruptHandler)
  4719   0011E8  503D               	movf	_INT1_InterruptHandler^0,w,c
  4720   0011EA  103E               	iorwf	(_INT1_InterruptHandler+1)^0,w,c
  4721   0011EC  B4D8               	btfsc	status,2,c
  4722   0011EE  EFFB  F008         	goto	i2u20_41
  4723   0011F2  EFFD  F008         	goto	i2u20_40
  4724   0011F6                     i2u20_41:
  4725   0011F6  EF0A  F009         	goto	i2l556
  4726   0011FA                     i2u20_40:
  4727   0011FA                     
  4728                           ;mcc_generated_files/ext_int.c: 76:     {;mcc_generated_files/ext_int.c: 77:         INT
      +                          1_InterruptHandler();
  4729   0011FA  D802               	call	i2u21_48
  4730   0011FC  EF0A  F009         	goto	i2u21_49
  4731   001200                     i2u21_48:
  4732   001200  0005               	push	
  4733   001202  6EFA               	movwf	pclath,c
  4734   001204  503D               	movf	_INT1_InterruptHandler^0,w,c
  4735   001206  6EFD               	movwf	tosl,c
  4736   001208  503E               	movf	(_INT1_InterruptHandler+1)^0,w,c
  4737   00120A  6EFE               	movwf	tosh,c
  4738   00120C  50F8               	movf	tblptru,w,c
  4739   00120E  6EFF               	movwf	tosu,c
  4740   001210  50FA               	movf	pclath,w,c
  4741   001212  0012               	return		;indir
  4742   001214                     i2u21_49:
  4743   001214                     i2l556:
  4744   001214  0012               	return		;funcret
  4745   001216                     __end_of_INT1_CallBack:
  4746                           	callstack 0
  4747                           
  4748 ;; *************** function _INT1_DefaultInterruptHandler *****************
  4749 ;; Defined at:
  4750 ;;		line 85 in file "mcc_generated_files/ext_int.c"
  4751 ;; Parameters:    Size  Location     Type
  4752 ;;		None
  4753 ;; Auto vars:     Size  Location     Type
  4754 ;;		None
  4755 ;; Return value:  Size  Location     Type
  4756 ;;                  1    wreg      void 
  4757 ;; Registers used:
  4758 ;;		None
  4759 ;; Tracked objects:
  4760 ;;		On entry : 0/0
  4761 ;;		On exit  : 0/0
  4762 ;;		Unchanged: 0/0
  4763 ;; Data sizes:     COMRAM   BANK0   BANK1   BANK2   BANK3   BANK4   BANK5   BANK6   BANK7   BANK8   BANK9  BANK10  BANK1
      +1  BANK12  BANK13  BANK14
  4764 ;;      Params:         0       0       0       0       0       0       0       0       0       0       0       0       
      +0       0       0       0
  4765 ;;      Locals:         0       0       0       0       0       0       0       0       0       0       0       0       
      +0       0       0       0
  4766 ;;      Temps:          0       0       0       0       0       0       0       0       0       0       0       0       
      +0       0       0       0
  4767 ;;      Totals:         0       0       0       0       0       0       0       0       0       0       0       0       
      +0       0       0       0
  4768 ;;Total ram usage:        0 bytes
  4769 ;; Hardware stack levels used: 1
  4770 ;; This function calls:
  4771 ;;		Nothing
  4772 ;; This function is called by:
  4773 ;;		_EXT_INT_Initialize
  4774 ;;		_INT1_CallBack
  4775 ;; This function uses a non-reentrant model
  4776 ;;
  4777                           
  4778                           	psect	text32
  4779   00132A                     __ptext32:
  4780                           	callstack 0
  4781   00132A                     _INT1_DefaultInterruptHandler:
  4782                           	callstack 24
  4783   00132A  0012               	return		;funcret
  4784   00132C                     __end_of_INT1_DefaultInterruptHandler:
  4785                           	callstack 0
  4786                           
  4787 ;; *************** function _INT0_ISR *****************
  4788 ;; Defined at:
  4789 ;;		line 37 in file "mcc_generated_files/ext_int.c"
  4790 ;; Parameters:    Size  Location     Type
  4791 ;;		None
  4792 ;; Auto vars:     Size  Location     Type
  4793 ;;		None
  4794 ;; Return value:  Size  Location     Type
  4795 ;;                  1    wreg      void 
  4796 ;; Registers used:
  4797 ;;		wreg, status,2, status,0, pcl, pclath, pclatu, tosl, cstack
  4798 ;; Tracked objects:
  4799 ;;		On entry : 0/0
  4800 ;;		On exit  : 0/0
  4801 ;;		Unchanged: 0/0
  4802 ;; Data sizes:     COMRAM   BANK0   BANK1   BANK2   BANK3   BANK4   BANK5   BANK6   BANK7   BANK8   BANK9  BANK10  BANK1
      +1  BANK12  BANK13  BANK14
  4803 ;;      Params:         0       0       0       0       0       0       0       0       0       0       0       0       
      +0       0       0       0
  4804 ;;      Locals:         0       0       0       0       0       0       0       0       0       0       0       0       
      +0       0       0       0
  4805 ;;      Temps:          0       0       0       0       0       0       0       0       0       0       0       0       
      +0       0       0       0
  4806 ;;      Totals:         0       0       0       0       0       0       0       0       0       0       0       0       
      +0       0       0       0
  4807 ;;Total ram usage:        0 bytes
  4808 ;; Hardware stack levels used: 1
  4809 ;; Hardware stack levels required when called: 2
  4810 ;; This function calls:
  4811 ;;		_INT0_CallBack
  4812 ;; This function is called by:
  4813 ;;		_INTERRUPT_InterruptManager
  4814 ;; This function uses a non-reentrant model
  4815 ;;
  4816                           
  4817                           	psect	text33
  4818   00131A                     __ptext33:
  4819                           	callstack 0
  4820   00131A                     _INT0_ISR:
  4821                           	callstack 24
  4822   00131A                     
  4823                           ;mcc_generated_files/ext_int.c: 39:     (INTCONbits.INT0IF = 0);
  4824   00131A  92F2               	bcf	242,1,c	;volatile
  4825   00131C                     
  4826                           ;mcc_generated_files/ext_int.c: 42:     INT0_CallBack();
  4827   00131C  EC0B  F009         	call	_INT0_CallBack	;wreg free
  4828   001320  0012               	return		;funcret
  4829   001322                     __end_of_INT0_ISR:
  4830                           	callstack 0
  4831                           
  4832 ;; *************** function _INT0_CallBack *****************
  4833 ;; Defined at:
  4834 ;;		line 46 in file "mcc_generated_files/ext_int.c"
  4835 ;; Parameters:    Size  Location     Type
  4836 ;;		None
  4837 ;; Auto vars:     Size  Location     Type
  4838 ;;		None
  4839 ;; Return value:  Size  Location     Type
  4840 ;;                  1    wreg      void 
  4841 ;; Registers used:
  4842 ;;		wreg, status,2, status,0, pcl, pclath, pclatu, tosl, cstack
  4843 ;; Tracked objects:
  4844 ;;		On entry : 0/0
  4845 ;;		On exit  : 0/0
  4846 ;;		Unchanged: 0/0
  4847 ;; Data sizes:     COMRAM   BANK0   BANK1   BANK2   BANK3   BANK4   BANK5   BANK6   BANK7   BANK8   BANK9  BANK10  BANK1
      +1  BANK12  BANK13  BANK14
  4848 ;;      Params:         0       0       0       0       0       0       0       0       0       0       0       0       
      +0       0       0       0
  4849 ;;      Locals:         0       0       0       0       0       0       0       0       0       0       0       0       
      +0       0       0       0
  4850 ;;      Temps:          0       0       0       0       0       0       0       0       0       0       0       0       
      +0       0       0       0
  4851 ;;      Totals:         0       0       0       0       0       0       0       0       0       0       0       0       
      +0       0       0       0
  4852 ;;Total ram usage:        0 bytes
  4853 ;; Hardware stack levels used: 1
  4854 ;; Hardware stack levels required when called: 1
  4855 ;; This function calls:
  4856 ;;		NULL
  4857 ;;		_INT0_DefaultInterruptHandler
  4858 ;; This function is called by:
  4859 ;;		_INT0_ISR
  4860 ;; This function uses a non-reentrant model
  4861 ;;
  4862                           
  4863                           	psect	text34
  4864   001216                     __ptext34:
  4865                           	callstack 0
  4866   001216                     _INT0_CallBack:
  4867                           	callstack 24
  4868   001216                     
  4869                           ;mcc_generated_files/ext_int.c: 49:     if(INT0_InterruptHandler)
  4870   001216  503F               	movf	_INT0_InterruptHandler^0,w,c
  4871   001218  1040               	iorwf	(_INT0_InterruptHandler+1)^0,w,c
  4872   00121A  B4D8               	btfsc	status,2,c
  4873   00121C  EF12  F009         	goto	i2u18_41
  4874   001220  EF14  F009         	goto	i2u18_40
  4875   001224                     i2u18_41:
  4876   001224  EF21  F009         	goto	i2l543
  4877   001228                     i2u18_40:
  4878   001228                     
  4879                           ;mcc_generated_files/ext_int.c: 50:     {;mcc_generated_files/ext_int.c: 51:         INT
      +                          0_InterruptHandler();
  4880   001228  D802               	call	i2u19_48
  4881   00122A  EF21  F009         	goto	i2u19_49
  4882   00122E                     i2u19_48:
  4883   00122E  0005               	push	
  4884   001230  6EFA               	movwf	pclath,c
  4885   001232  503F               	movf	_INT0_InterruptHandler^0,w,c
  4886   001234  6EFD               	movwf	tosl,c
  4887   001236  5040               	movf	(_INT0_InterruptHandler+1)^0,w,c
  4888   001238  6EFE               	movwf	tosh,c
  4889   00123A  50F8               	movf	tblptru,w,c
  4890   00123C  6EFF               	movwf	tosu,c
  4891   00123E  50FA               	movf	pclath,w,c
  4892   001240  0012               	return		;indir
  4893   001242                     i2u19_49:
  4894   001242                     i2l543:
  4895   001242  0012               	return		;funcret
  4896   001244                     __end_of_INT0_CallBack:
  4897                           	callstack 0
  4898                           
  4899 ;; *************** function _INT0_DefaultInterruptHandler *****************
  4900 ;; Defined at:
  4901 ;;		line 59 in file "mcc_generated_files/ext_int.c"
  4902 ;; Parameters:    Size  Location     Type
  4903 ;;		None
  4904 ;; Auto vars:     Size  Location     Type
  4905 ;;		None
  4906 ;; Return value:  Size  Location     Type
  4907 ;;                  1    wreg      void 
  4908 ;; Registers used:
  4909 ;;		None
  4910 ;; Tracked objects:
  4911 ;;		On entry : 0/0
  4912 ;;		On exit  : 0/0
  4913 ;;		Unchanged: 0/0
  4914 ;; Data sizes:     COMRAM   BANK0   BANK1   BANK2   BANK3   BANK4   BANK5   BANK6   BANK7   BANK8   BANK9  BANK10  BANK1
      +1  BANK12  BANK13  BANK14
  4915 ;;      Params:         0       0       0       0       0       0       0       0       0       0       0       0       
      +0       0       0       0
  4916 ;;      Locals:         0       0       0       0       0       0       0       0       0       0       0       0       
      +0       0       0       0
  4917 ;;      Temps:          0       0       0       0       0       0       0       0       0       0       0       0       
      +0       0       0       0
  4918 ;;      Totals:         0       0       0       0       0       0       0       0       0       0       0       0       
      +0       0       0       0
  4919 ;;Total ram usage:        0 bytes
  4920 ;; Hardware stack levels used: 1
  4921 ;; This function calls:
  4922 ;;		Nothing
  4923 ;; This function is called by:
  4924 ;;		_EXT_INT_Initialize
  4925 ;;		_INT0_CallBack
  4926 ;; This function uses a non-reentrant model
  4927 ;;
  4928                           
  4929                           	psect	text35
  4930   00132C                     __ptext35:
  4931                           	callstack 0
  4932   00132C                     _INT0_DefaultInterruptHandler:
  4933                           	callstack 24
  4934   00132C  0012               	return		;funcret
  4935   00132E                     __end_of_INT0_DefaultInterruptHandler:
  4936                           	callstack 0
  4937                           
  4938 ;; *************** function _ECAN_WAKI_ISR *****************
  4939 ;; Defined at:
  4940 ;;		line 503 in file "mcc_generated_files/ecan.c"
  4941 ;; Parameters:    Size  Location     Type
  4942 ;;		None
  4943 ;; Auto vars:     Size  Location     Type
  4944 ;;		None
  4945 ;; Return value:  Size  Location     Type
  4946 ;;                  1    wreg      void 
  4947 ;; Registers used:
  4948 ;;		wreg, pcl, pclath, pclatu, tosl, cstack
  4949 ;; Tracked objects:
  4950 ;;		On entry : 0/0
  4951 ;;		On exit  : 0/0
  4952 ;;		Unchanged: 0/0
  4953 ;; Data sizes:     COMRAM   BANK0   BANK1   BANK2   BANK3   BANK4   BANK5   BANK6   BANK7   BANK8   BANK9  BANK10  BANK1
      +1  BANK12  BANK13  BANK14
  4954 ;;      Params:         0       0       0       0       0       0       0       0       0       0       0       0       
      +0       0       0       0
  4955 ;;      Locals:         0       0       0       0       0       0       0       0       0       0       0       0       
      +0       0       0       0
  4956 ;;      Temps:          0       0       0       0       0       0       0       0       0       0       0       0       
      +0       0       0       0
  4957 ;;      Totals:         0       0       0       0       0       0       0       0       0       0       0       0       
      +0       0       0       0
  4958 ;;Total ram usage:        0 bytes
  4959 ;; Hardware stack levels used: 1
  4960 ;; Hardware stack levels required when called: 1
  4961 ;; This function calls:
  4962 ;;		NULL
  4963 ;;		_WakeUpDefaultInterruptHandler
  4964 ;; This function is called by:
  4965 ;;		_INTERRUPT_InterruptManager
  4966 ;; This function uses a non-reentrant model
  4967 ;;
  4968                           
  4969                           	psect	text36
  4970   00128A                     __ptext36:
  4971                           	callstack 0
  4972   00128A                     _ECAN_WAKI_ISR:
  4973                           	callstack 25
  4974   00128A                     
  4975                           ;mcc_generated_files/ecan.c: 505:     WakeUpInterruptHandler();
  4976   00128A  D802               	call	i2u26_48
  4977   00128C  EF52  F009         	goto	i2u26_49
  4978   001290                     i2u26_48:
  4979   001290  0005               	push	
  4980   001292  6EFA               	movwf	pclath,c
  4981   001294  5029               	movf	_WakeUpInterruptHandler^0,w,c
  4982   001296  6EFD               	movwf	tosl,c
  4983   001298  502A               	movf	(_WakeUpInterruptHandler+1)^0,w,c
  4984   00129A  6EFE               	movwf	tosh,c
  4985   00129C  50F8               	movf	tblptru,w,c
  4986   00129E  6EFF               	movwf	tosu,c
  4987   0012A0  50FA               	movf	pclath,w,c
  4988   0012A2  0012               	return		;indir
  4989   0012A4                     i2u26_49:
  4990   0012A4                     
  4991                           ;mcc_generated_files/ecan.c: 506:     PIR5bits.WAKIF = 0;
  4992   0012A4  9C77               	bcf	119,6,c	;volatile
  4993   0012A6  0012               	return		;funcret
  4994   0012A8                     __end_of_ECAN_WAKI_ISR:
  4995                           	callstack 0
  4996                           
  4997 ;; *************** function _WakeUpDefaultInterruptHandler *****************
  4998 ;; Defined at:
  4999 ;;		line 63 in file "mcc_generated_files/ecan.c"
  5000 ;; Parameters:    Size  Location     Type
  5001 ;;		None
  5002 ;; Auto vars:     Size  Location     Type
  5003 ;;		None
  5004 ;; Return value:  Size  Location     Type
  5005 ;;                  1    wreg      void 
  5006 ;; Registers used:
  5007 ;;		None
  5008 ;; Tracked objects:
  5009 ;;		On entry : 0/0
  5010 ;;		On exit  : 0/0
  5011 ;;		Unchanged: 0/0
  5012 ;; Data sizes:     COMRAM   BANK0   BANK1   BANK2   BANK3   BANK4   BANK5   BANK6   BANK7   BANK8   BANK9  BANK10  BANK1
      +1  BANK12  BANK13  BANK14
  5013 ;;      Params:         0       0       0       0       0       0       0       0       0       0       0       0       
      +0       0       0       0
  5014 ;;      Locals:         0       0       0       0       0       0       0       0       0       0       0       0       
      +0       0       0       0
  5015 ;;      Temps:          0       0       0       0       0       0       0       0       0       0       0       0       
      +0       0       0       0
  5016 ;;      Totals:         0       0       0       0       0       0       0       0       0       0       0       0       
      +0       0       0       0
  5017 ;;Total ram usage:        0 bytes
  5018 ;; Hardware stack levels used: 1
  5019 ;; This function calls:
  5020 ;;		Nothing
  5021 ;; This function is called by:
  5022 ;;		_ECAN_Initialize
  5023 ;;		_ECAN_WAKI_ISR
  5024 ;; This function uses a non-reentrant model
  5025 ;;
  5026                           
  5027                           	psect	text37
  5028   00132E                     __ptext37:
  5029                           	callstack 0
  5030   00132E                     _WakeUpDefaultInterruptHandler:
  5031                           	callstack 25
  5032   00132E  0012               	return		;funcret
  5033   001330                     __end_of_WakeUpDefaultInterruptHandler:
  5034                           	callstack 0
  5035   000000                     
  5036                           	psect	text38
  5037   000000                     __ptext38:
  5038                           	callstack 0
  5039   000000                     
  5040                           	psect	rparam
  5041   000000                     
  5042                           	psect	temp
  5043   000041                     btemp:
  5044                           	callstack 0
  5045   000041                     	ds	1
  5046   000000                     int$flags	set	btemp
  5047   000000                     wtemp8	set	btemp+1
  5048   000000                     ttemp5	set	btemp+1
  5049   000000                     ttemp6	set	btemp+4
  5050   000000                     ttemp7	set	btemp+8
  5051                           
  5052                           	psect	idloc
  5053                           
  5054                           ;Config register IDLOC0 @ 0x200000
  5055                           ;	unspecified, using default values
  5056   200000                     	org	2097152
  5057   200000  FF                 	db	255
  5058                           
  5059                           ;Config register IDLOC1 @ 0x200001
  5060                           ;	unspecified, using default values
  5061   200001                     	org	2097153
  5062   200001  FF                 	db	255
  5063                           
  5064                           ;Config register IDLOC2 @ 0x200002
  5065                           ;	unspecified, using default values
  5066   200002                     	org	2097154
  5067   200002  FF                 	db	255
  5068                           
  5069                           ;Config register IDLOC3 @ 0x200003
  5070                           ;	unspecified, using default values
  5071   200003                     	org	2097155
  5072   200003  FF                 	db	255
  5073                           
  5074                           ;Config register IDLOC4 @ 0x200004
  5075                           ;	unspecified, using default values
  5076   200004                     	org	2097156
  5077   200004  FF                 	db	255
  5078                           
  5079                           ;Config register IDLOC5 @ 0x200005
  5080                           ;	unspecified, using default values
  5081   200005                     	org	2097157
  5082   200005  FF                 	db	255
  5083                           
  5084                           ;Config register IDLOC6 @ 0x200006
  5085                           ;	unspecified, using default values
  5086   200006                     	org	2097158
  5087   200006  FF                 	db	255
  5088                           
  5089                           ;Config register IDLOC7 @ 0x200007
  5090                           ;	unspecified, using default values
  5091   200007                     	org	2097159
  5092   200007  FF                 	db	255
  5093                           
  5094                           	psect	config
  5095                           
  5096                           ;Config register CONFIG1L @ 0x300000
  5097                           ;	VREG Sleep Enable bit
  5098                           ;	RETEN = OFF, Ultra low-power regulator is Disabled (Controlled by REGSLP bit)
  5099                           ;	LF-INTOSC Low-power Enable bit
  5100                           ;	INTOSCSEL = HIGH, LF-INTOSC in High-power mode during Sleep
  5101                           ;	SOSC Power Selection and mode Configuration bits
  5102                           ;	SOSCSEL = DIG, Digital (SCLKI) mode
  5103                           ;	Extended Instruction Set
  5104                           ;	XINST = OFF, Disabled
  5105   300000                     	org	3145728
  5106   300000  15                 	db	21
  5107                           
  5108                           ;Config register CONFIG1H @ 0x300001
  5109                           ;	Oscillator
  5110                           ;	FOSC = HS2, HS oscillator (High power, 16 MHz - 25 MHz)
  5111                           ;	PLL x4 Enable bit
  5112                           ;	PLLCFG = OFF, Disabled
  5113                           ;	Fail-Safe Clock Monitor
  5114                           ;	FCMEN = OFF, Disabled
  5115                           ;	Internal External Oscillator Switch Over Mode
  5116                           ;	IESO = OFF, Disabled
  5117   300001                     	org	3145729
  5118   300001  02                 	db	2
  5119                           
  5120                           ;Config register CONFIG2L @ 0x300002
  5121                           ;	Power Up Timer
  5122                           ;	PWRTEN = OFF, Disabled
  5123                           ;	Brown Out Detect
  5124                           ;	BOREN = SBORDIS, Enabled in hardware, SBOREN disabled
  5125                           ;	Brown-out Reset Voltage bits
  5126                           ;	BORV = 3, 1.8V
  5127                           ;	BORMV Power level
  5128                           ;	BORPWR = ZPBORMV, ZPBORMV instead of BORMV is selected
  5129   300002                     	org	3145730
  5130   300002  7F                 	db	127
  5131                           
  5132                           ;Config register CONFIG2H @ 0x300003
  5133                           ;	Watchdog Timer
  5134                           ;	WDTEN = OFF, WDT disabled in hardware; SWDTEN bit disabled
  5135                           ;	Watchdog Postscaler
  5136                           ;	WDTPS = 1048576, 1:1048576
  5137   300003                     	org	3145731
  5138   300003  7C                 	db	124
  5139                           
  5140                           ; Padding undefined space
  5141   300004                     	org	3145732
  5142   300004  FF                 	db	255
  5143                           
  5144                           ;Config register CONFIG3H @ 0x300005
  5145                           ;	ECAN Mux bit
  5146                           ;	CANMX = PORTC, ECAN TX and RX pins are located on RC6 and RC7, respectively
  5147                           ;	MSSP address masking
  5148                           ;	MSSPMSK = MSK7, 7 Bit address masking mode
  5149                           ;	Master Clear Enable
  5150                           ;	MCLRE = ON, MCLR Enabled, RE3 Disabled
  5151   300005                     	org	3145733
  5152   300005  88                 	db	136
  5153                           
  5154                           ;Config register CONFIG4L @ 0x300006
  5155                           ;	Stack Overflow Reset
  5156                           ;	STVREN = ON, Enabled
  5157                           ;	Boot Block Size
  5158                           ;	BBSIZ = BB2K, 2K word Boot Block size
  5159   300006                     	org	3145734
  5160   300006  91                 	db	145
  5161                           
  5162                           ; Padding undefined space
  5163   300007                     	org	3145735
  5164   300007  FF                 	db	255
  5165                           
  5166                           ;Config register CONFIG5L @ 0x300008
  5167                           ;	Code Protect 00800-03FFF
  5168                           ;	CP0 = OFF, Disabled
  5169                           ;	Code Protect 04000-07FFF
  5170                           ;	CP1 = OFF, Disabled
  5171                           ;	Code Protect 08000-0BFFF
  5172                           ;	CP2 = OFF, Disabled
  5173                           ;	Code Protect 0C000-0FFFF
  5174                           ;	CP3 = OFF, Disabled
  5175   300008                     	org	3145736
  5176   300008  0F                 	db	15
  5177                           
  5178                           ;Config register CONFIG5H @ 0x300009
  5179                           ;	Code Protect Boot
  5180                           ;	CPB = OFF, Disabled
  5181                           ;	Data EE Read Protect
  5182                           ;	CPD = OFF, Disabled
  5183   300009                     	org	3145737
  5184   300009  C0                 	db	192
  5185                           
  5186                           ;Config register CONFIG6L @ 0x30000A
  5187                           ;	Table Write Protect 00800-03FFF
  5188                           ;	WRT0 = OFF, Disabled
  5189                           ;	Table Write Protect 04000-07FFF
  5190                           ;	WRT1 = OFF, Disabled
  5191                           ;	Table Write Protect 08000-0BFFF
  5192                           ;	WRT2 = OFF, Disabled
  5193                           ;	Table Write Protect 0C000-0FFFF
  5194                           ;	WRT3 = OFF, Disabled
  5195   30000A                     	org	3145738
  5196   30000A  0F                 	db	15
  5197                           
  5198                           ;Config register CONFIG6H @ 0x30000B
  5199                           ;	Config. Write Protect
  5200                           ;	WRTC = OFF, Disabled
  5201                           ;	Table Write Protect Boot
  5202                           ;	WRTB = OFF, Disabled
  5203                           ;	Data EE Write Protect
  5204                           ;	WRTD = OFF, Disabled
  5205   30000B                     	org	3145739
  5206   30000B  E0                 	db	224
  5207                           
  5208                           ;Config register CONFIG7L @ 0x30000C
  5209                           ;	Table Read Protect 00800-03FFF
  5210                           ;	EBTR0 = OFF, Disabled
  5211                           ;	Table Read Protect 04000-07FFF
  5212                           ;	EBTR1 = OFF, Disabled
  5213                           ;	Table Read Protect 08000-0BFFF
  5214                           ;	EBTR2 = OFF, Disabled
  5215                           ;	Table Read Protect 0C000-0FFFF
  5216                           ;	EBTR3 = OFF, Disabled
  5217   30000C                     	org	3145740
  5218   30000C  0F                 	db	15
  5219                           
  5220                           ;Config register CONFIG7H @ 0x30000D
  5221                           ;	Table Read Protect Boot
  5222                           ;	EBTRB = OFF, Disabled
  5223   30000D                     	org	3145741
  5224   30000D  40                 	db	64
  5225                           tosu	equ	0xFFF
  5226                           tosh	equ	0xFFE
  5227                           tosl	equ	0xFFD
  5228                           stkptr	equ	0xFFC
  5229                           pclatu	equ	0xFFB
  5230                           pclath	equ	0xFFA
  5231                           pcl	equ	0xFF9
  5232                           tblptru	equ	0xFF8
  5233                           tblptrh	equ	0xFF7
  5234                           tblptrl	equ	0xFF6
  5235                           tablat	equ	0xFF5
  5236                           prodh	equ	0xFF4
  5237                           prodl	equ	0xFF3
  5238                           indf0	equ	0xFEF
  5239                           postinc0	equ	0xFEE
  5240                           postdec0	equ	0xFED
  5241                           preinc0	equ	0xFEC
  5242                           plusw0	equ	0xFEB
  5243                           fsr0h	equ	0xFEA
  5244                           fsr0l	equ	0xFE9
  5245                           wreg	equ	0xFE8
  5246                           indf1	equ	0xFE7
  5247                           postinc1	equ	0xFE6
  5248                           postdec1	equ	0xFE5
  5249                           preinc1	equ	0xFE4
  5250                           plusw1	equ	0xFE3
  5251                           fsr1h	equ	0xFE2
  5252                           fsr1l	equ	0xFE1
  5253                           bsr	equ	0xFE0
  5254                           indf2	equ	0xFDF
  5255                           postinc2	equ	0xFDE
  5256                           postdec2	equ	0xFDD
  5257                           preinc2	equ	0xFDC
  5258                           plusw2	equ	0xFDB
  5259                           fsr2h	equ	0xFDA
  5260                           fsr2l	equ	0xFD9
  5261                           status	equ	0xFD8

Data Sizes:
    Strings     0
    Constant    0
    Data        0
    BSS         46
    Persistent  8
    Stack       0

Auto Spaces:
    Space          Size  Autos    Used
    COMRAM           94     38      64
    BANK0           160     19      47
    BANK1           256      0       0
    BANK2           256      0       0
    BANK3           256      0       0
    BANK4           256      0       0
    BANK5           256      0       0
    BANK6           256      0       0
    BANK7           256      0       0
    BANK8           256      0       0
    BANK9           256      0       0
    BANK10          256      0       0
    BANK11          256      0       0
    BANK12          256      0       0
    BANK13          256      0       0
    BANK14           65      0       0

Pointer List with Targets:

    INT3_SetInterruptHandler@InterruptHandler	PTR FTN()void  size(2) Largest target is 1
		 -> Pin3_ISR(), INT3_DefaultInterruptHandler(), 

    INT3_InterruptHandler	PTR FTN()void  size(2) Largest target is 1
		 -> Pin3_ISR(), INT3_DefaultInterruptHandler(), NULL(), 

    INT2_SetInterruptHandler@InterruptHandler	PTR FTN()void  size(2) Largest target is 1
		 -> INT2_DefaultInterruptHandler(), 

    INT2_InterruptHandler	PTR FTN()void  size(2) Largest target is 1
		 -> INT2_DefaultInterruptHandler(), NULL(), 

    INT1_SetInterruptHandler@InterruptHandler	PTR FTN()void  size(2) Largest target is 1
		 -> INT1_DefaultInterruptHandler(), 

    INT1_InterruptHandler	PTR FTN()void  size(2) Largest target is 1
		 -> INT1_DefaultInterruptHandler(), NULL(), 

    INT0_SetInterruptHandler@InterruptHandler	PTR FTN()void  size(2) Largest target is 1
		 -> INT0_DefaultInterruptHandler(), 

    INT0_InterruptHandler	PTR FTN()void  size(2) Largest target is 1
		 -> INT0_DefaultInterruptHandler(), NULL(), 

    ECAN_SetWakeUpInterruptHandler@handler	PTR FTN()void  size(2) Largest target is 1
		 -> WakeUpDefaultInterruptHandler(), 

    WakeUpInterruptHandler	PTR FTN()void  size(2) Largest target is 1
		 -> NULL(), WakeUpDefaultInterruptHandler(), 

    convertCANid2Reg@passedInSIDH	PTR unsigned char  size(2) Largest target is 1
		 -> CAN_transmit@tempSIDH(BANK0[1]), 

    convertCANid2Reg@passedInSIDL	PTR unsigned char  size(2) Largest target is 1
		 -> CAN_transmit@tempSIDL(BANK0[1]), 

    convertCANid2Reg@passedInEIDH	PTR unsigned char  size(2) Largest target is 1
		 -> CAN_transmit@tempEIDH(BANK0[1]), 

    convertCANid2Reg@passedInEIDL	PTR unsigned char  size(2) Largest target is 1
		 -> CAN_transmit@tempEIDL(BANK0[1]), 

    CAN_receive@tempCanMsg	PTR struct . size(2) Largest target is 14
		 -> rx(BANK0[14]), 

    CAN_transmit@tempCanMsg	PTR struct . size(2) Largest target is 14
		 -> txstop(COMRAM[14]), txstart(BANK0[14]), 


Critical Paths under _main in COMRAM

    _shutdown->_CAN_transmit
    _CAN_transmit->_convertCANid2Reg
    _SYSTEM_Initialize->_ECAN_Initialize
    _EXT_INT_Initialize->_INT0_SetInterruptHandler
    _EXT_INT_Initialize->_INT1_SetInterruptHandler
    _EXT_INT_Initialize->_INT2_SetInterruptHandler
    _EXT_INT_Initialize->_INT3_SetInterruptHandler
    _ECAN_Initialize->_ECAN_SetWakeUpInterruptHandler
    _CAN_receive->_convertReg2ExtendedCANid

Critical Paths under _INTERRUPT_InterruptManager in COMRAM

    _Pin3_ISR->i2_shutdown
    i2_shutdown->i2_CAN_transmit
    _startup->i2_CAN_transmit
    i2_CAN_transmit->i2_convertCANid2Reg

Critical Paths under _main in BANK0

    _main->_shutdown
    _shutdown->_CAN_transmit
    _CAN_transmit->_convertCANid2Reg
    _CAN_receive->_convertReg2ExtendedCANid

Critical Paths under _INTERRUPT_InterruptManager in BANK0

    None.

Critical Paths under _main in BANK1

    None.

Critical Paths under _INTERRUPT_InterruptManager in BANK1

    None.

Critical Paths under _main in BANK2

    None.

Critical Paths under _INTERRUPT_InterruptManager in BANK2

    None.

Critical Paths under _main in BANK3

    None.

Critical Paths under _INTERRUPT_InterruptManager in BANK3

    None.

Critical Paths under _main in BANK4

    None.

Critical Paths under _INTERRUPT_InterruptManager in BANK4

    None.

Critical Paths under _main in BANK5

    None.

Critical Paths under _INTERRUPT_InterruptManager in BANK5

    None.

Critical Paths under _main in BANK6

    None.

Critical Paths under _INTERRUPT_InterruptManager in BANK6

    None.

Critical Paths under _main in BANK7

    None.

Critical Paths under _INTERRUPT_InterruptManager in BANK7

    None.

Critical Paths under _main in BANK8

    None.

Critical Paths under _INTERRUPT_InterruptManager in BANK8

    None.

Critical Paths under _main in BANK9

    None.

Critical Paths under _INTERRUPT_InterruptManager in BANK9

    None.

Critical Paths under _main in BANK10

    None.

Critical Paths under _INTERRUPT_InterruptManager in BANK10

    None.

Critical Paths under _main in BANK11

    None.

Critical Paths under _INTERRUPT_InterruptManager in BANK11

    None.

Critical Paths under _main in BANK12

    None.

Critical Paths under _INTERRUPT_InterruptManager in BANK12

    None.

Critical Paths under _main in BANK13

    None.

Critical Paths under _INTERRUPT_InterruptManager in BANK13

    None.

Critical Paths under _main in BANK14

    None.

Critical Paths under _INTERRUPT_InterruptManager in BANK14

    None.

Call Graph Tables:

 ---------------------------------------------------------------------------------
 (Depth) Function   	        Calls       Base Space   Used Autos Params    Refs
 ---------------------------------------------------------------------------------
 (0) _main                                                 0     0      0    7562
                        _CAN_receive
           _INT3_SetInterruptHandler
                  _SYSTEM_Initialize
                           _shutdown
 ---------------------------------------------------------------------------------
 (1) _shutdown                                             2     2      0    4464
                                             17 BANK0      2     2      0
                       _CAN_transmit
 ---------------------------------------------------------------------------------
 (2) _CAN_transmit                                         7     5      2    4464
                                             35 COMRAM     2     0      2
                                             13 BANK0      4     4      0
                   _convertCANid2Reg
 ---------------------------------------------------------------------------------
 (3) _convertCANid2Reg                                    18     5     13    2425
                                             30 COMRAM     5     5      0
                                              0 BANK0     13     0     13
 ---------------------------------------------------------------------------------
 (1) _SYSTEM_Initialize                                    0     0      0     566
                    _ECAN_Initialize
                 _EXT_INT_Initialize
               _INTERRUPT_Initialize
              _OSCILLATOR_Initialize
             _PIN_MANAGER_Initialize
 ---------------------------------------------------------------------------------
 (2) _PIN_MANAGER_Initialize                               0     0      0       0
 ---------------------------------------------------------------------------------
 (2) _OSCILLATOR_Initialize                                0     0      0       0
 ---------------------------------------------------------------------------------
 (2) _INTERRUPT_Initialize                                 0     0      0       0
 ---------------------------------------------------------------------------------
 (2) _EXT_INT_Initialize                                   0     0      0     468
           _INT0_SetInterruptHandler
           _INT1_SetInterruptHandler
           _INT2_SetInterruptHandler
           _INT3_SetInterruptHandler
 ---------------------------------------------------------------------------------
 (3) _INT3_SetInterruptHandler                             2     0      2     174
                                             30 COMRAM     2     0      2
 ---------------------------------------------------------------------------------
 (3) _INT2_SetInterruptHandler                             2     0      2      98
                                             30 COMRAM     2     0      2
 ---------------------------------------------------------------------------------
 (3) _INT1_SetInterruptHandler                             2     0      2      98
                                             30 COMRAM     2     0      2
 ---------------------------------------------------------------------------------
 (3) _INT0_SetInterruptHandler                             2     0      2      98
                                             30 COMRAM     2     0      2
 ---------------------------------------------------------------------------------
 (2) _ECAN_Initialize                                      1     1      0      98
                                             32 COMRAM     1     1      0
     _ECAN_SetWakeUpInterruptHandler
 ---------------------------------------------------------------------------------
 (3) _ECAN_SetWakeUpInterruptHandler                       2     0      2      98
                                             30 COMRAM     2     0      2
 ---------------------------------------------------------------------------------
 (1) _CAN_receive                                          3     1      2    2358
                                             11 BANK0      3     1      2
           _convertReg2ExtendedCANid
           _convertReg2StandardCANid
 ---------------------------------------------------------------------------------
 (2) _convertReg2StandardCANid                            15    11      4     347
                                             30 COMRAM     6     2      4
                                              0 BANK0      9     9      0
 ---------------------------------------------------------------------------------
 (2) _convertReg2ExtendedCANid                            19    15      4    1075
                                             30 COMRAM     8     4      4
                                              0 BANK0     11    11      0
 ---------------------------------------------------------------------------------
 Estimated maximum stack depth 3
 ---------------------------------------------------------------------------------
 (Depth) Function   	        Calls       Base Space   Used Autos Params    Refs
 ---------------------------------------------------------------------------------
 (4) _INTERRUPT_InterruptManager                           4     4      0    6702
                                             26 COMRAM     4     4      0
                      _ECAN_WAKI_ISR
                           _INT0_ISR
                           _INT1_ISR
                           _INT2_ISR
                           _INT3_ISR
 ---------------------------------------------------------------------------------
 (5) _INT3_ISR                                             0     0      0    6702
                      _INT3_CallBack
 ---------------------------------------------------------------------------------
 (6) _INT3_CallBack                                        0     0      0    6702
                                NULL *
       _INT3_DefaultInterruptHandler *
                           _Pin3_ISR *
 ---------------------------------------------------------------------------------
 (7) _Pin3_ISR                                             0     0      0    6702
                            _startup
                         i2_shutdown
 ---------------------------------------------------------------------------------
 (8) i2_shutdown                                           2     2      0    3351
                                             24 COMRAM     2     2      0
                     i2_CAN_transmit
 ---------------------------------------------------------------------------------
 (8) _startup                                              0     0      0    3351
                     i2_CAN_transmit
 ---------------------------------------------------------------------------------
 (9) i2_CAN_transmit                                       7     5      2    3351
                                             18 COMRAM     6     4      2
                 i2_convertCANid2Reg
 ---------------------------------------------------------------------------------
 (10) i2_convertCANid2Reg                                 18     5     13    1435
                                              0 COMRAM    18     5     13
 ---------------------------------------------------------------------------------
 (7) _INT3_DefaultInterruptHandler                         0     0      0       0
 ---------------------------------------------------------------------------------
 (5) _INT2_ISR                                             0     0      0       0
                      _INT2_CallBack
 ---------------------------------------------------------------------------------
 (6) _INT2_CallBack                                        0     0      0       0
                                NULL *
       _INT2_DefaultInterruptHandler *
 ---------------------------------------------------------------------------------
 (7) _INT2_DefaultInterruptHandler                         0     0      0       0
 ---------------------------------------------------------------------------------
 (5) _INT1_ISR                                             0     0      0       0
                      _INT1_CallBack
 ---------------------------------------------------------------------------------
 (6) _INT1_CallBack                                        0     0      0       0
                                NULL *
       _INT1_DefaultInterruptHandler *
 ---------------------------------------------------------------------------------
 (7) _INT1_DefaultInterruptHandler                         0     0      0       0
 ---------------------------------------------------------------------------------
 (5) _INT0_ISR                                             0     0      0       0
                      _INT0_CallBack
 ---------------------------------------------------------------------------------
 (6) _INT0_CallBack                                        0     0      0       0
                                NULL *
       _INT0_DefaultInterruptHandler *
 ---------------------------------------------------------------------------------
 (7) _INT0_DefaultInterruptHandler                         0     0      0       0
 ---------------------------------------------------------------------------------
 (5) _ECAN_WAKI_ISR                                        0     0      0       0
                                NULL *
      _WakeUpDefaultInterruptHandler *
 ---------------------------------------------------------------------------------
 (6) _WakeUpDefaultInterruptHandler                        0     0      0       0
 ---------------------------------------------------------------------------------
 (7) NULL(Fake)                                            0     0      0       0
 ---------------------------------------------------------------------------------
 Estimated maximum stack depth 10
 ---------------------------------------------------------------------------------

 Call Graph Graphs:

 _main (ROOT)
   _CAN_receive
     _convertReg2ExtendedCANid
     _convertReg2StandardCANid
   _INT3_SetInterruptHandler
   _SYSTEM_Initialize
     _ECAN_Initialize
       _ECAN_SetWakeUpInterruptHandler
     _EXT_INT_Initialize
       _INT0_SetInterruptHandler
       _INT1_SetInterruptHandler
       _INT2_SetInterruptHandler
       _INT3_SetInterruptHandler
     _INTERRUPT_Initialize
     _OSCILLATOR_Initialize
     _PIN_MANAGER_Initialize
   _shutdown
     _CAN_transmit
       _convertCANid2Reg

 _INTERRUPT_InterruptManager (ROOT)
   _ECAN_WAKI_ISR
     NULL(Fake) *
     _WakeUpDefaultInterruptHandler *
   _INT0_ISR
     _INT0_CallBack
       NULL(Fake) *
       _INT0_DefaultInterruptHandler *
   _INT1_ISR
     _INT1_CallBack
       NULL(Fake) *
       _INT1_DefaultInterruptHandler *
   _INT2_ISR
     _INT2_CallBack
       NULL(Fake) *
       _INT2_DefaultInterruptHandler *
   _INT3_ISR
     _INT3_CallBack
       NULL(Fake) *
       _INT3_DefaultInterruptHandler *
       _Pin3_ISR *
         _startup
           i2_CAN_transmit
             i2_convertCANid2Reg
         i2_shutdown
           i2_CAN_transmit

 Address spaces:
Name               Size   Autos  Total    Cost      Usage
BIGRAM             E40      0       0      51        0.0%
EEDATA             400      0       0       0        0.0%
BITBANK13          100      0       0      49        0.0%
BANK13             100      0       0      22        0.0%
BITBANK12          100      0       0      48        0.0%
BANK12             100      0       0      21        0.0%
BITBANK11          100      0       0      47        0.0%
BANK11             100      0       0      20        0.0%
BITBANK10          100      0       0      46        0.0%
BANK10             100      0       0      19        0.0%
BITBANK9           100      0       0      45        0.0%
BANK9              100      0       0      18        0.0%
BITBANK8           100      0       0      44        0.0%
BANK8              100      0       0      17        0.0%
BITBANK7           100      0       0      43        0.0%
BANK7              100      0       0      16        0.0%
BITBANK6           100      0       0      42        0.0%
BANK6              100      0       0      15        0.0%
BITBANK5           100      0       0      41        0.0%
BANK5              100      0       0      14        0.0%
BITBANK4           100      0       0      12        0.0%
BANK4              100      0       0      13        0.0%
BITBANK3           100      0       0      10        0.0%
BANK3              100      0       0      11        0.0%
BITBANK2           100      0       0       8        0.0%
BANK2              100      0       0       9        0.0%
BITBANK1           100      0       0       6        0.0%
BANK1              100      0       0       7        0.0%
BITBANK0            A0      0       0       4        0.0%
BANK0               A0     13      2F       5       29.4%
BITBIGSFRllllhl     62      0       0      37        0.0%
BITCOMRAM           5E      0       0       0        0.0%
COMRAM              5E     26      40       1       68.1%
BITBANK14           41      0       0      50        0.0%
BANK14              41      0       0      23        0.0%
BITBIGSFRlhl        34      0       0      27        0.0%
BITBIGSFRllllhh     1D      0       0      33        0.0%
BITBIGSFRhll        1C      0       0      25        0.0%
BITBIGSFRllhll      11      0       0      30        0.0%
BITBIGSFRhh          D      0       0      24        0.0%
BITBIGSFRllhhll      4      0       0      29        0.0%
BITBIGSFRllhhh       3      0       0      28        0.0%
BITBIGSFRlllhh       3      0       0      31        0.0%
BITBIGSFRllllhh      2      0       0      32        0.0%
BITBIGSFRllllhh      2      0       0      36        0.0%
BITBIGSFRllllhh      2      0       0      35        0.0%
BITBIGSFRllllhh      2      0       0      34        0.0%
BITBIGSFRllllll      2      0       0      39        0.0%
BITBIGSFRlllllh      1      0       0      38        0.0%
BITBIGSFRlhh         1      0       0      26        0.0%
BIGSFR               0      0       0     200        0.0%
BITSFR_2             0      0       0     200        0.0%
SFR_2                0      0       0     200        0.0%
BITSFR_1             0      0       0     200        0.0%
SFR_1                0      0       0     200        0.0%
BITSFR               0      0       0     200        0.0%
SFR                  0      0       0     200        0.0%
STACK                0      0       0       2        0.0%
NULL                 0      0       0       0        0.0%
ABS                  0      0      6F      40        0.0%
DATA                 0      0      6F       3        0.0%
CODE                 0      0       0       0        0.0%


Microchip Technology PIC18 Macro Assembler V2.41 build 20230208172133 
Symbol Table                                                                                   Thu Sep 21 18:07:54 2023

                                               l21 12BC                                                 l24 12CE  
                                               l47 1324                                                 _rx 006E  
                                              l420 0B34                                                l430 0414  
                                              l511 1154                                                l431 0310  
                                              l434 0414                                                l444 0990  
                                              l437 0862                                                l429 020C  
                                              l623 108A                                                l464 0F54  
                                              l472 0CA6                                                l546 12F6  
                                              l634 1036                                                l467 0FD0  
                                              l475 1300                                                l572 12E2  
                                              l559 12EC                                                l591 10D4  
                                              l585 12D8              ECAN_SetWakeUpInterruptHandler@handler 001F  
                                              u610 09AA                                                u611 09A6  
                                              u620 0B34                                                u621 0B30  
                                              u940 0B4A                                                u941 0B46  
                                              u955 0BD6                                                u980 0116  
                                              u965 0C76                                                u981 0112  
                                              u990 021A                                                u991 0216  
                       ??_INT0_SetInterruptHandler 0021                         ??_INT3_SetInterruptHandler 0021  
                                              tosl 0FFD                                                wreg 0FE8  
                                    _INT0_CallBack 1216                         ??_convertReg2StandardCANid 0023  
                                    _INT1_CallBack 11E8                                               l2201 0B1A  
                                             l2121 12EE                                               l2203 0B1E  
                                             l2123 12E4                                               l2125 12DA  
                                             l2141 1146                                               l2127 12D0  
                                             l2151 109C                                               l2135 1322  
                                             l2143 1152                                               l2161 10B2  
                                             l2153 109E                                               l2145 12BE  
                                             l2137 1120                                               l2171 0992  
                                             l2163 10C0                                               l2155 10A0  
                                             l2147 108C                                               l2139 113C  
                                             l2085 12F8                                               l2181 09BC  
                                             l2173 0996                                               l2165 10C2  
                                             l2157 10AE                                               l2149 1090  
                                             l2191 0AF6                                               l2183 09C2  
                                             l2175 09AA                                               l2167 10C4  
                                             l2159 10B0                                               l2351 12B0  
                                             l2193 0AF8                                               l2185 09C4  
                                             l2177 09B8                                               l2169 10D2  
                                             l2353 12B4                                               l2195 0B0A  
                                             l2187 09C6                                               l2179 09BA  
                                             l2355 12B8                                               l2347 12A8  
                                             l2197 0B16                                               l2189 0AF4  
                                             l2349 12AC                                               l2701 01E6  
                                             l2199 0B18                                               l2711 0268  
                                             l2703 01F6                                               l2801 0F5A  
                                             l2641 0B84                                               l2633 0B36  
                                             l2721 028A                                               l2713 026C  
                                             l2705 0206                                               l2803 0F86  
                                             l2651 0C04                                               l2643 0BBE  
                                             l2635 0B36                                               l2731 02DA  
                                             l2723 029A                                               l2715 0270  
                                             l2707 0208                                               l2805 0FB0  
                                             l2821 0736                                               l2661 0C96  
                                             l2653 0C12                                               l2645 0BC4  
                                             l2637 0B4A                                               l2741 031E  
                                             l2733 02EA                                               l2725 02AA  
                                             l2717 0274                                               l2709 021A  
                                             l2807 0FC0                                               l2831 079E  
                                             l2823 0744                                               l2655 0C40  
                                             l2647 0BF6                                               l2639 0B56  
                                             l2751 037C                                               l2743 036C  
                                             l2735 02FA                                               l2727 02BA  
                                             l2719 0278                                               l2841 0806  
                                             l2833 07C6                                               l2825 0752  
                                             l2649 0BFE                                               l2657 0C50  
                                             l2761 03CE                                               l2753 038E  
                                             l2745 0370                                               l2737 030A  
                                             l2729 02CA                                               l2681 0168  
                                             l2673 00F4                                               l2851 0856  
                                             l2843 0816                                               l2835 07D6  
                                             l2827 075E                                               l2819 0730  
                                             l2659 0C64                                               l2763 03DE  
                                             l2755 039E                                               l2747 0374  
                                             l2691 0196                                               l2683 016C  
                                             l2675 0106                                               l2931 0FE6  
                                             l2781 0E3C                                               l2861 08C0  
                                             l2853 0858                                               l2845 0826  
                                             l2837 07E6                                               l2829 0792  
                                             l2765 03EE                                               l2757 03AE  
                                             l2749 0378                                               l2693 01A6  
                                             l2685 0170                                               l2677 0116  
                                             l2933 1004                                               l2925 0FD2  
                                             l2791 0EFE                                               l2783 0E66  
                                             l2775 0E1C                                               l2871 0924  
                                             l2863 08CC                                               l2855 0872  
                                             l2847 0836                                               l2839 07F6  
                                             l2767 03FE                                               l2759 03BE  
                                             l2695 01B6                                               l2687 0174  
                                             l2679 0164                                               l2935 1016  
                                             l2927 0FE2                                               l2793 0F34  
                                             l2785 0E7E                                               l2777 0E2E  
                                             l2881 0974                                               l2873 0934  
                                             l2865 08F4                                               l2857 0880  
                                             l2849 0846                                               l2769 040E  
                                             l2697 01C6                                               l2689 0186  
                                             l2937 102E                                               l2929 0FE4  
                                             l2795 0F44                                               l2787 0EB0  
                                             l2779 0E34                                               l2883 0984  
                                             l2875 0944                                               l2867 0904  
                                             l2859 088C                                               l2699 01D6  
                                             l2891 103E                                               l2789 0EE6  
                                             l2877 0954                                               l2869 0914  
                                             l2893 105A                                               l2799 0F5A  
                                             l2879 0964                                               l2887 098C  
                                             l2895 1066                                               l2897 1080  
                                             l2899 1082                                               u1000 031E  
                                             u1001 031A                                               u1015 0E90  
                                             u1200 1004                                               u1025 0F8E  
                                             u1201 1000                                               u1050 0744  
                                             u1210 1016                                               u1051 0740  
                                             u1211 1012                                               u1060 0752  
                                             u1220 102E                                               u1061 074E  
                                             u1221 102A                                               u1070 0872  
                                             u1071 086E                                               u1080 0880  
                                             u1081 087C                                               u1237 1072  
                                             _LATA 0F89                                               _LATB 0F8A  
                                             _LATC 0F8B                                               _LATD 0F8C  
                                             _LATE 0F8D                                               i2l52 003E  
                                             i2l54 0062                                               i2l56 0086  
                                             i2l64 00DC                                               i2l58 00AA  
                                             i2l59 00DC                                               _WPUB 0F5B  
                                    _INT2_CallBack 11BA                                               _main 0FD2  
                     convertCANid2Reg@passedInEIDH 0081                       convertCANid2Reg@passedInEIDL 0083  
                                             fsr2h 0FDA                                               indf2 0FDF  
                                             fsr2l 0FD9                                               btemp 0041  
                     convertCANid2Reg@passedInSIDH 0085                       convertCANid2Reg@passedInSIDL 0087  
                                    _INT3_CallBack 118C                          ?_INT2_SetInterruptHandler 001F  
                                             start 00F0                                       ___param_bank 0000  
                                       i2_shutdown 10D6                                   __end_of_INT0_ISR 1322  
                                 __end_of_INT1_ISR 131A                                   __end_of_INT2_ISR 1312  
                                 __end_of_INT3_ISR 130A                      __end_of_OSCILLATOR_Initialize 12D0  
                                            ?_main 0001                                              _BSEL0 0E7D  
                                            i2l411 132E                                              i2l430 072E  
                                            i2l431 062C                                              i2l434 072E  
                                            i2l429 052A                                              i2l543 1242  
                                            i2l623 111E                                              i2l552 1318  
                                            i2l472 0E16                                              i2l616 1156  
                                            i2l562 132A                                              i2l618 118A  
                                            i2l539 1320                                              i2l556 1214  
                                            i2l628 1288                                              i2l549 132C  
                                            i2l565 1310                                              i2l478 12A6  
                                            i2l582 11B8                                              i2l575 1328  
                                            i2l569 11E6                                              i2l578 1308  
                                            i2l588 1326                                              _MSEL0 0E79  
                                            _MSEL1 0E7A                                              _MSEL2 0E7B  
                                            _MSEL3 0E7C                                              _TRISA 0F92  
                                            _TRISB 0F93                                     ?_INT0_CallBack 0001  
                                            _TRISC 0F94                                              _TRISD 0F95  
                                            _TRISE 0F96                              CAN_receive@tempCanMsg 0087  
                                   ?_INT1_CallBack 0001                               __end_of_CAN_transmit 0416  
                   ??_INT1_DefaultInterruptHandler 0001                                     ?_INT2_CallBack 0001  
                         _INT1_SetInterruptHandler 12E4                                              pclath 0FFA  
                                            pclatu 0FFB                                              ttemp5 0042  
                                            ttemp6 0045                                              ttemp7 0049  
                                   ?_INT3_CallBack 0001                convertReg2ExtendedCANid@ConvertedID 0083  
                                            status 0FD8                                    __end_of_startup 118C  
                                            wtemp8 0042                               CAN_transmit@tempEIDH 0089  
                             CAN_transmit@tempEIDL 008A                               CAN_transmit@tempSIDH 008B  
                             CAN_transmit@tempSIDL 008C                                    __initialization 1244  
                                 __end_of_Pin3_ISR 128A                                       __end_of_main 103E  
                      ?_INTERRUPT_InterruptManager 0001                                             ??_main 0027  
                                    __activetblptr 0002                    ??_WakeUpDefaultInterruptHandler 0001  
                                ??_ECAN_Initialize 0021                                             _CANCON 0F6F  
                                           _ANCON0 0F5D                                             _ANCON1 0F5C  
                                           _CIOCON 0F70                                             i2l2501 0D82  
                                           i2l2503 0DB0                                             i2l2505 0DC0  
                                           i2l2601 06D8                                             i2l2521 0482  
                                           i2l1731 11FA                                             i2l2507 0DD4  
                                           i2l2611 0728                                             i2l2603 06E8  
                                           i2l2531 04A4                                             i2l2523 0486  
                                           i2l2515 0416                                             i2l1725 1216  
                                           i2l1733 11BA                                             i2l2509 0E06  
                                           i2l2605 06F8                                             i2l2541 04F4  
                                           i2l2533 04B4                                             i2l2525 048A  
                                           i2l2517 0426                                             i2l2621 1182  
                                           i2l1727 1228                                             i2l1751 131A  
                                           i2l1735 11CC                                             i2l2607 0708  
                                           i2l2551 0538                                             i2l2543 0504  
                                           i2l2535 04C4                                             i2l2527 048E  
                                           i2l2519 0436                                             i2l2631 1116  
                                           i2l2623 10D6                                             i2l1753 131C  
                                           i2l1729 11E8                                             i2l1761 1314  
                                           i2l2481 0CA8                                             i2l2609 0718  
                                           i2l2561 0594                                             i2l2553 0584  
                                           i2l2545 0514                                             i2l2537 04D4  
                                           i2l2529 0492                                             i2l2617 1158  
                                           i2l2625 10F2                                             i2l1763 130A  
                                           i2l2491 0D2E                                             i2l2483 0CA8  
                                           i2l2571 05E6                                             i2l2563 05A6  
                                           i2l2555 0588                                             i2l2547 0524  
                                           i2l2539 04E4                                             i2l2619 1176  
                                           i2l2627 10FE                                             i2l2811 118C  
                                           i2l1765 130C                                             i2l2493 0D34  
                                           i2l2485 0CBA                                             i2l2573 05F6  
                                           i2l2565 05B6                                             i2l2557 058C  
                                           i2l2549 0526                                             i2l2629 1114  
                                           i2l2813 119E                                             i2l2901 001A  
                                           i2l1767 128A                                             i2l1759 1312  
                                           i2l2495 0D66                                             i2l2487 0CC6  
                                           i2l2591 0692                                             i2l2583 063A  
                                           i2l2575 0606                                             i2l2567 05C6  
                                           i2l2559 0590                                             i2l2671 1284  
                                           i2l2815 1302                                             i2l2911 0070  
                                           i2l2903 0028                                             i2l1769 12A4  
                                           i2l2497 0D6E                                             i2l2489 0CF4  
                                           i2l2593 0696                                             i2l2585 0686  
                                           i2l2577 0616                                             i2l2569 05D6  
                                           i2l2817 1304                                             i2l2921 00C6  
                                           i2l2913 007E                                             i2l2905 0036  
                                           i2l2499 0D74                                             i2l2595 06A8  
                                           i2l2587 068A                                             i2l2579 0626  
                                           i2l2667 126A                                             i2l2923 00D4  
                                           i2l2915 0094                                             i2l2907 004C  
                                           i2l2597 06B8                                             i2l2589 068E  
                                           i2l2669 127C                                             i2l2917 00A2  
                                           i2l2909 005A                                             i2l2599 06C8  
                                           i2l2919 00B8                                             _OSCCON 0FD3  
                                           _RXB0D0 0F66                                             _RXB0D1 0F67  
                                           _RXB0D2 0F68                                             _RXB0D3 0F69  
                                           _RXB1D0 0F36                                             _RXB0D4 0F6A  
                                           _RXB1D1 0F37                                             _RXB0D5 0F6B  
                                           _RXB1D2 0F38                                             _RXB0D6 0F6C  
                                           _RXB1D3 0F39                                             _RXB0D7 0F6D  
                                           _RXB1D4 0F3A                                             _RXB1D5 0F3B  
                                           _RXB1D6 0F3C                                             _RXB1D7 0F3D  
                                           _TXB0D0 0F26                                             _TXB0D1 0F27  
                                           _TXB0D2 0F28                                             _TXB0D3 0F29  
                                           _TXB1D0 0F16                                             _TXB0D4 0F2A  
                                           _TXB1D1 0F17                                             _TXB0D5 0F2B  
                                           _TXB1D2 0F18                                             _TXB0D6 0F2C  
                                           _TXB1D3 0F19                                             _TXB0D7 0F2D  
                                           _TXB2D0 0F06                                             _TXB1D4 0F1A  
                                           _TXB2D1 0F07                                             _TXB1D5 0F1B  
                                           _TXB2D2 0F08                                             _TXB1D6 0F1C  
                                           _TXB2D3 0F09                                             _TXB1D7 0F1D  
                                           _TXB2D4 0F0A                                             _TXB2D5 0F0B  
                                           _TXB2D6 0F0C                                             _TXB2D7 0F0D  
                        i2convertCANid2Reg@wipSIDL 0012                                        ?i2_shutdown 0001  
                                           clear_0 124A                                             clear_1 1256  
                                           isa$std 0001                                    ??_INT0_CallBack 0001  
                                           _txstop 002B               __end_of_INT2_DefaultInterruptHandler 132A  
                     _INT2_DefaultInterruptHandler 1328                                    ??_INT1_CallBack 0001  
                 __end_of_convertReg2StandardCANid 0FD2                                             tblptru 0FF8  
                                 __end_of_shutdown 108C                                    ??_INT2_CallBack 0001  
         INT3_SetInterruptHandler@InterruptHandler 001F           INT2_SetInterruptHandler@InterruptHandler 001F  
         INT1_SetInterruptHandler@InterruptHandler 001F           INT0_SetInterruptHandler@InterruptHandler 001F  
                                        ??_startup 0019                                    ??_INT3_CallBack 001B  
                                _SYSTEM_Initialize 12A8                                         __accesstop 0060  
                          __end_of__initialization 125C                                          ?_INT0_ISR 0001  
                                        ?_INT1_ISR 0001                                          ?_INT2_ISR 0001  
                                        ?_INT3_ISR 0001                                 ?_SYSTEM_Initialize 0001  
                         _convertReg2ExtendedCANid 0E18                             CAN_receive@returnValue 0089  
                                    ___rparam_used 0001                                     __pcstackCOMRAM 0001  
                      i2convertCANid2Reg@canIdType 0005                                ??_SYSTEM_Initialize 0022  
                 __end_of_INT2_SetInterruptHandler 12E4                    fp__INT2_DefaultInterruptHandler 0000  
                    ?_INT2_DefaultInterruptHandler 0001                                      _ECAN_WAKI_ISR 128A  
            convertReg2StandardCANid@tempRXBn_SIDH 007C              convertReg2StandardCANid@tempRXBn_SIDL 001F  
                        __end_of_SYSTEM_Initialize 12BE                                          ?_Pin3_ISR 0001  
                                       __pbssBANK0 0060              __end_of_WakeUpDefaultInterruptHandler 1330  
                    _WakeUpDefaultInterruptHandler 132E                              _INT0_InterruptHandler 003F  
                                       ??_INT0_ISR 0001                                         ??_INT1_ISR 0001  
                                       ??_INT2_ISR 0001                                         ??_INT3_ISR 001B  
                                       __pnvCOMRAM 0039                                       _CAN_transmit 00F4  
                                          _ECANCON 0F72                                            _CANSTAT 0F6E  
                 ??_ECAN_SetWakeUpInterruptHandler 0021                    ?_ECAN_SetWakeUpInterruptHandler 001F  
                                          _BRGCON1 0E43                                            _BRGCON2 0E44  
                                          _BRGCON3 0E45                         ??_INT1_SetInterruptHandler 0021  
                                          _REFOCON 0F9A                                            _OSCCON2 0FD2  
                                   ?_ECAN_WAKI_ISR 0001                                            i2u20_40 11FA  
                                          i2u20_41 11F6                                            i2u21_48 1200  
                                          i2u22_40 11CC                                            i2u21_49 1214  
                                          i2u22_41 11C8                                            i2u23_48 11D2  
                                          i2u23_49 11E6                                            i2u18_40 1228  
                                          i2u18_41 1224                                            _RXB0DLC 0F65  
                                          i2u26_48 1290                                            i2u26_49 12A4  
                                          _RXB1DLC 0F35                                            i2u19_48 122E  
                                          i2u19_49 1242                                            _OSCTUNE 0F9B  
                                          i2u90_45 0DE6                                            i2u91_40 0436  
                                          i2u91_41 0432                                            i2u92_40 0538  
                                          i2u92_41 0534                                            i2u93_40 063A  
                                          i2u93_41 0636                                            i2u88_40 0CBA  
                                          i2u88_41 0CB6                                            i2u97_40 127C  
                                          i2u97_41 1278                                            i2u89_45 0D46  
                                          _TXB0DLC 0F25                                            _TXB1DLC 0F15  
                                          _TXB2DLC 0F05                                            _RXFCON0 0E46  
                                          _RXFCON1 0E47                                         ??_Pin3_ISR 001B  
                        ?_INT0_SetInterruptHandler 001F                          ?_INT3_SetInterruptHandler 001F  
                                          __Hparam 0000                                            __Lparam 0000  
                        ?_convertReg2StandardCANid 001F                                    _ECAN_Initialize 0992  
                                        ?_shutdown 0001                                            __pcinit 1244  
                                          __ramtop 1000                                            __ptext0 0FD2  
                                          __ptext1 103E                                            __ptext2 00F4  
                                          __ptext3 0B36                                            __ptext4 12A8  
                                          __ptext5 1120                                            __ptext6 12BE  
                                          __ptext7 1322                                            __ptext8 108C  
                                          __ptext9 12D0                                            _latchOn 0027  
                            _OSCILLATOR_Initialize 12BE                                   _convertCANid2Reg 0B36  
                         ??_PIN_MANAGER_Initialize 001F                                            _startup 1156  
                             end_of_initialization 125C                             _WakeUpInterruptHandler 0029  
                         _INT2_SetInterruptHandler 12DA                                            _txstart 0060  
                   ??_INT2_DefaultInterruptHandler 0001                                      __Lmediumconst 0000  
                                    ??_CAN_receive 0027                   fp__WakeUpDefaultInterruptHandler 0000  
                   ?_WakeUpDefaultInterruptHandler 0001                                          _RXF10EIDH 0E5A  
                                        _RXF10EIDL 0E5B                                          _RXF11EIDH 0E5E  
                                        _RXF11EIDL 0E5F                                          _RXF12EIDH 0E62  
                                        _RXF12EIDL 0E63                                          _RXF13EIDH 0E66  
                                        _RXF13EIDL 0E67                                          _RXF14EIDH 0E6A  
                                        _RXF14EIDL 0E6B                                          _RXF15EIDH 0E6E  
                                        _RXF15EIDL 0E6F                                          _RXF10SIDH 0E58  
                                        _RXF10SIDL 0E59                                          _RXF11SIDH 0E5C  
                                        _RXF11SIDL 0E5D                                          _RXF12SIDH 0E60  
                                        _RXF12SIDL 0E61                                          _RXF13SIDH 0E64  
                                        _RXF13SIDL 0E65                                          _RXF14SIDH 0E68  
                                        _RXF14SIDL 0E69                                          _RXF15SIDH 0E6C  
                                        _RXF15SIDL 0E6D                                            postinc0 0FEE  
                                          postinc2 0FDE                                       ??i2_shutdown 0019  
                                       ??_shutdown 008D                              _INT1_InterruptHandler 003D  
                       __end_ofi2_convertCANid2Reg 0E18                                    ??_ECAN_WAKI_ISR 0001  
                           CAN_transmit@tempCanMsg 0024                         ??_convertReg2ExtendedCANid 0023  
                               __end_ofi2_shutdown 1120                            __end_of_ECAN_Initialize 0B36  
                     __end_of_INTERRUPT_Initialize 1326                                __end_of_CAN_receive 0992  
             __end_of_INT0_DefaultInterruptHandler 132E                       _INT0_DefaultInterruptHandler 132C  
                                   i2_CAN_transmit 0416                             ?_OSCILLATOR_Initialize 0001  
                            __end_of_INT0_CallBack 1244                                start_initialization 1244  
             __end_of_INT3_DefaultInterruptHandler 1328                       _INT3_DefaultInterruptHandler 1326  
                            __end_of_INT1_CallBack 1216                              __end_of_INT2_CallBack 11E8  
                            __end_of_INT3_CallBack 11BA                convertReg2StandardCANid@returnValue 007D  
                           __end_ofi2_CAN_transmit 0730                         __end_of_EXT_INT_Initialize 10D6  
                  fp__INT0_DefaultInterruptHandler 0000                      ?_INT0_DefaultInterruptHandler 0001  
                                      __pbssCOMRAM 0027                   __end_of_INT0_SetInterruptHandler 12F8  
                 __end_of_INT3_SetInterruptHandler 12DA                                      __pcstackBANK0 007C  
                  fp__INT3_DefaultInterruptHandler 0000                      ?_INT3_DefaultInterruptHandler 0001  
           __end_of_ECAN_SetWakeUpInterruptHandler 1302                     _ECAN_SetWakeUpInterruptHandler 12F8  
                            _INT2_InterruptHandler 003B                                        _CAN_receive 0730  
                                 ?_ECAN_Initialize 0001                             _PIN_MANAGER_Initialize 1120  
                         __end_of_convertCANid2Reg 0CA8                                          __pintcode 0008  
                                  ?i2_CAN_transmit 0013                       ??_INTERRUPT_InterruptManager 001B  
                       ??_INT2_SetInterruptHandler 0021                                        _COMSTATbits 0F71  
                 __end_of_convertReg2ExtendedCANid 0F56                   i2convertCANid2Reg@tempPassedInID 0001  
                   convertCANid2Reg@tempPassedInID 007C                                           ?_startup 0001  
                             _INTERRUPT_Initialize 1322                             i2CAN_transmit@tempEIDH 0015  
                           i2CAN_transmit@tempEIDL 0016                                           _INT0_ISR 131A  
                                         _INT1_ISR 1312                                           _INT2_ISR 130A  
                                         _INT3_ISR 1302                             i2CAN_transmit@tempSIDH 0017  
                           i2CAN_transmit@tempSIDL 0018                                           _LATDbits 0F8C  
                        ?_INT1_SetInterruptHandler 001F                                           _PIE5bits 0F76  
                                         i2u110_40 0036                                           i2u110_41 0032  
                                         i2u103_40 119E                                           i2u111_40 004C  
                                         i2u103_41 119A                                           i2u111_41 0048  
                                         i2u112_40 005A                                           i2u112_41 0056  
                                         i2u104_48 11A4                                           i2u113_40 0070  
                                         i2u104_49 11B8                                           i2u113_41 006C  
                                         i2u114_40 007E                                           i2u114_41 007A  
                                         i2u115_40 0094                                           i2u115_41 0090  
                                         i2u116_40 00A2                                           i2u116_41 009E  
                                         i2u124_47 1108                                           i2u117_40 00B8  
                                         i2u109_40 0028                                           i2u117_41 00B4  
                                         i2u109_41 0024                                           i2u118_40 00C6  
                                         i2u118_41 00C2                                           i2u119_40 00D4  
                                         i2u119_41 00D0                                           _PIR5bits 0F77  
                                         _RXB0EIDH 0F63                                           _RXB0EIDL 0F64  
                                         _RXB1EIDH 0F33                                           _RXB1EIDL 0F34  
                                         _RCONbits 0FD0                                           _RXB0SIDH 0F61  
                                         _RXB0SIDL 0F62                                           _RXF0EIDH 0EE2  
                                         _RXB1SIDH 0F31                                           _RXF0EIDL 0EE3  
                                         _RXB1SIDL 0F32                                           _RXF1EIDH 0EE6  
                                         _RXF1EIDL 0EE7                                           _RXF2EIDH 0EEA  
                                         _RXF2EIDL 0EEB                                           _RXF3EIDH 0EEE  
                                         _RXF3EIDL 0EEF                                           _RXF4EIDH 0EF2  
                                         _RXF4EIDL 0EF3                                           _RXF5EIDH 0EF6  
                                         _RXF5EIDL 0EF7                                           _RXF6EIDH 0E4A  
                                         _RXF6EIDL 0E4B                                           _RXF0SIDH 0EE0  
                                         _RXF7EIDH 0E4E                                           _RXF0SIDL 0EE1  
                                         _RXF7EIDL 0E4F                                           _RXF1SIDH 0EE4  
                                         _RXF8EIDH 0E52                                           _TXB0EIDH 0F23  
                                         _TXB0EIDL 0F24                                           _RXF1SIDL 0EE5  
                                         _RXF8EIDL 0E53                                           _RXF2SIDH 0EE8  
                                         _RXF9EIDH 0E56                                           _TXB1EIDH 0F13  
                                         _TXB1EIDL 0F14                                           _RXF2SIDL 0EE9  
                                         _RXF9EIDL 0E57                                           _RXF3SIDH 0EEC  
                                         _TXB2EIDH 0F03                                           _TXB2EIDL 0F04  
                                         _RXF3SIDL 0EED                                           _RXF4SIDH 0EF0  
                                         _RXF4SIDL 0EF1                                           _RXF5SIDH 0EF4  
                                         _RXF5SIDL 0EF5                                           _RXF6SIDH 0E48  
                                         _RXF6SIDL 0E49                                           _RXM0EIDH 0EFA  
                                         _RXF7SIDH 0E4C                                           _RXM0EIDL 0EFB  
                                         _RXF7SIDL 0E4D                                           _RXM1EIDH 0EFE  
                                         _RXF8SIDH 0E50                                           _TXB0SIDH 0F21  
                                         _RXM1EIDL 0EFF                                           _RXF8SIDL 0E51  
                                         _TXB0SIDL 0F22                                           _RXF9SIDH 0E54  
                                         _TXB1SIDH 0F11                                           _RXF9SIDL 0E55  
                                         _TXB1SIDL 0F12                                           _TXB2SIDH 0F01  
                                         _TXB2SIDL 0F02                                           _RXFBCON0 0E71  
                                         _RXFBCON1 0E72                                           _RXFBCON2 0E73  
                                         _RXFBCON3 0E74                                           _RXFBCON4 0E75  
                                         _RXFBCON5 0E76                                           _RXFBCON6 0E77  
                                         _RXFBCON7 0E78                                           _RXM0SIDH 0EF8  
                                         _RXM0SIDL 0EF9                                           _RXM1SIDH 0EFC  
                                         _RXM1SIDL 0EFD                     i2convertCANid2Reg@passedInEIDH 0006  
                   i2convertCANid2Reg@passedInEIDL 0008                     i2convertCANid2Reg@passedInSIDH 000A  
                   i2convertCANid2Reg@passedInSIDL 000C                     ??_INT0_DefaultInterruptHandler 0001  
                                      _INTCON2bits 0FF1                                        _INTCON3bits 0FF0  
                            ?_INTERRUPT_Initialize 0001                                           _Pin3_ISR 126A  
                         _INT0_SetInterruptHandler 12EE                           _INT3_SetInterruptHandler 12D0  
                               i2_convertCANid2Reg 0CA8                     ??_INT3_DefaultInterruptHandler 0001  
                         _convertReg2StandardCANid 0F56              convertReg2ExtendedCANid@tempRXBn_EIDH 007C  
            convertReg2ExtendedCANid@tempRXBn_EIDL 001F              convertReg2ExtendedCANid@tempRXBn_SIDH 0020  
            convertReg2ExtendedCANid@tempRXBn_SIDL 0021                                           __Hrparam 0000  
                              ?i2_convertCANid2Reg 0001                                           __Lrparam 0000  
                        convertCANid2Reg@canIdType 0080                            ??_OSCILLATOR_Initialize 001F  
                            _INT3_InterruptHandler 0039  convertReg2ExtendedCANid@CAN_standardLo_ID_hi3bits 0082  
convertReg2ExtendedCANid@CAN_standardLo_ID_lo2bits 0081                            convertCANid2Reg@wipSIDL 0023  
                             ??i2_convertCANid2Reg 000E                              __end_of_ECAN_WAKI_ISR 12A8  
                                         __ptext10 12DA                                           __ptext11 12E4  
                                         __ptext20 118C                                           __ptext12 12EE  
                                         __ptext21 1326                                           __ptext13 0992  
                                         __ptext30 1312                                           __ptext22 126A  
                                         __ptext14 12F8                                           __ptext31 11E8  
                                         __ptext23 10D6                                           __ptext15 0730  
                                         __ptext32 132A                                           __ptext24 1156  
                                         __ptext16 0F56                                           __ptext33 131A  
                                         __ptext25 0416                                           __ptext17 0E18  
                                         __ptext34 1216                                           __ptext26 0CA8  
                                         __ptext35 132C                                           __ptext27 130A  
                                         __ptext19 1302                                           __ptext36 128A  
                                         __ptext28 11BA                                           __ptext37 132E  
                                         __ptext29 1328                                           __ptext38 0000  
              convertReg2StandardCANid@ConvertedID 0081                convertReg2ExtendedCANid@returnValue 007D  
                                         isa$xinst 0000                          ?_convertReg2ExtendedCANid 001F  
                                    ?_CAN_transmit 0024                                           int$flags 0041  
                                         _shutdown 103E                 __end_of_INTERRUPT_InterruptManager 00F0  
                       _INTERRUPT_InterruptManager 0008               __end_of_INT1_DefaultInterruptHandler 132C  
                     _INT1_DefaultInterruptHandler 132A                           i2CAN_transmit@tempCanMsg 0013  
                                      _RXB0CONbits 0F60                                        _RXB1CONbits 0F30  
                                       _INTCONbits 0FF2                             ??_INTERRUPT_Initialize 001F  
                               _EXT_INT_Initialize 108C                                           intlevel2 0000  
                          ?_PIN_MANAGER_Initialize 0001                                ?_EXT_INT_Initialize 0001  
                                      _TXB0CONbits 0F20                                       ?_CAN_receive 0087  
                                 ??i2_CAN_transmit 0015                                        _TXB1CONbits 0F10  
                                      _TXB2CONbits 0F00                                        fp__Pin3_ISR 0000  
                                   ??_CAN_transmit 0026                                  ?_convertCANid2Reg 007C  
                               ??_convertCANid2Reg 001F                               ??_EXT_INT_Initialize 0021  
                  fp__INT1_DefaultInterruptHandler 0000                      ?_INT1_DefaultInterruptHandler 0001  
                 __end_of_INT1_SetInterruptHandler 12EE                     __end_of_PIN_MANAGER_Initialize 1156  
