

Microchip MPLAB XC8 Assembler V2.35 build 20211206165544 
                                                                                               Sat Jul 23 17:49:00 2022

Microchip MPLAB XC8 C Compiler v2.35 (Free license) build 20211206165544 Og1 
     1                           	processor	18F46K80
     2                           	fnconf	rparam,??,?,0
     3                           	pagewidth 120
     4                           	opt	flic
     5                           	psect	nvCOMRAM,global,class=COMRAM,space=1,delta=1,lowdata,noexec
     6                           	psect	cinit,global,reloc=2,class=CODE,delta=1
     7                           	psect	bssCOMRAM,global,class=COMRAM,space=1,delta=1,lowdata,noexec
     8                           	psect	cstackCOMRAM,global,class=COMRAM,space=1,delta=1,lowdata,noexec
     9                           	psect	text0,global,reloc=2,class=CODE,delta=1
    10                           	psect	text1,global,reloc=2,class=CODE,delta=1
    11                           	psect	text2,global,reloc=2,class=CODE,delta=1
    12                           	psect	text3,global,reloc=2,class=CODE,delta=1
    13                           	psect	text4,global,reloc=2,class=CODE,delta=1
    14                           	psect	text5,global,reloc=2,class=CODE,delta=1
    15                           	psect	text6,global,reloc=2,class=CODE,delta=1
    16                           	psect	text7,global,reloc=2,class=CODE,delta=1
    17                           	psect	text8,global,reloc=2,class=CODE,delta=1
    18                           	psect	text9,global,reloc=2,class=CODE,delta=1
    19                           	psect	text10,global,reloc=2,class=CODE,delta=1
    20                           	psect	text11,global,reloc=2,class=CODE,delta=1
    21                           	psect	text12,global,reloc=2,class=CODE,delta=1
    22                           	psect	text13,global,reloc=2,class=CODE,delta=1
    23                           	psect	text14,global,reloc=2,class=CODE,delta=1
    24                           	psect	intcode,global,reloc=2,class=CODE,delta=1
    25                           	psect	text16,global,reloc=2,class=CODE,delta=1
    26                           	psect	text17,global,reloc=2,class=CODE,delta=1
    27                           	psect	intsave_regs,global,class=BIGRAM,space=1,delta=1,noexec
    28                           	psect	text18,global,reloc=2,class=CODE,delta=1
    29                           	psect	rparam,global,class=COMRAM,space=1,delta=1,noexec
    30                           	psect	temp,global,ovrld,common,class=COMRAM,space=1,delta=1
    31                           	psect	idloc,global,abs,ovrld,class=IDLOC,space=5,delta=1,noexec
    32                           	psect	config,global,abs,ovrld,class=CONFIG,space=4,delta=1,noexec
    33  0000                     
    34                           ; Version 2.20
    35                           ; Generated 05/05/2020 GMT
    36                           ; 
    37                           ; Copyright © 2020, Microchip Technology Inc. and its subsidiaries ("Microchip")
    38                           ; All rights reserved.
    39                           ; 
    40                           ; This software is developed by Microchip Technology Inc. and its subsidiaries ("Microch
      +                          ip").
    41                           ; 
    42                           ; Redistribution and use in source and binary forms, with or without modification, are
    43                           ; permitted provided that the following conditions are met:
    44                           ; 
    45                           ;     1. Redistributions of source code must retain the above copyright notice, this lis
      +                          t of
    46                           ;        conditions and the following disclaimer.
    47                           ; 
    48                           ;     2. Redistributions in binary form must reproduce the above copyright notice, this 
      +                          list
    49                           ;        of conditions and the following disclaimer in the documentation and/or other
    50                           ;        materials provided with the distribution.
    51                           ; 
    52                           ;     3. Microchip's name may not be used to endorse or promote products derived from th
      +                          is
    53                           ;        software without specific prior written permission.
    54                           ; 
    55                           ; THIS SOFTWARE IS PROVIDED BY MICROCHIP "AS IS" AND ANY EXPRESS OR IMPLIED WARRANTIES,
    56                           ; INCLUDING, BUT NOT LIMITED TO, THE IMPLIED WARRANTIES OF MERCHANTABILITY AND FITNESS F
      +                          OR
    57                           ; PURPOSE ARE DISCLAIMED.  IN NO EVENT SHALL MICROCHIP BE LIABLE FOR ANY DIRECT, INDIREC
      +                          T,
    58                           ; INCIDENTAL, SPECIAL, EXEMPLARY, OR CONSEQUENTIAL DAMAGES (INCLUDING BUT NOT LIMITED TO
    59                           ; PROCUREMENT OF SUBSTITUTE GOODS OR SERVICES; LOSS OF USE, DATA OR PROFITS; OR BUSINESS
    60                           ; INTERRUPTION) HOWSOEVER CAUSED AND ON ANY THEORY OF LIABILITY, WHETHER IN CONTRACT, ST
      +                          RICT
    61                           ; LIABILITY, OR TORT (INCLUDING NEGLIGENCE OR OTHERWISE) ARISING IN ANY WAY OUT OF THE U
      +                          SE OF
    62                           ; THIS SOFTWARE, EVEN IF ADVISED OF THE POSSIBILITY OF SUCH DAMAGE.
    63                           ; 
    64                           ; 
    65                           ; Code-generator required, PIC18F46K80 Definitions
    66                           ; 
    67                           ; SFR Addresses
    68  0000                     
    69 ;; Function _EUSART1_DefaultFramingErrorHandler is unused but had its address taken
    70  0000                     
    71 ;; Function _EUSART1_DefaultOverrunErrorHandler is unused but had its address taken
    72  0000                     
    73 ;; Function _EUSART1_DefaultErrorHandler is unused but had its address taken
    74  0000                     _COMSTATbits	set	3953
    75  0000                     _RXB1SIDH	set	3889
    76  0000                     _RXB1SIDL	set	3890
    77  0000                     _RXB0D7	set	3949
    78  0000                     _RXB0D6	set	3948
    79  0000                     _RXB0D5	set	3947
    80  0000                     _RXB0D4	set	3946
    81  0000                     _RXB0D3	set	3945
    82  0000                     _RXB0D2	set	3944
    83  0000                     _RXB0D1	set	3943
    84  0000                     _RXB0D0	set	3942
    85  0000                     _RXB0DLC	set	3941
    86  0000                     _RXB0SIDH	set	3937
    87  0000                     _RXB0EIDL	set	3940
    88  0000                     _RXB0EIDH	set	3939
    89  0000                     _RXB0SIDL	set	3938
    90  0000                     _TXB2SIDL	set	3842
    91  0000                     _TXB2SIDH	set	3841
    92  0000                     _TXB2EIDH	set	3843
    93  0000                     _TXB2CONbits	set	3840
    94  0000                     _TXB1SIDL	set	3858
    95  0000                     _TXB1SIDH	set	3857
    96  0000                     _TXB1EIDH	set	3859
    97  0000                     _TXB1CONbits	set	3856
    98  0000                     _TXB0SIDL	set	3874
    99  0000                     _TXB0SIDH	set	3873
   100  0000                     _TXB0EIDH	set	3875
   101  0000                     _TXB0CONbits	set	3872
   102  0000                     _BRGCON3	set	3653
   103  0000                     _BRGCON2	set	3652
   104  0000                     _RXF15SIDL	set	3693
   105  0000                     _RXF15SIDH	set	3692
   106  0000                     _RXF15EIDH	set	3694
   107  0000                     _RXF14SIDL	set	3689
   108  0000                     _RXF14SIDH	set	3688
   109  0000                     _RXF14EIDL	set	3691
   110  0000                     _RXF14EIDH	set	3690
   111  0000                     _RXF13SIDL	set	3685
   112  0000                     _RXF13SIDH	set	3684
   113  0000                     _RXF13EIDL	set	3687
   114  0000                     _RXF13EIDH	set	3686
   115  0000                     _RXF12SIDL	set	3681
   116  0000                     _RXF12SIDH	set	3680
   117  0000                     _RXF12EIDL	set	3683
   118  0000                     _RXF12EIDH	set	3682
   119  0000                     _RXF11SIDL	set	3677
   120  0000                     _RXF11SIDH	set	3676
   121  0000                     _RXF11EIDL	set	3679
   122  0000                     _RXF11EIDH	set	3678
   123  0000                     _RXF10SIDL	set	3673
   124  0000                     _RXF10SIDH	set	3672
   125  0000                     _RXF10EIDL	set	3675
   126  0000                     _RXF10EIDH	set	3674
   127  0000                     _RXF9SIDL	set	3669
   128  0000                     _RXF9SIDH	set	3668
   129  0000                     _RXF9EIDL	set	3671
   130  0000                     _RXF9EIDH	set	3670
   131  0000                     _RXF8SIDL	set	3665
   132  0000                     _RXF8SIDH	set	3664
   133  0000                     _RXF8EIDL	set	3667
   134  0000                     _RXF8EIDH	set	3666
   135  0000                     _RXF7SIDL	set	3661
   136  0000                     _RXF7SIDH	set	3660
   137  0000                     _RXF7EIDL	set	3663
   138  0000                     _RXF7EIDH	set	3662
   139  0000                     _RXF6SIDL	set	3657
   140  0000                     _RXF6SIDH	set	3656
   141  0000                     _RXF6EIDL	set	3659
   142  0000                     _RXF6EIDH	set	3658
   143  0000                     _RXF5SIDL	set	3829
   144  0000                     _RXF5SIDH	set	3828
   145  0000                     _RXF5EIDL	set	3831
   146  0000                     _RXF5EIDH	set	3830
   147  0000                     _RXF4SIDL	set	3825
   148  0000                     _RXF4SIDH	set	3824
   149  0000                     _RXF4EIDL	set	3827
   150  0000                     _RXF4EIDH	set	3826
   151  0000                     _RXF3SIDL	set	3821
   152  0000                     _RXF3SIDH	set	3820
   153  0000                     _RXF3EIDL	set	3823
   154  0000                     _RXF3EIDH	set	3822
   155  0000                     _RXF2SIDL	set	3817
   156  0000                     _RXF2SIDH	set	3816
   157  0000                     _RXF2EIDL	set	3819
   158  0000                     _RXF2EIDH	set	3818
   159  0000                     _RXF1SIDL	set	3813
   160  0000                     _RXF1SIDH	set	3812
   161  0000                     _RXF1EIDL	set	3815
   162  0000                     _RXF1EIDH	set	3814
   163  0000                     _RXF0SIDL	set	3809
   164  0000                     _RXF0EIDL	set	3811
   165  0000                     _RXFBCON7	set	3704
   166  0000                     _RXFBCON6	set	3703
   167  0000                     _RXFBCON5	set	3702
   168  0000                     _RXFBCON4	set	3701
   169  0000                     _RXFBCON3	set	3700
   170  0000                     _RXFBCON2	set	3699
   171  0000                     _RXFBCON1	set	3698
   172  0000                     _RXFBCON0	set	3697
   173  0000                     _MSEL3	set	3708
   174  0000                     _MSEL2	set	3707
   175  0000                     _MSEL1	set	3706
   176  0000                     _MSEL0	set	3705
   177  0000                     _RXFCON1	set	3655
   178  0000                     _RXM1SIDL	set	3837
   179  0000                     _RXM1SIDH	set	3836
   180  0000                     _RXM1EIDL	set	3839
   181  0000                     _RXM1EIDH	set	3838
   182  0000                     _RXM0SIDL	set	3833
   183  0000                     _RXM0EIDL	set	3835
   184  0000                     _CIOCON	set	3952
   185  0000                     _ECANCON	set	3954
   186  0000                     _TRISD	set	3989
   187  0000                     _TRISC	set	3988
   188  0000                     _TRISB	set	3987
   189  0000                     _LATC	set	3979
   190  0000                     _LATB	set	3978
   191  0000                     _TXREG1	set	4013
   192  0000                     _RCREG1	set	4014
   193  0000                     _SPBRG1	set	4015
   194  0000                     _TXSTA1	set	4012
   195                           
   196                           	psect	nvCOMRAM
   197  000044                     __pnvCOMRAM:
   198                           	callstack 0
   199  000044                     _EUSART1_ErrorHandler:
   200                           	callstack 0
   201  000044                     	ds	2
   202  000046                     _EUSART1_OverrunErrorHandler:
   203                           	callstack 0
   204  000046                     	ds	2
   205  000048                     _EUSART1_FramingErrorHandler:
   206                           	callstack 0
   207  000048                     	ds	2
   208  0000                     _LATCbits	set	3979
   209  0000                     _RCSTA1bits	set	4011
   210  0000                     _TXSTA1bits	set	4012
   211  0000                     _BRGCON1	set	3651
   212  0000                     _RXFCON0	set	3654
   213  0000                     _BSEL0	set	3709
   214  0000                     _WPUB	set	3931
   215  0000                     _ANCON1	set	3932
   216  0000                     _ANCON0	set	3933
   217  0000                     _PIE5bits	set	3958
   218  0000                     _SPBRGH1	set	3965
   219  0000                     _BAUDCON1	set	4007
   220  0000                     _RCSTA1	set	4011
   221  0000                     _RCONbits	set	4048
   222  0000                     _PORTAbits	set	3968
   223  0000                     _LATA	set	3977
   224  0000                     _LATD	set	3980
   225  0000                     _LATE	set	3981
   226  0000                     _PIR1bits	set	3998
   227  0000                     _OSCCON2	set	4050
   228  0000                     _OSCCON	set	4051
   229  0000                     _INTCON2bits	set	4081
   230  0000                     _INTCONbits	set	4082
   231  0000                     _PIR5bits	set	3959
   232  0000                     _TRISA	set	3986
   233  0000                     _TRISE	set	3990
   234  0000                     _REFOCON	set	3994
   235  0000                     _OSCTUNE	set	3995
   236  0000                     _RXB0CONbits	set	3936
   237  0000                     _CANSTAT	set	3950
   238  0000                     _CANCON	set	3951
   239  0000                     _RXF0SIDH	set	3808
   240  0000                     _RXF0EIDH	set	3810
   241  0000                     _RXM0SIDH	set	3832
   242  0000                     _RXM0EIDH	set	3834
   243  0000                     _RXF15EIDL	set	3695
   244  0000                     _RXB1CONbits	set	3888
   245  0000                     _TXB0D7	set	3885
   246  0000                     _TXB0D6	set	3884
   247  0000                     _TXB0D5	set	3883
   248  0000                     _TXB0D4	set	3882
   249  0000                     _TXB0D3	set	3881
   250  0000                     _TXB0D2	set	3880
   251  0000                     _TXB0D1	set	3879
   252  0000                     _TXB0D0	set	3878
   253  0000                     _TXB0DLC	set	3877
   254  0000                     _TXB0EIDL	set	3876
   255  0000                     _TXB1D7	set	3869
   256  0000                     _TXB1D6	set	3868
   257  0000                     _TXB1D5	set	3867
   258  0000                     _TXB1D4	set	3866
   259  0000                     _TXB1D3	set	3865
   260  0000                     _TXB1D2	set	3864
   261  0000                     _TXB1D1	set	3863
   262  0000                     _TXB1D0	set	3862
   263  0000                     _TXB1DLC	set	3861
   264  0000                     _TXB1EIDL	set	3860
   265  0000                     _TXB2D7	set	3853
   266  0000                     _TXB2D6	set	3852
   267  0000                     _TXB2D5	set	3851
   268  0000                     _TXB2D4	set	3850
   269  0000                     _TXB2D3	set	3849
   270  0000                     _TXB2D2	set	3848
   271  0000                     _TXB2D1	set	3847
   272  0000                     _TXB2D0	set	3846
   273  0000                     _TXB2DLC	set	3845
   274  0000                     _TXB2EIDL	set	3844
   275  0000                     _RXB1D7	set	3901
   276  0000                     _RXB1D6	set	3900
   277  0000                     _RXB1D5	set	3899
   278  0000                     _RXB1D4	set	3898
   279  0000                     _RXB1D3	set	3897
   280  0000                     _RXB1D2	set	3896
   281  0000                     _RXB1D1	set	3895
   282  0000                     _RXB1D0	set	3894
   283  0000                     _RXB1DLC	set	3893
   284  0000                     _RXB1EIDL	set	3892
   285  0000                     _RXB1EIDH	set	3891
   286                           
   287                           ; #config settings
   288                           
   289                           	psect	cinit
   290  0007EA                     __pcinit:
   291                           	callstack 0
   292  0007EA                     start_initialization:
   293                           	callstack 0
   294  0007EA                     __initialization:
   295                           	callstack 0
   296                           
   297                           ; Clear objects allocated to COMRAM (37 bytes)
   298  0007EA  EE00  F001         	lfsr	0,__pbssCOMRAM
   299  0007EE  0E25               	movlw	37
   300  0007F0                     clear_0:
   301  0007F0  6AEE               	clrf	postinc0,c
   302  0007F2  06E8               	decf	wreg,f,c
   303  0007F4  E1FD               	bnz	clear_0
   304  0007F6                     end_of_initialization:
   305                           	callstack 0
   306  0007F6                     __end_of__initialization:
   307                           	callstack 0
   308  0007F6  904A               	bcf	int$flags,0,c	;clear compiler interrupt flag (level 1)
   309  0007F8  924A               	bcf	int$flags,1,c	;clear compiler interrupt flag (level 2)
   310  0007FA  0E00               	movlw	low (__Lmediumconst shr (0+16))
   311  0007FC  6EF8               	movwf	tblptru,c
   312  0007FE  0100               	movlb	0
   313  000800  EF4A  F003         	goto	_main	;jump to C main() function
   314                           
   315                           	psect	bssCOMRAM
   316  000001                     __pbssCOMRAM:
   317                           	callstack 0
   318  000001                     _b10FuncActive:
   319                           	callstack 0
   320  000001                     	ds	2
   321  000003                     _b2FuncActive:
   322                           	callstack 0
   323  000003                     	ds	2
   324  000005                     _b1FuncActive:
   325                           	callstack 0
   326  000005                     	ds	2
   327  000007                     _WakeUpInterruptHandler:
   328                           	callstack 0
   329  000007                     	ds	2
   330  000009                     _eusart1RxLastError:
   331                           	callstack 0
   332  000009                     	ds	1
   333  00000A                     _tx2:
   334                           	callstack 0
   335  00000A                     	ds	14
   336  000018                     _tx1:
   337                           	callstack 0
   338  000018                     	ds	14
   339                           
   340                           	psect	cstackCOMRAM
   341  000026                     __pcstackCOMRAM:
   342                           	callstack 0
   343  000026                     ??_INTERRUPT_InterruptManager:
   344  000026                     
   345                           ; 1 bytes @ 0x0
   346  000026                     	ds	2
   347  000028                     EUSART1_SetFramingErrorHandler@interruptHandler:
   348                           	callstack 0
   349  000028                     EUSART1_SetOverrunErrorHandler@interruptHandler:
   350                           	callstack 0
   351  000028                     EUSART1_SetErrorHandler@interruptHandler:
   352                           	callstack 0
   353  000028                     ECAN_SetWakeUpInterruptHandler@handler:
   354                           	callstack 0
   355  000028                     convertCANid2Reg@tempPassedInID:
   356                           	callstack 0
   357                           
   358                           ; 4 bytes @ 0x2
   359  000028                     	ds	2
   360  00002A                     ??_ECAN_Initialize:
   361                           
   362                           ; 1 bytes @ 0x4
   363  00002A                     	ds	1
   364  00002B                     
   365                           ; 1 bytes @ 0x5
   366  00002B                     	ds	1
   367  00002C                     convertCANid2Reg@canIdType:
   368                           	callstack 0
   369                           
   370                           ; 1 bytes @ 0x6
   371  00002C                     	ds	1
   372  00002D                     convertCANid2Reg@passedInEIDH:
   373                           	callstack 0
   374                           
   375                           ; 2 bytes @ 0x7
   376  00002D                     	ds	2
   377  00002F                     convertCANid2Reg@passedInEIDL:
   378                           	callstack 0
   379                           
   380                           ; 2 bytes @ 0x9
   381  00002F                     	ds	2
   382  000031                     convertCANid2Reg@passedInSIDH:
   383                           	callstack 0
   384                           
   385                           ; 2 bytes @ 0xB
   386  000031                     	ds	2
   387  000033                     convertCANid2Reg@passedInSIDL:
   388                           	callstack 0
   389                           
   390                           ; 2 bytes @ 0xD
   391  000033                     	ds	2
   392  000035                     ??_convertCANid2Reg:
   393                           
   394                           ; 1 bytes @ 0xF
   395  000035                     	ds	4
   396  000039                     convertCANid2Reg@wipSIDL:
   397                           	callstack 0
   398                           
   399                           ; 1 bytes @ 0x13
   400  000039                     	ds	1
   401  00003A                     CAN_transmit@tempCanMsg:
   402                           	callstack 0
   403                           
   404                           ; 2 bytes @ 0x14
   405  00003A                     	ds	2
   406  00003C                     CAN_transmit@tempEIDH:
   407                           	callstack 0
   408                           
   409                           ; 1 bytes @ 0x16
   410  00003C                     	ds	1
   411  00003D                     CAN_transmit@tempEIDL:
   412                           	callstack 0
   413                           
   414                           ; 1 bytes @ 0x17
   415  00003D                     	ds	1
   416  00003E                     CAN_transmit@tempSIDH:
   417                           	callstack 0
   418                           
   419                           ; 1 bytes @ 0x18
   420  00003E                     	ds	1
   421  00003F                     CAN_transmit@tempSIDL:
   422                           	callstack 0
   423                           
   424                           ; 1 bytes @ 0x19
   425  00003F                     	ds	1
   426  000040                     canRightSignal@number:
   427                           	callstack 0
   428  000040                     canLeftSignal@number:
   429                           	callstack 0
   430                           
   431                           ; 2 bytes @ 0x1A
   432  000040                     	ds	2
   433  000042                     ??_main:
   434                           
   435                           ; 1 bytes @ 0x1C
   436  000042                     	ds	2
   437                           
   438 ;;
   439 ;;Main: autosize = 0, tempsize = 2, incstack = 0, save=0
   440 ;;
   441 ;; *************** function _main *****************
   442 ;; Defined at:
   443 ;;		line 57 in file "main.c"
   444 ;; Parameters:    Size  Location     Type
   445 ;;		None
   446 ;; Auto vars:     Size  Location     Type
   447 ;;		None
   448 ;; Return value:  Size  Location     Type
   449 ;;                  1    wreg      void 
   450 ;; Registers used:
   451 ;;		wreg, fsr2l, fsr2h, status,2, status,0, cstack
   452 ;; Tracked objects:
   453 ;;		On entry : 0/0
   454 ;;		On exit  : 0/0
   455 ;;		Unchanged: 0/0
   456 ;; Data sizes:     COMRAM   BANK0   BANK1   BANK2   BANK3   BANK4   BANK5   BANK6   BANK7   BANK8   BANK9  BANK10  BANK1
      +1  BANK12  BANK13  BANK14
   457 ;;      Params:         0       0       0       0       0       0       0       0       0       0       0       0       
      +0       0       0       0
   458 ;;      Locals:         0       0       0       0       0       0       0       0       0       0       0       0       
      +0       0       0       0
   459 ;;      Temps:          2       0       0       0       0       0       0       0       0       0       0       0       
      +0       0       0       0
   460 ;;      Totals:         2       0       0       0       0       0       0       0       0       0       0       0       
      +0       0       0       0
   461 ;;Total ram usage:        2 bytes
   462 ;; Hardware stack levels required when called: 6
   463 ;; This function calls:
   464 ;;		_SYSTEM_Initialize
   465 ;;		_canLeftSignal
   466 ;;		_canRightSignal
   467 ;; This function is called by:
   468 ;;		Startup code after reset
   469 ;; This function uses a non-reentrant model
   470 ;;
   471                           
   472                           	psect	text0
   473  000694                     __ptext0:
   474                           	callstack 0
   475  000694                     _main:
   476                           	callstack 25
   477  000694                     
   478                           ;main.c: 58:     SYSTEM_Initialize();
   479  000694  EC02  F004         	call	_SYSTEM_Initialize	;wreg free
   480  000698  8C8B               	bsf	139,6,c	;volatile
   481  00069A                     l2250:
   482                           
   483                           ;main.c: 62:         canRightSignal(1);
   484  00069A  0E00               	movlw	0
   485  00069C  6E41               	movwf	(canRightSignal@number+1)^0,c
   486  00069E  0E01               	movlw	1
   487  0006A0  6E40               	movwf	canRightSignal@number^0,c
   488  0006A2  ECBC  F003         	call	_canRightSignal	;wreg free
   489  0006A6                     
   490                           ;main.c: 63:         canLeftSignal(0);
   491  0006A6  0E00               	movlw	0
   492  0006A8  6E41               	movwf	(canLeftSignal@number+1)^0,c
   493  0006AA  0E00               	movlw	0
   494  0006AC  6E40               	movwf	canLeftSignal@number^0,c
   495  0006AE  ECD1  F003         	call	_canLeftSignal	;wreg free
   496  0006B2                     
   497                           ;main.c: 64:         _delay((unsigned long)((1000)*(20000000/4000.0)));
   498  0006B2  0E1A               	movlw	26
   499  0006B4  6E43               	movwf	(??_main+1)^0,c
   500  0006B6  0E5E               	movlw	94
   501  0006B8  6E42               	movwf	??_main^0,c
   502  0006BA  0E6E               	movlw	110
   503  0006BC                     u427:
   504  0006BC  2EE8               	decfsz	wreg,f,c
   505  0006BE  D7FE               	bra	u427
   506  0006C0  2E42               	decfsz	??_main^0,f,c
   507  0006C2  D7FC               	bra	u427
   508  0006C4  2E43               	decfsz	(??_main+1)^0,f,c
   509  0006C6  D7FA               	bra	u427
   510  0006C8  D000               	nop2	
   511  0006CA                     
   512                           ;main.c: 65:         canRightSignal(0);
   513  0006CA  0E00               	movlw	0
   514  0006CC  6E41               	movwf	(canRightSignal@number+1)^0,c
   515  0006CE  0E00               	movlw	0
   516  0006D0  6E40               	movwf	canRightSignal@number^0,c
   517  0006D2  ECBC  F003         	call	_canRightSignal	;wreg free
   518  0006D6                     
   519                           ;main.c: 66:         canLeftSignal(1);
   520  0006D6  0E00               	movlw	0
   521  0006D8  6E41               	movwf	(canLeftSignal@number+1)^0,c
   522  0006DA  0E01               	movlw	1
   523  0006DC  6E40               	movwf	canLeftSignal@number^0,c
   524  0006DE  ECD1  F003         	call	_canLeftSignal	;wreg free
   525  0006E2                     
   526                           ;main.c: 67:         _delay((unsigned long)((1000)*(20000000/4000.0)));
   527  0006E2  0E1A               	movlw	26
   528  0006E4  6E43               	movwf	(??_main+1)^0,c
   529  0006E6  0E5E               	movlw	94
   530  0006E8  6E42               	movwf	??_main^0,c
   531  0006EA  0E6E               	movlw	110
   532  0006EC                     u437:
   533  0006EC  2EE8               	decfsz	wreg,f,c
   534  0006EE  D7FE               	bra	u437
   535  0006F0  2E42               	decfsz	??_main^0,f,c
   536  0006F2  D7FC               	bra	u437
   537  0006F4  2E43               	decfsz	(??_main+1)^0,f,c
   538  0006F6  D7FA               	bra	u437
   539  0006F8  D000               	nop2	
   540  0006FA  EF4D  F003         	goto	l2250
   541  0006FE  EF26  F000         	goto	start
   542  000702                     __end_of_main:
   543                           	callstack 0
   544                           
   545 ;; *************** function _canRightSignal *****************
   546 ;; Defined at:
   547 ;;		line 18 in file "main.c"
   548 ;; Parameters:    Size  Location     Type
   549 ;;  number          2   26[COMRAM] int 
   550 ;; Auto vars:     Size  Location     Type
   551 ;;		None
   552 ;; Return value:  Size  Location     Type
   553 ;;                  1    wreg      void 
   554 ;; Registers used:
   555 ;;		wreg, fsr2l, fsr2h, status,2, status,0, cstack
   556 ;; Tracked objects:
   557 ;;		On entry : 0/0
   558 ;;		On exit  : 0/0
   559 ;;		Unchanged: 0/0
   560 ;; Data sizes:     COMRAM   BANK0   BANK1   BANK2   BANK3   BANK4   BANK5   BANK6   BANK7   BANK8   BANK9  BANK10  BANK1
      +1  BANK12  BANK13  BANK14
   561 ;;      Params:         2       0       0       0       0       0       0       0       0       0       0       0       
      +0       0       0       0
   562 ;;      Locals:         0       0       0       0       0       0       0       0       0       0       0       0       
      +0       0       0       0
   563 ;;      Temps:          0       0       0       0       0       0       0       0       0       0       0       0       
      +0       0       0       0
   564 ;;      Totals:         2       0       0       0       0       0       0       0       0       0       0       0       
      +0       0       0       0
   565 ;;Total ram usage:        2 bytes
   566 ;; Hardware stack levels used: 1
   567 ;; Hardware stack levels required when called: 5
   568 ;; This function calls:
   569 ;;		_CAN_transmit
   570 ;; This function is called by:
   571 ;;		_main
   572 ;; This function uses a non-reentrant model
   573 ;;
   574                           
   575                           	psect	text1
   576  000778                     __ptext1:
   577                           	callstack 0
   578  000778                     _canRightSignal:
   579                           	callstack 25
   580  000778                     
   581                           ;main.c: 19:  tx1.frame.idType = 1;
   582  000778  0E01               	movlw	1
   583  00077A  6E18               	movwf	_tx1^0,c
   584                           
   585                           ;main.c: 20:  tx1.frame.id = 0x02;
   586  00077C  0E02               	movlw	2
   587  00077E  6E19               	movwf	(_tx1+1)^0,c
   588  000780  0E00               	movlw	0
   589  000782  6E1A               	movwf	(_tx1+2)^0,c
   590  000784  0E00               	movlw	0
   591  000786  6E1B               	movwf	(_tx1+3)^0,c
   592  000788  0E00               	movlw	0
   593  00078A  6E1C               	movwf	(_tx1+4)^0,c
   594                           
   595                           ;main.c: 21:  tx1.frame.dlc = 0x01;
   596  00078C  0E01               	movlw	1
   597  00078E  6E1D               	movwf	(_tx1+5)^0,c
   598  000790                     
   599                           ;main.c: 22:  tx1.frame.data0 = number;
   600  000790  C040  F01E         	movff	canRightSignal@number,_tx1+6
   601  000794                     
   602                           ;main.c: 23:  CAN_transmit(&tx1);
   603  000794  0E18               	movlw	low _tx1
   604  000796  6E3A               	movwf	CAN_transmit@tempCanMsg^0,c
   605  000798  0E00               	movlw	high _tx1
   606  00079A  6E3B               	movwf	(CAN_transmit@tempCanMsg+1)^0,c
   607  00079C  EC28  F000         	call	_CAN_transmit	;wreg free
   608  0007A0  0012               	return		;funcret
   609  0007A2                     __end_of_canRightSignal:
   610                           	callstack 0
   611                           
   612 ;; *************** function _canLeftSignal *****************
   613 ;; Defined at:
   614 ;;		line 26 in file "main.c"
   615 ;; Parameters:    Size  Location     Type
   616 ;;  number          2   26[COMRAM] int 
   617 ;; Auto vars:     Size  Location     Type
   618 ;;		None
   619 ;; Return value:  Size  Location     Type
   620 ;;                  1    wreg      void 
   621 ;; Registers used:
   622 ;;		wreg, fsr2l, fsr2h, status,2, status,0, cstack
   623 ;; Tracked objects:
   624 ;;		On entry : 0/0
   625 ;;		On exit  : 0/0
   626 ;;		Unchanged: 0/0
   627 ;; Data sizes:     COMRAM   BANK0   BANK1   BANK2   BANK3   BANK4   BANK5   BANK6   BANK7   BANK8   BANK9  BANK10  BANK1
      +1  BANK12  BANK13  BANK14
   628 ;;      Params:         2       0       0       0       0       0       0       0       0       0       0       0       
      +0       0       0       0
   629 ;;      Locals:         0       0       0       0       0       0       0       0       0       0       0       0       
      +0       0       0       0
   630 ;;      Temps:          0       0       0       0       0       0       0       0       0       0       0       0       
      +0       0       0       0
   631 ;;      Totals:         2       0       0       0       0       0       0       0       0       0       0       0       
      +0       0       0       0
   632 ;;Total ram usage:        2 bytes
   633 ;; Hardware stack levels used: 1
   634 ;; Hardware stack levels required when called: 5
   635 ;; This function calls:
   636 ;;		_CAN_transmit
   637 ;; This function is called by:
   638 ;;		_main
   639 ;; This function uses a non-reentrant model
   640 ;;
   641                           
   642                           	psect	text2
   643  0007A2                     __ptext2:
   644                           	callstack 0
   645  0007A2                     _canLeftSignal:
   646                           	callstack 25
   647  0007A2                     
   648                           ;main.c: 27:  tx2.frame.idType = 1;
   649  0007A2  0E01               	movlw	1
   650  0007A4  6E0A               	movwf	_tx2^0,c
   651                           
   652                           ;main.c: 28:  tx2.frame.id = 0x03;
   653  0007A6  0E03               	movlw	3
   654  0007A8  6E0B               	movwf	(_tx2+1)^0,c
   655  0007AA  0E00               	movlw	0
   656  0007AC  6E0C               	movwf	(_tx2+2)^0,c
   657  0007AE  0E00               	movlw	0
   658  0007B0  6E0D               	movwf	(_tx2+3)^0,c
   659  0007B2  0E00               	movlw	0
   660  0007B4  6E0E               	movwf	(_tx2+4)^0,c
   661                           
   662                           ;main.c: 29:  tx2.frame.dlc = 0x01;
   663  0007B6  0E01               	movlw	1
   664  0007B8  6E0F               	movwf	(_tx2+5)^0,c
   665  0007BA                     
   666                           ;main.c: 30:  tx2.frame.data0 = number;
   667  0007BA  C040  F010         	movff	canLeftSignal@number,_tx2+6
   668  0007BE                     
   669                           ;main.c: 31:  CAN_transmit(&tx2);
   670  0007BE  0E0A               	movlw	low _tx2
   671  0007C0  6E3A               	movwf	CAN_transmit@tempCanMsg^0,c
   672  0007C2  0E00               	movlw	high _tx2
   673  0007C4  6E3B               	movwf	(CAN_transmit@tempCanMsg+1)^0,c
   674  0007C6  EC28  F000         	call	_CAN_transmit	;wreg free
   675  0007CA  0012               	return		;funcret
   676  0007CC                     __end_of_canLeftSignal:
   677                           	callstack 0
   678                           
   679 ;; *************** function _CAN_transmit *****************
   680 ;; Defined at:
   681 ;;		line 235 in file "mcc_generated_files/ecan.c"
   682 ;; Parameters:    Size  Location     Type
   683 ;;  tempCanMsg      2   20[COMRAM] PTR struct .
   684 ;;		 -> tx2(14), tx1(14), 
   685 ;; Auto vars:     Size  Location     Type
   686 ;;  tempSIDL        1   25[COMRAM] unsigned char 
   687 ;;  tempSIDH        1   24[COMRAM] unsigned char 
   688 ;;  tempEIDL        1   23[COMRAM] unsigned char 
   689 ;;  tempEIDH        1   22[COMRAM] unsigned char 
   690 ;;  returnValue     1    0        unsigned char 
   691 ;; Return value:  Size  Location     Type
   692 ;;                  1    wreg      unsigned char 
   693 ;; Registers used:
   694 ;;		wreg, fsr2l, fsr2h, status,2, status,0, cstack
   695 ;; Tracked objects:
   696 ;;		On entry : 0/0
   697 ;;		On exit  : 0/0
   698 ;;		Unchanged: 0/0
   699 ;; Data sizes:     COMRAM   BANK0   BANK1   BANK2   BANK3   BANK4   BANK5   BANK6   BANK7   BANK8   BANK9  BANK10  BANK1
      +1  BANK12  BANK13  BANK14
   700 ;;      Params:         2       0       0       0       0       0       0       0       0       0       0       0       
      +0       0       0       0
   701 ;;      Locals:         4       0       0       0       0       0       0       0       0       0       0       0       
      +0       0       0       0
   702 ;;      Temps:          0       0       0       0       0       0       0       0       0       0       0       0       
      +0       0       0       0
   703 ;;      Totals:         6       0       0       0       0       0       0       0       0       0       0       0       
      +0       0       0       0
   704 ;;Total ram usage:        6 bytes
   705 ;; Hardware stack levels used: 1
   706 ;; Hardware stack levels required when called: 4
   707 ;; This function calls:
   708 ;;		_convertCANid2Reg
   709 ;; This function is called by:
   710 ;;		_canRightSignal
   711 ;;		_canLeftSignal
   712 ;; This function uses a non-reentrant model
   713 ;;
   714                           
   715                           	psect	text3
   716  000050                     __ptext3:
   717                           	callstack 0
   718  000050                     _CAN_transmit:
   719                           	callstack 25
   720  000050                     
   721                           ;mcc_generated_files/ecan.c: 235: uint8_t CAN_transmit(uCAN_MSG *tempCanMsg);mcc_generat
      +                          ed_files/ecan.c: 236: {;mcc_generated_files/ecan.c: 237:     uint8_t tempEIDH = 0;
   722  000050  0E00               	movlw	0
   723  000052  6E3C               	movwf	CAN_transmit@tempEIDH^0,c
   724                           
   725                           ;mcc_generated_files/ecan.c: 238:     uint8_t tempEIDL = 0;
   726  000054  0E00               	movlw	0
   727  000056  6E3D               	movwf	CAN_transmit@tempEIDL^0,c
   728                           
   729                           ;mcc_generated_files/ecan.c: 239:     uint8_t tempSIDH = 0;
   730  000058  0E00               	movlw	0
   731  00005A  6E3E               	movwf	CAN_transmit@tempSIDH^0,c
   732                           
   733                           ;mcc_generated_files/ecan.c: 240:     uint8_t tempSIDL = 0;
   734  00005C  0E00               	movlw	0
   735  00005E  6E3F               	movwf	CAN_transmit@tempSIDL^0,c
   736  000060                     
   737                           ;mcc_generated_files/ecan.c: 243:     if (TXB0CONbits.TXREQ != 1)
   738  000060  010F               	movlb	15	; () banked
   739  000062  B720               	btfsc	32,3,b	;volatile
   740  000064  EF36  F000         	goto	u391
   741  000068  EF38  F000         	goto	u390
   742  00006C                     u391:
   743  00006C  EFB2  F000         	goto	l511
   744  000070                     u390:
   745  000070                     
   746                           ; BSR set to: 15
   747                           ;mcc_generated_files/ecan.c: 244:     {;mcc_generated_files/ecan.c: 245:         convert
      +                          CANid2Reg(tempCanMsg->frame.id, tempCanMsg->frame.idType, &tempEIDH, &tempEIDL, &tempSID
      +                          H, &tempSIDL);
   748  000070  EE20 F001          	lfsr	2,1
   749  000074  503A               	movf	CAN_transmit@tempCanMsg^0,w,c
   750  000076  26D9               	addwf	fsr2l,f,c
   751  000078  503B               	movf	(CAN_transmit@tempCanMsg+1)^0,w,c
   752  00007A  22DA               	addwfc	fsr2h,f,c
   753  00007C  CFDE F028          	movff	postinc2,convertCANid2Reg@tempPassedInID
   754  000080  CFDE F029          	movff	postinc2,convertCANid2Reg@tempPassedInID+1
   755  000084  CFDE F02A          	movff	postinc2,convertCANid2Reg@tempPassedInID+2
   756  000088  CFDE F02B          	movff	postinc2,convertCANid2Reg@tempPassedInID+3
   757  00008C  C03A  FFD9         	movff	CAN_transmit@tempCanMsg,fsr2l
   758  000090  C03B  FFDA         	movff	CAN_transmit@tempCanMsg+1,fsr2h
   759  000094  50DF               	movf	indf2,w,c
   760  000096  6E2C               	movwf	convertCANid2Reg@canIdType^0,c
   761  000098  0E3C               	movlw	low CAN_transmit@tempEIDH
   762  00009A  6E2D               	movwf	convertCANid2Reg@passedInEIDH^0,c
   763  00009C  0E00               	movlw	high CAN_transmit@tempEIDH
   764  00009E  6E2E               	movwf	(convertCANid2Reg@passedInEIDH+1)^0,c
   765  0000A0  0E3D               	movlw	low CAN_transmit@tempEIDL
   766  0000A2  6E2F               	movwf	convertCANid2Reg@passedInEIDL^0,c
   767  0000A4  0E00               	movlw	high CAN_transmit@tempEIDL
   768  0000A6  6E30               	movwf	(convertCANid2Reg@passedInEIDL+1)^0,c
   769  0000A8  0E3E               	movlw	low CAN_transmit@tempSIDH
   770  0000AA  6E31               	movwf	convertCANid2Reg@passedInSIDH^0,c
   771  0000AC  0E00               	movlw	high CAN_transmit@tempSIDH
   772  0000AE  6E32               	movwf	(convertCANid2Reg@passedInSIDH+1)^0,c
   773  0000B0  0E3F               	movlw	low CAN_transmit@tempSIDL
   774  0000B2  6E33               	movwf	convertCANid2Reg@passedInSIDL^0,c
   775  0000B4  0E00               	movlw	high CAN_transmit@tempSIDL
   776  0000B6  6E34               	movwf	(convertCANid2Reg@passedInSIDL+1)^0,c
   777  0000B8  EC90  F002         	call	_convertCANid2Reg	;wreg free
   778  0000BC                     
   779                           ;mcc_generated_files/ecan.c: 247:         TXB0EIDH = tempEIDH;
   780  0000BC  C03C  FF23         	movff	CAN_transmit@tempEIDH,3875	;volatile
   781  0000C0                     
   782                           ;mcc_generated_files/ecan.c: 248:         TXB0EIDL = tempEIDL;
   783  0000C0  C03D  FF24         	movff	CAN_transmit@tempEIDL,3876	;volatile
   784  0000C4                     
   785                           ;mcc_generated_files/ecan.c: 249:         TXB0SIDH = tempSIDH;
   786  0000C4  C03E  FF21         	movff	CAN_transmit@tempSIDH,3873	;volatile
   787  0000C8                     
   788                           ;mcc_generated_files/ecan.c: 250:         TXB0SIDL = tempSIDL;
   789  0000C8  C03F  FF22         	movff	CAN_transmit@tempSIDL,3874	;volatile
   790  0000CC                     
   791                           ;mcc_generated_files/ecan.c: 251:         TXB0DLC = tempCanMsg->frame.dlc;
   792  0000CC  EE20 F005          	lfsr	2,5
   793  0000D0  503A               	movf	CAN_transmit@tempCanMsg^0,w,c
   794  0000D2  26D9               	addwf	fsr2l,f,c
   795  0000D4  503B               	movf	(CAN_transmit@tempCanMsg+1)^0,w,c
   796  0000D6  22DA               	addwfc	fsr2h,f,c
   797  0000D8  50DF               	movf	indf2,w,c
   798  0000DA  010F               	movlb	15	; () banked
   799  0000DC  6F25               	movwf	37,b	;volatile
   800  0000DE                     
   801                           ; BSR set to: 15
   802                           ;mcc_generated_files/ecan.c: 252:         TXB0D0 = tempCanMsg->frame.data0;
   803  0000DE  EE20 F006          	lfsr	2,6
   804  0000E2  503A               	movf	CAN_transmit@tempCanMsg^0,w,c
   805  0000E4  26D9               	addwf	fsr2l,f,c
   806  0000E6  503B               	movf	(CAN_transmit@tempCanMsg+1)^0,w,c
   807  0000E8  22DA               	addwfc	fsr2h,f,c
   808  0000EA  50DF               	movf	indf2,w,c
   809  0000EC  6F26               	movwf	38,b	;volatile
   810  0000EE                     
   811                           ; BSR set to: 15
   812                           ;mcc_generated_files/ecan.c: 253:         TXB0D1 = tempCanMsg->frame.data1;
   813  0000EE  EE20 F007          	lfsr	2,7
   814  0000F2  503A               	movf	CAN_transmit@tempCanMsg^0,w,c
   815  0000F4  26D9               	addwf	fsr2l,f,c
   816  0000F6  503B               	movf	(CAN_transmit@tempCanMsg+1)^0,w,c
   817  0000F8  22DA               	addwfc	fsr2h,f,c
   818  0000FA  50DF               	movf	indf2,w,c
   819  0000FC  6F27               	movwf	39,b	;volatile
   820  0000FE                     
   821                           ; BSR set to: 15
   822                           ;mcc_generated_files/ecan.c: 254:         TXB0D2 = tempCanMsg->frame.data2;
   823  0000FE  EE20 F008          	lfsr	2,8
   824  000102  503A               	movf	CAN_transmit@tempCanMsg^0,w,c
   825  000104  26D9               	addwf	fsr2l,f,c
   826  000106  503B               	movf	(CAN_transmit@tempCanMsg+1)^0,w,c
   827  000108  22DA               	addwfc	fsr2h,f,c
   828  00010A  50DF               	movf	indf2,w,c
   829  00010C  6F28               	movwf	40,b	;volatile
   830  00010E                     
   831                           ; BSR set to: 15
   832                           ;mcc_generated_files/ecan.c: 255:         TXB0D3 = tempCanMsg->frame.data3;
   833  00010E  EE20 F009          	lfsr	2,9
   834  000112  503A               	movf	CAN_transmit@tempCanMsg^0,w,c
   835  000114  26D9               	addwf	fsr2l,f,c
   836  000116  503B               	movf	(CAN_transmit@tempCanMsg+1)^0,w,c
   837  000118  22DA               	addwfc	fsr2h,f,c
   838  00011A  50DF               	movf	indf2,w,c
   839  00011C  6F29               	movwf	41,b	;volatile
   840  00011E                     
   841                           ; BSR set to: 15
   842                           ;mcc_generated_files/ecan.c: 256:         TXB0D4 = tempCanMsg->frame.data4;
   843  00011E  EE20 F00A          	lfsr	2,10
   844  000122  503A               	movf	CAN_transmit@tempCanMsg^0,w,c
   845  000124  26D9               	addwf	fsr2l,f,c
   846  000126  503B               	movf	(CAN_transmit@tempCanMsg+1)^0,w,c
   847  000128  22DA               	addwfc	fsr2h,f,c
   848  00012A  50DF               	movf	indf2,w,c
   849  00012C  6F2A               	movwf	42,b	;volatile
   850  00012E                     
   851                           ; BSR set to: 15
   852                           ;mcc_generated_files/ecan.c: 257:         TXB0D5 = tempCanMsg->frame.data5;
   853  00012E  EE20 F00B          	lfsr	2,11
   854  000132  503A               	movf	CAN_transmit@tempCanMsg^0,w,c
   855  000134  26D9               	addwf	fsr2l,f,c
   856  000136  503B               	movf	(CAN_transmit@tempCanMsg+1)^0,w,c
   857  000138  22DA               	addwfc	fsr2h,f,c
   858  00013A  50DF               	movf	indf2,w,c
   859  00013C  6F2B               	movwf	43,b	;volatile
   860  00013E                     
   861                           ; BSR set to: 15
   862                           ;mcc_generated_files/ecan.c: 258:         TXB0D6 = tempCanMsg->frame.data6;
   863  00013E  EE20 F00C          	lfsr	2,12
   864  000142  503A               	movf	CAN_transmit@tempCanMsg^0,w,c
   865  000144  26D9               	addwf	fsr2l,f,c
   866  000146  503B               	movf	(CAN_transmit@tempCanMsg+1)^0,w,c
   867  000148  22DA               	addwfc	fsr2h,f,c
   868  00014A  50DF               	movf	indf2,w,c
   869  00014C  6F2C               	movwf	44,b	;volatile
   870  00014E                     
   871                           ; BSR set to: 15
   872                           ;mcc_generated_files/ecan.c: 259:         TXB0D7 = tempCanMsg->frame.data7;
   873  00014E  EE20 F00D          	lfsr	2,13
   874  000152  503A               	movf	CAN_transmit@tempCanMsg^0,w,c
   875  000154  26D9               	addwf	fsr2l,f,c
   876  000156  503B               	movf	(CAN_transmit@tempCanMsg+1)^0,w,c
   877  000158  22DA               	addwfc	fsr2h,f,c
   878  00015A  50DF               	movf	indf2,w,c
   879  00015C  6F2D               	movwf	45,b	;volatile
   880  00015E                     
   881                           ; BSR set to: 15
   882                           ;mcc_generated_files/ecan.c: 261:         TXB0CONbits.TXREQ = 1;
   883  00015E  8720               	bsf	32,3,b	;volatile
   884  000160                     l2156:
   885                           
   886                           ; BSR set to: 15
   887                           ;mcc_generated_files/ecan.c: 264:     }
   888  000160  EFB4  F001         	goto	l516
   889  000164                     l511:
   890                           
   891                           ; BSR set to: 15
   892  000164  B710               	btfsc	16,3,b	;volatile
   893  000166  EFB7  F000         	goto	u401
   894  00016A  EFB9  F000         	goto	u400
   895  00016E                     u401:
   896  00016E  EF33  F001         	goto	l513
   897  000172                     u400:
   898  000172                     
   899                           ; BSR set to: 15
   900                           ;mcc_generated_files/ecan.c: 266:     {;mcc_generated_files/ecan.c: 268:         convert
      +                          CANid2Reg(tempCanMsg->frame.id, tempCanMsg->frame.idType, &tempEIDH, &tempEIDL, &tempSID
      +                          H, &tempSIDL);
   901  000172  EE20 F001          	lfsr	2,1
   902  000176  503A               	movf	CAN_transmit@tempCanMsg^0,w,c
   903  000178  26D9               	addwf	fsr2l,f,c
   904  00017A  503B               	movf	(CAN_transmit@tempCanMsg+1)^0,w,c
   905  00017C  22DA               	addwfc	fsr2h,f,c
   906  00017E  CFDE F028          	movff	postinc2,convertCANid2Reg@tempPassedInID
   907  000182  CFDE F029          	movff	postinc2,convertCANid2Reg@tempPassedInID+1
   908  000186  CFDE F02A          	movff	postinc2,convertCANid2Reg@tempPassedInID+2
   909  00018A  CFDE F02B          	movff	postinc2,convertCANid2Reg@tempPassedInID+3
   910  00018E  C03A  FFD9         	movff	CAN_transmit@tempCanMsg,fsr2l
   911  000192  C03B  FFDA         	movff	CAN_transmit@tempCanMsg+1,fsr2h
   912  000196  50DF               	movf	indf2,w,c
   913  000198  6E2C               	movwf	convertCANid2Reg@canIdType^0,c
   914  00019A  0E3C               	movlw	low CAN_transmit@tempEIDH
   915  00019C  6E2D               	movwf	convertCANid2Reg@passedInEIDH^0,c
   916  00019E  0E00               	movlw	high CAN_transmit@tempEIDH
   917  0001A0  6E2E               	movwf	(convertCANid2Reg@passedInEIDH+1)^0,c
   918  0001A2  0E3D               	movlw	low CAN_transmit@tempEIDL
   919  0001A4  6E2F               	movwf	convertCANid2Reg@passedInEIDL^0,c
   920  0001A6  0E00               	movlw	high CAN_transmit@tempEIDL
   921  0001A8  6E30               	movwf	(convertCANid2Reg@passedInEIDL+1)^0,c
   922  0001AA  0E3E               	movlw	low CAN_transmit@tempSIDH
   923  0001AC  6E31               	movwf	convertCANid2Reg@passedInSIDH^0,c
   924  0001AE  0E00               	movlw	high CAN_transmit@tempSIDH
   925  0001B0  6E32               	movwf	(convertCANid2Reg@passedInSIDH+1)^0,c
   926  0001B2  0E3F               	movlw	low CAN_transmit@tempSIDL
   927  0001B4  6E33               	movwf	convertCANid2Reg@passedInSIDL^0,c
   928  0001B6  0E00               	movlw	high CAN_transmit@tempSIDL
   929  0001B8  6E34               	movwf	(convertCANid2Reg@passedInSIDL+1)^0,c
   930  0001BA  EC90  F002         	call	_convertCANid2Reg	;wreg free
   931  0001BE                     
   932                           ;mcc_generated_files/ecan.c: 270:         TXB1EIDH = tempEIDH;
   933  0001BE  C03C  FF13         	movff	CAN_transmit@tempEIDH,3859	;volatile
   934  0001C2                     
   935                           ;mcc_generated_files/ecan.c: 271:         TXB1EIDL = tempEIDL;
   936  0001C2  C03D  FF14         	movff	CAN_transmit@tempEIDL,3860	;volatile
   937  0001C6                     
   938                           ;mcc_generated_files/ecan.c: 272:         TXB1SIDH = tempSIDH;
   939  0001C6  C03E  FF11         	movff	CAN_transmit@tempSIDH,3857	;volatile
   940  0001CA                     
   941                           ;mcc_generated_files/ecan.c: 273:         TXB1SIDL = tempSIDL;
   942  0001CA  C03F  FF12         	movff	CAN_transmit@tempSIDL,3858	;volatile
   943  0001CE                     
   944                           ;mcc_generated_files/ecan.c: 274:         TXB1DLC = tempCanMsg->frame.dlc;
   945  0001CE  EE20 F005          	lfsr	2,5
   946  0001D2  503A               	movf	CAN_transmit@tempCanMsg^0,w,c
   947  0001D4  26D9               	addwf	fsr2l,f,c
   948  0001D6  503B               	movf	(CAN_transmit@tempCanMsg+1)^0,w,c
   949  0001D8  22DA               	addwfc	fsr2h,f,c
   950  0001DA  50DF               	movf	indf2,w,c
   951  0001DC  010F               	movlb	15	; () banked
   952  0001DE  6F15               	movwf	21,b	;volatile
   953  0001E0                     
   954                           ; BSR set to: 15
   955                           ;mcc_generated_files/ecan.c: 275:         TXB1D0 = tempCanMsg->frame.data0;
   956  0001E0  EE20 F006          	lfsr	2,6
   957  0001E4  503A               	movf	CAN_transmit@tempCanMsg^0,w,c
   958  0001E6  26D9               	addwf	fsr2l,f,c
   959  0001E8  503B               	movf	(CAN_transmit@tempCanMsg+1)^0,w,c
   960  0001EA  22DA               	addwfc	fsr2h,f,c
   961  0001EC  50DF               	movf	indf2,w,c
   962  0001EE  6F16               	movwf	22,b	;volatile
   963  0001F0                     
   964                           ; BSR set to: 15
   965                           ;mcc_generated_files/ecan.c: 276:         TXB1D1 = tempCanMsg->frame.data1;
   966  0001F0  EE20 F007          	lfsr	2,7
   967  0001F4  503A               	movf	CAN_transmit@tempCanMsg^0,w,c
   968  0001F6  26D9               	addwf	fsr2l,f,c
   969  0001F8  503B               	movf	(CAN_transmit@tempCanMsg+1)^0,w,c
   970  0001FA  22DA               	addwfc	fsr2h,f,c
   971  0001FC  50DF               	movf	indf2,w,c
   972  0001FE  6F17               	movwf	23,b	;volatile
   973  000200                     
   974                           ; BSR set to: 15
   975                           ;mcc_generated_files/ecan.c: 277:         TXB1D2 = tempCanMsg->frame.data2;
   976  000200  EE20 F008          	lfsr	2,8
   977  000204  503A               	movf	CAN_transmit@tempCanMsg^0,w,c
   978  000206  26D9               	addwf	fsr2l,f,c
   979  000208  503B               	movf	(CAN_transmit@tempCanMsg+1)^0,w,c
   980  00020A  22DA               	addwfc	fsr2h,f,c
   981  00020C  50DF               	movf	indf2,w,c
   982  00020E  6F18               	movwf	24,b	;volatile
   983  000210                     
   984                           ; BSR set to: 15
   985                           ;mcc_generated_files/ecan.c: 278:         TXB1D3 = tempCanMsg->frame.data3;
   986  000210  EE20 F009          	lfsr	2,9
   987  000214  503A               	movf	CAN_transmit@tempCanMsg^0,w,c
   988  000216  26D9               	addwf	fsr2l,f,c
   989  000218  503B               	movf	(CAN_transmit@tempCanMsg+1)^0,w,c
   990  00021A  22DA               	addwfc	fsr2h,f,c
   991  00021C  50DF               	movf	indf2,w,c
   992  00021E  6F19               	movwf	25,b	;volatile
   993  000220                     
   994                           ; BSR set to: 15
   995                           ;mcc_generated_files/ecan.c: 279:         TXB1D4 = tempCanMsg->frame.data4;
   996  000220  EE20 F00A          	lfsr	2,10
   997  000224  503A               	movf	CAN_transmit@tempCanMsg^0,w,c
   998  000226  26D9               	addwf	fsr2l,f,c
   999  000228  503B               	movf	(CAN_transmit@tempCanMsg+1)^0,w,c
  1000  00022A  22DA               	addwfc	fsr2h,f,c
  1001  00022C  50DF               	movf	indf2,w,c
  1002  00022E  6F1A               	movwf	26,b	;volatile
  1003  000230                     
  1004                           ; BSR set to: 15
  1005                           ;mcc_generated_files/ecan.c: 280:         TXB1D5 = tempCanMsg->frame.data5;
  1006  000230  EE20 F00B          	lfsr	2,11
  1007  000234  503A               	movf	CAN_transmit@tempCanMsg^0,w,c
  1008  000236  26D9               	addwf	fsr2l,f,c
  1009  000238  503B               	movf	(CAN_transmit@tempCanMsg+1)^0,w,c
  1010  00023A  22DA               	addwfc	fsr2h,f,c
  1011  00023C  50DF               	movf	indf2,w,c
  1012  00023E  6F1B               	movwf	27,b	;volatile
  1013  000240                     
  1014                           ; BSR set to: 15
  1015                           ;mcc_generated_files/ecan.c: 281:         TXB1D6 = tempCanMsg->frame.data6;
  1016  000240  EE20 F00C          	lfsr	2,12
  1017  000244  503A               	movf	CAN_transmit@tempCanMsg^0,w,c
  1018  000246  26D9               	addwf	fsr2l,f,c
  1019  000248  503B               	movf	(CAN_transmit@tempCanMsg+1)^0,w,c
  1020  00024A  22DA               	addwfc	fsr2h,f,c
  1021  00024C  50DF               	movf	indf2,w,c
  1022  00024E  6F1C               	movwf	28,b	;volatile
  1023  000250                     
  1024                           ; BSR set to: 15
  1025                           ;mcc_generated_files/ecan.c: 282:         TXB1D7 = tempCanMsg->frame.data7;
  1026  000250  EE20 F00D          	lfsr	2,13
  1027  000254  503A               	movf	CAN_transmit@tempCanMsg^0,w,c
  1028  000256  26D9               	addwf	fsr2l,f,c
  1029  000258  503B               	movf	(CAN_transmit@tempCanMsg+1)^0,w,c
  1030  00025A  22DA               	addwfc	fsr2h,f,c
  1031  00025C  50DF               	movf	indf2,w,c
  1032  00025E  6F1D               	movwf	29,b	;volatile
  1033  000260                     
  1034                           ; BSR set to: 15
  1035                           ;mcc_generated_files/ecan.c: 284:         TXB1CONbits.TXREQ = 1;
  1036  000260  8710               	bsf	16,3,b	;volatile
  1037  000262  EFB0  F000         	goto	l2156
  1038  000266                     l513:
  1039                           
  1040                           ; BSR set to: 15
  1041  000266  B700               	btfsc	0,3,b	;volatile
  1042  000268  EF38  F001         	goto	u411
  1043  00026C  EF3A  F001         	goto	u410
  1044  000270                     u411:
  1045  000270  EFB4  F001         	goto	l512
  1046  000274                     u410:
  1047  000274                     
  1048                           ; BSR set to: 15
  1049                           ;mcc_generated_files/ecan.c: 288:     {;mcc_generated_files/ecan.c: 290:         convert
      +                          CANid2Reg(tempCanMsg->frame.id, tempCanMsg->frame.idType, &tempEIDH, &tempEIDL, &tempSID
      +                          H, &tempSIDL);
  1050  000274  EE20 F001          	lfsr	2,1
  1051  000278  503A               	movf	CAN_transmit@tempCanMsg^0,w,c
  1052  00027A  26D9               	addwf	fsr2l,f,c
  1053  00027C  503B               	movf	(CAN_transmit@tempCanMsg+1)^0,w,c
  1054  00027E  22DA               	addwfc	fsr2h,f,c
  1055  000280  CFDE F028          	movff	postinc2,convertCANid2Reg@tempPassedInID
  1056  000284  CFDE F029          	movff	postinc2,convertCANid2Reg@tempPassedInID+1
  1057  000288  CFDE F02A          	movff	postinc2,convertCANid2Reg@tempPassedInID+2
  1058  00028C  CFDE F02B          	movff	postinc2,convertCANid2Reg@tempPassedInID+3
  1059  000290  C03A  FFD9         	movff	CAN_transmit@tempCanMsg,fsr2l
  1060  000294  C03B  FFDA         	movff	CAN_transmit@tempCanMsg+1,fsr2h
  1061  000298  50DF               	movf	indf2,w,c
  1062  00029A  6E2C               	movwf	convertCANid2Reg@canIdType^0,c
  1063  00029C  0E3C               	movlw	low CAN_transmit@tempEIDH
  1064  00029E  6E2D               	movwf	convertCANid2Reg@passedInEIDH^0,c
  1065  0002A0  0E00               	movlw	high CAN_transmit@tempEIDH
  1066  0002A2  6E2E               	movwf	(convertCANid2Reg@passedInEIDH+1)^0,c
  1067  0002A4  0E3D               	movlw	low CAN_transmit@tempEIDL
  1068  0002A6  6E2F               	movwf	convertCANid2Reg@passedInEIDL^0,c
  1069  0002A8  0E00               	movlw	high CAN_transmit@tempEIDL
  1070  0002AA  6E30               	movwf	(convertCANid2Reg@passedInEIDL+1)^0,c
  1071  0002AC  0E3E               	movlw	low CAN_transmit@tempSIDH
  1072  0002AE  6E31               	movwf	convertCANid2Reg@passedInSIDH^0,c
  1073  0002B0  0E00               	movlw	high CAN_transmit@tempSIDH
  1074  0002B2  6E32               	movwf	(convertCANid2Reg@passedInSIDH+1)^0,c
  1075  0002B4  0E3F               	movlw	low CAN_transmit@tempSIDL
  1076  0002B6  6E33               	movwf	convertCANid2Reg@passedInSIDL^0,c
  1077  0002B8  0E00               	movlw	high CAN_transmit@tempSIDL
  1078  0002BA  6E34               	movwf	(convertCANid2Reg@passedInSIDL+1)^0,c
  1079  0002BC  EC90  F002         	call	_convertCANid2Reg	;wreg free
  1080  0002C0                     
  1081                           ;mcc_generated_files/ecan.c: 292:         TXB2EIDH = tempEIDH;
  1082  0002C0  C03C  FF03         	movff	CAN_transmit@tempEIDH,3843	;volatile
  1083  0002C4                     
  1084                           ;mcc_generated_files/ecan.c: 293:         TXB2EIDL = tempEIDL;
  1085  0002C4  C03D  FF04         	movff	CAN_transmit@tempEIDL,3844	;volatile
  1086  0002C8                     
  1087                           ;mcc_generated_files/ecan.c: 294:         TXB2SIDH = tempSIDH;
  1088  0002C8  C03E  FF01         	movff	CAN_transmit@tempSIDH,3841	;volatile
  1089  0002CC                     
  1090                           ;mcc_generated_files/ecan.c: 295:         TXB2SIDL = tempSIDL;
  1091  0002CC  C03F  FF02         	movff	CAN_transmit@tempSIDL,3842	;volatile
  1092  0002D0                     
  1093                           ;mcc_generated_files/ecan.c: 296:         TXB2DLC = tempCanMsg->frame.dlc;
  1094  0002D0  EE20 F005          	lfsr	2,5
  1095  0002D4  503A               	movf	CAN_transmit@tempCanMsg^0,w,c
  1096  0002D6  26D9               	addwf	fsr2l,f,c
  1097  0002D8  503B               	movf	(CAN_transmit@tempCanMsg+1)^0,w,c
  1098  0002DA  22DA               	addwfc	fsr2h,f,c
  1099  0002DC  50DF               	movf	indf2,w,c
  1100  0002DE  010F               	movlb	15	; () banked
  1101  0002E0  6F05               	movwf	5,b	;volatile
  1102  0002E2                     
  1103                           ; BSR set to: 15
  1104                           ;mcc_generated_files/ecan.c: 297:         TXB2D0 = tempCanMsg->frame.data0;
  1105  0002E2  EE20 F006          	lfsr	2,6
  1106  0002E6  503A               	movf	CAN_transmit@tempCanMsg^0,w,c
  1107  0002E8  26D9               	addwf	fsr2l,f,c
  1108  0002EA  503B               	movf	(CAN_transmit@tempCanMsg+1)^0,w,c
  1109  0002EC  22DA               	addwfc	fsr2h,f,c
  1110  0002EE  50DF               	movf	indf2,w,c
  1111  0002F0  6F06               	movwf	6,b	;volatile
  1112  0002F2                     
  1113                           ; BSR set to: 15
  1114                           ;mcc_generated_files/ecan.c: 298:         TXB2D1 = tempCanMsg->frame.data1;
  1115  0002F2  EE20 F007          	lfsr	2,7
  1116  0002F6  503A               	movf	CAN_transmit@tempCanMsg^0,w,c
  1117  0002F8  26D9               	addwf	fsr2l,f,c
  1118  0002FA  503B               	movf	(CAN_transmit@tempCanMsg+1)^0,w,c
  1119  0002FC  22DA               	addwfc	fsr2h,f,c
  1120  0002FE  50DF               	movf	indf2,w,c
  1121  000300  6F07               	movwf	7,b	;volatile
  1122  000302                     
  1123                           ; BSR set to: 15
  1124                           ;mcc_generated_files/ecan.c: 299:         TXB2D2 = tempCanMsg->frame.data2;
  1125  000302  EE20 F008          	lfsr	2,8
  1126  000306  503A               	movf	CAN_transmit@tempCanMsg^0,w,c
  1127  000308  26D9               	addwf	fsr2l,f,c
  1128  00030A  503B               	movf	(CAN_transmit@tempCanMsg+1)^0,w,c
  1129  00030C  22DA               	addwfc	fsr2h,f,c
  1130  00030E  50DF               	movf	indf2,w,c
  1131  000310  6F08               	movwf	8,b	;volatile
  1132  000312                     
  1133                           ; BSR set to: 15
  1134                           ;mcc_generated_files/ecan.c: 300:         TXB2D3 = tempCanMsg->frame.data3;
  1135  000312  EE20 F009          	lfsr	2,9
  1136  000316  503A               	movf	CAN_transmit@tempCanMsg^0,w,c
  1137  000318  26D9               	addwf	fsr2l,f,c
  1138  00031A  503B               	movf	(CAN_transmit@tempCanMsg+1)^0,w,c
  1139  00031C  22DA               	addwfc	fsr2h,f,c
  1140  00031E  50DF               	movf	indf2,w,c
  1141  000320  6F09               	movwf	9,b	;volatile
  1142  000322                     
  1143                           ; BSR set to: 15
  1144                           ;mcc_generated_files/ecan.c: 301:         TXB2D4 = tempCanMsg->frame.data4;
  1145  000322  EE20 F00A          	lfsr	2,10
  1146  000326  503A               	movf	CAN_transmit@tempCanMsg^0,w,c
  1147  000328  26D9               	addwf	fsr2l,f,c
  1148  00032A  503B               	movf	(CAN_transmit@tempCanMsg+1)^0,w,c
  1149  00032C  22DA               	addwfc	fsr2h,f,c
  1150  00032E  50DF               	movf	indf2,w,c
  1151  000330  6F0A               	movwf	10,b	;volatile
  1152  000332                     
  1153                           ; BSR set to: 15
  1154                           ;mcc_generated_files/ecan.c: 302:         TXB2D5 = tempCanMsg->frame.data5;
  1155  000332  EE20 F00B          	lfsr	2,11
  1156  000336  503A               	movf	CAN_transmit@tempCanMsg^0,w,c
  1157  000338  26D9               	addwf	fsr2l,f,c
  1158  00033A  503B               	movf	(CAN_transmit@tempCanMsg+1)^0,w,c
  1159  00033C  22DA               	addwfc	fsr2h,f,c
  1160  00033E  50DF               	movf	indf2,w,c
  1161  000340  6F0B               	movwf	11,b	;volatile
  1162  000342                     
  1163                           ; BSR set to: 15
  1164                           ;mcc_generated_files/ecan.c: 303:         TXB2D6 = tempCanMsg->frame.data6;
  1165  000342  EE20 F00C          	lfsr	2,12
  1166  000346  503A               	movf	CAN_transmit@tempCanMsg^0,w,c
  1167  000348  26D9               	addwf	fsr2l,f,c
  1168  00034A  503B               	movf	(CAN_transmit@tempCanMsg+1)^0,w,c
  1169  00034C  22DA               	addwfc	fsr2h,f,c
  1170  00034E  50DF               	movf	indf2,w,c
  1171  000350  6F0C               	movwf	12,b	;volatile
  1172  000352                     
  1173                           ; BSR set to: 15
  1174                           ;mcc_generated_files/ecan.c: 304:         TXB2D7 = tempCanMsg->frame.data7;
  1175  000352  EE20 F00D          	lfsr	2,13
  1176  000356  503A               	movf	CAN_transmit@tempCanMsg^0,w,c
  1177  000358  26D9               	addwf	fsr2l,f,c
  1178  00035A  503B               	movf	(CAN_transmit@tempCanMsg+1)^0,w,c
  1179  00035C  22DA               	addwfc	fsr2h,f,c
  1180  00035E  50DF               	movf	indf2,w,c
  1181  000360  6F0D               	movwf	13,b	;volatile
  1182  000362                     
  1183                           ; BSR set to: 15
  1184                           ;mcc_generated_files/ecan.c: 306:         TXB2CONbits.TXREQ = 1;
  1185  000362  8700               	bsf	0,3,b	;volatile
  1186  000364  EFB0  F000         	goto	l2156
  1187  000368                     l512:
  1188  000368                     l516:
  1189                           
  1190                           ; BSR set to: 15
  1191  000368  0012               	return		;funcret
  1192  00036A                     __end_of_CAN_transmit:
  1193                           	callstack 0
  1194                           
  1195 ;; *************** function _convertCANid2Reg *****************
  1196 ;; Defined at:
  1197 ;;		line 462 in file "mcc_generated_files/ecan.c"
  1198 ;; Parameters:    Size  Location     Type
  1199 ;;  tempPassedIn    4    2[COMRAM] unsigned long 
  1200 ;;  canIdType       1    6[COMRAM] unsigned char 
  1201 ;;  passedInEIDH    2    7[COMRAM] PTR unsigned char 
  1202 ;;		 -> CAN_transmit@tempEIDH(1), 
  1203 ;;  passedInEIDL    2    9[COMRAM] PTR unsigned char 
  1204 ;;		 -> CAN_transmit@tempEIDL(1), 
  1205 ;;  passedInSIDH    2   11[COMRAM] PTR unsigned char 
  1206 ;;		 -> CAN_transmit@tempSIDH(1), 
  1207 ;;  passedInSIDL    2   13[COMRAM] PTR unsigned char 
  1208 ;;		 -> CAN_transmit@tempSIDL(1), 
  1209 ;; Auto vars:     Size  Location     Type
  1210 ;;  wipSIDL         1   19[COMRAM] unsigned char 
  1211 ;; Return value:  Size  Location     Type
  1212 ;;                  1    wreg      void 
  1213 ;; Registers used:
  1214 ;;		wreg, fsr2l, fsr2h, status,2, status,0
  1215 ;; Tracked objects:
  1216 ;;		On entry : 0/0
  1217 ;;		On exit  : 0/0
  1218 ;;		Unchanged: 0/0
  1219 ;; Data sizes:     COMRAM   BANK0   BANK1   BANK2   BANK3   BANK4   BANK5   BANK6   BANK7   BANK8   BANK9  BANK10  BANK1
      +1  BANK12  BANK13  BANK14
  1220 ;;      Params:        13       0       0       0       0       0       0       0       0       0       0       0       
      +0       0       0       0
  1221 ;;      Locals:         1       0       0       0       0       0       0       0       0       0       0       0       
      +0       0       0       0
  1222 ;;      Temps:          4       0       0       0       0       0       0       0       0       0       0       0       
      +0       0       0       0
  1223 ;;      Totals:        18       0       0       0       0       0       0       0       0       0       0       0       
      +0       0       0       0
  1224 ;;Total ram usage:       18 bytes
  1225 ;; Hardware stack levels used: 1
  1226 ;; Hardware stack levels required when called: 3
  1227 ;; This function calls:
  1228 ;;		Nothing
  1229 ;; This function is called by:
  1230 ;;		_CAN_transmit
  1231 ;; This function uses a non-reentrant model
  1232 ;;
  1233                           
  1234                           	psect	text4
  1235  000520                     __ptext4:
  1236                           	callstack 0
  1237  000520                     _convertCANid2Reg:
  1238                           	callstack 25
  1239  000520                     
  1240                           ;mcc_generated_files/ecan.c: 465:     if (canIdType == 2) {
  1241  000520  0E02               	movlw	2
  1242  000522  182C               	xorwf	convertCANid2Reg@canIdType^0,w,c
  1243  000524  A4D8               	btfss	status,2,c
  1244  000526  EF97  F002         	goto	u341
  1245  00052A  EF99  F002         	goto	u340
  1246  00052E                     u341:
  1247  00052E  EF1C  F003         	goto	l2086
  1248  000532                     u340:
  1249  000532                     
  1250                           ;mcc_generated_files/ecan.c: 468:         *passedInEIDL = 0xFF & tempPassedInID;
  1251  000532  C02F  FFD9         	movff	convertCANid2Reg@passedInEIDL,fsr2l
  1252  000536  C030  FFDA         	movff	convertCANid2Reg@passedInEIDL+1,fsr2h
  1253  00053A  C028  FFDF         	movff	convertCANid2Reg@tempPassedInID,indf2
  1254  00053E                     
  1255                           ;mcc_generated_files/ecan.c: 469:         tempPassedInID = tempPassedInID >> 8;
  1256  00053E  C028  F035         	movff	convertCANid2Reg@tempPassedInID,??_convertCANid2Reg
  1257  000542  C029  F036         	movff	convertCANid2Reg@tempPassedInID+1,??_convertCANid2Reg+1
  1258  000546  C02A  F037         	movff	convertCANid2Reg@tempPassedInID+2,??_convertCANid2Reg+2
  1259  00054A  C02B  F038         	movff	convertCANid2Reg@tempPassedInID+3,??_convertCANid2Reg+3
  1260  00054E  C036  F035         	movff	??_convertCANid2Reg+1,??_convertCANid2Reg
  1261  000552  C037  F036         	movff	??_convertCANid2Reg+2,??_convertCANid2Reg+1
  1262  000556  C038  F037         	movff	??_convertCANid2Reg+3,??_convertCANid2Reg+2
  1263  00055A  6A38               	clrf	(??_convertCANid2Reg+3)^0,c
  1264  00055C  C035  F028         	movff	??_convertCANid2Reg,convertCANid2Reg@tempPassedInID
  1265  000560  C036  F029         	movff	??_convertCANid2Reg+1,convertCANid2Reg@tempPassedInID+1
  1266  000564  C037  F02A         	movff	??_convertCANid2Reg+2,convertCANid2Reg@tempPassedInID+2
  1267  000568  C038  F02B         	movff	??_convertCANid2Reg+3,convertCANid2Reg@tempPassedInID+3
  1268  00056C                     
  1269                           ;mcc_generated_files/ecan.c: 472:         *passedInEIDH = 0xFF & tempPassedInID;
  1270  00056C  C02D  FFD9         	movff	convertCANid2Reg@passedInEIDH,fsr2l
  1271  000570  C02E  FFDA         	movff	convertCANid2Reg@passedInEIDH+1,fsr2h
  1272  000574  C028  FFDF         	movff	convertCANid2Reg@tempPassedInID,indf2
  1273                           
  1274                           ;mcc_generated_files/ecan.c: 473:         tempPassedInID = tempPassedInID >> 8;
  1275  000578  C028  F035         	movff	convertCANid2Reg@tempPassedInID,??_convertCANid2Reg
  1276  00057C  C029  F036         	movff	convertCANid2Reg@tempPassedInID+1,??_convertCANid2Reg+1
  1277  000580  C02A  F037         	movff	convertCANid2Reg@tempPassedInID+2,??_convertCANid2Reg+2
  1278  000584  C02B  F038         	movff	convertCANid2Reg@tempPassedInID+3,??_convertCANid2Reg+3
  1279  000588  C036  F035         	movff	??_convertCANid2Reg+1,??_convertCANid2Reg
  1280  00058C  C037  F036         	movff	??_convertCANid2Reg+2,??_convertCANid2Reg+1
  1281  000590  C038  F037         	movff	??_convertCANid2Reg+3,??_convertCANid2Reg+2
  1282  000594  6A38               	clrf	(??_convertCANid2Reg+3)^0,c
  1283  000596  C035  F028         	movff	??_convertCANid2Reg,convertCANid2Reg@tempPassedInID
  1284  00059A  C036  F029         	movff	??_convertCANid2Reg+1,convertCANid2Reg@tempPassedInID+1
  1285  00059E  C037  F02A         	movff	??_convertCANid2Reg+2,convertCANid2Reg@tempPassedInID+2
  1286  0005A2  C038  F02B         	movff	??_convertCANid2Reg+3,convertCANid2Reg@tempPassedInID+3
  1287  0005A6                     
  1288                           ;mcc_generated_files/ecan.c: 477:         wipSIDL = 0x03 & tempPassedInID;
  1289  0005A6  5028               	movf	convertCANid2Reg@tempPassedInID^0,w,c
  1290  0005A8  0B03               	andlw	3
  1291  0005AA  6E39               	movwf	convertCANid2Reg@wipSIDL^0,c
  1292  0005AC                     
  1293                           ;mcc_generated_files/ecan.c: 478:         tempPassedInID = tempPassedInID << 3;
  1294  0005AC  C028  F035         	movff	convertCANid2Reg@tempPassedInID,??_convertCANid2Reg
  1295  0005B0  C029  F036         	movff	convertCANid2Reg@tempPassedInID+1,??_convertCANid2Reg+1
  1296  0005B4  C02A  F037         	movff	convertCANid2Reg@tempPassedInID+2,??_convertCANid2Reg+2
  1297  0005B8  C02B  F038         	movff	convertCANid2Reg@tempPassedInID+3,??_convertCANid2Reg+3
  1298  0005BC  0E03               	movlw	3
  1299  0005BE                     u355:
  1300  0005BE  90D8               	bcf	status,0,c
  1301  0005C0  3635               	rlcf	??_convertCANid2Reg^0,f,c
  1302  0005C2  3636               	rlcf	(??_convertCANid2Reg+1)^0,f,c
  1303  0005C4  3637               	rlcf	(??_convertCANid2Reg+2)^0,f,c
  1304  0005C6  3638               	rlcf	(??_convertCANid2Reg+3)^0,f,c
  1305  0005C8  2EE8               	decfsz	wreg,f,c
  1306  0005CA  EFDF  F002         	goto	u355
  1307  0005CE  C035  F028         	movff	??_convertCANid2Reg,convertCANid2Reg@tempPassedInID
  1308  0005D2  C036  F029         	movff	??_convertCANid2Reg+1,convertCANid2Reg@tempPassedInID+1
  1309  0005D6  C037  F02A         	movff	??_convertCANid2Reg+2,convertCANid2Reg@tempPassedInID+2
  1310  0005DA  C038  F02B         	movff	??_convertCANid2Reg+3,convertCANid2Reg@tempPassedInID+3
  1311  0005DE                     
  1312                           ;mcc_generated_files/ecan.c: 479:         wipSIDL = (0xE0 & tempPassedInID) + wipSIDL;
  1313  0005DE  5028               	movf	convertCANid2Reg@tempPassedInID^0,w,c
  1314  0005E0  0BE0               	andlw	224
  1315  0005E2  2439               	addwf	convertCANid2Reg@wipSIDL^0,w,c
  1316  0005E4  6E39               	movwf	convertCANid2Reg@wipSIDL^0,c
  1317  0005E6                     
  1318                           ;mcc_generated_files/ecan.c: 480:         wipSIDL = (uint8_t)(wipSIDL + 0x08);
  1319  0005E6  5039               	movf	convertCANid2Reg@wipSIDL^0,w,c
  1320  0005E8  0F08               	addlw	8
  1321  0005EA  6E39               	movwf	convertCANid2Reg@wipSIDL^0,c
  1322  0005EC                     
  1323                           ;mcc_generated_files/ecan.c: 481:         *passedInSIDL = (uint8_t)(0xEB & wipSIDL);
  1324  0005EC  5039               	movf	convertCANid2Reg@wipSIDL^0,w,c
  1325  0005EE  0BEB               	andlw	235
  1326  0005F0  C033  FFD9         	movff	convertCANid2Reg@passedInSIDL,fsr2l
  1327  0005F4  C034  FFDA         	movff	convertCANid2Reg@passedInSIDL+1,fsr2h
  1328  0005F8  6EDF               	movwf	indf2,c
  1329  0005FA                     l2082:
  1330                           
  1331                           ;mcc_generated_files/ecan.c: 484:         tempPassedInID = tempPassedInID >> 8;
  1332  0005FA  C028  F035         	movff	convertCANid2Reg@tempPassedInID,??_convertCANid2Reg
  1333  0005FE  C029  F036         	movff	convertCANid2Reg@tempPassedInID+1,??_convertCANid2Reg+1
  1334  000602  C02A  F037         	movff	convertCANid2Reg@tempPassedInID+2,??_convertCANid2Reg+2
  1335  000606  C02B  F038         	movff	convertCANid2Reg@tempPassedInID+3,??_convertCANid2Reg+3
  1336  00060A  C036  F035         	movff	??_convertCANid2Reg+1,??_convertCANid2Reg
  1337  00060E  C037  F036         	movff	??_convertCANid2Reg+2,??_convertCANid2Reg+1
  1338  000612  C038  F037         	movff	??_convertCANid2Reg+3,??_convertCANid2Reg+2
  1339  000616  6A38               	clrf	(??_convertCANid2Reg+3)^0,c
  1340  000618  C035  F028         	movff	??_convertCANid2Reg,convertCANid2Reg@tempPassedInID
  1341  00061C  C036  F029         	movff	??_convertCANid2Reg+1,convertCANid2Reg@tempPassedInID+1
  1342  000620  C037  F02A         	movff	??_convertCANid2Reg+2,convertCANid2Reg@tempPassedInID+2
  1343  000624  C038  F02B         	movff	??_convertCANid2Reg+3,convertCANid2Reg@tempPassedInID+3
  1344  000628                     
  1345                           ;mcc_generated_files/ecan.c: 485:         *passedInSIDH = 0xFF & tempPassedInID;
  1346  000628  C031  FFD9         	movff	convertCANid2Reg@passedInSIDH,fsr2l
  1347  00062C  C032  FFDA         	movff	convertCANid2Reg@passedInSIDH+1,fsr2h
  1348  000630  C028  FFDF         	movff	convertCANid2Reg@tempPassedInID,indf2
  1349                           
  1350                           ;mcc_generated_files/ecan.c: 486:     } else
  1351  000634  EF49  F003         	goto	l554
  1352  000638                     l2086:
  1353                           
  1354                           ;mcc_generated_files/ecan.c: 487:     {;mcc_generated_files/ecan.c: 488:         *passed
      +                          InEIDH = 0;
  1355  000638  C02D  FFD9         	movff	convertCANid2Reg@passedInEIDH,fsr2l
  1356  00063C  C02E  FFDA         	movff	convertCANid2Reg@passedInEIDH+1,fsr2h
  1357  000640  0E00               	movlw	0
  1358  000642  6EDF               	movwf	indf2,c
  1359                           
  1360                           ;mcc_generated_files/ecan.c: 489:         *passedInEIDL = 0;
  1361  000644  C02F  FFD9         	movff	convertCANid2Reg@passedInEIDL,fsr2l
  1362  000648  C030  FFDA         	movff	convertCANid2Reg@passedInEIDL+1,fsr2h
  1363  00064C  0E00               	movlw	0
  1364  00064E  6EDF               	movwf	indf2,c
  1365  000650                     
  1366                           ;mcc_generated_files/ecan.c: 490:         tempPassedInID = tempPassedInID << 5;
  1367  000650  C028  F035         	movff	convertCANid2Reg@tempPassedInID,??_convertCANid2Reg
  1368  000654  C029  F036         	movff	convertCANid2Reg@tempPassedInID+1,??_convertCANid2Reg+1
  1369  000658  C02A  F037         	movff	convertCANid2Reg@tempPassedInID+2,??_convertCANid2Reg+2
  1370  00065C  C02B  F038         	movff	convertCANid2Reg@tempPassedInID+3,??_convertCANid2Reg+3
  1371  000660  0E05               	movlw	5
  1372  000662                     u365:
  1373  000662  90D8               	bcf	status,0,c
  1374  000664  3635               	rlcf	??_convertCANid2Reg^0,f,c
  1375  000666  3636               	rlcf	(??_convertCANid2Reg+1)^0,f,c
  1376  000668  3637               	rlcf	(??_convertCANid2Reg+2)^0,f,c
  1377  00066A  3638               	rlcf	(??_convertCANid2Reg+3)^0,f,c
  1378  00066C  2EE8               	decfsz	wreg,f,c
  1379  00066E  EF31  F003         	goto	u365
  1380  000672  C035  F028         	movff	??_convertCANid2Reg,convertCANid2Reg@tempPassedInID
  1381  000676  C036  F029         	movff	??_convertCANid2Reg+1,convertCANid2Reg@tempPassedInID+1
  1382  00067A  C037  F02A         	movff	??_convertCANid2Reg+2,convertCANid2Reg@tempPassedInID+2
  1383  00067E  C038  F02B         	movff	??_convertCANid2Reg+3,convertCANid2Reg@tempPassedInID+3
  1384  000682                     
  1385                           ;mcc_generated_files/ecan.c: 491:         *passedInSIDL = 0xFF & tempPassedInID;
  1386  000682  C033  FFD9         	movff	convertCANid2Reg@passedInSIDL,fsr2l
  1387  000686  C034  FFDA         	movff	convertCANid2Reg@passedInSIDL+1,fsr2h
  1388  00068A  C028  FFDF         	movff	convertCANid2Reg@tempPassedInID,indf2
  1389  00068E  EFFD  F002         	goto	l2082
  1390  000692                     l554:
  1391  000692  0012               	return		;funcret
  1392  000694                     __end_of_convertCANid2Reg:
  1393                           	callstack 0
  1394                           
  1395 ;; *************** function _SYSTEM_Initialize *****************
  1396 ;; Defined at:
  1397 ;;		line 50 in file "mcc_generated_files/mcc.c"
  1398 ;; Parameters:    Size  Location     Type
  1399 ;;		None
  1400 ;; Auto vars:     Size  Location     Type
  1401 ;;		None
  1402 ;; Return value:  Size  Location     Type
  1403 ;;                  1    wreg      void 
  1404 ;; Registers used:
  1405 ;;		wreg, status,2, status,0, cstack
  1406 ;; Tracked objects:
  1407 ;;		On entry : 0/0
  1408 ;;		On exit  : 0/0
  1409 ;;		Unchanged: 0/0
  1410 ;; Data sizes:     COMRAM   BANK0   BANK1   BANK2   BANK3   BANK4   BANK5   BANK6   BANK7   BANK8   BANK9  BANK10  BANK1
      +1  BANK12  BANK13  BANK14
  1411 ;;      Params:         0       0       0       0       0       0       0       0       0       0       0       0       
      +0       0       0       0
  1412 ;;      Locals:         0       0       0       0       0       0       0       0       0       0       0       0       
      +0       0       0       0
  1413 ;;      Temps:          0       0       0       0       0       0       0       0       0       0       0       0       
      +0       0       0       0
  1414 ;;      Totals:         0       0       0       0       0       0       0       0       0       0       0       0       
      +0       0       0       0
  1415 ;;Total ram usage:        0 bytes
  1416 ;; Hardware stack levels used: 1
  1417 ;; Hardware stack levels required when called: 5
  1418 ;; This function calls:
  1419 ;;		_ECAN_Initialize
  1420 ;;		_EUSART1_Initialize
  1421 ;;		_INTERRUPT_Initialize
  1422 ;;		_OSCILLATOR_Initialize
  1423 ;;		_PIN_MANAGER_Initialize
  1424 ;; This function is called by:
  1425 ;;		_main
  1426 ;; This function uses a non-reentrant model
  1427 ;;
  1428                           
  1429                           	psect	text5
  1430  000804                     __ptext5:
  1431                           	callstack 0
  1432  000804                     _SYSTEM_Initialize:
  1433                           	callstack 25
  1434  000804                     
  1435                           ;mcc_generated_files/mcc.c: 53:     INTERRUPT_Initialize();
  1436  000804  EC2A  F004         	call	_INTERRUPT_Initialize	;wreg free
  1437  000808                     
  1438                           ;mcc_generated_files/mcc.c: 54:     PIN_MANAGER_Initialize();
  1439  000808  ECA0  F003         	call	_PIN_MANAGER_Initialize	;wreg free
  1440  00080C                     
  1441                           ;mcc_generated_files/mcc.c: 55:     OSCILLATOR_Initialize();
  1442  00080C  EC0D  F004         	call	_OSCILLATOR_Initialize	;wreg free
  1443  000810                     
  1444                           ;mcc_generated_files/mcc.c: 56:     EUSART1_Initialize();
  1445  000810  EC81  F003         	call	_EUSART1_Initialize	;wreg free
  1446  000814                     
  1447                           ;mcc_generated_files/mcc.c: 57:     ECAN_Initialize();
  1448  000814  ECB5  F001         	call	_ECAN_Initialize	;wreg free
  1449  000818  0012               	return		;funcret
  1450  00081A                     __end_of_SYSTEM_Initialize:
  1451                           	callstack 0
  1452                           
  1453 ;; *************** function _PIN_MANAGER_Initialize *****************
  1454 ;; Defined at:
  1455 ;;		line 55 in file "mcc_generated_files/pin_manager.c"
  1456 ;; Parameters:    Size  Location     Type
  1457 ;;		None
  1458 ;; Auto vars:     Size  Location     Type
  1459 ;;		None
  1460 ;; Return value:  Size  Location     Type
  1461 ;;                  1    wreg      void 
  1462 ;; Registers used:
  1463 ;;		wreg, status,2
  1464 ;; Tracked objects:
  1465 ;;		On entry : 0/0
  1466 ;;		On exit  : 0/0
  1467 ;;		Unchanged: 0/0
  1468 ;; Data sizes:     COMRAM   BANK0   BANK1   BANK2   BANK3   BANK4   BANK5   BANK6   BANK7   BANK8   BANK9  BANK10  BANK1
      +1  BANK12  BANK13  BANK14
  1469 ;;      Params:         0       0       0       0       0       0       0       0       0       0       0       0       
      +0       0       0       0
  1470 ;;      Locals:         0       0       0       0       0       0       0       0       0       0       0       0       
      +0       0       0       0
  1471 ;;      Temps:          0       0       0       0       0       0       0       0       0       0       0       0       
      +0       0       0       0
  1472 ;;      Totals:         0       0       0       0       0       0       0       0       0       0       0       0       
      +0       0       0       0
  1473 ;;Total ram usage:        0 bytes
  1474 ;; Hardware stack levels used: 1
  1475 ;; Hardware stack levels required when called: 3
  1476 ;; This function calls:
  1477 ;;		Nothing
  1478 ;; This function is called by:
  1479 ;;		_SYSTEM_Initialize
  1480 ;; This function uses a non-reentrant model
  1481 ;;
  1482                           
  1483                           	psect	text6
  1484  000740                     __ptext6:
  1485                           	callstack 0
  1486  000740                     _PIN_MANAGER_Initialize:
  1487                           	callstack 26
  1488  000740                     
  1489                           ;mcc_generated_files/pin_manager.c: 60:     LATE = 0x00;
  1490  000740  0E00               	movlw	0
  1491  000742  6E8D               	movwf	141,c	;volatile
  1492                           
  1493                           ;mcc_generated_files/pin_manager.c: 61:     LATD = 0x00;
  1494  000744  0E00               	movlw	0
  1495  000746  6E8C               	movwf	140,c	;volatile
  1496                           
  1497                           ;mcc_generated_files/pin_manager.c: 62:     LATA = 0x00;
  1498  000748  0E00               	movlw	0
  1499  00074A  6E89               	movwf	137,c	;volatile
  1500                           
  1501                           ;mcc_generated_files/pin_manager.c: 63:     LATB = 0x00;
  1502  00074C  0E00               	movlw	0
  1503  00074E  6E8A               	movwf	138,c	;volatile
  1504                           
  1505                           ;mcc_generated_files/pin_manager.c: 64:     LATC = 0x00;
  1506  000750  0E00               	movlw	0
  1507  000752  6E8B               	movwf	139,c	;volatile
  1508                           
  1509                           ;mcc_generated_files/pin_manager.c: 69:     TRISE = 0x07;
  1510  000754  0E07               	movlw	7
  1511  000756  6E96               	movwf	150,c	;volatile
  1512                           
  1513                           ;mcc_generated_files/pin_manager.c: 70:     TRISA = 0xCF;
  1514  000758  0ECF               	movlw	207
  1515  00075A  6E92               	movwf	146,c	;volatile
  1516                           
  1517                           ;mcc_generated_files/pin_manager.c: 71:     TRISB = 0xFB;
  1518  00075C  0EFB               	movlw	251
  1519  00075E  6E93               	movwf	147,c	;volatile
  1520                           
  1521                           ;mcc_generated_files/pin_manager.c: 72:     TRISC = 0xBF;
  1522  000760  0EBF               	movlw	191
  1523  000762  6E94               	movwf	148,c	;volatile
  1524  000764                     
  1525                           ;mcc_generated_files/pin_manager.c: 73:     TRISD = 0xFF;
  1526  000764  6895               	setf	149,c	;volatile
  1527                           
  1528                           ;mcc_generated_files/pin_manager.c: 78:     ANCON0 = 0xF0;
  1529  000766  0EF0               	movlw	240
  1530  000768  010F               	movlb	15	; () banked
  1531  00076A  6F5D               	movwf	93,b	;volatile
  1532                           
  1533                           ;mcc_generated_files/pin_manager.c: 79:     ANCON1 = 0x67;
  1534  00076C  0E67               	movlw	103
  1535  00076E  6F5C               	movwf	92,b	;volatile
  1536                           
  1537                           ;mcc_generated_files/pin_manager.c: 84:     WPUB = 0x00;
  1538  000770  0E00               	movlw	0
  1539  000772  6F5B               	movwf	91,b	;volatile
  1540  000774                     
  1541                           ; BSR set to: 15
  1542                           ;mcc_generated_files/pin_manager.c: 85:     INTCON2bits.nRBPU = 1;
  1543  000774  8EF1               	bsf	241,7,c	;volatile
  1544  000776                     
  1545                           ; BSR set to: 15
  1546  000776  0012               	return		;funcret
  1547  000778                     __end_of_PIN_MANAGER_Initialize:
  1548                           	callstack 0
  1549                           
  1550 ;; *************** function _OSCILLATOR_Initialize *****************
  1551 ;; Defined at:
  1552 ;;		line 60 in file "mcc_generated_files/mcc.c"
  1553 ;; Parameters:    Size  Location     Type
  1554 ;;		None
  1555 ;; Auto vars:     Size  Location     Type
  1556 ;;		None
  1557 ;; Return value:  Size  Location     Type
  1558 ;;                  1    wreg      void 
  1559 ;; Registers used:
  1560 ;;		wreg, status,2
  1561 ;; Tracked objects:
  1562 ;;		On entry : 0/0
  1563 ;;		On exit  : 0/0
  1564 ;;		Unchanged: 0/0
  1565 ;; Data sizes:     COMRAM   BANK0   BANK1   BANK2   BANK3   BANK4   BANK5   BANK6   BANK7   BANK8   BANK9  BANK10  BANK1
      +1  BANK12  BANK13  BANK14
  1566 ;;      Params:         0       0       0       0       0       0       0       0       0       0       0       0       
      +0       0       0       0
  1567 ;;      Locals:         0       0       0       0       0       0       0       0       0       0       0       0       
      +0       0       0       0
  1568 ;;      Temps:          0       0       0       0       0       0       0       0       0       0       0       0       
      +0       0       0       0
  1569 ;;      Totals:         0       0       0       0       0       0       0       0       0       0       0       0       
      +0       0       0       0
  1570 ;;Total ram usage:        0 bytes
  1571 ;; Hardware stack levels used: 1
  1572 ;; Hardware stack levels required when called: 3
  1573 ;; This function calls:
  1574 ;;		Nothing
  1575 ;; This function is called by:
  1576 ;;		_SYSTEM_Initialize
  1577 ;; This function uses a non-reentrant model
  1578 ;;
  1579                           
  1580                           	psect	text7
  1581  00081A                     __ptext7:
  1582                           	callstack 0
  1583  00081A                     _OSCILLATOR_Initialize:
  1584                           	callstack 26
  1585  00081A                     
  1586                           ;mcc_generated_files/mcc.c: 63:     OSCCON = 0x60;
  1587  00081A  0E60               	movlw	96
  1588  00081C  6ED3               	movwf	211,c	;volatile
  1589                           
  1590                           ;mcc_generated_files/mcc.c: 65:     OSCCON2 = 0x00;
  1591  00081E  0E00               	movlw	0
  1592  000820  6ED2               	movwf	210,c	;volatile
  1593                           
  1594                           ;mcc_generated_files/mcc.c: 67:     OSCTUNE = 0x00;
  1595  000822  0E00               	movlw	0
  1596  000824  6E9B               	movwf	155,c	;volatile
  1597                           
  1598                           ;mcc_generated_files/mcc.c: 69:     REFOCON = 0x00;
  1599  000826  0E00               	movlw	0
  1600  000828  6E9A               	movwf	154,c	;volatile
  1601  00082A  0012               	return		;funcret
  1602  00082C                     __end_of_OSCILLATOR_Initialize:
  1603                           	callstack 0
  1604                           
  1605 ;; *************** function _INTERRUPT_Initialize *****************
  1606 ;; Defined at:
  1607 ;;		line 52 in file "mcc_generated_files/interrupt_manager.c"
  1608 ;; Parameters:    Size  Location     Type
  1609 ;;		None
  1610 ;; Auto vars:     Size  Location     Type
  1611 ;;		None
  1612 ;; Return value:  Size  Location     Type
  1613 ;;                  1    wreg      void 
  1614 ;; Registers used:
  1615 ;;		None
  1616 ;; Tracked objects:
  1617 ;;		On entry : 0/0
  1618 ;;		On exit  : 0/0
  1619 ;;		Unchanged: 0/0
  1620 ;; Data sizes:     COMRAM   BANK0   BANK1   BANK2   BANK3   BANK4   BANK5   BANK6   BANK7   BANK8   BANK9  BANK10  BANK1
      +1  BANK12  BANK13  BANK14
  1621 ;;      Params:         0       0       0       0       0       0       0       0       0       0       0       0       
      +0       0       0       0
  1622 ;;      Locals:         0       0       0       0       0       0       0       0       0       0       0       0       
      +0       0       0       0
  1623 ;;      Temps:          0       0       0       0       0       0       0       0       0       0       0       0       
      +0       0       0       0
  1624 ;;      Totals:         0       0       0       0       0       0       0       0       0       0       0       0       
      +0       0       0       0
  1625 ;;Total ram usage:        0 bytes
  1626 ;; Hardware stack levels used: 1
  1627 ;; Hardware stack levels required when called: 3
  1628 ;; This function calls:
  1629 ;;		Nothing
  1630 ;; This function is called by:
  1631 ;;		_SYSTEM_Initialize
  1632 ;; This function uses a non-reentrant model
  1633 ;;
  1634                           
  1635                           	psect	text8
  1636  000854                     __ptext8:
  1637                           	callstack 0
  1638  000854                     _INTERRUPT_Initialize:
  1639                           	callstack 26
  1640  000854                     
  1641                           ;mcc_generated_files/interrupt_manager.c: 55:     RCONbits.IPEN = 0;
  1642  000854  9ED0               	bcf	208,7,c	;volatile
  1643  000856  0012               	return		;funcret
  1644  000858                     __end_of_INTERRUPT_Initialize:
  1645                           	callstack 0
  1646                           
  1647 ;; *************** function _EUSART1_Initialize *****************
  1648 ;; Defined at:
  1649 ;;		line 66 in file "mcc_generated_files/eusart1.c"
  1650 ;; Parameters:    Size  Location     Type
  1651 ;;		None
  1652 ;; Auto vars:     Size  Location     Type
  1653 ;;		None
  1654 ;; Return value:  Size  Location     Type
  1655 ;;                  1    wreg      void 
  1656 ;; Registers used:
  1657 ;;		wreg, status,2, status,0, cstack
  1658 ;; Tracked objects:
  1659 ;;		On entry : 0/0
  1660 ;;		On exit  : 0/0
  1661 ;;		Unchanged: 0/0
  1662 ;; Data sizes:     COMRAM   BANK0   BANK1   BANK2   BANK3   BANK4   BANK5   BANK6   BANK7   BANK8   BANK9  BANK10  BANK1
      +1  BANK12  BANK13  BANK14
  1663 ;;      Params:         0       0       0       0       0       0       0       0       0       0       0       0       
      +0       0       0       0
  1664 ;;      Locals:         0       0       0       0       0       0       0       0       0       0       0       0       
      +0       0       0       0
  1665 ;;      Temps:          0       0       0       0       0       0       0       0       0       0       0       0       
      +0       0       0       0
  1666 ;;      Totals:         0       0       0       0       0       0       0       0       0       0       0       0       
      +0       0       0       0
  1667 ;;Total ram usage:        0 bytes
  1668 ;; Hardware stack levels used: 1
  1669 ;; Hardware stack levels required when called: 4
  1670 ;; This function calls:
  1671 ;;		_EUSART1_SetErrorHandler
  1672 ;;		_EUSART1_SetFramingErrorHandler
  1673 ;;		_EUSART1_SetOverrunErrorHandler
  1674 ;; This function is called by:
  1675 ;;		_SYSTEM_Initialize
  1676 ;; This function uses a non-reentrant model
  1677 ;;
  1678                           
  1679                           	psect	text9
  1680  000702                     __ptext9:
  1681                           	callstack 0
  1682  000702                     _EUSART1_Initialize:
  1683                           	callstack 25
  1684  000702                     
  1685                           ;mcc_generated_files/eusart1.c: 71:     BAUDCON1 = 0x08;
  1686  000702  0E08               	movlw	8
  1687  000704  6EA7               	movwf	167,c	;volatile
  1688                           
  1689                           ;mcc_generated_files/eusart1.c: 74:     RCSTA1 = 0x90;
  1690  000706  0E90               	movlw	144
  1691  000708  6EAB               	movwf	171,c	;volatile
  1692                           
  1693                           ;mcc_generated_files/eusart1.c: 77:     TXSTA1 = 0x24;
  1694  00070A  0E24               	movlw	36
  1695  00070C  6EAC               	movwf	172,c	;volatile
  1696                           
  1697                           ;mcc_generated_files/eusart1.c: 80:     SPBRG1 = 0x08;
  1698  00070E  0E08               	movlw	8
  1699  000710  6EAF               	movwf	175,c	;volatile
  1700                           
  1701                           ;mcc_generated_files/eusart1.c: 83:     SPBRGH1 = 0x02;
  1702  000712  0E02               	movlw	2
  1703  000714  6E7D               	movwf	125,c	;volatile
  1704  000716                     
  1705                           ;mcc_generated_files/eusart1.c: 86:     EUSART1_SetFramingErrorHandler(EUSART1_DefaultFr
      +                          amingErrorHandler);
  1706  000716  0E00               	movlw	0
  1707  000718  6E28               	movwf	EUSART1_SetFramingErrorHandler@interruptHandler^0,c
  1708  00071A  0E00               	movlw	0
  1709  00071C  6E29               	movwf	(EUSART1_SetFramingErrorHandler@interruptHandler+1)^0,c
  1710  00071E  EC1B  F004         	call	_EUSART1_SetFramingErrorHandler	;wreg free
  1711  000722                     
  1712                           ;mcc_generated_files/eusart1.c: 87:     EUSART1_SetOverrunErrorHandler(EUSART1_DefaultOv
      +                          errunErrorHandler);
  1713  000722  0E00               	movlw	0
  1714  000724  6E28               	movwf	EUSART1_SetOverrunErrorHandler@interruptHandler^0,c
  1715  000726  0E00               	movlw	0
  1716  000728  6E29               	movwf	(EUSART1_SetOverrunErrorHandler@interruptHandler+1)^0,c
  1717  00072A  EC16  F004         	call	_EUSART1_SetOverrunErrorHandler	;wreg free
  1718  00072E                     
  1719                           ;mcc_generated_files/eusart1.c: 88:     EUSART1_SetErrorHandler(EUSART1_DefaultErrorHand
      +                          ler);
  1720  00072E  0E00               	movlw	0
  1721  000730  6E28               	movwf	EUSART1_SetErrorHandler@interruptHandler^0,c
  1722  000732  0E00               	movlw	0
  1723  000734  6E29               	movwf	(EUSART1_SetErrorHandler@interruptHandler+1)^0,c
  1724  000736  EC20  F004         	call	_EUSART1_SetErrorHandler	;wreg free
  1725  00073A                     
  1726                           ;mcc_generated_files/eusart1.c: 90:     eusart1RxLastError.status = 0;
  1727  00073A  0E00               	movlw	0
  1728  00073C  6E09               	movwf	_eusart1RxLastError^0,c	;volatile
  1729  00073E  0012               	return		;funcret
  1730  000740                     __end_of_EUSART1_Initialize:
  1731                           	callstack 0
  1732                           
  1733 ;; *************** function _EUSART1_SetOverrunErrorHandler *****************
  1734 ;; Defined at:
  1735 ;;		line 161 in file "mcc_generated_files/eusart1.c"
  1736 ;; Parameters:    Size  Location     Type
  1737 ;;  interruptHan    2    2[COMRAM] PTR FTN()void 
  1738 ;;		 -> EUSART1_DefaultOverrunErrorHandler(1), 
  1739 ;; Auto vars:     Size  Location     Type
  1740 ;;		None
  1741 ;; Return value:  Size  Location     Type
  1742 ;;                  1    wreg      void 
  1743 ;; Registers used:
  1744 ;;		wreg, status,2, status,0
  1745 ;; Tracked objects:
  1746 ;;		On entry : 0/0
  1747 ;;		On exit  : 0/0
  1748 ;;		Unchanged: 0/0
  1749 ;; Data sizes:     COMRAM   BANK0   BANK1   BANK2   BANK3   BANK4   BANK5   BANK6   BANK7   BANK8   BANK9  BANK10  BANK1
      +1  BANK12  BANK13  BANK14
  1750 ;;      Params:         2       0       0       0       0       0       0       0       0       0       0       0       
      +0       0       0       0
  1751 ;;      Locals:         0       0       0       0       0       0       0       0       0       0       0       0       
      +0       0       0       0
  1752 ;;      Temps:          0       0       0       0       0       0       0       0       0       0       0       0       
      +0       0       0       0
  1753 ;;      Totals:         2       0       0       0       0       0       0       0       0       0       0       0       
      +0       0       0       0
  1754 ;;Total ram usage:        2 bytes
  1755 ;; Hardware stack levels used: 1
  1756 ;; Hardware stack levels required when called: 3
  1757 ;; This function calls:
  1758 ;;		Nothing
  1759 ;; This function is called by:
  1760 ;;		_EUSART1_Initialize
  1761 ;; This function uses a non-reentrant model
  1762 ;;
  1763                           
  1764                           	psect	text10
  1765  00082C                     __ptext10:
  1766                           	callstack 0
  1767  00082C                     _EUSART1_SetOverrunErrorHandler:
  1768                           	callstack 25
  1769  00082C                     
  1770                           ;mcc_generated_files/eusart1.c: 162:     EUSART1_OverrunErrorHandler = interruptHandler;
  1771  00082C  C028  F046         	movff	EUSART1_SetOverrunErrorHandler@interruptHandler,_EUSART1_OverrunErrorHandler
  1772  000830  C029  F047         	movff	EUSART1_SetOverrunErrorHandler@interruptHandler+1,_EUSART1_OverrunErrorHandler+1
  1773  000834  0012               	return		;funcret
  1774  000836                     __end_of_EUSART1_SetOverrunErrorHandler:
  1775                           	callstack 0
  1776                           
  1777 ;; *************** function _EUSART1_SetFramingErrorHandler *****************
  1778 ;; Defined at:
  1779 ;;		line 157 in file "mcc_generated_files/eusart1.c"
  1780 ;; Parameters:    Size  Location     Type
  1781 ;;  interruptHan    2    2[COMRAM] PTR FTN()void 
  1782 ;;		 -> EUSART1_DefaultFramingErrorHandler(1), 
  1783 ;; Auto vars:     Size  Location     Type
  1784 ;;		None
  1785 ;; Return value:  Size  Location     Type
  1786 ;;                  1    wreg      void 
  1787 ;; Registers used:
  1788 ;;		wreg, status,2, status,0
  1789 ;; Tracked objects:
  1790 ;;		On entry : 0/0
  1791 ;;		On exit  : 0/0
  1792 ;;		Unchanged: 0/0
  1793 ;; Data sizes:     COMRAM   BANK0   BANK1   BANK2   BANK3   BANK4   BANK5   BANK6   BANK7   BANK8   BANK9  BANK10  BANK1
      +1  BANK12  BANK13  BANK14
  1794 ;;      Params:         2       0       0       0       0       0       0       0       0       0       0       0       
      +0       0       0       0
  1795 ;;      Locals:         0       0       0       0       0       0       0       0       0       0       0       0       
      +0       0       0       0
  1796 ;;      Temps:          0       0       0       0       0       0       0       0       0       0       0       0       
      +0       0       0       0
  1797 ;;      Totals:         2       0       0       0       0       0       0       0       0       0       0       0       
      +0       0       0       0
  1798 ;;Total ram usage:        2 bytes
  1799 ;; Hardware stack levels used: 1
  1800 ;; Hardware stack levels required when called: 3
  1801 ;; This function calls:
  1802 ;;		Nothing
  1803 ;; This function is called by:
  1804 ;;		_EUSART1_Initialize
  1805 ;; This function uses a non-reentrant model
  1806 ;;
  1807                           
  1808                           	psect	text11
  1809  000836                     __ptext11:
  1810                           	callstack 0
  1811  000836                     _EUSART1_SetFramingErrorHandler:
  1812                           	callstack 25
  1813  000836                     
  1814                           ;mcc_generated_files/eusart1.c: 158:     EUSART1_FramingErrorHandler = interruptHandler;
  1815  000836  C028  F048         	movff	EUSART1_SetFramingErrorHandler@interruptHandler,_EUSART1_FramingErrorHandler
  1816  00083A  C029  F049         	movff	EUSART1_SetFramingErrorHandler@interruptHandler+1,_EUSART1_FramingErrorHandler+1
  1817  00083E  0012               	return		;funcret
  1818  000840                     __end_of_EUSART1_SetFramingErrorHandler:
  1819                           	callstack 0
  1820                           
  1821 ;; *************** function _EUSART1_SetErrorHandler *****************
  1822 ;; Defined at:
  1823 ;;		line 165 in file "mcc_generated_files/eusart1.c"
  1824 ;; Parameters:    Size  Location     Type
  1825 ;;  interruptHan    2    2[COMRAM] PTR FTN()void 
  1826 ;;		 -> EUSART1_DefaultErrorHandler(1), 
  1827 ;; Auto vars:     Size  Location     Type
  1828 ;;		None
  1829 ;; Return value:  Size  Location     Type
  1830 ;;                  1    wreg      void 
  1831 ;; Registers used:
  1832 ;;		wreg, status,2, status,0
  1833 ;; Tracked objects:
  1834 ;;		On entry : 0/0
  1835 ;;		On exit  : 0/0
  1836 ;;		Unchanged: 0/0
  1837 ;; Data sizes:     COMRAM   BANK0   BANK1   BANK2   BANK3   BANK4   BANK5   BANK6   BANK7   BANK8   BANK9  BANK10  BANK1
      +1  BANK12  BANK13  BANK14
  1838 ;;      Params:         2       0       0       0       0       0       0       0       0       0       0       0       
      +0       0       0       0
  1839 ;;      Locals:         0       0       0       0       0       0       0       0       0       0       0       0       
      +0       0       0       0
  1840 ;;      Temps:          0       0       0       0       0       0       0       0       0       0       0       0       
      +0       0       0       0
  1841 ;;      Totals:         2       0       0       0       0       0       0       0       0       0       0       0       
      +0       0       0       0
  1842 ;;Total ram usage:        2 bytes
  1843 ;; Hardware stack levels used: 1
  1844 ;; Hardware stack levels required when called: 3
  1845 ;; This function calls:
  1846 ;;		Nothing
  1847 ;; This function is called by:
  1848 ;;		_EUSART1_Initialize
  1849 ;; This function uses a non-reentrant model
  1850 ;;
  1851                           
  1852                           	psect	text12
  1853  000840                     __ptext12:
  1854                           	callstack 0
  1855  000840                     _EUSART1_SetErrorHandler:
  1856                           	callstack 25
  1857  000840                     
  1858                           ;mcc_generated_files/eusart1.c: 166:     EUSART1_ErrorHandler = interruptHandler;
  1859  000840  C028  F044         	movff	EUSART1_SetErrorHandler@interruptHandler,_EUSART1_ErrorHandler
  1860  000844  C029  F045         	movff	EUSART1_SetErrorHandler@interruptHandler+1,_EUSART1_ErrorHandler+1
  1861  000848  0012               	return		;funcret
  1862  00084A                     __end_of_EUSART1_SetErrorHandler:
  1863                           	callstack 0
  1864                           
  1865 ;; *************** function _ECAN_Initialize *****************
  1866 ;; Defined at:
  1867 ;;		line 65 in file "mcc_generated_files/ecan.c"
  1868 ;; Parameters:    Size  Location     Type
  1869 ;;		None
  1870 ;; Auto vars:     Size  Location     Type
  1871 ;;		None
  1872 ;; Return value:  Size  Location     Type
  1873 ;;                  1    wreg      void 
  1874 ;; Registers used:
  1875 ;;		wreg, status,2, status,0, cstack
  1876 ;; Tracked objects:
  1877 ;;		On entry : 0/0
  1878 ;;		On exit  : 0/0
  1879 ;;		Unchanged: 0/0
  1880 ;; Data sizes:     COMRAM   BANK0   BANK1   BANK2   BANK3   BANK4   BANK5   BANK6   BANK7   BANK8   BANK9  BANK10  BANK1
      +1  BANK12  BANK13  BANK14
  1881 ;;      Params:         0       0       0       0       0       0       0       0       0       0       0       0       
      +0       0       0       0
  1882 ;;      Locals:         0       0       0       0       0       0       0       0       0       0       0       0       
      +0       0       0       0
  1883 ;;      Temps:          1       0       0       0       0       0       0       0       0       0       0       0       
      +0       0       0       0
  1884 ;;      Totals:         1       0       0       0       0       0       0       0       0       0       0       0       
      +0       0       0       0
  1885 ;;Total ram usage:        1 bytes
  1886 ;; Hardware stack levels used: 1
  1887 ;; Hardware stack levels required when called: 4
  1888 ;; This function calls:
  1889 ;;		_ECAN_SetWakeUpInterruptHandler
  1890 ;; This function is called by:
  1891 ;;		_SYSTEM_Initialize
  1892 ;; This function uses a non-reentrant model
  1893 ;;
  1894                           
  1895                           	psect	text13
  1896  00036A                     __ptext13:
  1897                           	callstack 0
  1898  00036A                     _ECAN_Initialize:
  1899                           	callstack 25
  1900  00036A                     
  1901                           ;mcc_generated_files/ecan.c: 67:     CANCON = 0x80;
  1902  00036A  0E80               	movlw	128
  1903  00036C  6E6F               	movwf	111,c	;volatile
  1904  00036E                     l2108:
  1905  00036E  506E               	movf	110,w,c	;volatile
  1906  000370  0BE0               	andlw	224
  1907  000372  0A80               	xorlw	128
  1908  000374  A4D8               	btfss	status,2,c
  1909  000376  EFBF  F001         	goto	u371
  1910  00037A  EFC1  F001         	goto	u370
  1911  00037E                     u371:
  1912  00037E  EFB7  F001         	goto	l2108
  1913  000382                     u370:
  1914  000382                     
  1915                           ;mcc_generated_files/ecan.c: 73:     ECANCON = 0x40;
  1916  000382  0E40               	movlw	64
  1917  000384  6E72               	movwf	114,c	;volatile
  1918                           
  1919                           ;mcc_generated_files/ecan.c: 78:     CIOCON = 0x20;
  1920  000386  0E20               	movlw	32
  1921  000388  6E70               	movwf	112,c	;volatile
  1922                           
  1923                           ;mcc_generated_files/ecan.c: 91:     BSEL0 = 0x00;
  1924  00038A  0E00               	movlw	0
  1925  00038C  010E               	movlb	14	; () banked
  1926  00038E  6F7D               	movwf	125,b	;volatile
  1927                           
  1928                           ;mcc_generated_files/ecan.c: 96:     RXM0EIDH = 0x00;
  1929  000390  0E00               	movlw	0
  1930  000392  6FFA               	movwf	250,b	;volatile
  1931                           
  1932                           ;mcc_generated_files/ecan.c: 97:     RXM0EIDL = 0x00;
  1933  000394  0E00               	movlw	0
  1934  000396  6FFB               	movwf	251,b	;volatile
  1935                           
  1936                           ;mcc_generated_files/ecan.c: 98:     RXM0SIDH = 0x00;
  1937  000398  0E00               	movlw	0
  1938  00039A  6FF8               	movwf	248,b	;volatile
  1939                           
  1940                           ;mcc_generated_files/ecan.c: 99:     RXM0SIDL = 0x00;
  1941  00039C  0E00               	movlw	0
  1942  00039E  6FF9               	movwf	249,b	;volatile
  1943                           
  1944                           ;mcc_generated_files/ecan.c: 100:     RXM1EIDH = 0x00;
  1945  0003A0  0E00               	movlw	0
  1946  0003A2  6FFE               	movwf	254,b	;volatile
  1947                           
  1948                           ;mcc_generated_files/ecan.c: 101:     RXM1EIDL = 0x00;
  1949  0003A4  0E00               	movlw	0
  1950  0003A6  6FFF               	movwf	255,b	;volatile
  1951                           
  1952                           ;mcc_generated_files/ecan.c: 102:     RXM1SIDH = 0x00;
  1953  0003A8  0E00               	movlw	0
  1954  0003AA  6FFC               	movwf	252,b	;volatile
  1955                           
  1956                           ;mcc_generated_files/ecan.c: 103:     RXM1SIDL = 0x00;
  1957  0003AC  0E00               	movlw	0
  1958  0003AE  6FFD               	movwf	253,b	;volatile
  1959                           
  1960                           ;mcc_generated_files/ecan.c: 108:     RXFCON0 = 0x00;
  1961  0003B0  0E00               	movlw	0
  1962  0003B2  6F46               	movwf	70,b	;volatile
  1963                           
  1964                           ;mcc_generated_files/ecan.c: 109:     RXFCON1 = 0x00;
  1965  0003B4  0E00               	movlw	0
  1966  0003B6  6F47               	movwf	71,b	;volatile
  1967                           
  1968                           ;mcc_generated_files/ecan.c: 113:     MSEL0 = 0x00;
  1969  0003B8  0E00               	movlw	0
  1970  0003BA  6F79               	movwf	121,b	;volatile
  1971                           
  1972                           ;mcc_generated_files/ecan.c: 114:     MSEL1 = 0x00;
  1973  0003BC  0E00               	movlw	0
  1974  0003BE  6F7A               	movwf	122,b	;volatile
  1975                           
  1976                           ;mcc_generated_files/ecan.c: 115:     MSEL2 = 0x00;
  1977  0003C0  0E00               	movlw	0
  1978  0003C2  6F7B               	movwf	123,b	;volatile
  1979                           
  1980                           ;mcc_generated_files/ecan.c: 116:     MSEL3 = 0x00;
  1981  0003C4  0E00               	movlw	0
  1982  0003C6  6F7C               	movwf	124,b	;volatile
  1983                           
  1984                           ;mcc_generated_files/ecan.c: 121:     RXFBCON0 = 0x00;
  1985  0003C8  0E00               	movlw	0
  1986  0003CA  6F71               	movwf	113,b	;volatile
  1987                           
  1988                           ;mcc_generated_files/ecan.c: 122:     RXFBCON1 = 0x00;
  1989  0003CC  0E00               	movlw	0
  1990  0003CE  6F72               	movwf	114,b	;volatile
  1991                           
  1992                           ;mcc_generated_files/ecan.c: 123:     RXFBCON2 = 0x00;
  1993  0003D0  0E00               	movlw	0
  1994  0003D2  6F73               	movwf	115,b	;volatile
  1995                           
  1996                           ;mcc_generated_files/ecan.c: 124:     RXFBCON3 = 0x00;
  1997  0003D4  0E00               	movlw	0
  1998  0003D6  6F74               	movwf	116,b	;volatile
  1999                           
  2000                           ;mcc_generated_files/ecan.c: 125:     RXFBCON4 = 0x00;
  2001  0003D8  0E00               	movlw	0
  2002  0003DA  6F75               	movwf	117,b	;volatile
  2003                           
  2004                           ;mcc_generated_files/ecan.c: 126:     RXFBCON5 = 0x00;
  2005  0003DC  0E00               	movlw	0
  2006  0003DE  6F76               	movwf	118,b	;volatile
  2007                           
  2008                           ;mcc_generated_files/ecan.c: 127:     RXFBCON6 = 0x00;
  2009  0003E0  0E00               	movlw	0
  2010  0003E2  6F77               	movwf	119,b	;volatile
  2011                           
  2012                           ;mcc_generated_files/ecan.c: 128:     RXFBCON7 = 0x00;
  2013  0003E4  0E00               	movlw	0
  2014  0003E6  6F78               	movwf	120,b	;volatile
  2015                           
  2016                           ;mcc_generated_files/ecan.c: 133:     RXF0EIDH = 0x00;
  2017  0003E8  0E00               	movlw	0
  2018  0003EA  6FE2               	movwf	226,b	;volatile
  2019                           
  2020                           ;mcc_generated_files/ecan.c: 134:     RXF0EIDL = 0x00;
  2021  0003EC  0E00               	movlw	0
  2022  0003EE  6FE3               	movwf	227,b	;volatile
  2023                           
  2024                           ;mcc_generated_files/ecan.c: 135:     RXF0SIDH = 0x00;
  2025  0003F0  0E00               	movlw	0
  2026  0003F2  6FE0               	movwf	224,b	;volatile
  2027                           
  2028                           ;mcc_generated_files/ecan.c: 136:     RXF0SIDL = 0x00;
  2029  0003F4  0E00               	movlw	0
  2030  0003F6  6FE1               	movwf	225,b	;volatile
  2031                           
  2032                           ;mcc_generated_files/ecan.c: 137:     RXF1EIDH = 0x00;
  2033  0003F8  0E00               	movlw	0
  2034  0003FA  6FE6               	movwf	230,b	;volatile
  2035                           
  2036                           ;mcc_generated_files/ecan.c: 138:     RXF1EIDL = 0x00;
  2037  0003FC  0E00               	movlw	0
  2038  0003FE  6FE7               	movwf	231,b	;volatile
  2039                           
  2040                           ;mcc_generated_files/ecan.c: 139:     RXF1SIDH = 0x00;
  2041  000400  0E00               	movlw	0
  2042  000402  6FE4               	movwf	228,b	;volatile
  2043                           
  2044                           ;mcc_generated_files/ecan.c: 140:     RXF1SIDL = 0x00;
  2045  000404  0E00               	movlw	0
  2046  000406  6FE5               	movwf	229,b	;volatile
  2047                           
  2048                           ;mcc_generated_files/ecan.c: 141:     RXF2EIDH = 0x00;
  2049  000408  0E00               	movlw	0
  2050  00040A  6FEA               	movwf	234,b	;volatile
  2051                           
  2052                           ;mcc_generated_files/ecan.c: 142:     RXF2EIDL = 0x00;
  2053  00040C  0E00               	movlw	0
  2054  00040E  6FEB               	movwf	235,b	;volatile
  2055                           
  2056                           ;mcc_generated_files/ecan.c: 143:     RXF2SIDH = 0x00;
  2057  000410  0E00               	movlw	0
  2058  000412  6FE8               	movwf	232,b	;volatile
  2059                           
  2060                           ;mcc_generated_files/ecan.c: 144:     RXF2SIDL = 0x00;
  2061  000414  0E00               	movlw	0
  2062  000416  6FE9               	movwf	233,b	;volatile
  2063                           
  2064                           ;mcc_generated_files/ecan.c: 145:     RXF3EIDH = 0x00;
  2065  000418  0E00               	movlw	0
  2066  00041A  6FEE               	movwf	238,b	;volatile
  2067                           
  2068                           ;mcc_generated_files/ecan.c: 146:     RXF3EIDL = 0x00;
  2069  00041C  0E00               	movlw	0
  2070  00041E  6FEF               	movwf	239,b	;volatile
  2071                           
  2072                           ;mcc_generated_files/ecan.c: 147:     RXF3SIDH = 0x00;
  2073  000420  0E00               	movlw	0
  2074  000422  6FEC               	movwf	236,b	;volatile
  2075                           
  2076                           ;mcc_generated_files/ecan.c: 148:     RXF3SIDL = 0x00;
  2077  000424  0E00               	movlw	0
  2078  000426  6FED               	movwf	237,b	;volatile
  2079                           
  2080                           ;mcc_generated_files/ecan.c: 149:     RXF4EIDH = 0x00;
  2081  000428  0E00               	movlw	0
  2082  00042A  6FF2               	movwf	242,b	;volatile
  2083                           
  2084                           ;mcc_generated_files/ecan.c: 150:     RXF4EIDL = 0x00;
  2085  00042C  0E00               	movlw	0
  2086  00042E  6FF3               	movwf	243,b	;volatile
  2087                           
  2088                           ;mcc_generated_files/ecan.c: 151:     RXF4SIDH = 0x00;
  2089  000430  0E00               	movlw	0
  2090  000432  6FF0               	movwf	240,b	;volatile
  2091                           
  2092                           ;mcc_generated_files/ecan.c: 152:     RXF4SIDL = 0x00;
  2093  000434  0E00               	movlw	0
  2094  000436  6FF1               	movwf	241,b	;volatile
  2095                           
  2096                           ;mcc_generated_files/ecan.c: 153:     RXF5EIDH = 0x00;
  2097  000438  0E00               	movlw	0
  2098  00043A  6FF6               	movwf	246,b	;volatile
  2099                           
  2100                           ;mcc_generated_files/ecan.c: 154:     RXF5EIDL = 0x00;
  2101  00043C  0E00               	movlw	0
  2102  00043E  6FF7               	movwf	247,b	;volatile
  2103                           
  2104                           ;mcc_generated_files/ecan.c: 155:     RXF5SIDH = 0x00;
  2105  000440  0E00               	movlw	0
  2106  000442  6FF4               	movwf	244,b	;volatile
  2107                           
  2108                           ;mcc_generated_files/ecan.c: 156:     RXF5SIDL = 0x00;
  2109  000444  0E00               	movlw	0
  2110  000446  6FF5               	movwf	245,b	;volatile
  2111                           
  2112                           ;mcc_generated_files/ecan.c: 158:     RXF6EIDH = 0x00;
  2113  000448  0E00               	movlw	0
  2114  00044A  6F4A               	movwf	74,b	;volatile
  2115                           
  2116                           ;mcc_generated_files/ecan.c: 159:     RXF6EIDL = 0x00;
  2117  00044C  0E00               	movlw	0
  2118  00044E  6F4B               	movwf	75,b	;volatile
  2119                           
  2120                           ;mcc_generated_files/ecan.c: 160:     RXF6SIDH = 0x00;
  2121  000450  0E00               	movlw	0
  2122  000452  6F48               	movwf	72,b	;volatile
  2123                           
  2124                           ;mcc_generated_files/ecan.c: 161:     RXF6SIDL = 0x00;
  2125  000454  0E00               	movlw	0
  2126  000456  6F49               	movwf	73,b	;volatile
  2127                           
  2128                           ;mcc_generated_files/ecan.c: 162:     RXF7EIDH = 0x00;
  2129  000458  0E00               	movlw	0
  2130  00045A  6F4E               	movwf	78,b	;volatile
  2131                           
  2132                           ;mcc_generated_files/ecan.c: 163:     RXF7EIDL = 0x00;
  2133  00045C  0E00               	movlw	0
  2134  00045E  6F4F               	movwf	79,b	;volatile
  2135                           
  2136                           ;mcc_generated_files/ecan.c: 164:     RXF7SIDH = 0x00;
  2137  000460  0E00               	movlw	0
  2138  000462  6F4C               	movwf	76,b	;volatile
  2139                           
  2140                           ;mcc_generated_files/ecan.c: 165:     RXF7SIDL = 0x00;
  2141  000464  0E00               	movlw	0
  2142  000466  6F4D               	movwf	77,b	;volatile
  2143                           
  2144                           ;mcc_generated_files/ecan.c: 166:     RXF8EIDH = 0x00;
  2145  000468  0E00               	movlw	0
  2146  00046A  6F52               	movwf	82,b	;volatile
  2147                           
  2148                           ;mcc_generated_files/ecan.c: 167:     RXF8EIDL = 0x00;
  2149  00046C  0E00               	movlw	0
  2150  00046E  6F53               	movwf	83,b	;volatile
  2151                           
  2152                           ;mcc_generated_files/ecan.c: 168:     RXF8SIDH = 0x00;
  2153  000470  0E00               	movlw	0
  2154  000472  6F50               	movwf	80,b	;volatile
  2155                           
  2156                           ;mcc_generated_files/ecan.c: 169:     RXF8SIDL = 0x00;
  2157  000474  0E00               	movlw	0
  2158  000476  6F51               	movwf	81,b	;volatile
  2159                           
  2160                           ;mcc_generated_files/ecan.c: 170:     RXF9EIDH = 0x00;
  2161  000478  0E00               	movlw	0
  2162  00047A  6F56               	movwf	86,b	;volatile
  2163                           
  2164                           ;mcc_generated_files/ecan.c: 171:     RXF9EIDL = 0x00;
  2165  00047C  0E00               	movlw	0
  2166  00047E  6F57               	movwf	87,b	;volatile
  2167                           
  2168                           ;mcc_generated_files/ecan.c: 172:     RXF9SIDH = 0x00;
  2169  000480  0E00               	movlw	0
  2170  000482  6F54               	movwf	84,b	;volatile
  2171                           
  2172                           ;mcc_generated_files/ecan.c: 173:     RXF9SIDL = 0x00;
  2173  000484  0E00               	movlw	0
  2174  000486  6F55               	movwf	85,b	;volatile
  2175                           
  2176                           ;mcc_generated_files/ecan.c: 174:     RXF10EIDH = 0x00;
  2177  000488  0E00               	movlw	0
  2178  00048A  6F5A               	movwf	90,b	;volatile
  2179                           
  2180                           ;mcc_generated_files/ecan.c: 175:     RXF10EIDL = 0x00;
  2181  00048C  0E00               	movlw	0
  2182  00048E  6F5B               	movwf	91,b	;volatile
  2183                           
  2184                           ;mcc_generated_files/ecan.c: 176:     RXF10SIDH = 0x00;
  2185  000490  0E00               	movlw	0
  2186  000492  6F58               	movwf	88,b	;volatile
  2187                           
  2188                           ;mcc_generated_files/ecan.c: 177:     RXF10SIDL = 0x00;
  2189  000494  0E00               	movlw	0
  2190  000496  6F59               	movwf	89,b	;volatile
  2191                           
  2192                           ;mcc_generated_files/ecan.c: 178:     RXF11EIDH = 0x00;
  2193  000498  0E00               	movlw	0
  2194  00049A  6F5E               	movwf	94,b	;volatile
  2195                           
  2196                           ;mcc_generated_files/ecan.c: 179:     RXF11EIDL = 0x00;
  2197  00049C  0E00               	movlw	0
  2198  00049E  6F5F               	movwf	95,b	;volatile
  2199                           
  2200                           ;mcc_generated_files/ecan.c: 180:     RXF11SIDH = 0x00;
  2201  0004A0  0E00               	movlw	0
  2202  0004A2  6F5C               	movwf	92,b	;volatile
  2203                           
  2204                           ;mcc_generated_files/ecan.c: 181:     RXF11SIDL = 0x00;
  2205  0004A4  0E00               	movlw	0
  2206  0004A6  6F5D               	movwf	93,b	;volatile
  2207                           
  2208                           ;mcc_generated_files/ecan.c: 182:     RXF12EIDH = 0x00;
  2209  0004A8  0E00               	movlw	0
  2210  0004AA  6F62               	movwf	98,b	;volatile
  2211                           
  2212                           ;mcc_generated_files/ecan.c: 183:     RXF12EIDL = 0x00;
  2213  0004AC  0E00               	movlw	0
  2214  0004AE  6F63               	movwf	99,b	;volatile
  2215                           
  2216                           ;mcc_generated_files/ecan.c: 184:     RXF12SIDH = 0x00;
  2217  0004B0  0E00               	movlw	0
  2218  0004B2  6F60               	movwf	96,b	;volatile
  2219                           
  2220                           ;mcc_generated_files/ecan.c: 185:     RXF12SIDL = 0x00;
  2221  0004B4  0E00               	movlw	0
  2222  0004B6  6F61               	movwf	97,b	;volatile
  2223                           
  2224                           ;mcc_generated_files/ecan.c: 186:     RXF13EIDH = 0x00;
  2225  0004B8  0E00               	movlw	0
  2226  0004BA  6F66               	movwf	102,b	;volatile
  2227                           
  2228                           ;mcc_generated_files/ecan.c: 187:     RXF13EIDL = 0x00;
  2229  0004BC  0E00               	movlw	0
  2230  0004BE  6F67               	movwf	103,b	;volatile
  2231                           
  2232                           ;mcc_generated_files/ecan.c: 188:     RXF13SIDH = 0x00;
  2233  0004C0  0E00               	movlw	0
  2234  0004C2  6F64               	movwf	100,b	;volatile
  2235                           
  2236                           ;mcc_generated_files/ecan.c: 189:     RXF13SIDL = 0x00;
  2237  0004C4  0E00               	movlw	0
  2238  0004C6  6F65               	movwf	101,b	;volatile
  2239                           
  2240                           ;mcc_generated_files/ecan.c: 190:     RXF14EIDH = 0x00;
  2241  0004C8  0E00               	movlw	0
  2242  0004CA  6F6A               	movwf	106,b	;volatile
  2243                           
  2244                           ;mcc_generated_files/ecan.c: 191:     RXF14EIDL = 0x00;
  2245  0004CC  0E00               	movlw	0
  2246  0004CE  6F6B               	movwf	107,b	;volatile
  2247                           
  2248                           ;mcc_generated_files/ecan.c: 192:     RXF14SIDH = 0x00;
  2249  0004D0  0E00               	movlw	0
  2250  0004D2  6F68               	movwf	104,b	;volatile
  2251                           
  2252                           ;mcc_generated_files/ecan.c: 193:     RXF14SIDL = 0x00;
  2253  0004D4  0E00               	movlw	0
  2254  0004D6  6F69               	movwf	105,b	;volatile
  2255                           
  2256                           ;mcc_generated_files/ecan.c: 194:     RXF15EIDH = 0x00;
  2257  0004D8  0E00               	movlw	0
  2258  0004DA  6F6E               	movwf	110,b	;volatile
  2259                           
  2260                           ;mcc_generated_files/ecan.c: 195:     RXF15EIDL = 0x00;
  2261  0004DC  0E00               	movlw	0
  2262  0004DE  6F6F               	movwf	111,b	;volatile
  2263                           
  2264                           ;mcc_generated_files/ecan.c: 196:     RXF15SIDH = 0x00;
  2265  0004E0  0E00               	movlw	0
  2266  0004E2  6F6C               	movwf	108,b	;volatile
  2267                           
  2268                           ;mcc_generated_files/ecan.c: 197:     RXF15SIDL = 0x00;
  2269  0004E4  0E00               	movlw	0
  2270  0004E6  6F6D               	movwf	109,b	;volatile
  2271                           
  2272                           ;mcc_generated_files/ecan.c: 212:     BRGCON1 = 0x13;
  2273  0004E8  0E13               	movlw	19
  2274  0004EA  6F43               	movwf	67,b	;volatile
  2275                           
  2276                           ;mcc_generated_files/ecan.c: 213:     BRGCON2 = 0xA8;
  2277  0004EC  0EA8               	movlw	168
  2278  0004EE  6F44               	movwf	68,b	;volatile
  2279                           
  2280                           ;mcc_generated_files/ecan.c: 214:     BRGCON3 = 0x01;
  2281  0004F0  0E01               	movlw	1
  2282  0004F2  6F45               	movwf	69,b	;volatile
  2283  0004F4                     
  2284                           ; BSR set to: 14
  2285                           ;mcc_generated_files/ecan.c: 216:     ECAN_SetWakeUpInterruptHandler(WakeUpDefaultInterr
      +                          uptHandler);
  2286  0004F4  0E58               	movlw	low _WakeUpDefaultInterruptHandler
  2287  0004F6  6E28               	movwf	ECAN_SetWakeUpInterruptHandler@handler^0,c
  2288  0004F8  0E08               	movlw	high _WakeUpDefaultInterruptHandler
  2289  0004FA  6E29               	movwf	(ECAN_SetWakeUpInterruptHandler@handler+1)^0,c
  2290  0004FC  EC25  F004         	call	_ECAN_SetWakeUpInterruptHandler	;wreg free
  2291  000500                     
  2292                           ;mcc_generated_files/ecan.c: 217:     PIR5bits.WAKIF = 0;
  2293  000500  9C77               	bcf	119,6,c	;volatile
  2294  000502                     
  2295                           ;mcc_generated_files/ecan.c: 218:     PIE5bits.WAKIE = 1;
  2296  000502  8C76               	bsf	118,6,c	;volatile
  2297  000504                     
  2298                           ;mcc_generated_files/ecan.c: 220:     CANCON = 0x00;
  2299  000504  0E00               	movlw	0
  2300  000506  6E6F               	movwf	111,c	;volatile
  2301  000508                     l2120:
  2302  000508  CF6E F02A          	movff	3950,??_ECAN_Initialize	;volatile
  2303  00050C  0EE0               	movlw	224
  2304  00050E  162A               	andwf	??_ECAN_Initialize^0,f,c
  2305  000510  A4D8               	btfss	status,2,c
  2306  000512  EF8D  F002         	goto	u381
  2307  000516  EF8F  F002         	goto	u380
  2308  00051A                     u381:
  2309  00051A  EF84  F002         	goto	l2120
  2310  00051E                     u380:
  2311  00051E  0012               	return		;funcret
  2312  000520                     __end_of_ECAN_Initialize:
  2313                           	callstack 0
  2314                           
  2315 ;; *************** function _ECAN_SetWakeUpInterruptHandler *****************
  2316 ;; Defined at:
  2317 ;;		line 497 in file "mcc_generated_files/ecan.c"
  2318 ;; Parameters:    Size  Location     Type
  2319 ;;  handler         2    2[COMRAM] PTR FTN()void 
  2320 ;;		 -> WakeUpDefaultInterruptHandler(1), 
  2321 ;; Auto vars:     Size  Location     Type
  2322 ;;		None
  2323 ;; Return value:  Size  Location     Type
  2324 ;;                  1    wreg      void 
  2325 ;; Registers used:
  2326 ;;		wreg, status,2, status,0
  2327 ;; Tracked objects:
  2328 ;;		On entry : 0/0
  2329 ;;		On exit  : 0/0
  2330 ;;		Unchanged: 0/0
  2331 ;; Data sizes:     COMRAM   BANK0   BANK1   BANK2   BANK3   BANK4   BANK5   BANK6   BANK7   BANK8   BANK9  BANK10  BANK1
      +1  BANK12  BANK13  BANK14
  2332 ;;      Params:         2       0       0       0       0       0       0       0       0       0       0       0       
      +0       0       0       0
  2333 ;;      Locals:         0       0       0       0       0       0       0       0       0       0       0       0       
      +0       0       0       0
  2334 ;;      Temps:          0       0       0       0       0       0       0       0       0       0       0       0       
      +0       0       0       0
  2335 ;;      Totals:         2       0       0       0       0       0       0       0       0       0       0       0       
      +0       0       0       0
  2336 ;;Total ram usage:        2 bytes
  2337 ;; Hardware stack levels used: 1
  2338 ;; Hardware stack levels required when called: 3
  2339 ;; This function calls:
  2340 ;;		Nothing
  2341 ;; This function is called by:
  2342 ;;		_ECAN_Initialize
  2343 ;; This function uses a non-reentrant model
  2344 ;;
  2345                           
  2346                           	psect	text14
  2347  00084A                     __ptext14:
  2348                           	callstack 0
  2349  00084A                     _ECAN_SetWakeUpInterruptHandler:
  2350                           	callstack 25
  2351  00084A                     
  2352                           ;mcc_generated_files/ecan.c: 497: void ECAN_SetWakeUpInterruptHandler(void (*handler)(vo
      +                          id));mcc_generated_files/ecan.c: 498: {;mcc_generated_files/ecan.c: 499:     WakeUpInter
      +                          ruptHandler = handler;
  2353  00084A  C028  F007         	movff	ECAN_SetWakeUpInterruptHandler@handler,_WakeUpInterruptHandler
  2354  00084E  C029  F008         	movff	ECAN_SetWakeUpInterruptHandler@handler+1,_WakeUpInterruptHandler+1
  2355  000852  0012               	return		;funcret
  2356  000854                     __end_of_ECAN_SetWakeUpInterruptHandler:
  2357                           	callstack 0
  2358                           
  2359 ;; *************** function _INTERRUPT_InterruptManager *****************
  2360 ;; Defined at:
  2361 ;;		line 58 in file "mcc_generated_files/interrupt_manager.c"
  2362 ;; Parameters:    Size  Location     Type
  2363 ;;		None
  2364 ;; Auto vars:     Size  Location     Type
  2365 ;;		None
  2366 ;; Return value:  Size  Location     Type
  2367 ;;                  1    wreg      void 
  2368 ;; Registers used:
  2369 ;;		wreg, pcl, pclath, pclatu, tosl, cstack
  2370 ;; Tracked objects:
  2371 ;;		On entry : 0/0
  2372 ;;		On exit  : 0/0
  2373 ;;		Unchanged: 0/0
  2374 ;; Data sizes:     COMRAM   BANK0   BANK1   BANK2   BANK3   BANK4   BANK5   BANK6   BANK7   BANK8   BANK9  BANK10  BANK1
      +1  BANK12  BANK13  BANK14
  2375 ;;      Params:         0       0       0       0       0       0       0       0       0       0       0       0       
      +0       0       0       0
  2376 ;;      Locals:         0       0       0       0       0       0       0       0       0       0       0       0       
      +0       0       0       0
  2377 ;;      Temps:          2       0       0       0       0       0       0       0       0       0       0       0       
      +0       0       0       0
  2378 ;;      Totals:         2       0       0       0       0       0       0       0       0       0       0       0       
      +0       0       0       0
  2379 ;;Total ram usage:        2 bytes
  2380 ;; Hardware stack levels used: 1
  2381 ;; Hardware stack levels required when called: 2
  2382 ;; This function calls:
  2383 ;;		_ECAN_WAKI_ISR
  2384 ;; This function is called by:
  2385 ;;		Interrupt level 2
  2386 ;; This function uses a non-reentrant model
  2387 ;;
  2388                           
  2389                           	psect	intcode
  2390  000008                     __pintcode:
  2391                           	callstack 0
  2392  000008                     _INTERRUPT_InterruptManager:
  2393                           	callstack 25
  2394                           
  2395                           ;incstack = 0
  2396  000008  824A               	bsf	int$flags,1,c	;set compiler interrupt flag (level 2)
  2397  00000A  CFFA F026          	movff	pclath,??_INTERRUPT_InterruptManager
  2398  00000E  CFFB F027          	movff	pclatu,??_INTERRUPT_InterruptManager+1
  2399  000012                     
  2400                           ;mcc_generated_files/interrupt_manager.c: 61:     if(INTCONbits.PEIE == 1)
  2401  000012  ACF2               	btfss	242,6,c	;volatile
  2402  000014  EF0E  F000         	goto	i2u15_41
  2403  000018  EF10  F000         	goto	i2u15_40
  2404  00001C                     i2u15_41:
  2405  00001C  EF20  F000         	goto	i2l110
  2406  000020                     i2u15_40:
  2407  000020                     
  2408                           ;mcc_generated_files/interrupt_manager.c: 62:     {;mcc_generated_files/interrupt_manage
      +                          r.c: 63:         if(PIE5bits.WAKIE == 1 && PIR5bits.WAKIF == 1)
  2409  000020  AC76               	btfss	118,6,c	;volatile
  2410  000022  EF15  F000         	goto	i2u16_41
  2411  000026  EF17  F000         	goto	i2u16_40
  2412  00002A                     i2u16_41:
  2413  00002A  EF20  F000         	goto	i2l110
  2414  00002E                     i2u16_40:
  2415  00002E  AC77               	btfss	119,6,c	;volatile
  2416  000030  EF1C  F000         	goto	i2u17_41
  2417  000034  EF1E  F000         	goto	i2u17_40
  2418  000038                     i2u17_41:
  2419  000038  EF20  F000         	goto	i2l110
  2420  00003C                     i2u17_40:
  2421  00003C                     
  2422                           ;mcc_generated_files/interrupt_manager.c: 64:         {;mcc_generated_files/interrupt_ma
      +                          nager.c: 65:             ECAN_WAKI_ISR();
  2423  00003C  ECE6  F003         	call	_ECAN_WAKI_ISR	;wreg free
  2424  000040                     i2l110:
  2425  000040  C027  FFFB         	movff	??_INTERRUPT_InterruptManager+1,pclatu
  2426  000044  C026  FFFA         	movff	??_INTERRUPT_InterruptManager,pclath
  2427  000048  924A               	bcf	int$flags,1,c	;clear compiler interrupt flag (level 2)
  2428  00004A  0011               	retfie		f
  2429  00004C                     __end_of_INTERRUPT_InterruptManager:
  2430                           	callstack 0
  2431                           
  2432 ;; *************** function _ECAN_WAKI_ISR *****************
  2433 ;; Defined at:
  2434 ;;		line 502 in file "mcc_generated_files/ecan.c"
  2435 ;; Parameters:    Size  Location     Type
  2436 ;;		None
  2437 ;; Auto vars:     Size  Location     Type
  2438 ;;		None
  2439 ;; Return value:  Size  Location     Type
  2440 ;;                  1    wreg      void 
  2441 ;; Registers used:
  2442 ;;		wreg, pcl, pclath, pclatu, tosl, cstack
  2443 ;; Tracked objects:
  2444 ;;		On entry : 0/0
  2445 ;;		On exit  : 0/0
  2446 ;;		Unchanged: 0/0
  2447 ;; Data sizes:     COMRAM   BANK0   BANK1   BANK2   BANK3   BANK4   BANK5   BANK6   BANK7   BANK8   BANK9  BANK10  BANK1
      +1  BANK12  BANK13  BANK14
  2448 ;;      Params:         0       0       0       0       0       0       0       0       0       0       0       0       
      +0       0       0       0
  2449 ;;      Locals:         0       0       0       0       0       0       0       0       0       0       0       0       
      +0       0       0       0
  2450 ;;      Temps:          0       0       0       0       0       0       0       0       0       0       0       0       
      +0       0       0       0
  2451 ;;      Totals:         0       0       0       0       0       0       0       0       0       0       0       0       
      +0       0       0       0
  2452 ;;Total ram usage:        0 bytes
  2453 ;; Hardware stack levels used: 1
  2454 ;; Hardware stack levels required when called: 1
  2455 ;; This function calls:
  2456 ;;		Absolute function
  2457 ;;		_WakeUpDefaultInterruptHandler
  2458 ;; This function is called by:
  2459 ;;		_INTERRUPT_InterruptManager
  2460 ;; This function uses a non-reentrant model
  2461 ;;
  2462                           
  2463                           	psect	text16
  2464  0007CC                     __ptext16:
  2465                           	callstack 0
  2466  0007CC                     _ECAN_WAKI_ISR:
  2467                           	callstack 25
  2468  0007CC                     
  2469                           ;mcc_generated_files/ecan.c: 504:     WakeUpInterruptHandler();
  2470  0007CC  D802               	call	i2u10_48
  2471  0007CE  EFF3  F003         	goto	i2u10_49
  2472  0007D2                     i2u10_48:
  2473  0007D2  0005               	push	
  2474  0007D4  6EFA               	movwf	pclath,c
  2475  0007D6  5007               	movf	_WakeUpInterruptHandler^0,w,c
  2476  0007D8  6EFD               	movwf	tosl,c
  2477  0007DA  5008               	movf	(_WakeUpInterruptHandler+1)^0,w,c
  2478  0007DC  6EFE               	movwf	tosh,c
  2479  0007DE  50F8               	movf	tblptru,w,c
  2480  0007E0  6EFF               	movwf	tosu,c
  2481  0007E2  50FA               	movf	pclath,w,c
  2482  0007E4  0012               	return		;indir
  2483  0007E6                     i2u10_49:
  2484  0007E6                     
  2485                           ;mcc_generated_files/ecan.c: 505:     PIR5bits.WAKIF = 0;
  2486  0007E6  9C77               	bcf	119,6,c	;volatile
  2487  0007E8  0012               	return		;funcret
  2488  0007EA                     __end_of_ECAN_WAKI_ISR:
  2489                           	callstack 0
  2490                           
  2491 ;; *************** function _WakeUpDefaultInterruptHandler *****************
  2492 ;; Defined at:
  2493 ;;		line 63 in file "mcc_generated_files/ecan.c"
  2494 ;; Parameters:    Size  Location     Type
  2495 ;;		None
  2496 ;; Auto vars:     Size  Location     Type
  2497 ;;		None
  2498 ;; Return value:  Size  Location     Type
  2499 ;;                  1    wreg      void 
  2500 ;; Registers used:
  2501 ;;		None
  2502 ;; Tracked objects:
  2503 ;;		On entry : 0/0
  2504 ;;		On exit  : 0/0
  2505 ;;		Unchanged: 0/0
  2506 ;; Data sizes:     COMRAM   BANK0   BANK1   BANK2   BANK3   BANK4   BANK5   BANK6   BANK7   BANK8   BANK9  BANK10  BANK1
      +1  BANK12  BANK13  BANK14
  2507 ;;      Params:         0       0       0       0       0       0       0       0       0       0       0       0       
      +0       0       0       0
  2508 ;;      Locals:         0       0       0       0       0       0       0       0       0       0       0       0       
      +0       0       0       0
  2509 ;;      Temps:          0       0       0       0       0       0       0       0       0       0       0       0       
      +0       0       0       0
  2510 ;;      Totals:         0       0       0       0       0       0       0       0       0       0       0       0       
      +0       0       0       0
  2511 ;;Total ram usage:        0 bytes
  2512 ;; Hardware stack levels used: 1
  2513 ;; This function calls:
  2514 ;;		Nothing
  2515 ;; This function is called by:
  2516 ;;		_ECAN_Initialize
  2517 ;;		_ECAN_WAKI_ISR
  2518 ;; This function uses a non-reentrant model
  2519 ;;
  2520                           
  2521                           	psect	text17
  2522  000858                     __ptext17:
  2523                           	callstack 0
  2524  000858                     _WakeUpDefaultInterruptHandler:
  2525                           	callstack 25
  2526  000858  0012               	return		;funcret
  2527  00085A                     __end_of_WakeUpDefaultInterruptHandler:
  2528                           	callstack 0
  2529  0000                     
  2530                           	psect	text18
  2531  000000                     __ptext18:
  2532                           	callstack 0
  2533  000000                     
  2534                           	psect	rparam
  2535  0000                     
  2536                           	psect	temp
  2537  00004A                     btemp:
  2538                           	callstack 0
  2539  00004A                     	ds	1
  2540  0000                     int$flags	set	btemp
  2541  0000                     wtemp8	set	btemp+1
  2542  0000                     ttemp5	set	btemp+1
  2543  0000                     ttemp6	set	btemp+4
  2544  0000                     ttemp7	set	btemp+8
  2545                           
  2546                           	psect	idloc
  2547                           
  2548                           ;Config register IDLOC0 @ 0x200000
  2549                           ;	unspecified, using default values
  2550  200000                     	org	2097152
  2551  200000  FF                 	db	255
  2552                           
  2553                           ;Config register IDLOC1 @ 0x200001
  2554                           ;	unspecified, using default values
  2555  200001                     	org	2097153
  2556  200001  FF                 	db	255
  2557                           
  2558                           ;Config register IDLOC2 @ 0x200002
  2559                           ;	unspecified, using default values
  2560  200002                     	org	2097154
  2561  200002  FF                 	db	255
  2562                           
  2563                           ;Config register IDLOC3 @ 0x200003
  2564                           ;	unspecified, using default values
  2565  200003                     	org	2097155
  2566  200003  FF                 	db	255
  2567                           
  2568                           ;Config register IDLOC4 @ 0x200004
  2569                           ;	unspecified, using default values
  2570  200004                     	org	2097156
  2571  200004  FF                 	db	255
  2572                           
  2573                           ;Config register IDLOC5 @ 0x200005
  2574                           ;	unspecified, using default values
  2575  200005                     	org	2097157
  2576  200005  FF                 	db	255
  2577                           
  2578                           ;Config register IDLOC6 @ 0x200006
  2579                           ;	unspecified, using default values
  2580  200006                     	org	2097158
  2581  200006  FF                 	db	255
  2582                           
  2583                           ;Config register IDLOC7 @ 0x200007
  2584                           ;	unspecified, using default values
  2585  200007                     	org	2097159
  2586  200007  FF                 	db	255
  2587                           
  2588                           	psect	config
  2589                           
  2590                           ;Config register CONFIG1L @ 0x300000
  2591                           ;	VREG Sleep Enable bit
  2592                           ;	RETEN = OFF, Ultra low-power regulator is Disabled (Controlled by REGSLP bit)
  2593                           ;	LF-INTOSC Low-power Enable bit
  2594                           ;	INTOSCSEL = HIGH, LF-INTOSC in High-power mode during Sleep
  2595                           ;	SOSC Power Selection and mode Configuration bits
  2596                           ;	SOSCSEL = DIG, Digital (SCLKI) mode
  2597                           ;	Extended Instruction Set
  2598                           ;	XINST = OFF, Disabled
  2599  300000                     	org	3145728
  2600  300000  15                 	db	21
  2601                           
  2602                           ;Config register CONFIG1H @ 0x300001
  2603                           ;	Oscillator
  2604                           ;	FOSC = HS2, HS oscillator (High power, 16 MHz - 25 MHz)
  2605                           ;	PLL x4 Enable bit
  2606                           ;	PLLCFG = OFF, Disabled
  2607                           ;	Fail-Safe Clock Monitor
  2608                           ;	FCMEN = OFF, Disabled
  2609                           ;	Internal External Oscillator Switch Over Mode
  2610                           ;	IESO = OFF, Disabled
  2611  300001                     	org	3145729
  2612  300001  02                 	db	2
  2613                           
  2614                           ;Config register CONFIG2L @ 0x300002
  2615                           ;	Power Up Timer
  2616                           ;	PWRTEN = OFF, Disabled
  2617                           ;	Brown Out Detect
  2618                           ;	BOREN = SBORDIS, Enabled in hardware, SBOREN disabled
  2619                           ;	Brown-out Reset Voltage bits
  2620                           ;	BORV = 3, 1.8V
  2621                           ;	BORMV Power level
  2622                           ;	BORPWR = ZPBORMV, ZPBORMV instead of BORMV is selected
  2623  300002                     	org	3145730
  2624  300002  7F                 	db	127
  2625                           
  2626                           ;Config register CONFIG2H @ 0x300003
  2627                           ;	Watchdog Timer
  2628                           ;	WDTEN = OFF, WDT disabled in hardware; SWDTEN bit disabled
  2629                           ;	Watchdog Postscaler
  2630                           ;	WDTPS = 1048576, 1:1048576
  2631  300003                     	org	3145731
  2632  300003  7C                 	db	124
  2633                           
  2634                           ; Padding undefined space
  2635  300004                     	org	3145732
  2636  300004  FF                 	db	255
  2637                           
  2638                           ;Config register CONFIG3H @ 0x300005
  2639                           ;	ECAN Mux bit
  2640                           ;	CANMX = PORTB, ECAN TX and RX pins are located on RB2 and RB3, respectively
  2641                           ;	MSSP address masking
  2642                           ;	MSSPMSK = MSK7, 7 Bit address masking mode
  2643                           ;	Master Clear Enable
  2644                           ;	MCLRE = ON, MCLR Enabled, RE3 Disabled
  2645  300005                     	org	3145733
  2646  300005  89                 	db	137
  2647                           
  2648                           ;Config register CONFIG4L @ 0x300006
  2649                           ;	Stack Overflow Reset
  2650                           ;	STVREN = ON, Enabled
  2651                           ;	Boot Block Size
  2652                           ;	BBSIZ = BB2K, 2K word Boot Block size
  2653  300006                     	org	3145734
  2654  300006  91                 	db	145
  2655                           
  2656                           ; Padding undefined space
  2657  300007                     	org	3145735
  2658  300007  FF                 	db	255
  2659                           
  2660                           ;Config register CONFIG5L @ 0x300008
  2661                           ;	Code Protect 00800-03FFF
  2662                           ;	CP0 = OFF, Disabled
  2663                           ;	Code Protect 04000-07FFF
  2664                           ;	CP1 = OFF, Disabled
  2665                           ;	Code Protect 08000-0BFFF
  2666                           ;	CP2 = OFF, Disabled
  2667                           ;	Code Protect 0C000-0FFFF
  2668                           ;	CP3 = OFF, Disabled
  2669  300008                     	org	3145736
  2670  300008  0F                 	db	15
  2671                           
  2672                           ;Config register CONFIG5H @ 0x300009
  2673                           ;	Code Protect Boot
  2674                           ;	CPB = OFF, Disabled
  2675                           ;	Data EE Read Protect
  2676                           ;	CPD = OFF, Disabled
  2677  300009                     	org	3145737
  2678  300009  C0                 	db	192
  2679                           
  2680                           ;Config register CONFIG6L @ 0x30000A
  2681                           ;	Table Write Protect 00800-03FFF
  2682                           ;	WRT0 = OFF, Disabled
  2683                           ;	Table Write Protect 04000-07FFF
  2684                           ;	WRT1 = OFF, Disabled
  2685                           ;	Table Write Protect 08000-0BFFF
  2686                           ;	WRT2 = OFF, Disabled
  2687                           ;	Table Write Protect 0C000-0FFFF
  2688                           ;	WRT3 = OFF, Disabled
  2689  30000A                     	org	3145738
  2690  30000A  0F                 	db	15
  2691                           
  2692                           ;Config register CONFIG6H @ 0x30000B
  2693                           ;	Config. Write Protect
  2694                           ;	WRTC = OFF, Disabled
  2695                           ;	Table Write Protect Boot
  2696                           ;	WRTB = OFF, Disabled
  2697                           ;	Data EE Write Protect
  2698                           ;	WRTD = OFF, Disabled
  2699  30000B                     	org	3145739
  2700  30000B  E0                 	db	224
  2701                           
  2702                           ;Config register CONFIG7L @ 0x30000C
  2703                           ;	Table Read Protect 00800-03FFF
  2704                           ;	EBTR0 = OFF, Disabled
  2705                           ;	Table Read Protect 04000-07FFF
  2706                           ;	EBTR1 = OFF, Disabled
  2707                           ;	Table Read Protect 08000-0BFFF
  2708                           ;	EBTR2 = OFF, Disabled
  2709                           ;	Table Read Protect 0C000-0FFFF
  2710                           ;	EBTR3 = OFF, Disabled
  2711  30000C                     	org	3145740
  2712  30000C  0F                 	db	15
  2713                           
  2714                           ;Config register CONFIG7H @ 0x30000D
  2715                           ;	Table Read Protect Boot
  2716                           ;	EBTRB = OFF, Disabled
  2717  30000D                     	org	3145741
  2718  30000D  40                 	db	64
  2719                           tosu	equ	0xFFF
  2720                           tosh	equ	0xFFE
  2721                           tosl	equ	0xFFD
  2722                           stkptr	equ	0xFFC
  2723                           pclatu	equ	0xFFB
  2724                           pclath	equ	0xFFA
  2725                           pcl	equ	0xFF9
  2726                           tblptru	equ	0xFF8
  2727                           tblptrh	equ	0xFF7
  2728                           tblptrl	equ	0xFF6
  2729                           tablat	equ	0xFF5
  2730                           prodh	equ	0xFF4
  2731                           prodl	equ	0xFF3
  2732                           indf0	equ	0xFEF
  2733                           postinc0	equ	0xFEE
  2734                           postdec0	equ	0xFED
  2735                           preinc0	equ	0xFEC
  2736                           plusw0	equ	0xFEB
  2737                           fsr0h	equ	0xFEA
  2738                           fsr0l	equ	0xFE9
  2739                           wreg	equ	0xFE8
  2740                           indf1	equ	0xFE7
  2741                           postinc1	equ	0xFE6
  2742                           postdec1	equ	0xFE5
  2743                           preinc1	equ	0xFE4
  2744                           plusw1	equ	0xFE3
  2745                           fsr1h	equ	0xFE2
  2746                           fsr1l	equ	0xFE1
  2747                           bsr	equ	0xFE0
  2748                           indf2	equ	0xFDF
  2749                           postinc2	equ	0xFDE
  2750                           postdec2	equ	0xFDD
  2751                           preinc2	equ	0xFDC
  2752                           plusw2	equ	0xFDB
  2753                           fsr2h	equ	0xFDA
  2754                           fsr2l	equ	0xFD9
  2755                           status	equ	0xFD8

Data Sizes:
    Strings     0
    Constant    0
    Data        0
    BSS         37
    Persistent  6
    Stack       0

Auto Spaces:
    Space          Size  Autos    Used
    COMRAM           94     30      73
    BANK0           160      0       0
    BANK1           256      0       0
    BANK2           256      0       0
    BANK3           256      0       0
    BANK4           256      0       0
    BANK5           256      0       0
    BANK6           256      0       0
    BANK7           256      0       0
    BANK8           256      0       0
    BANK9           256      0       0
    BANK10          256      0       0
    BANK11          256      0       0
    BANK12          256      0       0
    BANK13          256      0       0
    BANK14           65      0       0

Pointer List with Targets:

    ECAN_SetWakeUpInterruptHandler@handler	PTR FTN()void  size(2) Largest target is 1
		 -> WakeUpDefaultInterruptHandler(), 

    WakeUpInterruptHandler	PTR FTN()void  size(2) Largest target is 1
		 -> Absolute function(), WakeUpDefaultInterruptHandler(), 

    convertCANid2Reg@passedInSIDH	PTR unsigned char  size(2) Largest target is 1
		 -> CAN_transmit@tempSIDH(COMRAM[1]), 

    convertCANid2Reg@passedInSIDL	PTR unsigned char  size(2) Largest target is 1
		 -> CAN_transmit@tempSIDL(COMRAM[1]), 

    convertCANid2Reg@passedInEIDH	PTR unsigned char  size(2) Largest target is 1
		 -> CAN_transmit@tempEIDH(COMRAM[1]), 

    convertCANid2Reg@passedInEIDL	PTR unsigned char  size(2) Largest target is 1
		 -> CAN_transmit@tempEIDL(COMRAM[1]), 

    CAN_transmit@tempCanMsg	PTR struct . size(2) Largest target is 14
		 -> tx2(COMRAM[14]), tx1(COMRAM[14]), 

    EUSART1_SetErrorHandler@interruptHandler	PTR FTN()void  size(2) Largest target is 1
		 -> EUSART1_DefaultErrorHandler(), 

    EUSART1_ErrorHandler	PTR FTN()void  size(2) Largest target is 1
		 -> Absolute function(), EUSART1_DefaultErrorHandler(), 

    EUSART1_SetOverrunErrorHandler@interruptHandler	PTR FTN()void  size(2) Largest target is 1
		 -> EUSART1_DefaultOverrunErrorHandler(), 

    EUSART1_OverrunErrorHandler	PTR FTN()void  size(2) Largest target is 1
		 -> Absolute function(), EUSART1_DefaultOverrunErrorHandler(), 

    EUSART1_SetFramingErrorHandler@interruptHandler	PTR FTN()void  size(2) Largest target is 1
		 -> EUSART1_DefaultFramingErrorHandler(), 

    EUSART1_FramingErrorHandler	PTR FTN()void  size(2) Largest target is 1
		 -> Absolute function(), EUSART1_DefaultFramingErrorHandler(), 


Critical Paths under _main in COMRAM

    _main->_canLeftSignal
    _main->_canRightSignal
    _canRightSignal->_CAN_transmit
    _canLeftSignal->_CAN_transmit
    _CAN_transmit->_convertCANid2Reg
    _SYSTEM_Initialize->_ECAN_Initialize
    _EUSART1_Initialize->_EUSART1_SetErrorHandler
    _EUSART1_Initialize->_EUSART1_SetFramingErrorHandler
    _EUSART1_Initialize->_EUSART1_SetOverrunErrorHandler
    _ECAN_Initialize->_ECAN_SetWakeUpInterruptHandler

Critical Paths under _INTERRUPT_InterruptManager in COMRAM

    None.

Critical Paths under _main in BANK0

    None.

Critical Paths under _INTERRUPT_InterruptManager in BANK0

    None.

Critical Paths under _main in BANK1

    None.

Critical Paths under _INTERRUPT_InterruptManager in BANK1

    None.

Critical Paths under _main in BANK2

    None.

Critical Paths under _INTERRUPT_InterruptManager in BANK2

    None.

Critical Paths under _main in BANK3

    None.

Critical Paths under _INTERRUPT_InterruptManager in BANK3

    None.

Critical Paths under _main in BANK4

    None.

Critical Paths under _INTERRUPT_InterruptManager in BANK4

    None.

Critical Paths under _main in BANK5

    None.

Critical Paths under _INTERRUPT_InterruptManager in BANK5

    None.

Critical Paths under _main in BANK6

    None.

Critical Paths under _INTERRUPT_InterruptManager in BANK6

    None.

Critical Paths under _main in BANK7

    None.

Critical Paths under _INTERRUPT_InterruptManager in BANK7

    None.

Critical Paths under _main in BANK8

    None.

Critical Paths under _INTERRUPT_InterruptManager in BANK8

    None.

Critical Paths under _main in BANK9

    None.

Critical Paths under _INTERRUPT_InterruptManager in BANK9

    None.

Critical Paths under _main in BANK10

    None.

Critical Paths under _INTERRUPT_InterruptManager in BANK10

    None.

Critical Paths under _main in BANK11

    None.

Critical Paths under _INTERRUPT_InterruptManager in BANK11

    None.

Critical Paths under _main in BANK12

    None.

Critical Paths under _INTERRUPT_InterruptManager in BANK12

    None.

Critical Paths under _main in BANK13

    None.

Critical Paths under _INTERRUPT_InterruptManager in BANK13

    None.

Critical Paths under _main in BANK14

    None.

Critical Paths under _INTERRUPT_InterruptManager in BANK14

    None.

Call Graph Tables:

 ---------------------------------------------------------------------------------
 (Depth) Function   	        Calls       Base Space   Used Autos Params    Refs
 ---------------------------------------------------------------------------------
 (0) _main                                                 2     2      0    7468
                                             28 COMRAM     2     2      0
                  _SYSTEM_Initialize
                      _canLeftSignal
                     _canRightSignal
 ---------------------------------------------------------------------------------
 (1) _canRightSignal                                       2     0      2    3538
                                             26 COMRAM     2     0      2
                       _CAN_transmit
 ---------------------------------------------------------------------------------
 (1) _canLeftSignal                                        2     0      2    3538
                                             26 COMRAM     2     0      2
                       _CAN_transmit
 ---------------------------------------------------------------------------------
 (2) _CAN_transmit                                         7     5      2    3364
                                             20 COMRAM     6     4      2
                   _convertCANid2Reg
 ---------------------------------------------------------------------------------
 (3) _convertCANid2Reg                                    18     5     13    1928
                                              2 COMRAM    18     5     13
 ---------------------------------------------------------------------------------
 (1) _SYSTEM_Initialize                                    0     0      0     392
                    _ECAN_Initialize
                 _EUSART1_Initialize
               _INTERRUPT_Initialize
              _OSCILLATOR_Initialize
             _PIN_MANAGER_Initialize
 ---------------------------------------------------------------------------------
 (2) _PIN_MANAGER_Initialize                               0     0      0       0
 ---------------------------------------------------------------------------------
 (2) _OSCILLATOR_Initialize                                0     0      0       0
 ---------------------------------------------------------------------------------
 (2) _INTERRUPT_Initialize                                 0     0      0       0
 ---------------------------------------------------------------------------------
 (2) _EUSART1_Initialize                                   0     0      0     294
            _EUSART1_SetErrorHandler
     _EUSART1_SetFramingErrorHandler
     _EUSART1_SetOverrunErrorHandler
 ---------------------------------------------------------------------------------
 (3) _EUSART1_SetOverrunErrorHandler                       2     0      2      98
                                              2 COMRAM     2     0      2
 ---------------------------------------------------------------------------------
 (3) _EUSART1_SetFramingErrorHandler                       2     0      2      98
                                              2 COMRAM     2     0      2
 ---------------------------------------------------------------------------------
 (3) _EUSART1_SetErrorHandler                              2     0      2      98
                                              2 COMRAM     2     0      2
 ---------------------------------------------------------------------------------
 (2) _ECAN_Initialize                                      1     1      0      98
                                              4 COMRAM     1     1      0
     _ECAN_SetWakeUpInterruptHandler
 ---------------------------------------------------------------------------------
 (3) _ECAN_SetWakeUpInterruptHandler                       2     0      2      98
                                              2 COMRAM     2     0      2
 ---------------------------------------------------------------------------------
 Estimated maximum stack depth 3
 ---------------------------------------------------------------------------------
 (Depth) Function   	        Calls       Base Space   Used Autos Params    Refs
 ---------------------------------------------------------------------------------
 (4) _INTERRUPT_InterruptManager                           2     2      0       0
                                              0 COMRAM     2     2      0
                      _ECAN_WAKI_ISR
 ---------------------------------------------------------------------------------
 (5) _ECAN_WAKI_ISR                                        0     0      0       0
                   Absolute function *
      _WakeUpDefaultInterruptHandler *
 ---------------------------------------------------------------------------------
 (6) _WakeUpDefaultInterruptHandler                        0     0      0       0
 ---------------------------------------------------------------------------------
 (6) Absolute function(Fake)                               0     0      0       0
 ---------------------------------------------------------------------------------
 Estimated maximum stack depth 6
 ---------------------------------------------------------------------------------

 Call Graph Graphs:

 _main (ROOT)
   _SYSTEM_Initialize
     _ECAN_Initialize
       _ECAN_SetWakeUpInterruptHandler
     _EUSART1_Initialize
       _EUSART1_SetErrorHandler
       _EUSART1_SetFramingErrorHandler
       _EUSART1_SetOverrunErrorHandler
     _INTERRUPT_Initialize
     _OSCILLATOR_Initialize
     _PIN_MANAGER_Initialize
   _canLeftSignal
     _CAN_transmit
       _convertCANid2Reg
   _canRightSignal
     _CAN_transmit

 _INTERRUPT_InterruptManager (ROOT)
   _ECAN_WAKI_ISR
     Absolute function(Fake) *
     _WakeUpDefaultInterruptHandler *

 Address spaces:
Name               Size   Autos  Total    Cost      Usage
BIGRAM             E40      0       0      56        0.0%
EEDATA             400      0       0       0        0.0%
BITBANK13          100      0       0      53        0.0%
BANK13             100      0       0      23        0.0%
BITBANK12          100      0       0      21        0.0%
BANK12             100      0       0      22        0.0%
BITBANK11          100      0       0      52        0.0%
BANK11             100      0       0      20        0.0%
BITBANK10          100      0       0      51        0.0%
BANK10             100      0       0      19        0.0%
BITBANK9           100      0       0      50        0.0%
BANK9              100      0       0      18        0.0%
BITBANK8           100      0       0      49        0.0%
BANK8              100      0       0      17        0.0%
BITBANK7           100      0       0      48        0.0%
BANK7              100      0       0      16        0.0%
BITBANK6           100      0       0      47        0.0%
BANK6              100      0       0      15        0.0%
BITBANK5           100      0       0      46        0.0%
BANK5              100      0       0      14        0.0%
BITBANK4           100      0       0      12        0.0%
BANK4              100      0       0      13        0.0%
BITBANK3           100      0       0      10        0.0%
BANK3              100      0       0      11        0.0%
BITBANK2           100      0       0       8        0.0%
BANK2              100      0       0       9        0.0%
BITBANK1           100      0       0       6        0.0%
BANK1              100      0       0       7        0.0%
BITBANK0            A0      0       0       4        0.0%
BANK0               A0      0       0       5        0.0%
BITBIGSFRllllhl     62      0       0      42        0.0%
BITCOMRAM           5E      0       0       0        0.0%
COMRAM              5E     1E      49       1       77.7%
BITBANK14           41      0       0      54        0.0%
BANK14              41      0       0      55        0.0%
BITBIGSFRhhhl       20      0       0      27        0.0%
BITBIGSFRhhhhlh     1D      0       0      25        0.0%
BITBIGSFRllllhh     1D      0       0      38        0.0%
BITBIGSFRhhhhh       D      0       0      24        0.0%
BITBIGSFRlhlllh      8      0       0      33        0.0%
BITBIGSFRlhh         8      0       0      29        0.0%
BITBIGSFRllh         5      0       0      35        0.0%
BITBIGSFRlhlhll      4      0       0      32        0.0%
BITBIGSFRlllhhh      3      0       0      36        0.0%
BITBIGSFRlhlhhl      3      0       0      31        0.0%
BITBIGSFRhl          3      0       0      28        0.0%
BITBIGSFRlhlhhh      2      0       0      30        0.0%
BITBIGSFRllllhh      2      0       0      41        0.0%
BITBIGSFRllllhh      2      0       0      40        0.0%
BITBIGSFRllllhh      2      0       0      39        0.0%
BITBIGSFRlllhll      2      0       0      37        0.0%
BITBIGSFRlhllll      2      0       0      34        0.0%
BITBIGSFRllllll      2      0       0      44        0.0%
BITBIGSFRlllllh      1      0       0      43        0.0%
BITBIGSFRhhhhll      1      0       0      26        0.0%
BIGSFR               0      0       0     200        0.0%
BITSFR_2             0      0       0     200        0.0%
SFR_2                0      0       0     200        0.0%
BITSFR_1             0      0       0     200        0.0%
SFR_1                0      0       0     200        0.0%
BITSFR               0      0       0     200        0.0%
SFR                  0      0       0     200        0.0%
STACK                0      0       0       2        0.0%
NULL                 0      0       0       0        0.0%
ABS                  0      0      49      45        0.0%
DATA                 0      0      49       3        0.0%
CODE                 0      0       0       0        0.0%


Microchip Technology PIC18 Macro Assembler V2.35 build 20211206165544 
Symbol Table                                                                                   Sat Jul 23 17:49:00 2022

                                            l43 073E                                              l82 083E  
                                            l85 0834                                              l88 0848  
                                           l101 0856                                             l143 0776  
                                           l502 051E                                             l511 0164  
                                           l512 0368                                             l513 0266  
                                           l602 07CA                                             l516 0368  
                                           l554 0692                                             l557 0852  
                                           l581 0818                                             l584 082A  
                                           l599 07A0                                             u400 0172  
                                           u401 016E                                             u410 0274  
                                           u411 0270                                             u340 0532  
                                           u341 052E           ECAN_SetWakeUpInterruptHandler@handler 0028  
                                           u370 0382                                             u371 037E  
                                           u355 05BE                                             u427 06BC  
                                           u380 051E                                             u381 051A  
                                           u365 0662                                             u437 06EC  
                                           u390 0070                                             u391 006C  
                                           _tx1 0018                                             _tx2 000A  
                                           tosl 000FFD                                             wreg 000FE8  
                                    _TXSTA1bits 000FAC                                            l2100 0722  
                                          l2110 0382                                            l2102 072E  
                                          l2120 0508                                            l2112 04F4  
                                          l2104 073A                                            l2200 02D0  
                                          l2114 0500                                            l2106 036A  
                                          l2210 0322                                            l2202 02E2  
                                          l2130 00C0                                            l2122 0050  
                                          l2060 084A                                            l2116 0502  
                                          l2108 036E                                            l2212 0332  
                                          l2204 02F2                                            l2140 00EE  
                                          l2132 00C4                                            l2124 0060  
                                          l2118 0504                                            l2054 0836  
                                          l2230 0810                                            l2070 056C  
                                          l2062 0520                                            l2214 0342  
                                          l2206 0302                                            l2150 013E  
                                          l2142 00FE                                            l2134 00C8  
                                          l2126 0070                                            l2056 082C  
                                          l2232 0814                                            l2224 0804  
                                          l2080 05EC                                            l2072 05A6  
                                          l2064 0520                                            l2216 0352  
                                          l2208 0312                                            l2160 01BE  
                                          l2152 014E                                            l2144 010E  
                                          l2136 00CC                                            l2128 00BC  
                                          l2240 07A2                                            l2058 0840  
                                          l2226 0808                                            l2090 0682  
                                          l2082 05FA                                            l2074 05AC  
                                          l2066 0532                                            l2218 0362  
                                          l2170 01E0                                            l2162 01C2  
                                          l2154 015E                                            l2146 011E  
                                          l2138 00DE                                            l2242 07BA  
                                          l2234 0778                                            l2250 069A  
                                          l1460 0764                                            l2228 080C  
                                          l2084 0628                                            l2076 05DE  
                                          l2068 053E                                            l2180 0230  
                                          l2172 01F0                                            l2164 01C6  
                                          l2156 0160                                            l2148 012E  
                                          l2244 07BE                                            l2236 0790  
                                          l2260 06E2                                            l2252 06A6  
                                          l1462 0774                                            l2078 05E6  
                                          l2086 0638                                            l2190 0274  
                                          l2182 0240                                            l2174 0200  
                                          l2166 01CA                                            l2158 0172  
                                          l2238 0794                                            l2254 06B2  
                                          l2246 0694                                            l2096 0702  
                                          l1456 0854                                            l2088 0650  
                                          l2192 02C0                                            l2184 0250  
                                          l2176 0210                                            l2168 01CE  
                                          l2256 06CA                                            l2248 0698  
                                          l2098 0716                                            l1458 0740  
                                          l2194 02C4                                            l2186 0260  
                                          l2178 0220                                            l2258 06D6  
                                          l2196 02C8                                            l1582 081A  
                                          l2198 02CC                                            _LATA 000F89  
                                          _LATB 000F8A                                            _LATC 000F8B  
                                          _LATD 000F8C                                            _LATE 000F8D  
                                          _WPUB 000F5B                                            _main 0694  
                  convertCANid2Reg@passedInEIDH 002D                    convertCANid2Reg@passedInEIDL 002F  
                                          fsr2h 000FDA                                            indf2 000FDF  
                                          fsr2l 000FD9                                            btemp 004A  
                  convertCANid2Reg@passedInSIDH 0031                    convertCANid2Reg@passedInSIDL 0033  
                                          start 004C                                    ___param_bank 000000  
                 __end_of_OSCILLATOR_Initialize 082C                                           ?_main 0026  
                                         _BSEL0 000E7D                                           i2l110 0040  
                                         i2l560 07E8                                           i2l493 0858  
                                         _MSEL0 000E79                                           _MSEL1 000E7A  
                                         _MSEL2 000E7B                                           _MSEL3 000E7C  
                                         _TRISA 000F92                                           _TRISB 000F93  
                                         _TRISC 000F94                                           _TRISD 000F95  
                                         _TRISE 000F96                                    _b1FuncActive 0005  
                          __end_of_CAN_transmit 036A                                    _b2FuncActive 0003  
                                         pclath 000FFA                                           pclatu 000FFB  
                                         ttemp5 004B                                           ttemp6 004E  
                                         ttemp7 0052                                           status 000FD8  
                                         wtemp8 004B                            CAN_transmit@tempEIDH 003C  
                          CAN_transmit@tempEIDL 003D                            CAN_transmit@tempSIDH 003E  
                          CAN_transmit@tempSIDL 003F              _EUSART1_DefaultFramingErrorHandler 000000  
                               __initialization 07EA                      __end_of_EUSART1_Initialize 0740  
                                  __end_of_main 0702                     ?_INTERRUPT_InterruptManager 0026  
                                        ??_main 0042                                   __activetblptr 000002  
               ??_WakeUpDefaultInterruptHandler 0026                               ??_ECAN_Initialize 002A  
                                        _CANCON 000F6F                                          _ANCON0 000F5D  
                                        _ANCON1 000F5C                                          _CIOCON 000F70  
                                        i2l1584 07CC                                          i2l1586 07E6  
                                        i2l1692 0012                                          i2l1694 0020  
                                        i2l1696 002E                                          i2l1698 003C  
                                        _RCREG1 000FAE                                          _RCSTA1 000FAB  
                                        _OSCCON 000FD3                                          _RXB0D0 000F66  
                                        _RXB0D1 000F67                                          _RXB0D2 000F68  
                                        _RXB0D3 000F69                                          _RXB1D0 000F36  
                                        _RXB0D4 000F6A                                          _RXB1D1 000F37  
                                        _RXB0D5 000F6B                                          _RXB1D2 000F38  
                                        _RXB0D6 000F6C                                          _RXB1D3 000F39  
                                        _RXB0D7 000F6D                                          _RXB1D4 000F3A  
                                        _RXB1D5 000F3B                                          _RXB1D6 000F3C  
                                        _RXB1D7 000F3D                                          _SPBRG1 000FAF  
                                        _TXB0D0 000F26                                          _TXB0D1 000F27  
                                        _TXB0D2 000F28                                          _TXB0D3 000F29  
                                        _TXB1D0 000F16                                          _TXB0D4 000F2A  
                                        _TXB1D1 000F17                                          _TXB0D5 000F2B  
                                        _TXB1D2 000F18                                          _TXB0D6 000F2C  
                                        _TXB1D3 000F19                                          _TXB0D7 000F2D  
                                        _TXB2D0 000F06                                          _TXB1D4 000F1A  
                                        _TXB2D1 000F07                                          _TXB1D5 000F1B  
                                        _TXB2D2 000F08                                          _TXB1D6 000F1C  
                                        _TXB2D3 000F09                                          _TXB1D7 000F1D  
                                        _TXB2D4 000F0A                                          _TXB2D5 000F0B  
                                        _TXB2D6 000F0C                                          _TXB2D7 000F0D  
                                        _TXREG1 000FAD                                          _TXSTA1 000FAC  
                          canRightSignal@number 0040                        ?_EUSART1_SetErrorHandler 0028  
                                        clear_0 07F0                                          isa$std 000001  
              ??_EUSART1_SetOverrunErrorHandler 002A                 ?_EUSART1_SetOverrunErrorHandler 0028  
                                 _canLeftSignal 07A2                                          tblptru 000FF8  
                             _SYSTEM_Initialize 0804                                      __accesstop 0060  
                       __end_of__initialization 07F6                              ?_SYSTEM_Initialize 0026  
                                 ___rparam_used 000001                                  __pcstackCOMRAM 0026  
                           ??_SYSTEM_Initialize 002B                                  ?_canLeftSignal 0040  
                                 _ECAN_WAKI_ISR 07CC                       __end_of_SYSTEM_Initialize 081A  
         __end_of_WakeUpDefaultInterruptHandler 085A                   _WakeUpDefaultInterruptHandler 0858  
                                    __pnvCOMRAM 0044                 __end_of_EUSART1_SetErrorHandler 084A  
                                  _CAN_transmit 0050                                         _ECANCON 000F72  
                                       _CANSTAT 000F6E                ??_ECAN_SetWakeUpInterruptHandler 002A  
               ?_ECAN_SetWakeUpInterruptHandler 0028                                         _BRGCON1 000E43  
                                       _BRGCON2 000E44                                         _BRGCON3 000E45  
        __end_of_EUSART1_SetFramingErrorHandler 0840                  _EUSART1_SetFramingErrorHandler 0836  
                                       _REFOCON 000F9A                                         _OSCCON2 000FD2  
                                ?_ECAN_WAKI_ISR 0026                                         i2u10_48 07D2  
                                       i2u10_49 07E6                                         i2u15_40 0020  
                                       i2u15_41 001C                                         i2u16_40 002E  
                                       i2u16_41 002A                                         i2u17_40 003C  
                                       i2u17_41 0038                                         _RXB0DLC 000F65  
                                       _RXB1DLC 000F35                                         _OSCTUNE 000F9B  
                                       _SPBRGH1 000F7D                                         _TXB0DLC 000F25  
                                       _TXB1DLC 000F15                                         _TXB2DLC 000F05  
                                       _RXFCON0 000E46                                         _RXFCON1 000E47  
                                       __Hparam 0000                                         __Lparam 0000  
                               _ECAN_Initialize 036A                                 ??_canLeftSignal 0042  
                                       __pcinit 07EA                                         __ramtop 0F00  
                                       __ptext0 0694                                         __ptext1 0778  
                                       __ptext2 07A2                                         __ptext3 0050  
                                       __ptext4 0520                                         __ptext5 0804  
                                       __ptext6 0740                                         __ptext7 081A  
                                       __ptext8 0854                                         __ptext9 0702  
                         _OSCILLATOR_Initialize 081A                              _EUSART1_Initialize 0702  
                              _convertCANid2Reg 0520                        ??_PIN_MANAGER_Initialize 0028  
                          end_of_initialization 07F6                          _WakeUpInterruptHandler 0007  
                           ?_EUSART1_Initialize 0026                                   __Lmediumconst 0000  
                   _EUSART1_OverrunErrorHandler 0046                fp__WakeUpDefaultInterruptHandler 0000  
                ?_WakeUpDefaultInterruptHandler 0026                                       _RXF10EIDH 000E5A  
                                     _RXF10EIDL 000E5B                                       _RXF11EIDH 000E5E  
                                     _RXF11EIDL 000E5F                                       _RXF12EIDH 000E62  
                                     _RXF12EIDL 000E63                                       _RXF13EIDH 000E66  
                                     _RXF13EIDL 000E67                                       _RXF14EIDH 000E6A  
                                     _RXF14EIDL 000E6B                                       _RXF15EIDH 000E6E  
                                     _RXF15EIDL 000E6F                                       _RXF10SIDH 000E58  
                                     _RXF10SIDL 000E59                                       _RXF11SIDH 000E5C  
                                     _RXF11SIDL 000E5D                                       _RXF12SIDH 000E60  
                                     _RXF12SIDL 000E61                                       _RXF13SIDH 000E64  
                                     _RXF13SIDL 000E65                                       _RXF14SIDH 000E68  
                                     _RXF14SIDL 000E69                                       _RXF15SIDH 000E6C  
                                     _RXF15SIDL 000E6D                                         postinc0 000FEE  
                                       postinc2 000FDE                            ??_EUSART1_Initialize 002A  
                                     _PORTAbits 000F80                                   _b10FuncActive 0001  
                               ??_ECAN_WAKI_ISR 0026                          CAN_transmit@tempCanMsg 003A  
                       __end_of_ECAN_Initialize 0520                    __end_of_INTERRUPT_Initialize 0858  
                        ?_OSCILLATOR_Initialize 0026                             start_initialization 07EA  
                                _canRightSignal 0778                                     __pbssCOMRAM 0001  
                        __end_of_canRightSignal 07A2          __end_of_ECAN_SetWakeUpInterruptHandler 0854  
                _ECAN_SetWakeUpInterruptHandler 084A                ??_EUSART1_SetFramingErrorHandler 002A  
               ?_EUSART1_SetFramingErrorHandler 0028                                ?_ECAN_Initialize 0026  
                        _PIN_MANAGER_Initialize 0740                        __end_of_convertCANid2Reg 0694  
                                     __pintcode 0008                    ??_INTERRUPT_InterruptManager 0026  
                                      _BAUDCON1 000FA7                                     _COMSTATbits 000F71  
            _EUSART1_DefaultOverrunErrorHandler 000000                            _EUSART1_ErrorHandler 0044  
                       _EUSART1_SetErrorHandler 0840                  convertCANid2Reg@tempPassedInID 0028  
                               ?_canRightSignal 0040                            _INTERRUPT_Initialize 0854  
       EUSART1_SetErrorHandler@interruptHandler 0028                                        _LATCbits 000F8B  
                                      _PIE5bits 000F76                                        _PIR1bits 000F9E  
                                      _PIR5bits 000F77                                        _RXB0EIDH 000F63  
                                      _RXB0EIDL 000F64                                        _RXB1EIDH 000F33  
                                      _RXB1EIDL 000F34                                        _RCONbits 000FD0  
                                      _RXB0SIDH 000F61                                        _RXB0SIDL 000F62  
                                      _RXF0EIDH 000EE2                                        _RXB1SIDH 000F31  
                                      _RXF0EIDL 000EE3                                        _RXB1SIDL 000F32  
                                      _RXF1EIDH 000EE6                                        _RXF1EIDL 000EE7  
                                      _RXF2EIDH 000EEA                                        _RXF2EIDL 000EEB  
                                      _RXF3EIDH 000EEE                                        _RXF3EIDL 000EEF  
                                      _RXF4EIDH 000EF2                                        _RXF4EIDL 000EF3  
                                      _RXF5EIDH 000EF6                                        _RXF5EIDL 000EF7  
                                      _RXF6EIDH 000E4A                                        _RXF6EIDL 000E4B  
                                      _RXF0SIDH 000EE0                                        _RXF7EIDH 000E4E  
                                      _RXF0SIDL 000EE1                                        _RXF7EIDL 000E4F  
                                      _RXF1SIDH 000EE4                                        _RXF8EIDH 000E52  
                                      _TXB0EIDH 000F23                                        _TXB0EIDL 000F24  
                                      _RXF1SIDL 000EE5                                        _RXF8EIDL 000E53  
                                      _RXF2SIDH 000EE8                                        _RXF9EIDH 000E56  
                                      _TXB1EIDH 000F13                                        _TXB1EIDL 000F14  
                                      _RXF2SIDL 000EE9                                        _RXF9EIDL 000E57  
                                      _RXF3SIDH 000EEC                                        _TXB2EIDH 000F03  
                                      _TXB2EIDL 000F04                                        _RXF3SIDL 000EED  
                                      _RXF4SIDH 000EF0                                        _RXF4SIDL 000EF1  
                                      _RXF5SIDH 000EF4                                        _RXF5SIDL 000EF5  
                                      _RXF6SIDH 000E48                                        _RXF6SIDL 000E49  
                                      _RXM0EIDH 000EFA                                        _RXF7SIDH 000E4C  
                                      _RXM0EIDL 000EFB                                        _RXF7SIDL 000E4D  
                                      _RXM1EIDH 000EFE                                        _RXF8SIDH 000E50  
                                      _TXB0SIDH 000F21                                        _RXM1EIDL 000EFF  
                                      _RXF8SIDL 000E51                                        _TXB0SIDL 000F22  
                                      _RXF9SIDH 000E54                                        _TXB1SIDH 000F11  
                                      _RXF9SIDL 000E55                                        _TXB1SIDL 000F12  
                                      _TXB2SIDH 000F01                                        _TXB2SIDL 000F02  
                                      _RXFBCON0 000E71                                        _RXFBCON1 000E72  
                                      _RXFBCON2 000E73                                        _RXFBCON3 000E74  
                                      _RXFBCON4 000E75                                        _RXFBCON5 000E76  
                                      _RXFBCON6 000E77                                        _RXFBCON7 000E78  
                                      _RXM0SIDH 000EF8                                        _RXM0SIDL 000EF9  
                                      _RXM1SIDH 000EFC                                        _RXM1SIDL 000EFD  
                         __end_of_canLeftSignal 07CC                             canLeftSignal@number 0040  
                                   _INTCON2bits 000FF1                           ?_INTERRUPT_Initialize 0026  
                                      __Hrparam 0000                                        __Lrparam 0000  
                     convertCANid2Reg@canIdType 002C                         ??_OSCILLATOR_Initialize 0028  
                     ??_EUSART1_SetErrorHandler 002A                     _EUSART1_DefaultErrorHandler 000000  
                       convertCANid2Reg@wipSIDL 0039                           __end_of_ECAN_WAKI_ISR 07EA  
                                      __ptext10 082C                                        __ptext11 0836  
                                      __ptext12 0840                                        __ptext13 036A  
                                      __ptext14 084A                                        __ptext16 07CC  
                                      __ptext17 0858                                        __ptext18 0000  
EUSART1_SetOverrunErrorHandler@interruptHandler 0028                                        isa$xinst 000000  
                                 ?_CAN_transmit 003A                                        int$flags 004A  
            __end_of_INTERRUPT_InterruptManager 004C                      _INTERRUPT_InterruptManager 0008  
                   _EUSART1_FramingErrorHandler 0048                                     _RXB0CONbits 000F60  
                                   _RXB1CONbits 000F30                                      _INTCONbits 000FF2  
                        ??_INTERRUPT_Initialize 0028                                        intlevel2 0000  
                       ?_PIN_MANAGER_Initialize 0026          __end_of_EUSART1_SetOverrunErrorHandler 0836  
                _EUSART1_SetOverrunErrorHandler 082C                                     _TXB0CONbits 000F20  
                                    _RCSTA1bits 000FAB                                     _TXB1CONbits 000F10  
                                   _TXB2CONbits 000F00                                  ??_CAN_transmit 003C  
                             ?_convertCANid2Reg 0028  EUSART1_SetFramingErrorHandler@interruptHandler 0028  
                            ??_convertCANid2Reg 0035                              _eusart1RxLastError 0009  
                              ??_canRightSignal 0042                  __end_of_PIN_MANAGER_Initialize 0778  
