

Microchip MPLAB XC8 Assembler V2.36 build 20220127204148 
                                                                                               Sun Jul 30 14:59:14 2023

Microchip MPLAB XC8 C Compiler v2.36 (Free license) build 20220127204148 Og1 
     1                           	processor	18F46K80
     2                           	fnconf	rparam,??,?,0
     3                           	pagewidth 120
     4                           	opt	flic
     5                           	psect	nvCOMRAM,global,class=COMRAM,space=1,delta=1,lowdata,noexec
     6                           	psect	cinit,global,reloc=2,class=CODE,delta=1
     7                           	psect	bssCOMRAM,global,class=COMRAM,space=1,delta=1,lowdata,noexec
     8                           	psect	bssBANK0,global,class=BANK0,space=1,delta=1,lowdata,noexec
     9                           	psect	cstackCOMRAM,global,class=COMRAM,space=1,delta=1,lowdata,noexec
    10                           	psect	text0,global,reloc=2,class=CODE,delta=1
    11                           	psect	text1,global,reloc=2,class=CODE,delta=1
    12                           	psect	text2,global,reloc=2,class=CODE,delta=1
    13                           	psect	text3,global,reloc=2,class=CODE,delta=1
    14                           	psect	text4,global,reloc=2,class=CODE,delta=1
    15                           	psect	text5,global,reloc=2,class=CODE,delta=1
    16                           	psect	text6,global,reloc=2,class=CODE,delta=1
    17                           	psect	text7,global,reloc=2,class=CODE,delta=1
    18                           	psect	text8,global,reloc=2,class=CODE,delta=1
    19                           	psect	text9,global,reloc=2,class=CODE,delta=1
    20                           	psect	text10,global,reloc=2,class=CODE,delta=1
    21                           	psect	text11,global,reloc=2,class=CODE,delta=1
    22                           	psect	text12,global,reloc=2,class=CODE,delta=1
    23                           	psect	text13,global,reloc=2,class=CODE,delta=1
    24                           	psect	text14,global,reloc=2,class=CODE,delta=1
    25                           	psect	text15,global,reloc=2,class=CODE,delta=1
    26                           	psect	text16,global,reloc=2,class=CODE,delta=1
    27                           	psect	text17,global,reloc=2,class=CODE,delta=1
    28                           	psect	text18,global,reloc=2,class=CODE,delta=1
    29                           	psect	text19,global,reloc=2,class=CODE,delta=1
    30                           	psect	text20,global,reloc=2,class=CODE,delta=1
    31                           	psect	text21,global,reloc=2,class=CODE,delta=1
    32                           	psect	text22,global,reloc=2,class=CODE,delta=1
    33                           	psect	text23,global,reloc=2,class=CODE,delta=1
    34                           	psect	text24,global,reloc=2,class=CODE,delta=1
    35                           	psect	text25,global,reloc=2,class=CODE,delta=1
    36                           	psect	text26,global,reloc=2,class=CODE,delta=1
    37                           	psect	text27,global,reloc=2,class=CODE,delta=1
    38                           	psect	text28,global,reloc=2,class=CODE,delta=1
    39                           	psect	text29,global,reloc=2,class=CODE,delta=1
    40                           	psect	text30,global,reloc=2,class=CODE,delta=1
    41                           	psect	intcode,global,reloc=2,class=CODE,delta=1
    42                           	psect	text32,global,reloc=2,class=CODE,delta=1
    43                           	psect	text33,global,reloc=2,class=CODE,delta=1
    44                           	psect	intsave_regs,global,class=BIGRAM,space=1,delta=1,noexec
    45                           	psect	text34,global,reloc=2,class=CODE,delta=1
    46                           	psect	rparam,global,class=COMRAM,space=1,delta=1,noexec
    47                           	psect	temp,global,ovrld,common,class=COMRAM,space=1,delta=1
    48                           	psect	idloc,global,abs,ovrld,class=IDLOC,space=5,delta=1,noexec
    49                           	psect	config,global,abs,ovrld,class=CONFIG,space=4,delta=1,noexec
    50  0000                     
    51                           ; Version 2.20
    52                           ; Generated 05/05/2020 GMT
    53                           ; 
    54                           ; Copyright © 2020, Microchip Technology Inc. and its subsidiaries ("Microchip")
    55                           ; All rights reserved.
    56                           ; 
    57                           ; This software is developed by Microchip Technology Inc. and its subsidiaries ("Microch
      +                          ip").
    58                           ; 
    59                           ; Redistribution and use in source and binary forms, with or without modification, are
    60                           ; permitted provided that the following conditions are met:
    61                           ; 
    62                           ;     1. Redistributions of source code must retain the above copyright notice, this lis
      +                          t of
    63                           ;        conditions and the following disclaimer.
    64                           ; 
    65                           ;     2. Redistributions in binary form must reproduce the above copyright notice, this 
      +                          list
    66                           ;        of conditions and the following disclaimer in the documentation and/or other
    67                           ;        materials provided with the distribution.
    68                           ; 
    69                           ;     3. Microchip's name may not be used to endorse or promote products derived from th
      +                          is
    70                           ;        software without specific prior written permission.
    71                           ; 
    72                           ; THIS SOFTWARE IS PROVIDED BY MICROCHIP "AS IS" AND ANY EXPRESS OR IMPLIED WARRANTIES,
    73                           ; INCLUDING, BUT NOT LIMITED TO, THE IMPLIED WARRANTIES OF MERCHANTABILITY AND FITNESS F
      +                          OR
    74                           ; PURPOSE ARE DISCLAIMED.  IN NO EVENT SHALL MICROCHIP BE LIABLE FOR ANY DIRECT, INDIREC
      +                          T,
    75                           ; INCIDENTAL, SPECIAL, EXEMPLARY, OR CONSEQUENTIAL DAMAGES (INCLUDING BUT NOT LIMITED TO
    76                           ; PROCUREMENT OF SUBSTITUTE GOODS OR SERVICES; LOSS OF USE, DATA OR PROFITS; OR BUSINESS
    77                           ; INTERRUPTION) HOWSOEVER CAUSED AND ON ANY THEORY OF LIABILITY, WHETHER IN CONTRACT, ST
      +                          RICT
    78                           ; LIABILITY, OR TORT (INCLUDING NEGLIGENCE OR OTHERWISE) ARISING IN ANY WAY OUT OF THE U
      +                          SE OF
    79                           ; THIS SOFTWARE, EVEN IF ADVISED OF THE POSSIBILITY OF SUCH DAMAGE.
    80                           ; 
    81                           ; 
    82                           ; Code-generator required, PIC18F46K80 Definitions
    83                           ; 
    84                           ; SFR Addresses
    85  0000                     
    86 ;; Function _EUSART1_DefaultFramingErrorHandler is unused but had its address taken
    87  0000                     
    88 ;; Function _EUSART1_DefaultOverrunErrorHandler is unused but had its address taken
    89  0000                     
    90 ;; Function _EUSART1_DefaultErrorHandler is unused but had its address taken
    91  0000                     _COMSTATbits	set	3953
    92  0000                     _RXB1SIDH	set	3889
    93  0000                     _RXB1SIDL	set	3890
    94  0000                     _RXB0D7	set	3949
    95  0000                     _RXB0D6	set	3948
    96  0000                     _RXB0D5	set	3947
    97  0000                     _RXB0D4	set	3946
    98  0000                     _RXB0D3	set	3945
    99  0000                     _RXB0D2	set	3944
   100  0000                     _RXB0D1	set	3943
   101  0000                     _RXB0D0	set	3942
   102  0000                     _RXB0DLC	set	3941
   103  0000                     _RXB0SIDH	set	3937
   104  0000                     _RXB0EIDL	set	3940
   105  0000                     _RXB0EIDH	set	3939
   106  0000                     _RXB0SIDL	set	3938
   107  0000                     _TXB2SIDL	set	3842
   108  0000                     _TXB2SIDH	set	3841
   109  0000                     _TXB2EIDH	set	3843
   110  0000                     _TXB2CONbits	set	3840
   111  0000                     _TXB1SIDL	set	3858
   112  0000                     _TXB1SIDH	set	3857
   113  0000                     _TXB1EIDH	set	3859
   114  0000                     _TXB1CONbits	set	3856
   115  0000                     _TXB0SIDL	set	3874
   116  0000                     _TXB0SIDH	set	3873
   117  0000                     _TXB0EIDH	set	3875
   118  0000                     _TXB0CONbits	set	3872
   119  0000                     _BRGCON3	set	3653
   120  0000                     _BRGCON2	set	3652
   121  0000                     _RXF15SIDL	set	3693
   122  0000                     _RXF15SIDH	set	3692
   123  0000                     _RXF15EIDH	set	3694
   124  0000                     _RXF14SIDL	set	3689
   125  0000                     _RXF14SIDH	set	3688
   126  0000                     _RXF14EIDL	set	3691
   127  0000                     _RXF14EIDH	set	3690
   128  0000                     _RXF13SIDL	set	3685
   129  0000                     _RXF13SIDH	set	3684
   130  0000                     _RXF13EIDL	set	3687
   131  0000                     _RXF13EIDH	set	3686
   132  0000                     _RXF12SIDL	set	3681
   133  0000                     _RXF12SIDH	set	3680
   134  0000                     _RXF12EIDL	set	3683
   135  0000                     _RXF12EIDH	set	3682
   136  0000                     _RXF11SIDL	set	3677
   137  0000                     _RXF11SIDH	set	3676
   138  0000                     _RXF11EIDL	set	3679
   139  0000                     _RXF11EIDH	set	3678
   140  0000                     _RXF10SIDL	set	3673
   141  0000                     _RXF10SIDH	set	3672
   142  0000                     _RXF10EIDL	set	3675
   143  0000                     _RXF10EIDH	set	3674
   144  0000                     _RXF9SIDL	set	3669
   145  0000                     _RXF9SIDH	set	3668
   146  0000                     _RXF9EIDL	set	3671
   147  0000                     _RXF9EIDH	set	3670
   148  0000                     _RXF8SIDL	set	3665
   149  0000                     _RXF8SIDH	set	3664
   150  0000                     _RXF8EIDL	set	3667
   151  0000                     _RXF8EIDH	set	3666
   152  0000                     _RXF7SIDL	set	3661
   153  0000                     _RXF7SIDH	set	3660
   154  0000                     _RXF7EIDL	set	3663
   155  0000                     _RXF7EIDH	set	3662
   156  0000                     _RXF6SIDL	set	3657
   157  0000                     _RXF6SIDH	set	3656
   158  0000                     _RXF6EIDL	set	3659
   159  0000                     _RXF6EIDH	set	3658
   160  0000                     _RXF5SIDL	set	3829
   161  0000                     _RXF5SIDH	set	3828
   162  0000                     _RXF5EIDL	set	3831
   163  0000                     _RXF5EIDH	set	3830
   164  0000                     _RXF4SIDL	set	3825
   165  0000                     _RXF4SIDH	set	3824
   166  0000                     _RXF4EIDL	set	3827
   167  0000                     _RXF4EIDH	set	3826
   168  0000                     _RXF3SIDL	set	3821
   169  0000                     _RXF3SIDH	set	3820
   170  0000                     _RXF3EIDL	set	3823
   171  0000                     _RXF3EIDH	set	3822
   172  0000                     _RXF2SIDL	set	3817
   173  0000                     _RXF2SIDH	set	3816
   174  0000                     _RXF2EIDL	set	3819
   175  0000                     _RXF2EIDH	set	3818
   176  0000                     _RXF1SIDL	set	3813
   177  0000                     _RXF1SIDH	set	3812
   178  0000                     _RXF1EIDL	set	3815
   179  0000                     _RXF1EIDH	set	3814
   180  0000                     _RXF0SIDL	set	3809
   181  0000                     _RXF0EIDL	set	3811
   182  0000                     _RXFBCON7	set	3704
   183  0000                     _RXFBCON6	set	3703
   184  0000                     _RXFBCON5	set	3702
   185  0000                     _RXFBCON4	set	3701
   186  0000                     _RXFBCON3	set	3700
   187  0000                     _RXFBCON2	set	3699
   188  0000                     _RXFBCON1	set	3698
   189  0000                     _RXFBCON0	set	3697
   190  0000                     _MSEL3	set	3708
   191  0000                     _MSEL2	set	3707
   192  0000                     _MSEL1	set	3706
   193  0000                     _MSEL0	set	3705
   194  0000                     _RXFCON1	set	3655
   195  0000                     _RXM1SIDL	set	3837
   196  0000                     _RXM1SIDH	set	3836
   197  0000                     _RXM1EIDL	set	3839
   198  0000                     _RXM1EIDH	set	3838
   199  0000                     _RXM0SIDL	set	3833
   200  0000                     _RXM0EIDL	set	3835
   201  0000                     _CIOCON	set	3952
   202  0000                     _ECANCON	set	3954
   203  0000                     _TRISD	set	3989
   204  0000                     _TRISC	set	3988
   205  0000                     _TRISB	set	3987
   206  0000                     _LATC	set	3979
   207  0000                     _LATB	set	3978
   208  0000                     _TXREG1	set	4013
   209  0000                     _RCREG1	set	4014
   210  0000                     _SPBRG1	set	4015
   211  0000                     _TXSTA1	set	4012
   212                           
   213                           	psect	nvCOMRAM
   214  000055                     __pnvCOMRAM:
   215                           	callstack 0
   216  000055                     _EUSART1_ErrorHandler:
   217                           	callstack 0
   218  000055                     	ds	2
   219  000057                     _EUSART1_OverrunErrorHandler:
   220                           	callstack 0
   221  000057                     	ds	2
   222  000059                     _EUSART1_FramingErrorHandler:
   223                           	callstack 0
   224  000059                     	ds	2
   225  0000                     _LATCbits	set	3979
   226  0000                     _RCSTA1bits	set	4011
   227  0000                     _TXSTA1bits	set	4012
   228  0000                     _BRGCON1	set	3651
   229  0000                     _RXFCON0	set	3654
   230  0000                     _BSEL0	set	3709
   231  0000                     _WPUB	set	3931
   232  0000                     _ANCON1	set	3932
   233  0000                     _ANCON0	set	3933
   234  0000                     _PIE5bits	set	3958
   235  0000                     _SPBRGH1	set	3965
   236  0000                     _BAUDCON1	set	4007
   237  0000                     _RCSTA1	set	4011
   238  0000                     _RCONbits	set	4048
   239  0000                     _PORTAbits	set	3968
   240  0000                     _LATA	set	3977
   241  0000                     _LATD	set	3980
   242  0000                     _LATE	set	3981
   243  0000                     _PIR1bits	set	3998
   244  0000                     _OSCCON2	set	4050
   245  0000                     _OSCCON	set	4051
   246  0000                     _INTCON2bits	set	4081
   247  0000                     _INTCONbits	set	4082
   248  0000                     _PIR5bits	set	3959
   249  0000                     _TRISA	set	3986
   250  0000                     _TRISE	set	3990
   251  0000                     _REFOCON	set	3994
   252  0000                     _OSCTUNE	set	3995
   253  0000                     _RXB0CONbits	set	3936
   254  0000                     _CANSTAT	set	3950
   255  0000                     _CANCON	set	3951
   256  0000                     _RXF0SIDH	set	3808
   257  0000                     _RXF0EIDH	set	3810
   258  0000                     _RXM0SIDH	set	3832
   259  0000                     _RXM0EIDH	set	3834
   260  0000                     _RXF15EIDL	set	3695
   261  0000                     _RXB1CONbits	set	3888
   262  0000                     _TXB0D7	set	3885
   263  0000                     _TXB0D6	set	3884
   264  0000                     _TXB0D5	set	3883
   265  0000                     _TXB0D4	set	3882
   266  0000                     _TXB0D3	set	3881
   267  0000                     _TXB0D2	set	3880
   268  0000                     _TXB0D1	set	3879
   269  0000                     _TXB0D0	set	3878
   270  0000                     _TXB0DLC	set	3877
   271  0000                     _TXB0EIDL	set	3876
   272  0000                     _TXB1D7	set	3869
   273  0000                     _TXB1D6	set	3868
   274  0000                     _TXB1D5	set	3867
   275  0000                     _TXB1D4	set	3866
   276  0000                     _TXB1D3	set	3865
   277  0000                     _TXB1D2	set	3864
   278  0000                     _TXB1D1	set	3863
   279  0000                     _TXB1D0	set	3862
   280  0000                     _TXB1DLC	set	3861
   281  0000                     _TXB1EIDL	set	3860
   282  0000                     _TXB2D7	set	3853
   283  0000                     _TXB2D6	set	3852
   284  0000                     _TXB2D5	set	3851
   285  0000                     _TXB2D4	set	3850
   286  0000                     _TXB2D3	set	3849
   287  0000                     _TXB2D2	set	3848
   288  0000                     _TXB2D1	set	3847
   289  0000                     _TXB2D0	set	3846
   290  0000                     _TXB2DLC	set	3845
   291  0000                     _TXB2EIDL	set	3844
   292  0000                     _RXB1D7	set	3901
   293  0000                     _RXB1D6	set	3900
   294  0000                     _RXB1D5	set	3899
   295  0000                     _RXB1D4	set	3898
   296  0000                     _RXB1D3	set	3897
   297  0000                     _RXB1D2	set	3896
   298  0000                     _RXB1D1	set	3895
   299  0000                     _RXB1D0	set	3894
   300  0000                     _RXB1DLC	set	3893
   301  0000                     _RXB1EIDL	set	3892
   302  0000                     _RXB1EIDH	set	3891
   303  0000                     _PORTCbits	set	3970
   304                           
   305                           ; #config settings
   306                           
   307                           	psect	cinit
   308  001538                     __pcinit:
   309                           	callstack 0
   310  001538                     start_initialization:
   311                           	callstack 0
   312  001538                     __initialization:
   313                           	callstack 0
   314                           
   315                           ; Clear objects allocated to BANK0 (84 bytes)
   316  001538  EE00  F060         	lfsr	0,__pbssBANK0
   317  00153C  0E54               	movlw	84
   318  00153E                     clear_0:
   319  00153E  6AEE               	clrf	postinc0,c
   320  001540  06E8               	decf	wreg,f,c
   321  001542  E1FD               	bnz	clear_0
   322                           
   323                           ; Clear objects allocated to COMRAM (49 bytes)
   324  001544  EE00  F001         	lfsr	0,__pbssCOMRAM
   325  001548  0E31               	movlw	49
   326  00154A                     clear_1:
   327  00154A  6AEE               	clrf	postinc0,c
   328  00154C  06E8               	decf	wreg,f,c
   329  00154E  E1FD               	bnz	clear_1
   330  001550                     end_of_initialization:
   331                           	callstack 0
   332  001550                     __end_of__initialization:
   333                           	callstack 0
   334  001550  905B               	bcf	int$flags,0,c	;clear compiler interrupt flag (level 1)
   335  001552  925B               	bcf	int$flags,1,c	;clear compiler interrupt flag (level 2)
   336  001554  0E00               	movlw	low (__Lmediumconst shr (0+16))
   337  001556  6EF8               	movwf	tblptru,c
   338  001558  0100               	movlb	0
   339  00155A  EF28  F000         	goto	_main	;jump to C main() function
   340                           
   341                           	psect	bssCOMRAM
   342  000001                     __pbssCOMRAM:
   343                           	callstack 0
   344  000001                     _blinkb10:
   345                           	callstack 0
   346  000001                     	ds	2
   347  000003                     _lastb10:
   348                           	callstack 0
   349  000003                     	ds	2
   350  000005                     _b10FuncActive:
   351                           	callstack 0
   352  000005                     	ds	2
   353  000007                     _b9FuncActive:
   354                           	callstack 0
   355  000007                     	ds	2
   356  000009                     _b8FuncActive:
   357                           	callstack 0
   358  000009                     	ds	2
   359  00000B                     _b7FuncActive:
   360                           	callstack 0
   361  00000B                     	ds	2
   362  00000D                     _b6FuncActive:
   363                           	callstack 0
   364  00000D                     	ds	2
   365  00000F                     _b5FuncActive:
   366                           	callstack 0
   367  00000F                     	ds	2
   368  000011                     _b4FuncActive:
   369                           	callstack 0
   370  000011                     	ds	2
   371  000013                     _b3FuncActive:
   372                           	callstack 0
   373  000013                     	ds	2
   374  000015                     _blinkb2:
   375                           	callstack 0
   376  000015                     	ds	2
   377  000017                     _lastb2:
   378                           	callstack 0
   379  000017                     	ds	2
   380  000019                     _b2FuncActive:
   381                           	callstack 0
   382  000019                     	ds	2
   383  00001B                     _blinkb1:
   384                           	callstack 0
   385  00001B                     	ds	2
   386  00001D                     _lastb1:
   387                           	callstack 0
   388  00001D                     	ds	2
   389  00001F                     _b1FuncActive:
   390                           	callstack 0
   391  00001F                     	ds	2
   392  000021                     _WakeUpInterruptHandler:
   393                           	callstack 0
   394  000021                     	ds	2
   395  000023                     _eusart1RxLastError:
   396                           	callstack 0
   397  000023                     	ds	1
   398  000024                     _rx:
   399                           	callstack 0
   400  000024                     	ds	14
   401                           
   402                           	psect	bssBANK0
   403  000060                     __pbssBANK0:
   404                           	callstack 0
   405  000060                     _tx6:
   406                           	callstack 0
   407  000060                     	ds	14
   408  00006E                     _tx5:
   409                           	callstack 0
   410  00006E                     	ds	14
   411  00007C                     _tx4:
   412                           	callstack 0
   413  00007C                     	ds	14
   414  00008A                     _tx3:
   415                           	callstack 0
   416  00008A                     	ds	14
   417  000098                     _tx2:
   418                           	callstack 0
   419  000098                     	ds	14
   420  0000A6                     _tx1:
   421                           	callstack 0
   422  0000A6                     	ds	14
   423                           
   424                           	psect	cstackCOMRAM
   425  000032                     __pcstackCOMRAM:
   426                           	callstack 0
   427  000032                     ??_INTERRUPT_InterruptManager:
   428  000032                     
   429                           ; 1 bytes @ 0x0
   430  000032                     	ds	2
   431  000034                     ?_convertReg2ExtendedCANid:
   432                           	callstack 0
   433  000034                     ?_convertReg2StandardCANid:
   434                           	callstack 0
   435  000034                     EUSART1_Write@txData:
   436                           	callstack 0
   437  000034                     convertReg2ExtendedCANid@tempRXBn_EIDL:
   438                           	callstack 0
   439  000034                     convertReg2StandardCANid@tempRXBn_SIDL:
   440                           	callstack 0
   441  000034                     EUSART1_SetFramingErrorHandler@interruptHandler:
   442                           	callstack 0
   443  000034                     EUSART1_SetOverrunErrorHandler@interruptHandler:
   444                           	callstack 0
   445  000034                     EUSART1_SetErrorHandler@interruptHandler:
   446                           	callstack 0
   447  000034                     ECAN_SetWakeUpInterruptHandler@handler:
   448                           	callstack 0
   449  000034                     convertCANid2Reg@tempPassedInID:
   450                           	callstack 0
   451                           
   452                           ; 4 bytes @ 0x2
   453  000034                     	ds	1
   454  000035                     convertReg2ExtendedCANid@tempRXBn_SIDH:
   455                           	callstack 0
   456  000035                     leftTurnIndicator@value:
   457                           	callstack 0
   458  000035                     rightTurnIndicator@value:
   459                           	callstack 0
   460  000035                     warningLED@value:
   461                           	callstack 0
   462  000035                     auxBattConn@value:
   463                           	callstack 0
   464  000035                     motorSpeed@value:
   465                           	callstack 0
   466  000035                     motorControllerTemp@value:
   467                           	callstack 0
   468  000035                     batteryTemp@value:
   469                           	callstack 0
   470  000035                     hazardSignal@value:
   471                           	callstack 0
   472  000035                     batterySOC@value:
   473                           	callstack 0
   474  000035                     batterySOCGraphic@value:
   475                           	callstack 0
   476                           
   477                           ; 2 bytes @ 0x3
   478  000035                     	ds	1
   479  000036                     ??_ECAN_Initialize:
   480  000036                     convertReg2ExtendedCANid@tempRXBn_SIDL:
   481                           	callstack 0
   482                           
   483                           ; 1 bytes @ 0x4
   484  000036                     	ds	1
   485  000037                     ??_rightTurnIndicator:
   486  000037                     ??_leftTurnIndicator:
   487  000037                     ??_hazardSignal:
   488  000037                     ??_motorSpeed:
   489  000037                     ??_warningLED:
   490  000037                     ??_auxBattConn:
   491  000037                     ??_motorControllerTemp:
   492  000037                     ??_batteryTemp:
   493  000037                     ??_batterySOC:
   494  000037                     ??_batterySOCGraphic:
   495                           
   496                           ; 1 bytes @ 0x5
   497  000037                     	ds	1
   498  000038                     ??_convertReg2ExtendedCANid:
   499  000038                     ??_convertReg2StandardCANid:
   500  000038                     convertCANid2Reg@canIdType:
   501                           	callstack 0
   502  000038                     leftTurnIndicator@checksum:
   503                           	callstack 0
   504  000038                     rightTurnIndicator@checksum:
   505                           	callstack 0
   506  000038                     warningLED@checksum:
   507                           	callstack 0
   508  000038                     auxBattConn@checksum:
   509                           	callstack 0
   510  000038                     motorSpeed@checksum:
   511                           	callstack 0
   512  000038                     motorControllerTemp@checksum:
   513                           	callstack 0
   514  000038                     batteryTemp@checksum:
   515                           	callstack 0
   516  000038                     hazardSignal@checksum:
   517                           	callstack 0
   518  000038                     batterySOC@checksum:
   519                           	callstack 0
   520  000038                     batterySOCGraphic@checksum:
   521                           	callstack 0
   522                           
   523                           ; 2 bytes @ 0x6
   524  000038                     	ds	1
   525  000039                     convertCANid2Reg@passedInEIDH:
   526                           	callstack 0
   527                           
   528                           ; 2 bytes @ 0x7
   529  000039                     	ds	1
   530  00003A                     convertReg2StandardCANid@tempRXBn_SIDH:
   531                           	callstack 0
   532  00003A                     leftTurnIndicator@v2:
   533                           	callstack 0
   534  00003A                     rightTurnIndicator@v2:
   535                           	callstack 0
   536  00003A                     warningLED@v2:
   537                           	callstack 0
   538  00003A                     auxBattConn@v2:
   539                           	callstack 0
   540  00003A                     motorSpeed@v2:
   541                           	callstack 0
   542  00003A                     motorControllerTemp@v2:
   543                           	callstack 0
   544  00003A                     batteryTemp@v2:
   545                           	callstack 0
   546  00003A                     hazardSignal@v2:
   547                           	callstack 0
   548  00003A                     batterySOC@v2:
   549                           	callstack 0
   550  00003A                     batterySOCGraphic@v2:
   551                           	callstack 0
   552                           
   553                           ; 2 bytes @ 0x8
   554  00003A                     	ds	1
   555  00003B                     convertCANid2Reg@passedInEIDL:
   556                           	callstack 0
   557  00003B                     convertReg2StandardCANid@returnValue:
   558                           	callstack 0
   559                           
   560                           ; 4 bytes @ 0x9
   561  00003B                     	ds	1
   562  00003C                     convertReg2ExtendedCANid@tempRXBn_EIDH:
   563                           	callstack 0
   564  00003C                     leftTurnIndicator@v3:
   565                           	callstack 0
   566  00003C                     rightTurnIndicator@v3:
   567                           	callstack 0
   568  00003C                     warningLED@v3:
   569                           	callstack 0
   570  00003C                     auxBattConn@v3:
   571                           	callstack 0
   572  00003C                     motorSpeed@v3:
   573                           	callstack 0
   574  00003C                     motorControllerTemp@v3:
   575                           	callstack 0
   576  00003C                     batteryTemp@v3:
   577                           	callstack 0
   578  00003C                     hazardSignal@v3:
   579                           	callstack 0
   580  00003C                     batterySOC@v3:
   581                           	callstack 0
   582  00003C                     batterySOCGraphic@v3:
   583                           	callstack 0
   584                           
   585                           ; 2 bytes @ 0xA
   586  00003C                     	ds	1
   587  00003D                     convertCANid2Reg@passedInSIDH:
   588                           	callstack 0
   589  00003D                     convertReg2ExtendedCANid@returnValue:
   590                           	callstack 0
   591                           
   592                           ; 4 bytes @ 0xB
   593  00003D                     	ds	1
   594  00003E                     leftTurnIndicator@v4:
   595                           	callstack 0
   596  00003E                     rightTurnIndicator@v4:
   597                           	callstack 0
   598  00003E                     warningLED@v4:
   599                           	callstack 0
   600  00003E                     auxBattConn@v4:
   601                           	callstack 0
   602  00003E                     motorSpeed@v4:
   603                           	callstack 0
   604  00003E                     motorControllerTemp@v4:
   605                           	callstack 0
   606  00003E                     batteryTemp@v4:
   607                           	callstack 0
   608  00003E                     hazardSignal@v4:
   609                           	callstack 0
   610  00003E                     batterySOC@v4:
   611                           	callstack 0
   612  00003E                     batterySOCGraphic@v4:
   613                           	callstack 0
   614                           
   615                           ; 2 bytes @ 0xC
   616  00003E                     	ds	1
   617  00003F                     convertCANid2Reg@passedInSIDL:
   618                           	callstack 0
   619  00003F                     convertReg2StandardCANid@ConvertedID:
   620                           	callstack 0
   621                           
   622                           ; 4 bytes @ 0xD
   623  00003F                     	ds	1
   624  000040                     
   625                           ; 1 bytes @ 0xE
   626  000040                     	ds	1
   627  000041                     ??_convertCANid2Reg:
   628  000041                     convertReg2ExtendedCANid@CAN_standardLo_ID_lo2bits:
   629                           	callstack 0
   630                           
   631                           ; 1 bytes @ 0xF
   632  000041                     	ds	1
   633  000042                     convertReg2ExtendedCANid@CAN_standardLo_ID_hi3bits:
   634                           	callstack 0
   635                           
   636                           ; 1 bytes @ 0x10
   637  000042                     	ds	1
   638  000043                     convertReg2ExtendedCANid@ConvertedID:
   639                           	callstack 0
   640                           
   641                           ; 4 bytes @ 0x11
   642  000043                     	ds	2
   643  000045                     convertCANid2Reg@wipSIDL:
   644                           	callstack 0
   645                           
   646                           ; 1 bytes @ 0x13
   647  000045                     	ds	1
   648  000046                     CAN_transmit@tempCanMsg:
   649                           	callstack 0
   650                           
   651                           ; 2 bytes @ 0x14
   652  000046                     	ds	1
   653  000047                     CAN_receive@tempCanMsg:
   654                           	callstack 0
   655                           
   656                           ; 2 bytes @ 0x15
   657  000047                     	ds	1
   658  000048                     CAN_transmit@tempEIDH:
   659                           	callstack 0
   660                           
   661                           ; 1 bytes @ 0x16
   662  000048                     	ds	1
   663  000049                     CAN_transmit@tempEIDL:
   664                           	callstack 0
   665  000049                     CAN_receive@returnValue:
   666                           	callstack 0
   667                           
   668                           ; 1 bytes @ 0x17
   669  000049                     	ds	1
   670  00004A                     CAN_transmit@tempSIDH:
   671                           	callstack 0
   672                           
   673                           ; 1 bytes @ 0x18
   674  00004A                     	ds	1
   675  00004B                     CAN_transmit@tempSIDL:
   676                           	callstack 0
   677                           
   678                           ; 1 bytes @ 0x19
   679  00004B                     	ds	1
   680  00004C                     canRightSignal@number:
   681                           	callstack 0
   682  00004C                     canLeftSignal@number:
   683                           	callstack 0
   684  00004C                     canHazardSignal@number:
   685                           	callstack 0
   686                           
   687                           ; 2 bytes @ 0x1A
   688  00004C                     	ds	2
   689  00004E                     ??_main:
   690                           
   691                           ; 1 bytes @ 0x1C
   692  00004E                     	ds	2
   693  000050                     main@counter:
   694                           	callstack 0
   695                           
   696                           ; 2 bytes @ 0x1E
   697  000050                     	ds	2
   698  000052                     main@speed:
   699                           	callstack 0
   700                           
   701                           ; 2 bytes @ 0x20
   702  000052                     	ds	2
   703  000054                     main@tog:
   704                           	callstack 0
   705                           
   706                           ; 1 bytes @ 0x22
   707  000054                     	ds	1
   708                           
   709 ;;
   710 ;;Main: autosize = 0, tempsize = 2, incstack = 0, save=0
   711 ;;
   712 ;; *************** function _main *****************
   713 ;; Defined at:
   714 ;;		line 47 in file "main.c"
   715 ;; Parameters:    Size  Location     Type
   716 ;;		None
   717 ;; Auto vars:     Size  Location     Type
   718 ;;  speed           2   32[COMRAM] int 
   719 ;;  counter         2   30[COMRAM] int 
   720 ;;  tog             1   34[COMRAM] unsigned char 
   721 ;; Return value:  Size  Location     Type
   722 ;;                  1    wreg      void 
   723 ;; Registers used:
   724 ;;		wreg, fsr2l, fsr2h, status,2, status,0, cstack
   725 ;; Tracked objects:
   726 ;;		On entry : 0/0
   727 ;;		On exit  : 0/0
   728 ;;		Unchanged: 0/0
   729 ;; Data sizes:     COMRAM   BANK0   BANK1   BANK2   BANK3   BANK4   BANK5   BANK6   BANK7   BANK8   BANK9  BANK10  BANK1
      +1  BANK12  BANK13  BANK14
   730 ;;      Params:         0       0       0       0       0       0       0       0       0       0       0       0       
      +0       0       0       0
   731 ;;      Locals:         5       0       0       0       0       0       0       0       0       0       0       0       
      +0       0       0       0
   732 ;;      Temps:          2       0       0       0       0       0       0       0       0       0       0       0       
      +0       0       0       0
   733 ;;      Totals:         7       0       0       0       0       0       0       0       0       0       0       0       
      +0       0       0       0
   734 ;;Total ram usage:        7 bytes
   735 ;; Hardware stack levels required when called: 6
   736 ;; This function calls:
   737 ;;		_CAN_receive
   738 ;;		_SYSTEM_Initialize
   739 ;;		_auxBattConn
   740 ;;		_canHazardSignal
   741 ;;		_canLeftSignal
   742 ;;		_canRightSignal
   743 ;;		_hazardSignal
   744 ;;		_init
   745 ;;		_leftTurnIndicator
   746 ;;		_motorSpeed
   747 ;;		_rightTurnIndicator
   748 ;;		_warningLED
   749 ;; This function is called by:
   750 ;;		Startup code after reset
   751 ;; This function uses a non-reentrant model
   752 ;;
   753                           
   754                           	psect	text0
   755  000050                     __ptext0:
   756                           	callstack 0
   757  000050                     _main:
   758                           	callstack 25
   759  000050                     
   760                           ;main.c: 48:     SYSTEM_Initialize();
   761  000050  ECC9  F00A         	call	_SYSTEM_Initialize	;wreg free
   762  000054  8C8B               	bsf	139,6,c	;volatile
   763  000056                     
   764                           ;main.c: 50:     _delay((unsigned long)((100)*(20000000/4000.0)));
   765  000056  0E03               	movlw	3
   766  000058  6E4F               	movwf	(??_main+1)^0,c
   767  00005A  0E8A               	movlw	138
   768  00005C  6E4E               	movwf	??_main^0,c
   769  00005E  0E56               	movlw	86
   770  000060                     u827:
   771  000060  2EE8               	decfsz	wreg,f,c
   772  000062  D7FE               	bra	u827
   773  000064  2E4E               	decfsz	??_main^0,f,c
   774  000066  D7FC               	bra	u827
   775  000068  2E4F               	decfsz	(??_main+1)^0,f,c
   776  00006A  D7FA               	bra	u827
   777  00006C                     
   778                           ;main.c: 51:     init();
   779  00006C  ECA6  F009         	call	_init	;wreg free
   780  000070                     
   781                           ;main.c: 53:     char tog = 1;
   782  000070  0E01               	movlw	1
   783  000072  6E54               	movwf	main@tog^0,c
   784  000074                     
   785                           ;main.c: 54:     int counter = 0;
   786  000074  0E00               	movlw	0
   787  000076  6E51               	movwf	(main@counter+1)^0,c
   788  000078  0E00               	movlw	0
   789  00007A  6E50               	movwf	main@counter^0,c
   790  00007C                     
   791                           ;main.c: 55:     int speed = 0;
   792  00007C  0E00               	movlw	0
   793  00007E  6E53               	movwf	(main@speed+1)^0,c
   794  000080  0E00               	movlw	0
   795  000082  6E52               	movwf	main@speed^0,c
   796  000084                     l3131:
   797                           
   798                           ;main.c: 58:         counter++;
   799  000084  4A50               	infsnz	main@counter^0,f,c
   800  000086  2A51               	incf	(main@counter+1)^0,f,c
   801  000088                     
   802                           ;main.c: 59:         _delay((unsigned long)((10)*(20000000/4000.0)));
   803  000088  0E41               	movlw	65
   804  00008A  6E4E               	movwf	??_main^0,c
   805  00008C  0EEE               	movlw	238
   806  00008E                     u837:
   807  00008E  2EE8               	decfsz	wreg,f,c
   808  000090  D7FE               	bra	u837
   809  000092  2E4E               	decfsz	??_main^0,f,c
   810  000094  D7FC               	bra	u837
   811  000096  D000               	nop2	
   812  000098  5003               	movf	_lastb10^0,w,c
   813  00009A  1004               	iorwf	(_lastb10+1)^0,w,c
   814  00009C  B4D8               	btfsc	status,2,c
   815  00009E  EF53  F000         	goto	u661
   816  0000A2  EF55  F000         	goto	u660
   817  0000A6                     u661:
   818  0000A6  EF75  F000         	goto	l3207
   819  0000AA                     u660:
   820  0000AA                     
   821                           ;main.c: 100:             blinkb10 = 0;
   822  0000AA  0E00               	movlw	0
   823  0000AC  6E02               	movwf	(_blinkb10+1)^0,c
   824  0000AE  0E00               	movlw	0
   825  0000B0  6E01               	movwf	_blinkb10^0,c
   826  0000B2                     
   827                           ;main.c: 101:             canRightSignal(1);
   828  0000B2  0E00               	movlw	0
   829  0000B4  6E4D               	movwf	(canRightSignal@number+1)^0,c
   830  0000B6  0E01               	movlw	1
   831  0000B8  6E4C               	movwf	canRightSignal@number^0,c
   832  0000BA  EC5A  F00A         	call	_canRightSignal	;wreg free
   833  0000BE                     
   834                           ;main.c: 102:             _delay((unsigned long)((1)*(20000000/4000.0)));
   835  0000BE  0E07               	movlw	7
   836  0000C0  6E4E               	movwf	??_main^0,c
   837  0000C2  0E7D               	movlw	125
   838  0000C4                     u847:
   839  0000C4  2EE8               	decfsz	wreg,f,c
   840  0000C6  D7FE               	bra	u847
   841  0000C8  2E4E               	decfsz	??_main^0,f,c
   842  0000CA  D7FC               	bra	u847
   843  0000CC  F000               	nop	
   844  0000CE                     
   845                           ;main.c: 103:             rightTurnIndicator(0);
   846  0000CE  0E00               	movlw	0
   847  0000D0  6E36               	movwf	(rightTurnIndicator@value+1)^0,c
   848  0000D2  0E00               	movlw	0
   849  0000D4  6E35               	movwf	rightTurnIndicator@value^0,c
   850  0000D6  ECFA  F006         	call	_rightTurnIndicator	;wreg free
   851  0000DA                     
   852                           ;main.c: 104:              _delay((unsigned long)((1)*(20000000/4000.0)));
   853  0000DA  0E07               	movlw	7
   854  0000DC  6E4E               	movwf	??_main^0,c
   855  0000DE  0E7D               	movlw	125
   856  0000E0                     u857:
   857  0000E0  2EE8               	decfsz	wreg,f,c
   858  0000E2  D7FE               	bra	u857
   859  0000E4  2E4E               	decfsz	??_main^0,f,c
   860  0000E6  D7FC               	bra	u857
   861  0000E8  F000               	nop	
   862  0000EA                     l3207:
   863  0000EA  501D               	movf	_lastb1^0,w,c
   864  0000EC  101E               	iorwf	(_lastb1+1)^0,w,c
   865  0000EE  B4D8               	btfsc	status,2,c
   866  0000F0  EF7C  F000         	goto	u671
   867  0000F4  EF7E  F000         	goto	u670
   868  0000F8                     u671:
   869  0000F8  EF9E  F000         	goto	l3219
   870  0000FC                     u670:
   871  0000FC                     
   872                           ;main.c: 107:             blinkb1 = 0;
   873  0000FC  0E00               	movlw	0
   874  0000FE  6E1C               	movwf	(_blinkb1+1)^0,c
   875  000100  0E00               	movlw	0
   876  000102  6E1B               	movwf	_blinkb1^0,c
   877  000104                     
   878                           ;main.c: 108:             canLeftSignal(1);
   879  000104  0E00               	movlw	0
   880  000106  6E4D               	movwf	(canLeftSignal@number+1)^0,c
   881  000108  0E01               	movlw	1
   882  00010A  6E4C               	movwf	canLeftSignal@number^0,c
   883  00010C  EC70  F00A         	call	_canLeftSignal	;wreg free
   884  000110                     
   885                           ;main.c: 109:             _delay((unsigned long)((1)*(20000000/4000.0)));
   886  000110  0E07               	movlw	7
   887  000112  6E4E               	movwf	??_main^0,c
   888  000114  0E7D               	movlw	125
   889  000116                     u867:
   890  000116  2EE8               	decfsz	wreg,f,c
   891  000118  D7FE               	bra	u867
   892  00011A  2E4E               	decfsz	??_main^0,f,c
   893  00011C  D7FC               	bra	u867
   894  00011E  F000               	nop	
   895  000120                     
   896                           ;main.c: 110:             leftTurnIndicator(0);
   897  000120  0E00               	movlw	0
   898  000122  6E36               	movwf	(leftTurnIndicator@value+1)^0,c
   899  000124  0E00               	movlw	0
   900  000126  6E35               	movwf	leftTurnIndicator@value^0,c
   901  000128  ECDE  F007         	call	_leftTurnIndicator	;wreg free
   902  00012C                     
   903                           ;main.c: 111:             _delay((unsigned long)((1)*(20000000/4000.0)));
   904  00012C  0E07               	movlw	7
   905  00012E  6E4E               	movwf	??_main^0,c
   906  000130  0E7D               	movlw	125
   907  000132                     u877:
   908  000132  2EE8               	decfsz	wreg,f,c
   909  000134  D7FE               	bra	u877
   910  000136  2E4E               	decfsz	??_main^0,f,c
   911  000138  D7FC               	bra	u877
   912  00013A  F000               	nop	
   913  00013C                     l3219:
   914  00013C  5017               	movf	_lastb2^0,w,c
   915  00013E  1018               	iorwf	(_lastb2+1)^0,w,c
   916  000140  B4D8               	btfsc	status,2,c
   917  000142  EFA5  F000         	goto	u681
   918  000146  EFA7  F000         	goto	u680
   919  00014A                     u681:
   920  00014A  EFC7  F000         	goto	l3231
   921  00014E                     u680:
   922  00014E                     
   923                           ;main.c: 114:             blinkb2 = 0;
   924  00014E  0E00               	movlw	0
   925  000150  6E16               	movwf	(_blinkb2+1)^0,c
   926  000152  0E00               	movlw	0
   927  000154  6E15               	movwf	_blinkb2^0,c
   928  000156                     
   929                           ;main.c: 115:             canHazardSignal(1);
   930  000156  0E00               	movlw	0
   931  000158  6E4D               	movwf	(canHazardSignal@number+1)^0,c
   932  00015A  0E01               	movlw	1
   933  00015C  6E4C               	movwf	canHazardSignal@number^0,c
   934  00015E  EC86  F00A         	call	_canHazardSignal	;wreg free
   935  000162                     
   936                           ;main.c: 116:             _delay((unsigned long)((1)*(20000000/4000.0)));
   937  000162  0E07               	movlw	7
   938  000164  6E4E               	movwf	??_main^0,c
   939  000166  0E7D               	movlw	125
   940  000168                     u887:
   941  000168  2EE8               	decfsz	wreg,f,c
   942  00016A  D7FE               	bra	u887
   943  00016C  2E4E               	decfsz	??_main^0,f,c
   944  00016E  D7FC               	bra	u887
   945  000170  F000               	nop	
   946  000172                     
   947                           ;main.c: 117:             hazardSignal(0);
   948  000172  0E00               	movlw	0
   949  000174  6E36               	movwf	(hazardSignal@value+1)^0,c
   950  000176  0E00               	movlw	0
   951  000178  6E35               	movwf	hazardSignal@value^0,c
   952  00017A  EC2A  F008         	call	_hazardSignal	;wreg free
   953  00017E                     
   954                           ;main.c: 118:             _delay((unsigned long)((1)*(20000000/4000.0)));
   955  00017E  0E07               	movlw	7
   956  000180  6E4E               	movwf	??_main^0,c
   957  000182  0E7D               	movlw	125
   958  000184                     u897:
   959  000184  2EE8               	decfsz	wreg,f,c
   960  000186  D7FE               	bra	u897
   961  000188  2E4E               	decfsz	??_main^0,f,c
   962  00018A  D7FC               	bra	u897
   963  00018C  F000               	nop	
   964  00018E                     l3231:
   965                           
   966                           ;main.c: 120:         if (tog == 1){
   967  00018E  0454               	decf	main@tog^0,w,c
   968  000190  A4D8               	btfss	status,2,c
   969  000192  EFCD  F000         	goto	u691
   970  000196  EFCF  F000         	goto	u690
   971  00019A                     u691:
   972  00019A  EFD3  F000         	goto	l3235
   973  00019E                     u690:
   974  00019E                     
   975                           ;main.c: 121:             tog = 0;
   976  00019E  0E00               	movlw	0
   977  0001A0  6E54               	movwf	main@tog^0,c
   978                           
   979                           ;main.c: 122:         }
   980  0001A2  EFD5  F000         	goto	l3237
   981  0001A6                     l3235:
   982                           
   983                           ;main.c: 124:             tog = 1;
   984  0001A6  0E01               	movlw	1
   985  0001A8  6E54               	movwf	main@tog^0,c
   986  0001AA                     l3237:
   987                           
   988                           ;main.c: 126:         leftTurnIndicator(tog);
   989  0001AA  C054  F035         	movff	main@tog,leftTurnIndicator@value
   990  0001AE  6A36               	clrf	(leftTurnIndicator@value+1)^0,c
   991  0001B0  ECDE  F007         	call	_leftTurnIndicator	;wreg free
   992  0001B4                     
   993                           ;main.c: 127:         _delay((unsigned long)((500)*(20000000/4000.0)));
   994  0001B4  0E0D               	movlw	13
   995  0001B6  6E4F               	movwf	(??_main+1)^0,c
   996  0001B8  0EAF               	movlw	175
   997  0001BA  6E4E               	movwf	??_main^0,c
   998  0001BC  0EB6               	movlw	182
   999  0001BE                     u907:
  1000  0001BE  2EE8               	decfsz	wreg,f,c
  1001  0001C0  D7FE               	bra	u907
  1002  0001C2  2E4E               	decfsz	??_main^0,f,c
  1003  0001C4  D7FC               	bra	u907
  1004  0001C6  2E4F               	decfsz	(??_main+1)^0,f,c
  1005  0001C8  D7FA               	bra	u907
  1006  0001CA  D000               	nop2	
  1007  0001CC                     
  1008                           ;main.c: 131:         lastb1 = b1FuncActive;
  1009  0001CC  0E00               	movlw	0
  1010  0001CE  6E1E               	movwf	(_lastb1+1)^0,c
  1011  0001D0  0E00               	movlw	0
  1012  0001D2  6E1D               	movwf	_lastb1^0,c
  1013  0001D4                     
  1014                           ;main.c: 132:         lastb2 = b2FuncActive;
  1015  0001D4  0E00               	movlw	0
  1016  0001D6  6E18               	movwf	(_lastb2+1)^0,c
  1017  0001D8  0E00               	movlw	0
  1018  0001DA  6E17               	movwf	_lastb2^0,c
  1019  0001DC                     
  1020                           ;main.c: 133:         lastb10 = b10FuncActive;
  1021  0001DC  0E00               	movlw	0
  1022  0001DE  6E04               	movwf	(_lastb10+1)^0,c
  1023  0001E0  0E00               	movlw	0
  1024  0001E2  6E03               	movwf	_lastb10^0,c
  1025  0001E4                     
  1026                           ;main.c: 136:         if (counter >= 50 && speed != ((void*)0)){
  1027  0001E4  BE51               	btfsc	(main@counter+1)^0,7,c
  1028  0001E6  EFFE  F000         	goto	u701
  1029  0001EA  5051               	movf	(main@counter+1)^0,w,c
  1030  0001EC  E109               	bnz	u700
  1031  0001EE  0E32               	movlw	50
  1032  0001F0  5C50               	subwf	main@counter^0,w,c
  1033  0001F2  A0D8               	btfss	status,0,c
  1034  0001F4  EFFE  F000         	goto	u701
  1035  0001F8  EF00  F001         	goto	u700
  1036  0001FC                     u701:
  1037  0001FC  EF15  F001         	goto	l3257
  1038  000200                     u700:
  1039  000200  5052               	movf	main@speed^0,w,c
  1040  000202  1053               	iorwf	(main@speed+1)^0,w,c
  1041  000204  B4D8               	btfsc	status,2,c
  1042  000206  EF07  F001         	goto	u711
  1043  00020A  EF09  F001         	goto	u710
  1044  00020E                     u711:
  1045  00020E  EF15  F001         	goto	l3257
  1046  000212                     u710:
  1047  000212                     
  1048                           ;main.c: 137:             counter = 0;
  1049  000212  0E00               	movlw	0
  1050  000214  6E51               	movwf	(main@counter+1)^0,c
  1051  000216  0E00               	movlw	0
  1052  000218  6E50               	movwf	main@counter^0,c
  1053  00021A                     
  1054                           ;main.c: 138:             motorSpeed(speed);
  1055  00021A  C052  F035         	movff	main@speed,motorSpeed@value
  1056  00021E  C053  F036         	movff	main@speed+1,motorSpeed@value+1
  1057  000222  EC46  F007         	call	_motorSpeed	;wreg free
  1058  000226                     
  1059                           ;main.c: 139:             speed++;
  1060  000226  4A52               	infsnz	main@speed^0,f,c
  1061  000228  2A53               	incf	(main@speed+1)^0,f,c
  1062  00022A                     l3257:
  1063                           
  1064                           ;main.c: 145:         if (CAN_receive(&rx)){
  1065  00022A  0E24               	movlw	low _rx
  1066  00022C  6E47               	movwf	CAN_receive@tempCanMsg^0,c
  1067  00022E  0E00               	movlw	high _rx
  1068  000230  6E48               	movwf	(CAN_receive@tempCanMsg+1)^0,c
  1069  000232  EC5B  F003         	call	_CAN_receive	;wreg free
  1070  000236  0900               	iorlw	0
  1071  000238  B4D8               	btfsc	status,2,c
  1072  00023A  EF21  F001         	goto	u721
  1073  00023E  EF23  F001         	goto	u720
  1074  000242                     u721:
  1075  000242  EF42  F000         	goto	l3131
  1076  000246                     u720:
  1077  000246                     
  1078                           ;main.c: 146:             if (rx.frame.idType == 1){
  1079  000246  0424               	decf	_rx^0,w,c
  1080  000248  A4D8               	btfss	status,2,c
  1081  00024A  EF29  F001         	goto	u731
  1082  00024E  EF2B  F001         	goto	u730
  1083  000252                     u731:
  1084  000252  EF42  F000         	goto	l3131
  1085  000256                     u730:
  1086  000256                     
  1087                           ;main.c: 148:                 if (rx.frame.id == 0x02F4 || rx.frame.id == 0x04F4 || rx.f
      +                          rame.id == 0x05F4 || rx.frame.id == 0x07F4 || rx.frame.id == 0x08F4){
  1088  000256  0EF4               	movlw	244
  1089  000258  1825               	xorwf	(_rx+1)^0,w,c
  1090  00025A  E10B               	bnz	u740
  1091  00025C  0E02               	movlw	2
  1092  00025E  1826               	xorwf	(_rx+2)^0,w,c
  1093  000260  1027               	iorwf	(_rx+3)^0,w,c
  1094  000262  1028               	iorwf	(_rx+4)^0,w,c
  1095  000264  B4D8               	btfsc	status,2,c
  1096  000266  EF37  F001         	goto	u741
  1097  00026A  EF39  F001         	goto	u740
  1098  00026E                     u741:
  1099  00026E  EF71  F001         	goto	l3271
  1100  000272                     u740:
  1101  000272  0EF4               	movlw	244
  1102  000274  1825               	xorwf	(_rx+1)^0,w,c
  1103  000276  E10B               	bnz	u750
  1104  000278  0E04               	movlw	4
  1105  00027A  1826               	xorwf	(_rx+2)^0,w,c
  1106  00027C  1027               	iorwf	(_rx+3)^0,w,c
  1107  00027E  1028               	iorwf	(_rx+4)^0,w,c
  1108  000280  B4D8               	btfsc	status,2,c
  1109  000282  EF45  F001         	goto	u751
  1110  000286  EF47  F001         	goto	u750
  1111  00028A                     u751:
  1112  00028A  EF71  F001         	goto	l3271
  1113  00028E                     u750:
  1114  00028E  0EF4               	movlw	244
  1115  000290  1825               	xorwf	(_rx+1)^0,w,c
  1116  000292  E10B               	bnz	u760
  1117  000294  0E05               	movlw	5
  1118  000296  1826               	xorwf	(_rx+2)^0,w,c
  1119  000298  1027               	iorwf	(_rx+3)^0,w,c
  1120  00029A  1028               	iorwf	(_rx+4)^0,w,c
  1121  00029C  B4D8               	btfsc	status,2,c
  1122  00029E  EF53  F001         	goto	u761
  1123  0002A2  EF55  F001         	goto	u760
  1124  0002A6                     u761:
  1125  0002A6  EF71  F001         	goto	l3271
  1126  0002AA                     u760:
  1127  0002AA  0EF4               	movlw	244
  1128  0002AC  1825               	xorwf	(_rx+1)^0,w,c
  1129  0002AE  E10B               	bnz	u770
  1130  0002B0  0E07               	movlw	7
  1131  0002B2  1826               	xorwf	(_rx+2)^0,w,c
  1132  0002B4  1027               	iorwf	(_rx+3)^0,w,c
  1133  0002B6  1028               	iorwf	(_rx+4)^0,w,c
  1134  0002B8  B4D8               	btfsc	status,2,c
  1135  0002BA  EF61  F001         	goto	u771
  1136  0002BE  EF63  F001         	goto	u770
  1137  0002C2                     u771:
  1138  0002C2  EF71  F001         	goto	l3271
  1139  0002C6                     u770:
  1140  0002C6  0EF4               	movlw	244
  1141  0002C8  1825               	xorwf	(_rx+1)^0,w,c
  1142  0002CA  E109               	bnz	u781
  1143  0002CC  0E08               	movlw	8
  1144  0002CE  1826               	xorwf	(_rx+2)^0,w,c
  1145  0002D0  1027               	iorwf	(_rx+3)^0,w,c
  1146  0002D2  1028               	iorwf	(_rx+4)^0,w,c
  1147  0002D4  A4D8               	btfss	status,2,c
  1148  0002D6  EF6F  F001         	goto	u781
  1149  0002DA  EF71  F001         	goto	u780
  1150  0002DE                     u781:
  1151  0002DE  EF7F  F001         	goto	l3275
  1152  0002E2                     u780:
  1153  0002E2                     l3271:
  1154                           
  1155                           ;main.c: 149:                     _delay((unsigned long)((1)*(20000000/4000.0)));
  1156  0002E2  0E07               	movlw	7
  1157  0002E4  6E4E               	movwf	??_main^0,c
  1158  0002E6  0E7D               	movlw	125
  1159  0002E8                     u917:
  1160  0002E8  2EE8               	decfsz	wreg,f,c
  1161  0002EA  D7FE               	bra	u917
  1162  0002EC  2E4E               	decfsz	??_main^0,f,c
  1163  0002EE  D7FC               	bra	u917
  1164  0002F0  F000               	nop	
  1165  0002F2                     
  1166                           ;main.c: 150:                     warningLED(1);
  1167  0002F2  0E00               	movlw	0
  1168  0002F4  6E36               	movwf	(warningLED@value+1)^0,c
  1169  0002F6  0E01               	movlw	1
  1170  0002F8  6E35               	movwf	warningLED@value^0,c
  1171  0002FA  ECAE  F006         	call	_warningLED	;wreg free
  1172  0002FE                     l3275:
  1173                           
  1174                           ;main.c: 153:                 if (rx.frame.id == 0x80){
  1175  0002FE  0E80               	movlw	128
  1176  000300  1825               	xorwf	(_rx+1)^0,w,c
  1177  000302  1026               	iorwf	(_rx+2)^0,w,c
  1178  000304  1027               	iorwf	(_rx+3)^0,w,c
  1179  000306  1028               	iorwf	(_rx+4)^0,w,c
  1180  000308  A4D8               	btfss	status,2,c
  1181  00030A  EF89  F001         	goto	u791
  1182  00030E  EF8B  F001         	goto	u790
  1183  000312                     u791:
  1184  000312  EFB1  F001         	goto	l3287
  1185  000316                     u790:
  1186  000316                     
  1187                           ;main.c: 154:                     if (rx.frame.data0 == 1){
  1188  000316  042A               	decf	(_rx+6)^0,w,c
  1189  000318  A4D8               	btfss	status,2,c
  1190  00031A  EF91  F001         	goto	u801
  1191  00031E  EF93  F001         	goto	u800
  1192  000322                     u801:
  1193  000322  EFA3  F001         	goto	l3283
  1194  000326                     u800:
  1195  000326                     
  1196                           ;main.c: 155:                         _delay((unsigned long)((1)*(20000000/4000.0)));
  1197  000326  0E07               	movlw	7
  1198  000328  6E4E               	movwf	??_main^0,c
  1199  00032A  0E7D               	movlw	125
  1200  00032C                     u927:
  1201  00032C  2EE8               	decfsz	wreg,f,c
  1202  00032E  D7FE               	bra	u927
  1203  000330  2E4E               	decfsz	??_main^0,f,c
  1204  000332  D7FC               	bra	u927
  1205  000334  F000               	nop	
  1206  000336                     
  1207                           ;main.c: 156:                         auxBattConn(1);
  1208  000336  0E00               	movlw	0
  1209  000338  6E36               	movwf	(auxBattConn@value+1)^0,c
  1210  00033A  0E01               	movlw	1
  1211  00033C  6E35               	movwf	auxBattConn@value^0,c
  1212  00033E  EC5A  F009         	call	_auxBattConn	;wreg free
  1213                           
  1214                           ;main.c: 157:                     }
  1215  000342  EFB1  F001         	goto	l3287
  1216  000346                     l3283:
  1217                           
  1218                           ;main.c: 159:                         _delay((unsigned long)((1)*(20000000/4000.0)));
  1219  000346  0E07               	movlw	7
  1220  000348  6E4E               	movwf	??_main^0,c
  1221  00034A  0E7D               	movlw	125
  1222  00034C                     u937:
  1223  00034C  2EE8               	decfsz	wreg,f,c
  1224  00034E  D7FE               	bra	u937
  1225  000350  2E4E               	decfsz	??_main^0,f,c
  1226  000352  D7FC               	bra	u937
  1227  000354  F000               	nop	
  1228  000356                     
  1229                           ;main.c: 160:                         auxBattConn(0);
  1230  000356  0E00               	movlw	0
  1231  000358  6E36               	movwf	(auxBattConn@value+1)^0,c
  1232  00035A  0E00               	movlw	0
  1233  00035C  6E35               	movwf	auxBattConn@value^0,c
  1234  00035E  EC5A  F009         	call	_auxBattConn	;wreg free
  1235  000362                     l3287:
  1236                           
  1237                           ;main.c: 164:                 if (rx.frame.id == 0x81){
  1238  000362  0E81               	movlw	129
  1239  000364  1825               	xorwf	(_rx+1)^0,w,c
  1240  000366  1026               	iorwf	(_rx+2)^0,w,c
  1241  000368  1027               	iorwf	(_rx+3)^0,w,c
  1242  00036A  1028               	iorwf	(_rx+4)^0,w,c
  1243  00036C  A4D8               	btfss	status,2,c
  1244  00036E  EFBB  F001         	goto	u811
  1245  000372  EFBD  F001         	goto	u810
  1246  000376                     u811:
  1247  000376  EFCA  F001         	goto	l663
  1248  00037A                     u810:
  1249  00037A                     
  1250                           ;main.c: 165:                     _delay((unsigned long)((1)*(20000000/4000.0)));
  1251  00037A  0E07               	movlw	7
  1252  00037C  6E4E               	movwf	??_main^0,c
  1253  00037E  0E7D               	movlw	125
  1254  000380                     u947:
  1255  000380  2EE8               	decfsz	wreg,f,c
  1256  000382  D7FE               	bra	u947
  1257  000384  2E4E               	decfsz	??_main^0,f,c
  1258  000386  D7FC               	bra	u947
  1259  000388  F000               	nop	
  1260  00038A                     
  1261                           ;main.c: 166:                     speed = rx.frame.data0;
  1262  00038A  C02A  F052         	movff	_rx+6,main@speed
  1263  00038E  6A53               	clrf	(main@speed+1)^0,c
  1264  000390  EF42  F000         	goto	l3131
  1265  000394                     l663:
  1266  000394  EF42  F000         	goto	l3131
  1267  000398  EF26  F000         	goto	start
  1268  00039C                     __end_of_main:
  1269                           	callstack 0
  1270                           
  1271 ;; *************** function _init *****************
  1272 ;; Defined at:
  1273 ;;		line 168 in file "uart_interface.c"
  1274 ;; Parameters:    Size  Location     Type
  1275 ;;		None
  1276 ;; Auto vars:     Size  Location     Type
  1277 ;;		None
  1278 ;; Return value:  Size  Location     Type
  1279 ;;                  1    wreg      void 
  1280 ;; Registers used:
  1281 ;;		wreg, status,2, status,0, cstack
  1282 ;; Tracked objects:
  1283 ;;		On entry : 0/0
  1284 ;;		On exit  : 0/0
  1285 ;;		Unchanged: 0/0
  1286 ;; Data sizes:     COMRAM   BANK0   BANK1   BANK2   BANK3   BANK4   BANK5   BANK6   BANK7   BANK8   BANK9  BANK10  BANK1
      +1  BANK12  BANK13  BANK14
  1287 ;;      Params:         0       0       0       0       0       0       0       0       0       0       0       0       
      +0       0       0       0
  1288 ;;      Locals:         0       0       0       0       0       0       0       0       0       0       0       0       
      +0       0       0       0
  1289 ;;      Temps:          0       0       0       0       0       0       0       0       0       0       0       0       
      +0       0       0       0
  1290 ;;      Totals:         0       0       0       0       0       0       0       0       0       0       0       0       
      +0       0       0       0
  1291 ;;Total ram usage:        0 bytes
  1292 ;; Hardware stack levels used: 1
  1293 ;; Hardware stack levels required when called: 5
  1294 ;; This function calls:
  1295 ;;		_auxBattConn
  1296 ;;		_batterySOC
  1297 ;;		_batterySOCGraphic
  1298 ;;		_batteryTemp
  1299 ;;		_hazardSignal
  1300 ;;		_leftTurnIndicator
  1301 ;;		_motorControllerTemp
  1302 ;;		_motorSpeed
  1303 ;;		_rightTurnIndicator
  1304 ;;		_warningLED
  1305 ;; This function is called by:
  1306 ;;		_main
  1307 ;; This function uses a non-reentrant model
  1308 ;;
  1309                           
  1310                           	psect	text1
  1311  00134C                     __ptext1:
  1312                           	callstack 0
  1313  00134C                     _init:
  1314                           	callstack 25
  1315  00134C                     
  1316                           ;uart_interface.c: 169:     leftTurnIndicator(0);
  1317  00134C  0E00               	movlw	0
  1318  00134E  6E36               	movwf	(leftTurnIndicator@value+1)^0,c
  1319  001350  0E00               	movlw	0
  1320  001352  6E35               	movwf	leftTurnIndicator@value^0,c
  1321  001354  ECDE  F007         	call	_leftTurnIndicator	;wreg free
  1322                           
  1323                           ;uart_interface.c: 170:     rightTurnIndicator(0);
  1324  001358  0E00               	movlw	0
  1325  00135A  6E36               	movwf	(rightTurnIndicator@value+1)^0,c
  1326  00135C  0E00               	movlw	0
  1327  00135E  6E35               	movwf	rightTurnIndicator@value^0,c
  1328  001360  ECFA  F006         	call	_rightTurnIndicator	;wreg free
  1329                           
  1330                           ;uart_interface.c: 171:     hazardSignal(0);
  1331  001364  0E00               	movlw	0
  1332  001366  6E36               	movwf	(hazardSignal@value+1)^0,c
  1333  001368  0E00               	movlw	0
  1334  00136A  6E35               	movwf	hazardSignal@value^0,c
  1335  00136C  EC2A  F008         	call	_hazardSignal	;wreg free
  1336                           
  1337                           ;uart_interface.c: 172:     batterySOC(0);
  1338  001370  0E00               	movlw	0
  1339  001372  6E36               	movwf	(batterySOC@value+1)^0,c
  1340  001374  0E00               	movlw	0
  1341  001376  6E35               	movwf	batterySOC@value^0,c
  1342  001378  EC0E  F009         	call	_batterySOC	;wreg free
  1343                           
  1344                           ;uart_interface.c: 173:     batterySOCGraphic(0);
  1345  00137C  0E00               	movlw	0
  1346  00137E  6E36               	movwf	(batterySOCGraphic@value+1)^0,c
  1347  001380  0E00               	movlw	0
  1348  001382  6E35               	movwf	batterySOCGraphic@value^0,c
  1349  001384  ECC2  F008         	call	_batterySOCGraphic	;wreg free
  1350                           
  1351                           ;uart_interface.c: 174:     batteryTemp(0);
  1352  001388  0E00               	movlw	0
  1353  00138A  6E36               	movwf	(batteryTemp@value+1)^0,c
  1354  00138C  0E00               	movlw	0
  1355  00138E  6E35               	movwf	batteryTemp@value^0,c
  1356  001390  EC76  F008         	call	_batteryTemp	;wreg free
  1357                           
  1358                           ;uart_interface.c: 175:     warningLED(0);
  1359  001394  0E00               	movlw	0
  1360  001396  6E36               	movwf	(warningLED@value+1)^0,c
  1361  001398  0E00               	movlw	0
  1362  00139A  6E35               	movwf	warningLED@value^0,c
  1363  00139C  ECAE  F006         	call	_warningLED	;wreg free
  1364                           
  1365                           ;uart_interface.c: 176:     auxBattConn(0);
  1366  0013A0  0E00               	movlw	0
  1367  0013A2  6E36               	movwf	(auxBattConn@value+1)^0,c
  1368  0013A4  0E00               	movlw	0
  1369  0013A6  6E35               	movwf	auxBattConn@value^0,c
  1370  0013A8  EC5A  F009         	call	_auxBattConn	;wreg free
  1371                           
  1372                           ;uart_interface.c: 177:     motorSpeed(0);
  1373  0013AC  0E00               	movlw	0
  1374  0013AE  6E36               	movwf	(motorSpeed@value+1)^0,c
  1375  0013B0  0E00               	movlw	0
  1376  0013B2  6E35               	movwf	motorSpeed@value^0,c
  1377  0013B4  EC46  F007         	call	_motorSpeed	;wreg free
  1378                           
  1379                           ;uart_interface.c: 178:     motorControllerTemp(0);
  1380  0013B8  0E00               	movlw	0
  1381  0013BA  6E36               	movwf	(motorControllerTemp@value+1)^0,c
  1382  0013BC  0E00               	movlw	0
  1383  0013BE  6E35               	movwf	motorControllerTemp@value^0,c
  1384  0013C0  EC92  F007         	call	_motorControllerTemp	;wreg free
  1385  0013C4  0012               	return		;funcret
  1386  0013C6                     __end_of_init:
  1387                           	callstack 0
  1388                           
  1389 ;; *************** function _warningLED *****************
  1390 ;; Defined at:
  1391 ;;		line 36 in file "uart_interface.c"
  1392 ;; Parameters:    Size  Location     Type
  1393 ;;  value           2    3[COMRAM] int 
  1394 ;; Auto vars:     Size  Location     Type
  1395 ;;  v4              2   12[COMRAM] int 
  1396 ;;  v3              2   10[COMRAM] int 
  1397 ;;  v2              2    8[COMRAM] int 
  1398 ;;  v1              2    0        int 
  1399 ;;  checksum        2    6[COMRAM] int 
  1400 ;; Return value:  Size  Location     Type
  1401 ;;                  1    wreg      void 
  1402 ;; Registers used:
  1403 ;;		wreg, status,2, status,0, cstack
  1404 ;; Tracked objects:
  1405 ;;		On entry : 0/0
  1406 ;;		On exit  : 0/0
  1407 ;;		Unchanged: 0/0
  1408 ;; Data sizes:     COMRAM   BANK0   BANK1   BANK2   BANK3   BANK4   BANK5   BANK6   BANK7   BANK8   BANK9  BANK10  BANK1
      +1  BANK12  BANK13  BANK14
  1409 ;;      Params:         2       0       0       0       0       0       0       0       0       0       0       0       
      +0       0       0       0
  1410 ;;      Locals:         8       0       0       0       0       0       0       0       0       0       0       0       
      +0       0       0       0
  1411 ;;      Temps:          1       0       0       0       0       0       0       0       0       0       0       0       
      +0       0       0       0
  1412 ;;      Totals:        11       0       0       0       0       0       0       0       0       0       0       0       
      +0       0       0       0
  1413 ;;Total ram usage:       11 bytes
  1414 ;; Hardware stack levels used: 1
  1415 ;; Hardware stack levels required when called: 4
  1416 ;; This function calls:
  1417 ;;		_EUSART1_Write
  1418 ;; This function is called by:
  1419 ;;		_main
  1420 ;;		_init
  1421 ;; This function uses a non-reentrant model
  1422 ;;
  1423                           
  1424                           	psect	text2
  1425  000D5C                     __ptext2:
  1426                           	callstack 0
  1427  000D5C                     _warningLED:
  1428                           	callstack 26
  1429  000D5C  0E00               	movlw	0
  1430  000D5E  6E3B               	movwf	(warningLED@v2+1)^0,c
  1431  000D60  0E2E               	movlw	46
  1432  000D62  6E3A               	movwf	warningLED@v2^0,c
  1433  000D64  0E00               	movlw	0
  1434  000D66  6E3D               	movwf	(warningLED@v3+1)^0,c
  1435  000D68  0E02               	movlw	2
  1436  000D6A  6E3C               	movwf	warningLED@v3^0,c
  1437  000D6C  0E00               	movlw	0
  1438  000D6E  6E3F               	movwf	(warningLED@v4+1)^0,c
  1439  000D70  0E00               	movlw	0
  1440  000D72  6E3E               	movwf	warningLED@v4^0,c
  1441  000D74                     
  1442                           ;uart_interface.c: 38:     int checksum = v1^v2^v3^v4^value;
  1443  000D74  0E2D               	movlw	45
  1444  000D76  1835               	xorwf	warningLED@value^0,w,c
  1445  000D78  6E38               	movwf	warningLED@checksum^0,c
  1446  000D7A  5036               	movf	(warningLED@value+1)^0,w,c
  1447  000D7C  6E39               	movwf	(warningLED@checksum+1)^0,c
  1448  000D7E                     
  1449                           ;uart_interface.c: 40:     EUSART1_Write(v1);
  1450  000D7E  0E01               	movlw	1
  1451  000D80  ECBE  F00A         	call	_EUSART1_Write
  1452  000D84                     
  1453                           ;uart_interface.c: 41:     _delay((unsigned long)((10)*(20000000/4000.0)));
  1454  000D84  0E41               	movlw	65
  1455  000D86  6E37               	movwf	??_warningLED^0,c
  1456  000D88  0EEE               	movlw	238
  1457  000D8A                     u957:
  1458  000D8A  2EE8               	decfsz	wreg,f,c
  1459  000D8C  D7FE               	bra	u957
  1460  000D8E  2E37               	decfsz	??_warningLED^0,f,c
  1461  000D90  D7FC               	bra	u957
  1462  000D92  D000               	nop2	
  1463  000D94                     
  1464                           ;uart_interface.c: 42:     EUSART1_Write(v2);
  1465  000D94  0E2E               	movlw	46
  1466  000D96  ECBE  F00A         	call	_EUSART1_Write
  1467  000D9A                     
  1468                           ;uart_interface.c: 43:     _delay((unsigned long)((10)*(20000000/4000.0)));
  1469  000D9A  0E41               	movlw	65
  1470  000D9C  6E37               	movwf	??_warningLED^0,c
  1471  000D9E  0EEE               	movlw	238
  1472  000DA0                     u967:
  1473  000DA0  2EE8               	decfsz	wreg,f,c
  1474  000DA2  D7FE               	bra	u967
  1475  000DA4  2E37               	decfsz	??_warningLED^0,f,c
  1476  000DA6  D7FC               	bra	u967
  1477  000DA8  D000               	nop2	
  1478  000DAA                     
  1479                           ;uart_interface.c: 44:     EUSART1_Write(v3);
  1480  000DAA  0E02               	movlw	2
  1481  000DAC  ECBE  F00A         	call	_EUSART1_Write
  1482  000DB0                     
  1483                           ;uart_interface.c: 45:     _delay((unsigned long)((10)*(20000000/4000.0)));
  1484  000DB0  0E41               	movlw	65
  1485  000DB2  6E37               	movwf	??_warningLED^0,c
  1486  000DB4  0EEE               	movlw	238
  1487  000DB6                     u977:
  1488  000DB6  2EE8               	decfsz	wreg,f,c
  1489  000DB8  D7FE               	bra	u977
  1490  000DBA  2E37               	decfsz	??_warningLED^0,f,c
  1491  000DBC  D7FC               	bra	u977
  1492  000DBE  D000               	nop2	
  1493  000DC0                     
  1494                           ;uart_interface.c: 46:     EUSART1_Write(v4);
  1495  000DC0  0E00               	movlw	0
  1496  000DC2  ECBE  F00A         	call	_EUSART1_Write
  1497  000DC6                     
  1498                           ;uart_interface.c: 47:     _delay((unsigned long)((10)*(20000000/4000.0)));
  1499  000DC6  0E41               	movlw	65
  1500  000DC8  6E37               	movwf	??_warningLED^0,c
  1501  000DCA  0EEE               	movlw	238
  1502  000DCC                     u987:
  1503  000DCC  2EE8               	decfsz	wreg,f,c
  1504  000DCE  D7FE               	bra	u987
  1505  000DD0  2E37               	decfsz	??_warningLED^0,f,c
  1506  000DD2  D7FC               	bra	u987
  1507  000DD4  D000               	nop2	
  1508  000DD6                     
  1509                           ;uart_interface.c: 48:     EUSART1_Write(value);
  1510  000DD6  5035               	movf	warningLED@value^0,w,c
  1511  000DD8  ECBE  F00A         	call	_EUSART1_Write
  1512  000DDC                     
  1513                           ;uart_interface.c: 49:     _delay((unsigned long)((10)*(20000000/4000.0)));
  1514  000DDC  0E41               	movlw	65
  1515  000DDE  6E37               	movwf	??_warningLED^0,c
  1516  000DE0  0EEE               	movlw	238
  1517  000DE2                     u997:
  1518  000DE2  2EE8               	decfsz	wreg,f,c
  1519  000DE4  D7FE               	bra	u997
  1520  000DE6  2E37               	decfsz	??_warningLED^0,f,c
  1521  000DE8  D7FC               	bra	u997
  1522  000DEA  D000               	nop2	
  1523  000DEC                     
  1524                           ;uart_interface.c: 50:     EUSART1_Write(checksum);
  1525  000DEC  5038               	movf	warningLED@checksum^0,w,c
  1526  000DEE  ECBE  F00A         	call	_EUSART1_Write
  1527  000DF2  0012               	return		;funcret
  1528  000DF4                     __end_of_warningLED:
  1529                           	callstack 0
  1530                           
  1531 ;; *************** function _rightTurnIndicator *****************
  1532 ;; Defined at:
  1533 ;;		line 20 in file "uart_interface.c"
  1534 ;; Parameters:    Size  Location     Type
  1535 ;;  value           2    3[COMRAM] int 
  1536 ;; Auto vars:     Size  Location     Type
  1537 ;;  v4              2   12[COMRAM] int 
  1538 ;;  v3              2   10[COMRAM] int 
  1539 ;;  v2              2    8[COMRAM] int 
  1540 ;;  v1              2    0        int 
  1541 ;;  checksum        2    6[COMRAM] int 
  1542 ;; Return value:  Size  Location     Type
  1543 ;;                  1    wreg      void 
  1544 ;; Registers used:
  1545 ;;		wreg, status,2, status,0, cstack
  1546 ;; Tracked objects:
  1547 ;;		On entry : 0/0
  1548 ;;		On exit  : 0/0
  1549 ;;		Unchanged: 0/0
  1550 ;; Data sizes:     COMRAM   BANK0   BANK1   BANK2   BANK3   BANK4   BANK5   BANK6   BANK7   BANK8   BANK9  BANK10  BANK1
      +1  BANK12  BANK13  BANK14
  1551 ;;      Params:         2       0       0       0       0       0       0       0       0       0       0       0       
      +0       0       0       0
  1552 ;;      Locals:         8       0       0       0       0       0       0       0       0       0       0       0       
      +0       0       0       0
  1553 ;;      Temps:          1       0       0       0       0       0       0       0       0       0       0       0       
      +0       0       0       0
  1554 ;;      Totals:        11       0       0       0       0       0       0       0       0       0       0       0       
      +0       0       0       0
  1555 ;;Total ram usage:       11 bytes
  1556 ;; Hardware stack levels used: 1
  1557 ;; Hardware stack levels required when called: 4
  1558 ;; This function calls:
  1559 ;;		_EUSART1_Write
  1560 ;; This function is called by:
  1561 ;;		_main
  1562 ;;		_init
  1563 ;;		_rightTurnSignal
  1564 ;;		_hazardTurnSignal
  1565 ;; This function uses a non-reentrant model
  1566 ;;
  1567                           
  1568                           	psect	text3
  1569  000DF4                     __ptext3:
  1570                           	callstack 0
  1571  000DF4                     _rightTurnIndicator:
  1572                           	callstack 26
  1573  000DF4  0E00               	movlw	0
  1574  000DF6  6E3B               	movwf	(rightTurnIndicator@v2+1)^0,c
  1575  000DF8  0E13               	movlw	19
  1576  000DFA  6E3A               	movwf	rightTurnIndicator@v2^0,c
  1577  000DFC  0E00               	movlw	0
  1578  000DFE  6E3D               	movwf	(rightTurnIndicator@v3+1)^0,c
  1579  000E00  0E01               	movlw	1
  1580  000E02  6E3C               	movwf	rightTurnIndicator@v3^0,c
  1581  000E04  0E00               	movlw	0
  1582  000E06  6E3F               	movwf	(rightTurnIndicator@v4+1)^0,c
  1583  000E08  0E00               	movlw	0
  1584  000E0A  6E3E               	movwf	rightTurnIndicator@v4^0,c
  1585  000E0C                     
  1586                           ;uart_interface.c: 22:     int checksum = v1^v2^v3^v4^value;
  1587  000E0C  0E13               	movlw	19
  1588  000E0E  1835               	xorwf	rightTurnIndicator@value^0,w,c
  1589  000E10  6E38               	movwf	rightTurnIndicator@checksum^0,c
  1590  000E12  5036               	movf	(rightTurnIndicator@value+1)^0,w,c
  1591  000E14  6E39               	movwf	(rightTurnIndicator@checksum+1)^0,c
  1592  000E16                     
  1593                           ;uart_interface.c: 24:     EUSART1_Write(v1);
  1594  000E16  0E01               	movlw	1
  1595  000E18  ECBE  F00A         	call	_EUSART1_Write
  1596  000E1C                     
  1597                           ;uart_interface.c: 25:     _delay((unsigned long)((10)*(20000000/4000.0)));
  1598  000E1C  0E41               	movlw	65
  1599  000E1E  6E37               	movwf	??_rightTurnIndicator^0,c
  1600  000E20  0EEE               	movlw	238
  1601  000E22                     u1007:
  1602  000E22  2EE8               	decfsz	wreg,f,c
  1603  000E24  D7FE               	bra	u1007
  1604  000E26  2E37               	decfsz	??_rightTurnIndicator^0,f,c
  1605  000E28  D7FC               	bra	u1007
  1606  000E2A  D000               	nop2	
  1607  000E2C                     
  1608                           ;uart_interface.c: 26:     EUSART1_Write(v2);
  1609  000E2C  0E13               	movlw	19
  1610  000E2E  ECBE  F00A         	call	_EUSART1_Write
  1611  000E32                     
  1612                           ;uart_interface.c: 27:     _delay((unsigned long)((10)*(20000000/4000.0)));
  1613  000E32  0E41               	movlw	65
  1614  000E34  6E37               	movwf	??_rightTurnIndicator^0,c
  1615  000E36  0EEE               	movlw	238
  1616  000E38                     u1017:
  1617  000E38  2EE8               	decfsz	wreg,f,c
  1618  000E3A  D7FE               	bra	u1017
  1619  000E3C  2E37               	decfsz	??_rightTurnIndicator^0,f,c
  1620  000E3E  D7FC               	bra	u1017
  1621  000E40  D000               	nop2	
  1622  000E42                     
  1623                           ;uart_interface.c: 28:     EUSART1_Write(v3);
  1624  000E42  0E01               	movlw	1
  1625  000E44  ECBE  F00A         	call	_EUSART1_Write
  1626  000E48                     
  1627                           ;uart_interface.c: 29:     _delay((unsigned long)((10)*(20000000/4000.0)));
  1628  000E48  0E41               	movlw	65
  1629  000E4A  6E37               	movwf	??_rightTurnIndicator^0,c
  1630  000E4C  0EEE               	movlw	238
  1631  000E4E                     u1027:
  1632  000E4E  2EE8               	decfsz	wreg,f,c
  1633  000E50  D7FE               	bra	u1027
  1634  000E52  2E37               	decfsz	??_rightTurnIndicator^0,f,c
  1635  000E54  D7FC               	bra	u1027
  1636  000E56  D000               	nop2	
  1637  000E58                     
  1638                           ;uart_interface.c: 30:     EUSART1_Write(v4);
  1639  000E58  0E00               	movlw	0
  1640  000E5A  ECBE  F00A         	call	_EUSART1_Write
  1641  000E5E                     
  1642                           ;uart_interface.c: 31:     _delay((unsigned long)((10)*(20000000/4000.0)));
  1643  000E5E  0E41               	movlw	65
  1644  000E60  6E37               	movwf	??_rightTurnIndicator^0,c
  1645  000E62  0EEE               	movlw	238
  1646  000E64                     u1037:
  1647  000E64  2EE8               	decfsz	wreg,f,c
  1648  000E66  D7FE               	bra	u1037
  1649  000E68  2E37               	decfsz	??_rightTurnIndicator^0,f,c
  1650  000E6A  D7FC               	bra	u1037
  1651  000E6C  D000               	nop2	
  1652  000E6E                     
  1653                           ;uart_interface.c: 32:     EUSART1_Write(value);
  1654  000E6E  5035               	movf	rightTurnIndicator@value^0,w,c
  1655  000E70  ECBE  F00A         	call	_EUSART1_Write
  1656  000E74                     
  1657                           ;uart_interface.c: 33:     _delay((unsigned long)((10)*(20000000/4000.0)));
  1658  000E74  0E41               	movlw	65
  1659  000E76  6E37               	movwf	??_rightTurnIndicator^0,c
  1660  000E78  0EEE               	movlw	238
  1661  000E7A                     u1047:
  1662  000E7A  2EE8               	decfsz	wreg,f,c
  1663  000E7C  D7FE               	bra	u1047
  1664  000E7E  2E37               	decfsz	??_rightTurnIndicator^0,f,c
  1665  000E80  D7FC               	bra	u1047
  1666  000E82  D000               	nop2	
  1667  000E84                     
  1668                           ;uart_interface.c: 34:     EUSART1_Write(checksum);
  1669  000E84  5038               	movf	rightTurnIndicator@checksum^0,w,c
  1670  000E86  ECBE  F00A         	call	_EUSART1_Write
  1671  000E8A  0012               	return		;funcret
  1672  000E8C                     __end_of_rightTurnIndicator:
  1673                           	callstack 0
  1674                           
  1675 ;; *************** function _motorSpeed *****************
  1676 ;; Defined at:
  1677 ;;		line 68 in file "uart_interface.c"
  1678 ;; Parameters:    Size  Location     Type
  1679 ;;  value           2    3[COMRAM] int 
  1680 ;; Auto vars:     Size  Location     Type
  1681 ;;  v4              2   12[COMRAM] int 
  1682 ;;  v3              2   10[COMRAM] int 
  1683 ;;  v2              2    8[COMRAM] int 
  1684 ;;  v1              2    0        int 
  1685 ;;  checksum        2    6[COMRAM] int 
  1686 ;; Return value:  Size  Location     Type
  1687 ;;                  1    wreg      void 
  1688 ;; Registers used:
  1689 ;;		wreg, status,2, status,0, cstack
  1690 ;; Tracked objects:
  1691 ;;		On entry : 0/0
  1692 ;;		On exit  : 0/0
  1693 ;;		Unchanged: 0/0
  1694 ;; Data sizes:     COMRAM   BANK0   BANK1   BANK2   BANK3   BANK4   BANK5   BANK6   BANK7   BANK8   BANK9  BANK10  BANK1
      +1  BANK12  BANK13  BANK14
  1695 ;;      Params:         2       0       0       0       0       0       0       0       0       0       0       0       
      +0       0       0       0
  1696 ;;      Locals:         8       0       0       0       0       0       0       0       0       0       0       0       
      +0       0       0       0
  1697 ;;      Temps:          1       0       0       0       0       0       0       0       0       0       0       0       
      +0       0       0       0
  1698 ;;      Totals:        11       0       0       0       0       0       0       0       0       0       0       0       
      +0       0       0       0
  1699 ;;Total ram usage:       11 bytes
  1700 ;; Hardware stack levels used: 1
  1701 ;; Hardware stack levels required when called: 4
  1702 ;; This function calls:
  1703 ;;		_EUSART1_Write
  1704 ;; This function is called by:
  1705 ;;		_main
  1706 ;;		_init
  1707 ;; This function uses a non-reentrant model
  1708 ;;
  1709                           
  1710                           	psect	text4
  1711  000E8C                     __ptext4:
  1712                           	callstack 0
  1713  000E8C                     _motorSpeed:
  1714                           	callstack 26
  1715  000E8C  0E00               	movlw	0
  1716  000E8E  6E3B               	movwf	(motorSpeed@v2+1)^0,c
  1717  000E90  0E0F               	movlw	15
  1718  000E92  6E3A               	movwf	motorSpeed@v2^0,c
  1719  000E94  0E00               	movlw	0
  1720  000E96  6E3D               	movwf	(motorSpeed@v3+1)^0,c
  1721  000E98  0E00               	movlw	0
  1722  000E9A  6E3C               	movwf	motorSpeed@v3^0,c
  1723  000E9C  0E00               	movlw	0
  1724  000E9E  6E3F               	movwf	(motorSpeed@v4+1)^0,c
  1725  000EA0  0E00               	movlw	0
  1726  000EA2  6E3E               	movwf	motorSpeed@v4^0,c
  1727  000EA4                     
  1728                           ;uart_interface.c: 73:     int checksum = v1^v2^v3^v4^value;
  1729  000EA4  0E0E               	movlw	14
  1730  000EA6  1835               	xorwf	motorSpeed@value^0,w,c
  1731  000EA8  6E38               	movwf	motorSpeed@checksum^0,c
  1732  000EAA  5036               	movf	(motorSpeed@value+1)^0,w,c
  1733  000EAC  6E39               	movwf	(motorSpeed@checksum+1)^0,c
  1734  000EAE                     
  1735                           ;uart_interface.c: 75:     EUSART1_Write(v1);
  1736  000EAE  0E01               	movlw	1
  1737  000EB0  ECBE  F00A         	call	_EUSART1_Write
  1738  000EB4                     
  1739                           ;uart_interface.c: 76:     _delay((unsigned long)((10)*(20000000/4000.0)));
  1740  000EB4  0E41               	movlw	65
  1741  000EB6  6E37               	movwf	??_motorSpeed^0,c
  1742  000EB8  0EEE               	movlw	238
  1743  000EBA                     u1057:
  1744  000EBA  2EE8               	decfsz	wreg,f,c
  1745  000EBC  D7FE               	bra	u1057
  1746  000EBE  2E37               	decfsz	??_motorSpeed^0,f,c
  1747  000EC0  D7FC               	bra	u1057
  1748  000EC2  D000               	nop2	
  1749  000EC4                     
  1750                           ;uart_interface.c: 77:     EUSART1_Write(v2);
  1751  000EC4  0E0F               	movlw	15
  1752  000EC6  ECBE  F00A         	call	_EUSART1_Write
  1753  000ECA                     
  1754                           ;uart_interface.c: 78:     _delay((unsigned long)((10)*(20000000/4000.0)));
  1755  000ECA  0E41               	movlw	65
  1756  000ECC  6E37               	movwf	??_motorSpeed^0,c
  1757  000ECE  0EEE               	movlw	238
  1758  000ED0                     u1067:
  1759  000ED0  2EE8               	decfsz	wreg,f,c
  1760  000ED2  D7FE               	bra	u1067
  1761  000ED4  2E37               	decfsz	??_motorSpeed^0,f,c
  1762  000ED6  D7FC               	bra	u1067
  1763  000ED8  D000               	nop2	
  1764  000EDA                     
  1765                           ;uart_interface.c: 79:     EUSART1_Write(v3);
  1766  000EDA  0E00               	movlw	0
  1767  000EDC  ECBE  F00A         	call	_EUSART1_Write
  1768  000EE0                     
  1769                           ;uart_interface.c: 80:     _delay((unsigned long)((10)*(20000000/4000.0)));
  1770  000EE0  0E41               	movlw	65
  1771  000EE2  6E37               	movwf	??_motorSpeed^0,c
  1772  000EE4  0EEE               	movlw	238
  1773  000EE6                     u1077:
  1774  000EE6  2EE8               	decfsz	wreg,f,c
  1775  000EE8  D7FE               	bra	u1077
  1776  000EEA  2E37               	decfsz	??_motorSpeed^0,f,c
  1777  000EEC  D7FC               	bra	u1077
  1778  000EEE  D000               	nop2	
  1779  000EF0                     
  1780                           ;uart_interface.c: 81:     EUSART1_Write(v4);
  1781  000EF0  0E00               	movlw	0
  1782  000EF2  ECBE  F00A         	call	_EUSART1_Write
  1783  000EF6                     
  1784                           ;uart_interface.c: 82:     _delay((unsigned long)((10)*(20000000/4000.0)));
  1785  000EF6  0E41               	movlw	65
  1786  000EF8  6E37               	movwf	??_motorSpeed^0,c
  1787  000EFA  0EEE               	movlw	238
  1788  000EFC                     u1087:
  1789  000EFC  2EE8               	decfsz	wreg,f,c
  1790  000EFE  D7FE               	bra	u1087
  1791  000F00  2E37               	decfsz	??_motorSpeed^0,f,c
  1792  000F02  D7FC               	bra	u1087
  1793  000F04  D000               	nop2	
  1794  000F06                     
  1795                           ;uart_interface.c: 83:     EUSART1_Write(value);
  1796  000F06  5035               	movf	motorSpeed@value^0,w,c
  1797  000F08  ECBE  F00A         	call	_EUSART1_Write
  1798  000F0C                     
  1799                           ;uart_interface.c: 84:     _delay((unsigned long)((10)*(20000000/4000.0)));
  1800  000F0C  0E41               	movlw	65
  1801  000F0E  6E37               	movwf	??_motorSpeed^0,c
  1802  000F10  0EEE               	movlw	238
  1803  000F12                     u1097:
  1804  000F12  2EE8               	decfsz	wreg,f,c
  1805  000F14  D7FE               	bra	u1097
  1806  000F16  2E37               	decfsz	??_motorSpeed^0,f,c
  1807  000F18  D7FC               	bra	u1097
  1808  000F1A  D000               	nop2	
  1809  000F1C                     
  1810                           ;uart_interface.c: 85:     EUSART1_Write(checksum);
  1811  000F1C  5038               	movf	motorSpeed@checksum^0,w,c
  1812  000F1E  ECBE  F00A         	call	_EUSART1_Write
  1813  000F22  0012               	return		;funcret
  1814  000F24                     __end_of_motorSpeed:
  1815                           	callstack 0
  1816                           
  1817 ;; *************** function _motorControllerTemp *****************
  1818 ;; Defined at:
  1819 ;;		line 87 in file "uart_interface.c"
  1820 ;; Parameters:    Size  Location     Type
  1821 ;;  value           2    3[COMRAM] int 
  1822 ;; Auto vars:     Size  Location     Type
  1823 ;;  v4              2   12[COMRAM] int 
  1824 ;;  v3              2   10[COMRAM] int 
  1825 ;;  v2              2    8[COMRAM] int 
  1826 ;;  v1              2    0        int 
  1827 ;;  checksum        2    6[COMRAM] int 
  1828 ;; Return value:  Size  Location     Type
  1829 ;;                  1    wreg      void 
  1830 ;; Registers used:
  1831 ;;		wreg, status,2, status,0, cstack
  1832 ;; Tracked objects:
  1833 ;;		On entry : 0/0
  1834 ;;		On exit  : 0/0
  1835 ;;		Unchanged: 0/0
  1836 ;; Data sizes:     COMRAM   BANK0   BANK1   BANK2   BANK3   BANK4   BANK5   BANK6   BANK7   BANK8   BANK9  BANK10  BANK1
      +1  BANK12  BANK13  BANK14
  1837 ;;      Params:         2       0       0       0       0       0       0       0       0       0       0       0       
      +0       0       0       0
  1838 ;;      Locals:         8       0       0       0       0       0       0       0       0       0       0       0       
      +0       0       0       0
  1839 ;;      Temps:          1       0       0       0       0       0       0       0       0       0       0       0       
      +0       0       0       0
  1840 ;;      Totals:        11       0       0       0       0       0       0       0       0       0       0       0       
      +0       0       0       0
  1841 ;;Total ram usage:       11 bytes
  1842 ;; Hardware stack levels used: 1
  1843 ;; Hardware stack levels required when called: 4
  1844 ;; This function calls:
  1845 ;;		_EUSART1_Write
  1846 ;; This function is called by:
  1847 ;;		_init
  1848 ;; This function uses a non-reentrant model
  1849 ;;
  1850                           
  1851                           	psect	text5
  1852  000F24                     __ptext5:
  1853                           	callstack 0
  1854  000F24                     _motorControllerTemp:
  1855                           	callstack 25
  1856  000F24  0E00               	movlw	0
  1857  000F26  6E3B               	movwf	(motorControllerTemp@v2+1)^0,c
  1858  000F28  0E0F               	movlw	15
  1859  000F2A  6E3A               	movwf	motorControllerTemp@v2^0,c
  1860  000F2C  0E00               	movlw	0
  1861  000F2E  6E3D               	movwf	(motorControllerTemp@v3+1)^0,c
  1862  000F30  0E01               	movlw	1
  1863  000F32  6E3C               	movwf	motorControllerTemp@v3^0,c
  1864  000F34  0E00               	movlw	0
  1865  000F36  6E3F               	movwf	(motorControllerTemp@v4+1)^0,c
  1866  000F38  0E00               	movlw	0
  1867  000F3A  6E3E               	movwf	motorControllerTemp@v4^0,c
  1868  000F3C                     
  1869                           ;uart_interface.c: 89:     int checksum = v1^v2^v3^v4^value;
  1870  000F3C  0E0F               	movlw	15
  1871  000F3E  1835               	xorwf	motorControllerTemp@value^0,w,c
  1872  000F40  6E38               	movwf	motorControllerTemp@checksum^0,c
  1873  000F42  5036               	movf	(motorControllerTemp@value+1)^0,w,c
  1874  000F44  6E39               	movwf	(motorControllerTemp@checksum+1)^0,c
  1875  000F46                     
  1876                           ;uart_interface.c: 91:     EUSART1_Write(v1);
  1877  000F46  0E01               	movlw	1
  1878  000F48  ECBE  F00A         	call	_EUSART1_Write
  1879  000F4C                     
  1880                           ;uart_interface.c: 92:     _delay((unsigned long)((10)*(20000000/4000.0)));
  1881  000F4C  0E41               	movlw	65
  1882  000F4E  6E37               	movwf	??_motorControllerTemp^0,c
  1883  000F50  0EEE               	movlw	238
  1884  000F52                     u1107:
  1885  000F52  2EE8               	decfsz	wreg,f,c
  1886  000F54  D7FE               	bra	u1107
  1887  000F56  2E37               	decfsz	??_motorControllerTemp^0,f,c
  1888  000F58  D7FC               	bra	u1107
  1889  000F5A  D000               	nop2	
  1890  000F5C                     
  1891                           ;uart_interface.c: 93:     EUSART1_Write(v2);
  1892  000F5C  0E0F               	movlw	15
  1893  000F5E  ECBE  F00A         	call	_EUSART1_Write
  1894  000F62                     
  1895                           ;uart_interface.c: 94:     _delay((unsigned long)((10)*(20000000/4000.0)));
  1896  000F62  0E41               	movlw	65
  1897  000F64  6E37               	movwf	??_motorControllerTemp^0,c
  1898  000F66  0EEE               	movlw	238
  1899  000F68                     u1117:
  1900  000F68  2EE8               	decfsz	wreg,f,c
  1901  000F6A  D7FE               	bra	u1117
  1902  000F6C  2E37               	decfsz	??_motorControllerTemp^0,f,c
  1903  000F6E  D7FC               	bra	u1117
  1904  000F70  D000               	nop2	
  1905  000F72                     
  1906                           ;uart_interface.c: 95:     EUSART1_Write(v3);
  1907  000F72  0E01               	movlw	1
  1908  000F74  ECBE  F00A         	call	_EUSART1_Write
  1909  000F78                     
  1910                           ;uart_interface.c: 96:     _delay((unsigned long)((10)*(20000000/4000.0)));
  1911  000F78  0E41               	movlw	65
  1912  000F7A  6E37               	movwf	??_motorControllerTemp^0,c
  1913  000F7C  0EEE               	movlw	238
  1914  000F7E                     u1127:
  1915  000F7E  2EE8               	decfsz	wreg,f,c
  1916  000F80  D7FE               	bra	u1127
  1917  000F82  2E37               	decfsz	??_motorControllerTemp^0,f,c
  1918  000F84  D7FC               	bra	u1127
  1919  000F86  D000               	nop2	
  1920  000F88                     
  1921                           ;uart_interface.c: 97:     EUSART1_Write(v4);
  1922  000F88  0E00               	movlw	0
  1923  000F8A  ECBE  F00A         	call	_EUSART1_Write
  1924  000F8E                     
  1925                           ;uart_interface.c: 98:     _delay((unsigned long)((10)*(20000000/4000.0)));
  1926  000F8E  0E41               	movlw	65
  1927  000F90  6E37               	movwf	??_motorControllerTemp^0,c
  1928  000F92  0EEE               	movlw	238
  1929  000F94                     u1137:
  1930  000F94  2EE8               	decfsz	wreg,f,c
  1931  000F96  D7FE               	bra	u1137
  1932  000F98  2E37               	decfsz	??_motorControllerTemp^0,f,c
  1933  000F9A  D7FC               	bra	u1137
  1934  000F9C  D000               	nop2	
  1935  000F9E                     
  1936                           ;uart_interface.c: 99:     EUSART1_Write(value);
  1937  000F9E  5035               	movf	motorControllerTemp@value^0,w,c
  1938  000FA0  ECBE  F00A         	call	_EUSART1_Write
  1939  000FA4                     
  1940                           ;uart_interface.c: 100:     _delay((unsigned long)((10)*(20000000/4000.0)));
  1941  000FA4  0E41               	movlw	65
  1942  000FA6  6E37               	movwf	??_motorControllerTemp^0,c
  1943  000FA8  0EEE               	movlw	238
  1944  000FAA                     u1147:
  1945  000FAA  2EE8               	decfsz	wreg,f,c
  1946  000FAC  D7FE               	bra	u1147
  1947  000FAE  2E37               	decfsz	??_motorControllerTemp^0,f,c
  1948  000FB0  D7FC               	bra	u1147
  1949  000FB2  D000               	nop2	
  1950  000FB4                     
  1951                           ;uart_interface.c: 101:     EUSART1_Write(checksum);
  1952  000FB4  5038               	movf	motorControllerTemp@checksum^0,w,c
  1953  000FB6  ECBE  F00A         	call	_EUSART1_Write
  1954  000FBA  0012               	return		;funcret
  1955  000FBC                     __end_of_motorControllerTemp:
  1956                           	callstack 0
  1957                           
  1958 ;; *************** function _leftTurnIndicator *****************
  1959 ;; Defined at:
  1960 ;;		line 4 in file "uart_interface.c"
  1961 ;; Parameters:    Size  Location     Type
  1962 ;;  value           2    3[COMRAM] int 
  1963 ;; Auto vars:     Size  Location     Type
  1964 ;;  v4              2   12[COMRAM] int 
  1965 ;;  v3              2   10[COMRAM] int 
  1966 ;;  v2              2    8[COMRAM] int 
  1967 ;;  v1              2    0        int 
  1968 ;;  checksum        2    6[COMRAM] int 
  1969 ;; Return value:  Size  Location     Type
  1970 ;;                  1    wreg      void 
  1971 ;; Registers used:
  1972 ;;		wreg, status,2, status,0, cstack
  1973 ;; Tracked objects:
  1974 ;;		On entry : 0/0
  1975 ;;		On exit  : 0/0
  1976 ;;		Unchanged: 0/0
  1977 ;; Data sizes:     COMRAM   BANK0   BANK1   BANK2   BANK3   BANK4   BANK5   BANK6   BANK7   BANK8   BANK9  BANK10  BANK1
      +1  BANK12  BANK13  BANK14
  1978 ;;      Params:         2       0       0       0       0       0       0       0       0       0       0       0       
      +0       0       0       0
  1979 ;;      Locals:         8       0       0       0       0       0       0       0       0       0       0       0       
      +0       0       0       0
  1980 ;;      Temps:          1       0       0       0       0       0       0       0       0       0       0       0       
      +0       0       0       0
  1981 ;;      Totals:        11       0       0       0       0       0       0       0       0       0       0       0       
      +0       0       0       0
  1982 ;;Total ram usage:       11 bytes
  1983 ;; Hardware stack levels used: 1
  1984 ;; Hardware stack levels required when called: 4
  1985 ;; This function calls:
  1986 ;;		_EUSART1_Write
  1987 ;; This function is called by:
  1988 ;;		_main
  1989 ;;		_init
  1990 ;;		_leftTurnSignal
  1991 ;;		_hazardTurnSignal
  1992 ;; This function uses a non-reentrant model
  1993 ;;
  1994                           
  1995                           	psect	text6
  1996  000FBC                     __ptext6:
  1997                           	callstack 0
  1998  000FBC                     _leftTurnIndicator:
  1999                           	callstack 26
  2000  000FBC  0E00               	movlw	0
  2001  000FBE  6E3B               	movwf	(leftTurnIndicator@v2+1)^0,c
  2002  000FC0  0E13               	movlw	19
  2003  000FC2  6E3A               	movwf	leftTurnIndicator@v2^0,c
  2004  000FC4  0E00               	movlw	0
  2005  000FC6  6E3D               	movwf	(leftTurnIndicator@v3+1)^0,c
  2006  000FC8  0E00               	movlw	0
  2007  000FCA  6E3C               	movwf	leftTurnIndicator@v3^0,c
  2008  000FCC  0E00               	movlw	0
  2009  000FCE  6E3F               	movwf	(leftTurnIndicator@v4+1)^0,c
  2010  000FD0  0E00               	movlw	0
  2011  000FD2  6E3E               	movwf	leftTurnIndicator@v4^0,c
  2012  000FD4                     
  2013                           ;uart_interface.c: 6:     int checksum = v1^v2^v3^v4^value;
  2014  000FD4  0E12               	movlw	18
  2015  000FD6  1835               	xorwf	leftTurnIndicator@value^0,w,c
  2016  000FD8  6E38               	movwf	leftTurnIndicator@checksum^0,c
  2017  000FDA  5036               	movf	(leftTurnIndicator@value+1)^0,w,c
  2018  000FDC  6E39               	movwf	(leftTurnIndicator@checksum+1)^0,c
  2019  000FDE                     
  2020                           ;uart_interface.c: 8:     EUSART1_Write(v1);
  2021  000FDE  0E01               	movlw	1
  2022  000FE0  ECBE  F00A         	call	_EUSART1_Write
  2023  000FE4                     
  2024                           ;uart_interface.c: 9:     _delay((unsigned long)((10)*(20000000/4000.0)));
  2025  000FE4  0E41               	movlw	65
  2026  000FE6  6E37               	movwf	??_leftTurnIndicator^0,c
  2027  000FE8  0EEE               	movlw	238
  2028  000FEA                     u1157:
  2029  000FEA  2EE8               	decfsz	wreg,f,c
  2030  000FEC  D7FE               	bra	u1157
  2031  000FEE  2E37               	decfsz	??_leftTurnIndicator^0,f,c
  2032  000FF0  D7FC               	bra	u1157
  2033  000FF2  D000               	nop2	
  2034  000FF4                     
  2035                           ;uart_interface.c: 10:     EUSART1_Write(v2);
  2036  000FF4  0E13               	movlw	19
  2037  000FF6  ECBE  F00A         	call	_EUSART1_Write
  2038  000FFA                     
  2039                           ;uart_interface.c: 11:     _delay((unsigned long)((10)*(20000000/4000.0)));
  2040  000FFA  0E41               	movlw	65
  2041  000FFC  6E37               	movwf	??_leftTurnIndicator^0,c
  2042  000FFE  0EEE               	movlw	238
  2043  001000                     u1167:
  2044  001000  2EE8               	decfsz	wreg,f,c
  2045  001002  D7FE               	bra	u1167
  2046  001004  2E37               	decfsz	??_leftTurnIndicator^0,f,c
  2047  001006  D7FC               	bra	u1167
  2048  001008  D000               	nop2	
  2049  00100A                     
  2050                           ;uart_interface.c: 12:     EUSART1_Write(v3);
  2051  00100A  0E00               	movlw	0
  2052  00100C  ECBE  F00A         	call	_EUSART1_Write
  2053  001010                     
  2054                           ;uart_interface.c: 13:     _delay((unsigned long)((10)*(20000000/4000.0)));
  2055  001010  0E41               	movlw	65
  2056  001012  6E37               	movwf	??_leftTurnIndicator^0,c
  2057  001014  0EEE               	movlw	238
  2058  001016                     u1177:
  2059  001016  2EE8               	decfsz	wreg,f,c
  2060  001018  D7FE               	bra	u1177
  2061  00101A  2E37               	decfsz	??_leftTurnIndicator^0,f,c
  2062  00101C  D7FC               	bra	u1177
  2063  00101E  D000               	nop2	
  2064  001020                     
  2065                           ;uart_interface.c: 14:     EUSART1_Write(v4);
  2066  001020  0E00               	movlw	0
  2067  001022  ECBE  F00A         	call	_EUSART1_Write
  2068  001026                     
  2069                           ;uart_interface.c: 15:     _delay((unsigned long)((10)*(20000000/4000.0)));
  2070  001026  0E41               	movlw	65
  2071  001028  6E37               	movwf	??_leftTurnIndicator^0,c
  2072  00102A  0EEE               	movlw	238
  2073  00102C                     u1187:
  2074  00102C  2EE8               	decfsz	wreg,f,c
  2075  00102E  D7FE               	bra	u1187
  2076  001030  2E37               	decfsz	??_leftTurnIndicator^0,f,c
  2077  001032  D7FC               	bra	u1187
  2078  001034  D000               	nop2	
  2079  001036                     
  2080                           ;uart_interface.c: 16:     EUSART1_Write(value);
  2081  001036  5035               	movf	leftTurnIndicator@value^0,w,c
  2082  001038  ECBE  F00A         	call	_EUSART1_Write
  2083  00103C                     
  2084                           ;uart_interface.c: 17:     _delay((unsigned long)((10)*(20000000/4000.0)));
  2085  00103C  0E41               	movlw	65
  2086  00103E  6E37               	movwf	??_leftTurnIndicator^0,c
  2087  001040  0EEE               	movlw	238
  2088  001042                     u1197:
  2089  001042  2EE8               	decfsz	wreg,f,c
  2090  001044  D7FE               	bra	u1197
  2091  001046  2E37               	decfsz	??_leftTurnIndicator^0,f,c
  2092  001048  D7FC               	bra	u1197
  2093  00104A  D000               	nop2	
  2094  00104C                     
  2095                           ;uart_interface.c: 18:     EUSART1_Write(checksum);
  2096  00104C  5038               	movf	leftTurnIndicator@checksum^0,w,c
  2097  00104E  ECBE  F00A         	call	_EUSART1_Write
  2098  001052  0012               	return		;funcret
  2099  001054                     __end_of_leftTurnIndicator:
  2100                           	callstack 0
  2101                           
  2102 ;; *************** function _hazardSignal *****************
  2103 ;; Defined at:
  2104 ;;		line 119 in file "uart_interface.c"
  2105 ;; Parameters:    Size  Location     Type
  2106 ;;  value           2    3[COMRAM] int 
  2107 ;; Auto vars:     Size  Location     Type
  2108 ;;  v4              2   12[COMRAM] int 
  2109 ;;  v3              2   10[COMRAM] int 
  2110 ;;  v2              2    8[COMRAM] int 
  2111 ;;  v1              2    0        int 
  2112 ;;  checksum        2    6[COMRAM] int 
  2113 ;; Return value:  Size  Location     Type
  2114 ;;                  1    wreg      void 
  2115 ;; Registers used:
  2116 ;;		wreg, status,2, status,0, cstack
  2117 ;; Tracked objects:
  2118 ;;		On entry : 0/0
  2119 ;;		On exit  : 0/0
  2120 ;;		Unchanged: 0/0
  2121 ;; Data sizes:     COMRAM   BANK0   BANK1   BANK2   BANK3   BANK4   BANK5   BANK6   BANK7   BANK8   BANK9  BANK10  BANK1
      +1  BANK12  BANK13  BANK14
  2122 ;;      Params:         2       0       0       0       0       0       0       0       0       0       0       0       
      +0       0       0       0
  2123 ;;      Locals:         8       0       0       0       0       0       0       0       0       0       0       0       
      +0       0       0       0
  2124 ;;      Temps:          1       0       0       0       0       0       0       0       0       0       0       0       
      +0       0       0       0
  2125 ;;      Totals:        11       0       0       0       0       0       0       0       0       0       0       0       
      +0       0       0       0
  2126 ;;Total ram usage:       11 bytes
  2127 ;; Hardware stack levels used: 1
  2128 ;; Hardware stack levels required when called: 4
  2129 ;; This function calls:
  2130 ;;		_EUSART1_Write
  2131 ;; This function is called by:
  2132 ;;		_main
  2133 ;;		_init
  2134 ;;		_hazardTurnSignal
  2135 ;; This function uses a non-reentrant model
  2136 ;;
  2137                           
  2138                           	psect	text7
  2139  001054                     __ptext7:
  2140                           	callstack 0
  2141  001054                     _hazardSignal:
  2142                           	callstack 25
  2143  001054  0E00               	movlw	0
  2144  001056  6E3B               	movwf	(hazardSignal@v2+1)^0,c
  2145  001058  0E13               	movlw	19
  2146  00105A  6E3A               	movwf	hazardSignal@v2^0,c
  2147  00105C  0E00               	movlw	0
  2148  00105E  6E3D               	movwf	(hazardSignal@v3+1)^0,c
  2149  001060  0E02               	movlw	2
  2150  001062  6E3C               	movwf	hazardSignal@v3^0,c
  2151  001064  0E00               	movlw	0
  2152  001066  6E3F               	movwf	(hazardSignal@v4+1)^0,c
  2153  001068  0E00               	movlw	0
  2154  00106A  6E3E               	movwf	hazardSignal@v4^0,c
  2155  00106C                     
  2156                           ;uart_interface.c: 121:     int checksum = v1^v2^v3^v4^value;
  2157  00106C  0E10               	movlw	16
  2158  00106E  1835               	xorwf	hazardSignal@value^0,w,c
  2159  001070  6E38               	movwf	hazardSignal@checksum^0,c
  2160  001072  5036               	movf	(hazardSignal@value+1)^0,w,c
  2161  001074  6E39               	movwf	(hazardSignal@checksum+1)^0,c
  2162  001076                     
  2163                           ;uart_interface.c: 123:     EUSART1_Write(v1);
  2164  001076  0E01               	movlw	1
  2165  001078  ECBE  F00A         	call	_EUSART1_Write
  2166  00107C                     
  2167                           ;uart_interface.c: 124:     _delay((unsigned long)((10)*(20000000/4000.0)));
  2168  00107C  0E41               	movlw	65
  2169  00107E  6E37               	movwf	??_hazardSignal^0,c
  2170  001080  0EEE               	movlw	238
  2171  001082                     u1207:
  2172  001082  2EE8               	decfsz	wreg,f,c
  2173  001084  D7FE               	bra	u1207
  2174  001086  2E37               	decfsz	??_hazardSignal^0,f,c
  2175  001088  D7FC               	bra	u1207
  2176  00108A  D000               	nop2	
  2177  00108C                     
  2178                           ;uart_interface.c: 125:     EUSART1_Write(v2);
  2179  00108C  0E13               	movlw	19
  2180  00108E  ECBE  F00A         	call	_EUSART1_Write
  2181  001092                     
  2182                           ;uart_interface.c: 126:     _delay((unsigned long)((10)*(20000000/4000.0)));
  2183  001092  0E41               	movlw	65
  2184  001094  6E37               	movwf	??_hazardSignal^0,c
  2185  001096  0EEE               	movlw	238
  2186  001098                     u1217:
  2187  001098  2EE8               	decfsz	wreg,f,c
  2188  00109A  D7FE               	bra	u1217
  2189  00109C  2E37               	decfsz	??_hazardSignal^0,f,c
  2190  00109E  D7FC               	bra	u1217
  2191  0010A0  D000               	nop2	
  2192  0010A2                     
  2193                           ;uart_interface.c: 127:     EUSART1_Write(v3);
  2194  0010A2  0E02               	movlw	2
  2195  0010A4  ECBE  F00A         	call	_EUSART1_Write
  2196  0010A8                     
  2197                           ;uart_interface.c: 128:     _delay((unsigned long)((10)*(20000000/4000.0)));
  2198  0010A8  0E41               	movlw	65
  2199  0010AA  6E37               	movwf	??_hazardSignal^0,c
  2200  0010AC  0EEE               	movlw	238
  2201  0010AE                     u1227:
  2202  0010AE  2EE8               	decfsz	wreg,f,c
  2203  0010B0  D7FE               	bra	u1227
  2204  0010B2  2E37               	decfsz	??_hazardSignal^0,f,c
  2205  0010B4  D7FC               	bra	u1227
  2206  0010B6  D000               	nop2	
  2207  0010B8                     
  2208                           ;uart_interface.c: 129:     EUSART1_Write(v4);
  2209  0010B8  0E00               	movlw	0
  2210  0010BA  ECBE  F00A         	call	_EUSART1_Write
  2211  0010BE                     
  2212                           ;uart_interface.c: 130:     _delay((unsigned long)((10)*(20000000/4000.0)));
  2213  0010BE  0E41               	movlw	65
  2214  0010C0  6E37               	movwf	??_hazardSignal^0,c
  2215  0010C2  0EEE               	movlw	238
  2216  0010C4                     u1237:
  2217  0010C4  2EE8               	decfsz	wreg,f,c
  2218  0010C6  D7FE               	bra	u1237
  2219  0010C8  2E37               	decfsz	??_hazardSignal^0,f,c
  2220  0010CA  D7FC               	bra	u1237
  2221  0010CC  D000               	nop2	
  2222  0010CE                     
  2223                           ;uart_interface.c: 131:     EUSART1_Write(value);
  2224  0010CE  5035               	movf	hazardSignal@value^0,w,c
  2225  0010D0  ECBE  F00A         	call	_EUSART1_Write
  2226  0010D4                     
  2227                           ;uart_interface.c: 132:     _delay((unsigned long)((10)*(20000000/4000.0)));
  2228  0010D4  0E41               	movlw	65
  2229  0010D6  6E37               	movwf	??_hazardSignal^0,c
  2230  0010D8  0EEE               	movlw	238
  2231  0010DA                     u1247:
  2232  0010DA  2EE8               	decfsz	wreg,f,c
  2233  0010DC  D7FE               	bra	u1247
  2234  0010DE  2E37               	decfsz	??_hazardSignal^0,f,c
  2235  0010E0  D7FC               	bra	u1247
  2236  0010E2  D000               	nop2	
  2237  0010E4                     
  2238                           ;uart_interface.c: 133:     EUSART1_Write(checksum);
  2239  0010E4  5038               	movf	hazardSignal@checksum^0,w,c
  2240  0010E6  ECBE  F00A         	call	_EUSART1_Write
  2241  0010EA  0012               	return		;funcret
  2242  0010EC                     __end_of_hazardSignal:
  2243                           	callstack 0
  2244                           
  2245 ;; *************** function _batteryTemp *****************
  2246 ;; Defined at:
  2247 ;;		line 103 in file "uart_interface.c"
  2248 ;; Parameters:    Size  Location     Type
  2249 ;;  value           2    3[COMRAM] int 
  2250 ;; Auto vars:     Size  Location     Type
  2251 ;;  v4              2   12[COMRAM] int 
  2252 ;;  v3              2   10[COMRAM] int 
  2253 ;;  v2              2    8[COMRAM] int 
  2254 ;;  v1              2    0        int 
  2255 ;;  checksum        2    6[COMRAM] int 
  2256 ;; Return value:  Size  Location     Type
  2257 ;;                  1    wreg      void 
  2258 ;; Registers used:
  2259 ;;		wreg, status,2, status,0, cstack
  2260 ;; Tracked objects:
  2261 ;;		On entry : 0/0
  2262 ;;		On exit  : 0/0
  2263 ;;		Unchanged: 0/0
  2264 ;; Data sizes:     COMRAM   BANK0   BANK1   BANK2   BANK3   BANK4   BANK5   BANK6   BANK7   BANK8   BANK9  BANK10  BANK1
      +1  BANK12  BANK13  BANK14
  2265 ;;      Params:         2       0       0       0       0       0       0       0       0       0       0       0       
      +0       0       0       0
  2266 ;;      Locals:         8       0       0       0       0       0       0       0       0       0       0       0       
      +0       0       0       0
  2267 ;;      Temps:          1       0       0       0       0       0       0       0       0       0       0       0       
      +0       0       0       0
  2268 ;;      Totals:        11       0       0       0       0       0       0       0       0       0       0       0       
      +0       0       0       0
  2269 ;;Total ram usage:       11 bytes
  2270 ;; Hardware stack levels used: 1
  2271 ;; Hardware stack levels required when called: 4
  2272 ;; This function calls:
  2273 ;;		_EUSART1_Write
  2274 ;; This function is called by:
  2275 ;;		_init
  2276 ;; This function uses a non-reentrant model
  2277 ;;
  2278                           
  2279                           	psect	text8
  2280  0010EC                     __ptext8:
  2281                           	callstack 0
  2282  0010EC                     _batteryTemp:
  2283                           	callstack 25
  2284  0010EC  0E00               	movlw	0
  2285  0010EE  6E3B               	movwf	(batteryTemp@v2+1)^0,c
  2286  0010F0  0E0F               	movlw	15
  2287  0010F2  6E3A               	movwf	batteryTemp@v2^0,c
  2288  0010F4  0E00               	movlw	0
  2289  0010F6  6E3D               	movwf	(batteryTemp@v3+1)^0,c
  2290  0010F8  0E02               	movlw	2
  2291  0010FA  6E3C               	movwf	batteryTemp@v3^0,c
  2292  0010FC  0E00               	movlw	0
  2293  0010FE  6E3F               	movwf	(batteryTemp@v4+1)^0,c
  2294  001100  0E00               	movlw	0
  2295  001102  6E3E               	movwf	batteryTemp@v4^0,c
  2296  001104                     
  2297                           ;uart_interface.c: 105:     int checksum = v1^v2^v3^v4^value;
  2298  001104  0E0C               	movlw	12
  2299  001106  1835               	xorwf	batteryTemp@value^0,w,c
  2300  001108  6E38               	movwf	batteryTemp@checksum^0,c
  2301  00110A  5036               	movf	(batteryTemp@value+1)^0,w,c
  2302  00110C  6E39               	movwf	(batteryTemp@checksum+1)^0,c
  2303  00110E                     
  2304                           ;uart_interface.c: 107:     EUSART1_Write(v1);
  2305  00110E  0E01               	movlw	1
  2306  001110  ECBE  F00A         	call	_EUSART1_Write
  2307  001114                     
  2308                           ;uart_interface.c: 108:     _delay((unsigned long)((10)*(20000000/4000.0)));
  2309  001114  0E41               	movlw	65
  2310  001116  6E37               	movwf	??_batteryTemp^0,c
  2311  001118  0EEE               	movlw	238
  2312  00111A                     u1257:
  2313  00111A  2EE8               	decfsz	wreg,f,c
  2314  00111C  D7FE               	bra	u1257
  2315  00111E  2E37               	decfsz	??_batteryTemp^0,f,c
  2316  001120  D7FC               	bra	u1257
  2317  001122  D000               	nop2	
  2318  001124                     
  2319                           ;uart_interface.c: 109:     EUSART1_Write(v2);
  2320  001124  0E0F               	movlw	15
  2321  001126  ECBE  F00A         	call	_EUSART1_Write
  2322  00112A                     
  2323                           ;uart_interface.c: 110:     _delay((unsigned long)((10)*(20000000/4000.0)));
  2324  00112A  0E41               	movlw	65
  2325  00112C  6E37               	movwf	??_batteryTemp^0,c
  2326  00112E  0EEE               	movlw	238
  2327  001130                     u1267:
  2328  001130  2EE8               	decfsz	wreg,f,c
  2329  001132  D7FE               	bra	u1267
  2330  001134  2E37               	decfsz	??_batteryTemp^0,f,c
  2331  001136  D7FC               	bra	u1267
  2332  001138  D000               	nop2	
  2333  00113A                     
  2334                           ;uart_interface.c: 111:     EUSART1_Write(v3);
  2335  00113A  0E02               	movlw	2
  2336  00113C  ECBE  F00A         	call	_EUSART1_Write
  2337  001140                     
  2338                           ;uart_interface.c: 112:     _delay((unsigned long)((10)*(20000000/4000.0)));
  2339  001140  0E41               	movlw	65
  2340  001142  6E37               	movwf	??_batteryTemp^0,c
  2341  001144  0EEE               	movlw	238
  2342  001146                     u1277:
  2343  001146  2EE8               	decfsz	wreg,f,c
  2344  001148  D7FE               	bra	u1277
  2345  00114A  2E37               	decfsz	??_batteryTemp^0,f,c
  2346  00114C  D7FC               	bra	u1277
  2347  00114E  D000               	nop2	
  2348  001150                     
  2349                           ;uart_interface.c: 113:     EUSART1_Write(v4);
  2350  001150  0E00               	movlw	0
  2351  001152  ECBE  F00A         	call	_EUSART1_Write
  2352  001156                     
  2353                           ;uart_interface.c: 114:     _delay((unsigned long)((10)*(20000000/4000.0)));
  2354  001156  0E41               	movlw	65
  2355  001158  6E37               	movwf	??_batteryTemp^0,c
  2356  00115A  0EEE               	movlw	238
  2357  00115C                     u1287:
  2358  00115C  2EE8               	decfsz	wreg,f,c
  2359  00115E  D7FE               	bra	u1287
  2360  001160  2E37               	decfsz	??_batteryTemp^0,f,c
  2361  001162  D7FC               	bra	u1287
  2362  001164  D000               	nop2	
  2363  001166                     
  2364                           ;uart_interface.c: 115:     EUSART1_Write(value);
  2365  001166  5035               	movf	batteryTemp@value^0,w,c
  2366  001168  ECBE  F00A         	call	_EUSART1_Write
  2367  00116C                     
  2368                           ;uart_interface.c: 116:     _delay((unsigned long)((10)*(20000000/4000.0)));
  2369  00116C  0E41               	movlw	65
  2370  00116E  6E37               	movwf	??_batteryTemp^0,c
  2371  001170  0EEE               	movlw	238
  2372  001172                     u1297:
  2373  001172  2EE8               	decfsz	wreg,f,c
  2374  001174  D7FE               	bra	u1297
  2375  001176  2E37               	decfsz	??_batteryTemp^0,f,c
  2376  001178  D7FC               	bra	u1297
  2377  00117A  D000               	nop2	
  2378  00117C                     
  2379                           ;uart_interface.c: 117:     EUSART1_Write(checksum);
  2380  00117C  5038               	movf	batteryTemp@checksum^0,w,c
  2381  00117E  ECBE  F00A         	call	_EUSART1_Write
  2382  001182  0012               	return		;funcret
  2383  001184                     __end_of_batteryTemp:
  2384                           	callstack 0
  2385                           
  2386 ;; *************** function _batterySOCGraphic *****************
  2387 ;; Defined at:
  2388 ;;		line 151 in file "uart_interface.c"
  2389 ;; Parameters:    Size  Location     Type
  2390 ;;  value           2    3[COMRAM] int 
  2391 ;; Auto vars:     Size  Location     Type
  2392 ;;  v4              2   12[COMRAM] int 
  2393 ;;  v3              2   10[COMRAM] int 
  2394 ;;  v2              2    8[COMRAM] int 
  2395 ;;  v1              2    0        int 
  2396 ;;  checksum        2    6[COMRAM] int 
  2397 ;; Return value:  Size  Location     Type
  2398 ;;                  1    wreg      void 
  2399 ;; Registers used:
  2400 ;;		wreg, status,2, status,0, cstack
  2401 ;; Tracked objects:
  2402 ;;		On entry : 0/0
  2403 ;;		On exit  : 0/0
  2404 ;;		Unchanged: 0/0
  2405 ;; Data sizes:     COMRAM   BANK0   BANK1   BANK2   BANK3   BANK4   BANK5   BANK6   BANK7   BANK8   BANK9  BANK10  BANK1
      +1  BANK12  BANK13  BANK14
  2406 ;;      Params:         2       0       0       0       0       0       0       0       0       0       0       0       
      +0       0       0       0
  2407 ;;      Locals:         8       0       0       0       0       0       0       0       0       0       0       0       
      +0       0       0       0
  2408 ;;      Temps:          1       0       0       0       0       0       0       0       0       0       0       0       
      +0       0       0       0
  2409 ;;      Totals:        11       0       0       0       0       0       0       0       0       0       0       0       
      +0       0       0       0
  2410 ;;Total ram usage:       11 bytes
  2411 ;; Hardware stack levels used: 1
  2412 ;; Hardware stack levels required when called: 4
  2413 ;; This function calls:
  2414 ;;		_EUSART1_Write
  2415 ;; This function is called by:
  2416 ;;		_init
  2417 ;; This function uses a non-reentrant model
  2418 ;;
  2419                           
  2420                           	psect	text9
  2421  001184                     __ptext9:
  2422                           	callstack 0
  2423  001184                     _batterySOCGraphic:
  2424                           	callstack 25
  2425  001184  0E00               	movlw	0
  2426  001186  6E3B               	movwf	(batterySOCGraphic@v2+1)^0,c
  2427  001188  0E0F               	movlw	15
  2428  00118A  6E3A               	movwf	batterySOCGraphic@v2^0,c
  2429  00118C  0E00               	movlw	0
  2430  00118E  6E3D               	movwf	(batterySOCGraphic@v3+1)^0,c
  2431  001190  0E03               	movlw	3
  2432  001192  6E3C               	movwf	batterySOCGraphic@v3^0,c
  2433  001194  0E00               	movlw	0
  2434  001196  6E3F               	movwf	(batterySOCGraphic@v4+1)^0,c
  2435  001198  0E00               	movlw	0
  2436  00119A  6E3E               	movwf	batterySOCGraphic@v4^0,c
  2437  00119C                     
  2438                           ;uart_interface.c: 153:     int checksum = v1^v2^v3^v4^value;
  2439  00119C  0E0D               	movlw	13
  2440  00119E  1835               	xorwf	batterySOCGraphic@value^0,w,c
  2441  0011A0  6E38               	movwf	batterySOCGraphic@checksum^0,c
  2442  0011A2  5036               	movf	(batterySOCGraphic@value+1)^0,w,c
  2443  0011A4  6E39               	movwf	(batterySOCGraphic@checksum+1)^0,c
  2444  0011A6                     
  2445                           ;uart_interface.c: 155:     EUSART1_Write(v1);
  2446  0011A6  0E01               	movlw	1
  2447  0011A8  ECBE  F00A         	call	_EUSART1_Write
  2448  0011AC                     
  2449                           ;uart_interface.c: 156:     _delay((unsigned long)((10)*(20000000/4000.0)));
  2450  0011AC  0E41               	movlw	65
  2451  0011AE  6E37               	movwf	??_batterySOCGraphic^0,c
  2452  0011B0  0EEE               	movlw	238
  2453  0011B2                     u1307:
  2454  0011B2  2EE8               	decfsz	wreg,f,c
  2455  0011B4  D7FE               	bra	u1307
  2456  0011B6  2E37               	decfsz	??_batterySOCGraphic^0,f,c
  2457  0011B8  D7FC               	bra	u1307
  2458  0011BA  D000               	nop2	
  2459  0011BC                     
  2460                           ;uart_interface.c: 157:     EUSART1_Write(v2);
  2461  0011BC  0E0F               	movlw	15
  2462  0011BE  ECBE  F00A         	call	_EUSART1_Write
  2463  0011C2                     
  2464                           ;uart_interface.c: 158:     _delay((unsigned long)((10)*(20000000/4000.0)));
  2465  0011C2  0E41               	movlw	65
  2466  0011C4  6E37               	movwf	??_batterySOCGraphic^0,c
  2467  0011C6  0EEE               	movlw	238
  2468  0011C8                     u1317:
  2469  0011C8  2EE8               	decfsz	wreg,f,c
  2470  0011CA  D7FE               	bra	u1317
  2471  0011CC  2E37               	decfsz	??_batterySOCGraphic^0,f,c
  2472  0011CE  D7FC               	bra	u1317
  2473  0011D0  D000               	nop2	
  2474  0011D2                     
  2475                           ;uart_interface.c: 159:     EUSART1_Write(v3);
  2476  0011D2  0E03               	movlw	3
  2477  0011D4  ECBE  F00A         	call	_EUSART1_Write
  2478  0011D8                     
  2479                           ;uart_interface.c: 160:     _delay((unsigned long)((10)*(20000000/4000.0)));
  2480  0011D8  0E41               	movlw	65
  2481  0011DA  6E37               	movwf	??_batterySOCGraphic^0,c
  2482  0011DC  0EEE               	movlw	238
  2483  0011DE                     u1327:
  2484  0011DE  2EE8               	decfsz	wreg,f,c
  2485  0011E0  D7FE               	bra	u1327
  2486  0011E2  2E37               	decfsz	??_batterySOCGraphic^0,f,c
  2487  0011E4  D7FC               	bra	u1327
  2488  0011E6  D000               	nop2	
  2489  0011E8                     
  2490                           ;uart_interface.c: 161:     EUSART1_Write(v4);
  2491  0011E8  0E00               	movlw	0
  2492  0011EA  ECBE  F00A         	call	_EUSART1_Write
  2493  0011EE                     
  2494                           ;uart_interface.c: 162:     _delay((unsigned long)((10)*(20000000/4000.0)));
  2495  0011EE  0E41               	movlw	65
  2496  0011F0  6E37               	movwf	??_batterySOCGraphic^0,c
  2497  0011F2  0EEE               	movlw	238
  2498  0011F4                     u1337:
  2499  0011F4  2EE8               	decfsz	wreg,f,c
  2500  0011F6  D7FE               	bra	u1337
  2501  0011F8  2E37               	decfsz	??_batterySOCGraphic^0,f,c
  2502  0011FA  D7FC               	bra	u1337
  2503  0011FC  D000               	nop2	
  2504  0011FE                     
  2505                           ;uart_interface.c: 163:     EUSART1_Write(value);
  2506  0011FE  5035               	movf	batterySOCGraphic@value^0,w,c
  2507  001200  ECBE  F00A         	call	_EUSART1_Write
  2508  001204                     
  2509                           ;uart_interface.c: 164:     _delay((unsigned long)((10)*(20000000/4000.0)));
  2510  001204  0E41               	movlw	65
  2511  001206  6E37               	movwf	??_batterySOCGraphic^0,c
  2512  001208  0EEE               	movlw	238
  2513  00120A                     u1347:
  2514  00120A  2EE8               	decfsz	wreg,f,c
  2515  00120C  D7FE               	bra	u1347
  2516  00120E  2E37               	decfsz	??_batterySOCGraphic^0,f,c
  2517  001210  D7FC               	bra	u1347
  2518  001212  D000               	nop2	
  2519  001214                     
  2520                           ;uart_interface.c: 165:     EUSART1_Write(checksum);
  2521  001214  5038               	movf	batterySOCGraphic@checksum^0,w,c
  2522  001216  ECBE  F00A         	call	_EUSART1_Write
  2523  00121A  0012               	return		;funcret
  2524  00121C                     __end_of_batterySOCGraphic:
  2525                           	callstack 0
  2526                           
  2527 ;; *************** function _batterySOC *****************
  2528 ;; Defined at:
  2529 ;;		line 135 in file "uart_interface.c"
  2530 ;; Parameters:    Size  Location     Type
  2531 ;;  value           2    3[COMRAM] int 
  2532 ;; Auto vars:     Size  Location     Type
  2533 ;;  v4              2   12[COMRAM] int 
  2534 ;;  v3              2   10[COMRAM] int 
  2535 ;;  v2              2    8[COMRAM] int 
  2536 ;;  v1              2    0        int 
  2537 ;;  checksum        2    6[COMRAM] int 
  2538 ;; Return value:  Size  Location     Type
  2539 ;;                  1    wreg      void 
  2540 ;; Registers used:
  2541 ;;		wreg, status,2, status,0, cstack
  2542 ;; Tracked objects:
  2543 ;;		On entry : 0/0
  2544 ;;		On exit  : 0/0
  2545 ;;		Unchanged: 0/0
  2546 ;; Data sizes:     COMRAM   BANK0   BANK1   BANK2   BANK3   BANK4   BANK5   BANK6   BANK7   BANK8   BANK9  BANK10  BANK1
      +1  BANK12  BANK13  BANK14
  2547 ;;      Params:         2       0       0       0       0       0       0       0       0       0       0       0       
      +0       0       0       0
  2548 ;;      Locals:         8       0       0       0       0       0       0       0       0       0       0       0       
      +0       0       0       0
  2549 ;;      Temps:          1       0       0       0       0       0       0       0       0       0       0       0       
      +0       0       0       0
  2550 ;;      Totals:        11       0       0       0       0       0       0       0       0       0       0       0       
      +0       0       0       0
  2551 ;;Total ram usage:       11 bytes
  2552 ;; Hardware stack levels used: 1
  2553 ;; Hardware stack levels required when called: 4
  2554 ;; This function calls:
  2555 ;;		_EUSART1_Write
  2556 ;; This function is called by:
  2557 ;;		_init
  2558 ;; This function uses a non-reentrant model
  2559 ;;
  2560                           
  2561                           	psect	text10
  2562  00121C                     __ptext10:
  2563                           	callstack 0
  2564  00121C                     _batterySOC:
  2565                           	callstack 25
  2566  00121C  0E00               	movlw	0
  2567  00121E  6E3B               	movwf	(batterySOC@v2+1)^0,c
  2568  001220  0E28               	movlw	40
  2569  001222  6E3A               	movwf	batterySOC@v2^0,c
  2570  001224  0E00               	movlw	0
  2571  001226  6E3D               	movwf	(batterySOC@v3+1)^0,c
  2572  001228  0E01               	movlw	1
  2573  00122A  6E3C               	movwf	batterySOC@v3^0,c
  2574  00122C  0E00               	movlw	0
  2575  00122E  6E3F               	movwf	(batterySOC@v4+1)^0,c
  2576  001230  0E00               	movlw	0
  2577  001232  6E3E               	movwf	batterySOC@v4^0,c
  2578  001234                     
  2579                           ;uart_interface.c: 137:     int checksum = v1^v2^v3^v4^value;
  2580  001234  0E28               	movlw	40
  2581  001236  1835               	xorwf	batterySOC@value^0,w,c
  2582  001238  6E38               	movwf	batterySOC@checksum^0,c
  2583  00123A  5036               	movf	(batterySOC@value+1)^0,w,c
  2584  00123C  6E39               	movwf	(batterySOC@checksum+1)^0,c
  2585  00123E                     
  2586                           ;uart_interface.c: 139:     EUSART1_Write(v1);
  2587  00123E  0E01               	movlw	1
  2588  001240  ECBE  F00A         	call	_EUSART1_Write
  2589  001244                     
  2590                           ;uart_interface.c: 140:     _delay((unsigned long)((10)*(20000000/4000.0)));
  2591  001244  0E41               	movlw	65
  2592  001246  6E37               	movwf	??_batterySOC^0,c
  2593  001248  0EEE               	movlw	238
  2594  00124A                     u1357:
  2595  00124A  2EE8               	decfsz	wreg,f,c
  2596  00124C  D7FE               	bra	u1357
  2597  00124E  2E37               	decfsz	??_batterySOC^0,f,c
  2598  001250  D7FC               	bra	u1357
  2599  001252  D000               	nop2	
  2600  001254                     
  2601                           ;uart_interface.c: 141:     EUSART1_Write(v2);
  2602  001254  0E28               	movlw	40
  2603  001256  ECBE  F00A         	call	_EUSART1_Write
  2604  00125A                     
  2605                           ;uart_interface.c: 142:     _delay((unsigned long)((10)*(20000000/4000.0)));
  2606  00125A  0E41               	movlw	65
  2607  00125C  6E37               	movwf	??_batterySOC^0,c
  2608  00125E  0EEE               	movlw	238
  2609  001260                     u1367:
  2610  001260  2EE8               	decfsz	wreg,f,c
  2611  001262  D7FE               	bra	u1367
  2612  001264  2E37               	decfsz	??_batterySOC^0,f,c
  2613  001266  D7FC               	bra	u1367
  2614  001268  D000               	nop2	
  2615  00126A                     
  2616                           ;uart_interface.c: 143:     EUSART1_Write(v3);
  2617  00126A  0E01               	movlw	1
  2618  00126C  ECBE  F00A         	call	_EUSART1_Write
  2619  001270                     
  2620                           ;uart_interface.c: 144:     _delay((unsigned long)((10)*(20000000/4000.0)));
  2621  001270  0E41               	movlw	65
  2622  001272  6E37               	movwf	??_batterySOC^0,c
  2623  001274  0EEE               	movlw	238
  2624  001276                     u1377:
  2625  001276  2EE8               	decfsz	wreg,f,c
  2626  001278  D7FE               	bra	u1377
  2627  00127A  2E37               	decfsz	??_batterySOC^0,f,c
  2628  00127C  D7FC               	bra	u1377
  2629  00127E  D000               	nop2	
  2630  001280                     
  2631                           ;uart_interface.c: 145:     EUSART1_Write(v4);
  2632  001280  0E00               	movlw	0
  2633  001282  ECBE  F00A         	call	_EUSART1_Write
  2634  001286                     
  2635                           ;uart_interface.c: 146:     _delay((unsigned long)((10)*(20000000/4000.0)));
  2636  001286  0E41               	movlw	65
  2637  001288  6E37               	movwf	??_batterySOC^0,c
  2638  00128A  0EEE               	movlw	238
  2639  00128C                     u1387:
  2640  00128C  2EE8               	decfsz	wreg,f,c
  2641  00128E  D7FE               	bra	u1387
  2642  001290  2E37               	decfsz	??_batterySOC^0,f,c
  2643  001292  D7FC               	bra	u1387
  2644  001294  D000               	nop2	
  2645  001296                     
  2646                           ;uart_interface.c: 147:     EUSART1_Write(value);
  2647  001296  5035               	movf	batterySOC@value^0,w,c
  2648  001298  ECBE  F00A         	call	_EUSART1_Write
  2649  00129C                     
  2650                           ;uart_interface.c: 148:     _delay((unsigned long)((10)*(20000000/4000.0)));
  2651  00129C  0E41               	movlw	65
  2652  00129E  6E37               	movwf	??_batterySOC^0,c
  2653  0012A0  0EEE               	movlw	238
  2654  0012A2                     u1397:
  2655  0012A2  2EE8               	decfsz	wreg,f,c
  2656  0012A4  D7FE               	bra	u1397
  2657  0012A6  2E37               	decfsz	??_batterySOC^0,f,c
  2658  0012A8  D7FC               	bra	u1397
  2659  0012AA  D000               	nop2	
  2660  0012AC                     
  2661                           ;uart_interface.c: 149:     EUSART1_Write(checksum);
  2662  0012AC  5038               	movf	batterySOC@checksum^0,w,c
  2663  0012AE  ECBE  F00A         	call	_EUSART1_Write
  2664  0012B2  0012               	return		;funcret
  2665  0012B4                     __end_of_batterySOC:
  2666                           	callstack 0
  2667                           
  2668 ;; *************** function _auxBattConn *****************
  2669 ;; Defined at:
  2670 ;;		line 52 in file "uart_interface.c"
  2671 ;; Parameters:    Size  Location     Type
  2672 ;;  value           2    3[COMRAM] int 
  2673 ;; Auto vars:     Size  Location     Type
  2674 ;;  v4              2   12[COMRAM] int 
  2675 ;;  v3              2   10[COMRAM] int 
  2676 ;;  v2              2    8[COMRAM] int 
  2677 ;;  v1              2    0        int 
  2678 ;;  checksum        2    6[COMRAM] int 
  2679 ;; Return value:  Size  Location     Type
  2680 ;;                  1    wreg      void 
  2681 ;; Registers used:
  2682 ;;		wreg, status,2, status,0, cstack
  2683 ;; Tracked objects:
  2684 ;;		On entry : 0/0
  2685 ;;		On exit  : 0/0
  2686 ;;		Unchanged: 0/0
  2687 ;; Data sizes:     COMRAM   BANK0   BANK1   BANK2   BANK3   BANK4   BANK5   BANK6   BANK7   BANK8   BANK9  BANK10  BANK1
      +1  BANK12  BANK13  BANK14
  2688 ;;      Params:         2       0       0       0       0       0       0       0       0       0       0       0       
      +0       0       0       0
  2689 ;;      Locals:         8       0       0       0       0       0       0       0       0       0       0       0       
      +0       0       0       0
  2690 ;;      Temps:          1       0       0       0       0       0       0       0       0       0       0       0       
      +0       0       0       0
  2691 ;;      Totals:        11       0       0       0       0       0       0       0       0       0       0       0       
      +0       0       0       0
  2692 ;;Total ram usage:       11 bytes
  2693 ;; Hardware stack levels used: 1
  2694 ;; Hardware stack levels required when called: 4
  2695 ;; This function calls:
  2696 ;;		_EUSART1_Write
  2697 ;; This function is called by:
  2698 ;;		_main
  2699 ;;		_init
  2700 ;; This function uses a non-reentrant model
  2701 ;;
  2702                           
  2703                           	psect	text11
  2704  0012B4                     __ptext11:
  2705                           	callstack 0
  2706  0012B4                     _auxBattConn:
  2707                           	callstack 25
  2708  0012B4  0E00               	movlw	0
  2709  0012B6  6E3B               	movwf	(auxBattConn@v2+1)^0,c
  2710  0012B8  0E2E               	movlw	46
  2711  0012BA  6E3A               	movwf	auxBattConn@v2^0,c
  2712  0012BC  0E00               	movlw	0
  2713  0012BE  6E3D               	movwf	(auxBattConn@v3+1)^0,c
  2714  0012C0  0E01               	movlw	1
  2715  0012C2  6E3C               	movwf	auxBattConn@v3^0,c
  2716  0012C4  0E00               	movlw	0
  2717  0012C6  6E3F               	movwf	(auxBattConn@v4+1)^0,c
  2718  0012C8  0E00               	movlw	0
  2719  0012CA  6E3E               	movwf	auxBattConn@v4^0,c
  2720  0012CC                     
  2721                           ;uart_interface.c: 54:     int checksum = v1^v2^v3^v4^value;
  2722  0012CC  0E2E               	movlw	46
  2723  0012CE  1835               	xorwf	auxBattConn@value^0,w,c
  2724  0012D0  6E38               	movwf	auxBattConn@checksum^0,c
  2725  0012D2  5036               	movf	(auxBattConn@value+1)^0,w,c
  2726  0012D4  6E39               	movwf	(auxBattConn@checksum+1)^0,c
  2727  0012D6                     
  2728                           ;uart_interface.c: 56:     EUSART1_Write(v1);
  2729  0012D6  0E01               	movlw	1
  2730  0012D8  ECBE  F00A         	call	_EUSART1_Write
  2731  0012DC                     
  2732                           ;uart_interface.c: 57:     _delay((unsigned long)((10)*(20000000/4000.0)));
  2733  0012DC  0E41               	movlw	65
  2734  0012DE  6E37               	movwf	??_auxBattConn^0,c
  2735  0012E0  0EEE               	movlw	238
  2736  0012E2                     u1407:
  2737  0012E2  2EE8               	decfsz	wreg,f,c
  2738  0012E4  D7FE               	bra	u1407
  2739  0012E6  2E37               	decfsz	??_auxBattConn^0,f,c
  2740  0012E8  D7FC               	bra	u1407
  2741  0012EA  D000               	nop2	
  2742  0012EC                     
  2743                           ;uart_interface.c: 58:     EUSART1_Write(v2);
  2744  0012EC  0E2E               	movlw	46
  2745  0012EE  ECBE  F00A         	call	_EUSART1_Write
  2746  0012F2                     
  2747                           ;uart_interface.c: 59:     _delay((unsigned long)((10)*(20000000/4000.0)));
  2748  0012F2  0E41               	movlw	65
  2749  0012F4  6E37               	movwf	??_auxBattConn^0,c
  2750  0012F6  0EEE               	movlw	238
  2751  0012F8                     u1417:
  2752  0012F8  2EE8               	decfsz	wreg,f,c
  2753  0012FA  D7FE               	bra	u1417
  2754  0012FC  2E37               	decfsz	??_auxBattConn^0,f,c
  2755  0012FE  D7FC               	bra	u1417
  2756  001300  D000               	nop2	
  2757  001302                     
  2758                           ;uart_interface.c: 60:     EUSART1_Write(v3);
  2759  001302  0E01               	movlw	1
  2760  001304  ECBE  F00A         	call	_EUSART1_Write
  2761  001308                     
  2762                           ;uart_interface.c: 61:     _delay((unsigned long)((10)*(20000000/4000.0)));
  2763  001308  0E41               	movlw	65
  2764  00130A  6E37               	movwf	??_auxBattConn^0,c
  2765  00130C  0EEE               	movlw	238
  2766  00130E                     u1427:
  2767  00130E  2EE8               	decfsz	wreg,f,c
  2768  001310  D7FE               	bra	u1427
  2769  001312  2E37               	decfsz	??_auxBattConn^0,f,c
  2770  001314  D7FC               	bra	u1427
  2771  001316  D000               	nop2	
  2772  001318                     
  2773                           ;uart_interface.c: 62:     EUSART1_Write(v4);
  2774  001318  0E00               	movlw	0
  2775  00131A  ECBE  F00A         	call	_EUSART1_Write
  2776  00131E                     
  2777                           ;uart_interface.c: 63:     _delay((unsigned long)((10)*(20000000/4000.0)));
  2778  00131E  0E41               	movlw	65
  2779  001320  6E37               	movwf	??_auxBattConn^0,c
  2780  001322  0EEE               	movlw	238
  2781  001324                     u1437:
  2782  001324  2EE8               	decfsz	wreg,f,c
  2783  001326  D7FE               	bra	u1437
  2784  001328  2E37               	decfsz	??_auxBattConn^0,f,c
  2785  00132A  D7FC               	bra	u1437
  2786  00132C  D000               	nop2	
  2787  00132E                     
  2788                           ;uart_interface.c: 64:     EUSART1_Write(value);
  2789  00132E  5035               	movf	auxBattConn@value^0,w,c
  2790  001330  ECBE  F00A         	call	_EUSART1_Write
  2791  001334                     
  2792                           ;uart_interface.c: 65:     _delay((unsigned long)((10)*(20000000/4000.0)));
  2793  001334  0E41               	movlw	65
  2794  001336  6E37               	movwf	??_auxBattConn^0,c
  2795  001338  0EEE               	movlw	238
  2796  00133A                     u1447:
  2797  00133A  2EE8               	decfsz	wreg,f,c
  2798  00133C  D7FE               	bra	u1447
  2799  00133E  2E37               	decfsz	??_auxBattConn^0,f,c
  2800  001340  D7FC               	bra	u1447
  2801  001342  D000               	nop2	
  2802  001344                     
  2803                           ;uart_interface.c: 66:     EUSART1_Write(checksum);
  2804  001344  5038               	movf	auxBattConn@checksum^0,w,c
  2805  001346  ECBE  F00A         	call	_EUSART1_Write
  2806  00134A  0012               	return		;funcret
  2807  00134C                     __end_of_auxBattConn:
  2808                           	callstack 0
  2809                           
  2810 ;; *************** function _EUSART1_Write *****************
  2811 ;; Defined at:
  2812 ;;		line 132 in file "mcc_generated_files/eusart1.c"
  2813 ;; Parameters:    Size  Location     Type
  2814 ;;  txData          1    wreg     unsigned char 
  2815 ;; Auto vars:     Size  Location     Type
  2816 ;;  txData          1    2[COMRAM] unsigned char 
  2817 ;; Return value:  Size  Location     Type
  2818 ;;                  1    wreg      void 
  2819 ;; Registers used:
  2820 ;;		wreg
  2821 ;; Tracked objects:
  2822 ;;		On entry : 0/0
  2823 ;;		On exit  : 0/0
  2824 ;;		Unchanged: 0/0
  2825 ;; Data sizes:     COMRAM   BANK0   BANK1   BANK2   BANK3   BANK4   BANK5   BANK6   BANK7   BANK8   BANK9  BANK10  BANK1
      +1  BANK12  BANK13  BANK14
  2826 ;;      Params:         0       0       0       0       0       0       0       0       0       0       0       0       
      +0       0       0       0
  2827 ;;      Locals:         1       0       0       0       0       0       0       0       0       0       0       0       
      +0       0       0       0
  2828 ;;      Temps:          0       0       0       0       0       0       0       0       0       0       0       0       
      +0       0       0       0
  2829 ;;      Totals:         1       0       0       0       0       0       0       0       0       0       0       0       
      +0       0       0       0
  2830 ;;Total ram usage:        1 bytes
  2831 ;; Hardware stack levels used: 1
  2832 ;; Hardware stack levels required when called: 3
  2833 ;; This function calls:
  2834 ;;		Nothing
  2835 ;; This function is called by:
  2836 ;;		_leftTurnIndicator
  2837 ;;		_rightTurnIndicator
  2838 ;;		_warningLED
  2839 ;;		_auxBattConn
  2840 ;;		_motorSpeed
  2841 ;;		_motorControllerTemp
  2842 ;;		_batteryTemp
  2843 ;;		_hazardSignal
  2844 ;;		_batterySOC
  2845 ;;		_batterySOCGraphic
  2846 ;; This function uses a non-reentrant model
  2847 ;;
  2848                           
  2849                           	psect	text12
  2850  00157C                     __ptext12:
  2851                           	callstack 0
  2852  00157C                     _EUSART1_Write:
  2853                           	callstack 26
  2854                           
  2855                           ;incstack = 0
  2856                           ;EUSART1_Write@txData stored from wreg
  2857  00157C  6E34               	movwf	EUSART1_Write@txData^0,c
  2858  00157E                     l67:
  2859                           
  2860                           ;mcc_generated_files/eusart1.c: 134:     while(0 == PIR1bits.TX1IF)
  2861  00157E  A89E               	btfss	158,4,c	;volatile
  2862  001580  EFC4  F00A         	goto	u11
  2863  001584  EFC6  F00A         	goto	u10
  2864  001588                     u11:
  2865  001588  EFBF  F00A         	goto	l67
  2866  00158C                     u10:
  2867  00158C                     
  2868                           ;mcc_generated_files/eusart1.c: 138:     TXREG1 = txData;
  2869  00158C  C034  FFAD         	movff	EUSART1_Write@txData,4013	;volatile
  2870  001590  0012               	return		;funcret
  2871  001592                     __end_of_EUSART1_Write:
  2872                           	callstack 0
  2873                           
  2874 ;; *************** function _canRightSignal *****************
  2875 ;; Defined at:
  2876 ;;		line 15 in file "can_interface.c"
  2877 ;; Parameters:    Size  Location     Type
  2878 ;;  number          2   26[COMRAM] int 
  2879 ;; Auto vars:     Size  Location     Type
  2880 ;;		None
  2881 ;; Return value:  Size  Location     Type
  2882 ;;                  1    wreg      void 
  2883 ;; Registers used:
  2884 ;;		wreg, fsr2l, fsr2h, status,2, status,0, cstack
  2885 ;; Tracked objects:
  2886 ;;		On entry : 0/0
  2887 ;;		On exit  : 0/0
  2888 ;;		Unchanged: 0/0
  2889 ;; Data sizes:     COMRAM   BANK0   BANK1   BANK2   BANK3   BANK4   BANK5   BANK6   BANK7   BANK8   BANK9  BANK10  BANK1
      +1  BANK12  BANK13  BANK14
  2890 ;;      Params:         2       0       0       0       0       0       0       0       0       0       0       0       
      +0       0       0       0
  2891 ;;      Locals:         0       0       0       0       0       0       0       0       0       0       0       0       
      +0       0       0       0
  2892 ;;      Temps:          0       0       0       0       0       0       0       0       0       0       0       0       
      +0       0       0       0
  2893 ;;      Totals:         2       0       0       0       0       0       0       0       0       0       0       0       
      +0       0       0       0
  2894 ;;Total ram usage:        2 bytes
  2895 ;; Hardware stack levels used: 1
  2896 ;; Hardware stack levels required when called: 5
  2897 ;; This function calls:
  2898 ;;		_CAN_transmit
  2899 ;; This function is called by:
  2900 ;;		_main
  2901 ;; This function uses a non-reentrant model
  2902 ;;
  2903                           
  2904                           	psect	text13
  2905  0014B4                     __ptext13:
  2906                           	callstack 0
  2907  0014B4                     _canRightSignal:
  2908                           	callstack 25
  2909  0014B4                     
  2910                           ;can_interface.c: 16:  tx1.frame.idType = 1;
  2911  0014B4  0E01               	movlw	1
  2912  0014B6  0100               	movlb	0	; () banked
  2913  0014B8  6FA6               	movwf	_tx1& (0+255),b
  2914                           
  2915                           ;can_interface.c: 17:  tx1.frame.id = 0x62;
  2916  0014BA  0E62               	movlw	98
  2917  0014BC  6FA7               	movwf	(_tx1+1)& (0+255),b
  2918  0014BE  0E00               	movlw	0
  2919  0014C0  6FA8               	movwf	(_tx1+2)& (0+255),b
  2920  0014C2  0E00               	movlw	0
  2921  0014C4  6FA9               	movwf	(_tx1+3)& (0+255),b
  2922  0014C6  0E00               	movlw	0
  2923  0014C8  6FAA               	movwf	(_tx1+4)& (0+255),b
  2924                           
  2925                           ;can_interface.c: 18:  tx1.frame.dlc = 0x01;
  2926  0014CA  0E01               	movlw	1
  2927  0014CC  6FAB               	movwf	(_tx1+5)& (0+255),b
  2928  0014CE                     
  2929                           ; BSR set to: 0
  2930                           ;can_interface.c: 19:  tx1.frame.data0 = number;
  2931  0014CE  C04C  F0AC         	movff	canRightSignal@number,_tx1+6
  2932  0014D2                     
  2933                           ; BSR set to: 0
  2934                           ;can_interface.c: 20:  CAN_transmit(&tx1);
  2935  0014D2  0EA6               	movlw	low _tx1
  2936  0014D4  6E46               	movwf	CAN_transmit@tempCanMsg^0,c
  2937  0014D6  0E00               	movlw	high _tx1
  2938  0014D8  6E47               	movwf	(CAN_transmit@tempCanMsg+1)^0,c
  2939  0014DA  ECCE  F001         	call	_CAN_transmit	;wreg free
  2940  0014DE  0012               	return		;funcret
  2941  0014E0                     __end_of_canRightSignal:
  2942                           	callstack 0
  2943                           
  2944 ;; *************** function _canLeftSignal *****************
  2945 ;; Defined at:
  2946 ;;		line 23 in file "can_interface.c"
  2947 ;; Parameters:    Size  Location     Type
  2948 ;;  number          2   26[COMRAM] int 
  2949 ;; Auto vars:     Size  Location     Type
  2950 ;;		None
  2951 ;; Return value:  Size  Location     Type
  2952 ;;                  1    wreg      void 
  2953 ;; Registers used:
  2954 ;;		wreg, fsr2l, fsr2h, status,2, status,0, cstack
  2955 ;; Tracked objects:
  2956 ;;		On entry : 0/0
  2957 ;;		On exit  : 0/0
  2958 ;;		Unchanged: 0/0
  2959 ;; Data sizes:     COMRAM   BANK0   BANK1   BANK2   BANK3   BANK4   BANK5   BANK6   BANK7   BANK8   BANK9  BANK10  BANK1
      +1  BANK12  BANK13  BANK14
  2960 ;;      Params:         2       0       0       0       0       0       0       0       0       0       0       0       
      +0       0       0       0
  2961 ;;      Locals:         0       0       0       0       0       0       0       0       0       0       0       0       
      +0       0       0       0
  2962 ;;      Temps:          0       0       0       0       0       0       0       0       0       0       0       0       
      +0       0       0       0
  2963 ;;      Totals:         2       0       0       0       0       0       0       0       0       0       0       0       
      +0       0       0       0
  2964 ;;Total ram usage:        2 bytes
  2965 ;; Hardware stack levels used: 1
  2966 ;; Hardware stack levels required when called: 5
  2967 ;; This function calls:
  2968 ;;		_CAN_transmit
  2969 ;; This function is called by:
  2970 ;;		_main
  2971 ;; This function uses a non-reentrant model
  2972 ;;
  2973                           
  2974                           	psect	text14
  2975  0014E0                     __ptext14:
  2976                           	callstack 0
  2977  0014E0                     _canLeftSignal:
  2978                           	callstack 25
  2979  0014E0                     
  2980                           ;can_interface.c: 24:  tx2.frame.idType = 1;
  2981  0014E0  0E01               	movlw	1
  2982  0014E2  0100               	movlb	0	; () banked
  2983  0014E4  6F98               	movwf	_tx2& (0+255),b
  2984                           
  2985                           ;can_interface.c: 25:  tx2.frame.id = 0x63;
  2986  0014E6  0E63               	movlw	99
  2987  0014E8  6F99               	movwf	(_tx2+1)& (0+255),b
  2988  0014EA  0E00               	movlw	0
  2989  0014EC  6F9A               	movwf	(_tx2+2)& (0+255),b
  2990  0014EE  0E00               	movlw	0
  2991  0014F0  6F9B               	movwf	(_tx2+3)& (0+255),b
  2992  0014F2  0E00               	movlw	0
  2993  0014F4  6F9C               	movwf	(_tx2+4)& (0+255),b
  2994                           
  2995                           ;can_interface.c: 26:  tx2.frame.dlc = 0x01;
  2996  0014F6  0E01               	movlw	1
  2997  0014F8  6F9D               	movwf	(_tx2+5)& (0+255),b
  2998  0014FA                     
  2999                           ; BSR set to: 0
  3000                           ;can_interface.c: 27:  tx2.frame.data0 = number;
  3001  0014FA  C04C  F09E         	movff	canLeftSignal@number,_tx2+6
  3002  0014FE                     
  3003                           ; BSR set to: 0
  3004                           ;can_interface.c: 28:  CAN_transmit(&tx2);
  3005  0014FE  0E98               	movlw	low _tx2
  3006  001500  6E46               	movwf	CAN_transmit@tempCanMsg^0,c
  3007  001502  0E00               	movlw	high _tx2
  3008  001504  6E47               	movwf	(CAN_transmit@tempCanMsg+1)^0,c
  3009  001506  ECCE  F001         	call	_CAN_transmit	;wreg free
  3010  00150A  0012               	return		;funcret
  3011  00150C                     __end_of_canLeftSignal:
  3012                           	callstack 0
  3013                           
  3014 ;; *************** function _canHazardSignal *****************
  3015 ;; Defined at:
  3016 ;;		line 31 in file "can_interface.c"
  3017 ;; Parameters:    Size  Location     Type
  3018 ;;  number          2   26[COMRAM] int 
  3019 ;; Auto vars:     Size  Location     Type
  3020 ;;		None
  3021 ;; Return value:  Size  Location     Type
  3022 ;;                  1    wreg      void 
  3023 ;; Registers used:
  3024 ;;		wreg, fsr2l, fsr2h, status,2, status,0, cstack
  3025 ;; Tracked objects:
  3026 ;;		On entry : 0/0
  3027 ;;		On exit  : 0/0
  3028 ;;		Unchanged: 0/0
  3029 ;; Data sizes:     COMRAM   BANK0   BANK1   BANK2   BANK3   BANK4   BANK5   BANK6   BANK7   BANK8   BANK9  BANK10  BANK1
      +1  BANK12  BANK13  BANK14
  3030 ;;      Params:         2       0       0       0       0       0       0       0       0       0       0       0       
      +0       0       0       0
  3031 ;;      Locals:         0       0       0       0       0       0       0       0       0       0       0       0       
      +0       0       0       0
  3032 ;;      Temps:          0       0       0       0       0       0       0       0       0       0       0       0       
      +0       0       0       0
  3033 ;;      Totals:         2       0       0       0       0       0       0       0       0       0       0       0       
      +0       0       0       0
  3034 ;;Total ram usage:        2 bytes
  3035 ;; Hardware stack levels used: 1
  3036 ;; Hardware stack levels required when called: 5
  3037 ;; This function calls:
  3038 ;;		_CAN_transmit
  3039 ;; This function is called by:
  3040 ;;		_main
  3041 ;; This function uses a non-reentrant model
  3042 ;;
  3043                           
  3044                           	psect	text15
  3045  00150C                     __ptext15:
  3046                           	callstack 0
  3047  00150C                     _canHazardSignal:
  3048                           	callstack 25
  3049  00150C                     
  3050                           ;can_interface.c: 32:  tx3.frame.idType = 1;
  3051  00150C  0E01               	movlw	1
  3052  00150E  0100               	movlb	0	; () banked
  3053  001510  6F8A               	movwf	_tx3& (0+255),b
  3054                           
  3055                           ;can_interface.c: 33:  tx3.frame.id = 0x61;
  3056  001512  0E61               	movlw	97
  3057  001514  6F8B               	movwf	(_tx3+1)& (0+255),b
  3058  001516  0E00               	movlw	0
  3059  001518  6F8C               	movwf	(_tx3+2)& (0+255),b
  3060  00151A  0E00               	movlw	0
  3061  00151C  6F8D               	movwf	(_tx3+3)& (0+255),b
  3062  00151E  0E00               	movlw	0
  3063  001520  6F8E               	movwf	(_tx3+4)& (0+255),b
  3064                           
  3065                           ;can_interface.c: 34:  tx3.frame.dlc = 0x01;
  3066  001522  0E01               	movlw	1
  3067  001524  6F8F               	movwf	(_tx3+5)& (0+255),b
  3068  001526                     
  3069                           ; BSR set to: 0
  3070                           ;can_interface.c: 35:  tx3.frame.data0 = number;
  3071  001526  C04C  F090         	movff	canHazardSignal@number,_tx3+6
  3072  00152A                     
  3073                           ; BSR set to: 0
  3074                           ;can_interface.c: 36:  CAN_transmit(&tx3);
  3075  00152A  0E8A               	movlw	low _tx3
  3076  00152C  6E46               	movwf	CAN_transmit@tempCanMsg^0,c
  3077  00152E  0E00               	movlw	high _tx3
  3078  001530  6E47               	movwf	(CAN_transmit@tempCanMsg+1)^0,c
  3079  001532  ECCE  F001         	call	_CAN_transmit	;wreg free
  3080  001536  0012               	return		;funcret
  3081  001538                     __end_of_canHazardSignal:
  3082                           	callstack 0
  3083                           
  3084 ;; *************** function _CAN_transmit *****************
  3085 ;; Defined at:
  3086 ;;		line 236 in file "mcc_generated_files/ecan.c"
  3087 ;; Parameters:    Size  Location     Type
  3088 ;;  tempCanMsg      2   20[COMRAM] PTR struct .
  3089 ;;		 -> tx6(14), tx5(14), tx4(14), tx3(14), 
  3090 ;;		 -> tx2(14), tx1(14), 
  3091 ;; Auto vars:     Size  Location     Type
  3092 ;;  tempSIDL        1   25[COMRAM] unsigned char 
  3093 ;;  tempSIDH        1   24[COMRAM] unsigned char 
  3094 ;;  tempEIDL        1   23[COMRAM] unsigned char 
  3095 ;;  tempEIDH        1   22[COMRAM] unsigned char 
  3096 ;;  returnValue     1    0        unsigned char 
  3097 ;; Return value:  Size  Location     Type
  3098 ;;                  1    wreg      unsigned char 
  3099 ;; Registers used:
  3100 ;;		wreg, fsr2l, fsr2h, status,2, status,0, cstack
  3101 ;; Tracked objects:
  3102 ;;		On entry : 0/0
  3103 ;;		On exit  : 0/0
  3104 ;;		Unchanged: 0/0
  3105 ;; Data sizes:     COMRAM   BANK0   BANK1   BANK2   BANK3   BANK4   BANK5   BANK6   BANK7   BANK8   BANK9  BANK10  BANK1
      +1  BANK12  BANK13  BANK14
  3106 ;;      Params:         2       0       0       0       0       0       0       0       0       0       0       0       
      +0       0       0       0
  3107 ;;      Locals:         4       0       0       0       0       0       0       0       0       0       0       0       
      +0       0       0       0
  3108 ;;      Temps:          0       0       0       0       0       0       0       0       0       0       0       0       
      +0       0       0       0
  3109 ;;      Totals:         6       0       0       0       0       0       0       0       0       0       0       0       
      +0       0       0       0
  3110 ;;Total ram usage:        6 bytes
  3111 ;; Hardware stack levels used: 1
  3112 ;; Hardware stack levels required when called: 4
  3113 ;; This function calls:
  3114 ;;		_convertCANid2Reg
  3115 ;; This function is called by:
  3116 ;;		_canRightSignal
  3117 ;;		_canLeftSignal
  3118 ;;		_canHazardSignal
  3119 ;;		_canFrontSignal
  3120 ;;		_canBackSignal
  3121 ;;		_requestSpeed
  3122 ;; This function uses a non-reentrant model
  3123 ;;
  3124                           
  3125                           	psect	text16
  3126  00039C                     __ptext16:
  3127                           	callstack 0
  3128  00039C                     _CAN_transmit:
  3129                           	callstack 25
  3130  00039C                     
  3131                           ;mcc_generated_files/ecan.c: 236: uint8_t CAN_transmit(uCAN_MSG *tempCanMsg);mcc_generat
      +                          ed_files/ecan.c: 237: {;mcc_generated_files/ecan.c: 238:     uint8_t tempEIDH = 0;
  3132  00039C  0E00               	movlw	0
  3133  00039E  6E48               	movwf	CAN_transmit@tempEIDH^0,c
  3134                           
  3135                           ;mcc_generated_files/ecan.c: 239:     uint8_t tempEIDL = 0;
  3136  0003A0  0E00               	movlw	0
  3137  0003A2  6E49               	movwf	CAN_transmit@tempEIDL^0,c
  3138                           
  3139                           ;mcc_generated_files/ecan.c: 240:     uint8_t tempSIDH = 0;
  3140  0003A4  0E00               	movlw	0
  3141  0003A6  6E4A               	movwf	CAN_transmit@tempSIDH^0,c
  3142                           
  3143                           ;mcc_generated_files/ecan.c: 241:     uint8_t tempSIDL = 0;
  3144  0003A8  0E00               	movlw	0
  3145  0003AA  6E4B               	movwf	CAN_transmit@tempSIDL^0,c
  3146  0003AC                     
  3147                           ;mcc_generated_files/ecan.c: 244:     if (TXB0CONbits.TXREQ != 1)
  3148  0003AC  010F               	movlb	15	; () banked
  3149  0003AE  B720               	btfsc	32,3,b	;volatile
  3150  0003B0  EFDC  F001         	goto	u571
  3151  0003B4  EFDE  F001         	goto	u570
  3152  0003B8                     u571:
  3153  0003B8  EF58  F002         	goto	l511
  3154  0003BC                     u570:
  3155  0003BC                     
  3156                           ; BSR set to: 15
  3157                           ;mcc_generated_files/ecan.c: 245:     {;mcc_generated_files/ecan.c: 246:         convert
      +                          CANid2Reg(tempCanMsg->frame.id, tempCanMsg->frame.idType, &tempEIDH, &tempEIDL, &tempSID
      +                          H, &tempSIDL);
  3158  0003BC  EE20 F001          	lfsr	2,1
  3159  0003C0  5046               	movf	CAN_transmit@tempCanMsg^0,w,c
  3160  0003C2  26D9               	addwf	fsr2l,f,c
  3161  0003C4  5047               	movf	(CAN_transmit@tempCanMsg+1)^0,w,c
  3162  0003C6  22DA               	addwfc	fsr2h,f,c
  3163  0003C8  CFDE F034          	movff	postinc2,convertCANid2Reg@tempPassedInID
  3164  0003CC  CFDE F035          	movff	postinc2,convertCANid2Reg@tempPassedInID+1
  3165  0003D0  CFDE F036          	movff	postinc2,convertCANid2Reg@tempPassedInID+2
  3166  0003D4  CFDE F037          	movff	postinc2,convertCANid2Reg@tempPassedInID+3
  3167  0003D8  C046  FFD9         	movff	CAN_transmit@tempCanMsg,fsr2l
  3168  0003DC  C047  FFDA         	movff	CAN_transmit@tempCanMsg+1,fsr2h
  3169  0003E0  50DF               	movf	indf2,w,c
  3170  0003E2  6E38               	movwf	convertCANid2Reg@canIdType^0,c
  3171  0003E4  0E48               	movlw	low CAN_transmit@tempEIDH
  3172  0003E6  6E39               	movwf	convertCANid2Reg@passedInEIDH^0,c
  3173  0003E8  0E00               	movlw	high CAN_transmit@tempEIDH
  3174  0003EA  6E3A               	movwf	(convertCANid2Reg@passedInEIDH+1)^0,c
  3175  0003EC  0E49               	movlw	low CAN_transmit@tempEIDL
  3176  0003EE  6E3B               	movwf	convertCANid2Reg@passedInEIDL^0,c
  3177  0003F0  0E00               	movlw	high CAN_transmit@tempEIDL
  3178  0003F2  6E3C               	movwf	(convertCANid2Reg@passedInEIDL+1)^0,c
  3179  0003F4  0E4A               	movlw	low CAN_transmit@tempSIDH
  3180  0003F6  6E3D               	movwf	convertCANid2Reg@passedInSIDH^0,c
  3181  0003F8  0E00               	movlw	high CAN_transmit@tempSIDH
  3182  0003FA  6E3E               	movwf	(convertCANid2Reg@passedInSIDH+1)^0,c
  3183  0003FC  0E4B               	movlw	low CAN_transmit@tempSIDL
  3184  0003FE  6E3F               	movwf	convertCANid2Reg@passedInSIDL^0,c
  3185  000400  0E00               	movlw	high CAN_transmit@tempSIDL
  3186  000402  6E40               	movwf	(convertCANid2Reg@passedInSIDL+1)^0,c
  3187  000404  EC57  F005         	call	_convertCANid2Reg	;wreg free
  3188  000408                     
  3189                           ;mcc_generated_files/ecan.c: 248:         TXB0EIDH = tempEIDH;
  3190  000408  C048  FF23         	movff	CAN_transmit@tempEIDH,3875	;volatile
  3191  00040C                     
  3192                           ;mcc_generated_files/ecan.c: 249:         TXB0EIDL = tempEIDL;
  3193  00040C  C049  FF24         	movff	CAN_transmit@tempEIDL,3876	;volatile
  3194  000410                     
  3195                           ;mcc_generated_files/ecan.c: 250:         TXB0SIDH = tempSIDH;
  3196  000410  C04A  FF21         	movff	CAN_transmit@tempSIDH,3873	;volatile
  3197  000414                     
  3198                           ;mcc_generated_files/ecan.c: 251:         TXB0SIDL = tempSIDL;
  3199  000414  C04B  FF22         	movff	CAN_transmit@tempSIDL,3874	;volatile
  3200  000418                     
  3201                           ;mcc_generated_files/ecan.c: 252:         TXB0DLC = tempCanMsg->frame.dlc;
  3202  000418  EE20 F005          	lfsr	2,5
  3203  00041C  5046               	movf	CAN_transmit@tempCanMsg^0,w,c
  3204  00041E  26D9               	addwf	fsr2l,f,c
  3205  000420  5047               	movf	(CAN_transmit@tempCanMsg+1)^0,w,c
  3206  000422  22DA               	addwfc	fsr2h,f,c
  3207  000424  50DF               	movf	indf2,w,c
  3208  000426  010F               	movlb	15	; () banked
  3209  000428  6F25               	movwf	37,b	;volatile
  3210  00042A                     
  3211                           ; BSR set to: 15
  3212                           ;mcc_generated_files/ecan.c: 253:         TXB0D0 = tempCanMsg->frame.data0;
  3213  00042A  EE20 F006          	lfsr	2,6
  3214  00042E  5046               	movf	CAN_transmit@tempCanMsg^0,w,c
  3215  000430  26D9               	addwf	fsr2l,f,c
  3216  000432  5047               	movf	(CAN_transmit@tempCanMsg+1)^0,w,c
  3217  000434  22DA               	addwfc	fsr2h,f,c
  3218  000436  50DF               	movf	indf2,w,c
  3219  000438  6F26               	movwf	38,b	;volatile
  3220  00043A                     
  3221                           ; BSR set to: 15
  3222                           ;mcc_generated_files/ecan.c: 254:         TXB0D1 = tempCanMsg->frame.data1;
  3223  00043A  EE20 F007          	lfsr	2,7
  3224  00043E  5046               	movf	CAN_transmit@tempCanMsg^0,w,c
  3225  000440  26D9               	addwf	fsr2l,f,c
  3226  000442  5047               	movf	(CAN_transmit@tempCanMsg+1)^0,w,c
  3227  000444  22DA               	addwfc	fsr2h,f,c
  3228  000446  50DF               	movf	indf2,w,c
  3229  000448  6F27               	movwf	39,b	;volatile
  3230  00044A                     
  3231                           ; BSR set to: 15
  3232                           ;mcc_generated_files/ecan.c: 255:         TXB0D2 = tempCanMsg->frame.data2;
  3233  00044A  EE20 F008          	lfsr	2,8
  3234  00044E  5046               	movf	CAN_transmit@tempCanMsg^0,w,c
  3235  000450  26D9               	addwf	fsr2l,f,c
  3236  000452  5047               	movf	(CAN_transmit@tempCanMsg+1)^0,w,c
  3237  000454  22DA               	addwfc	fsr2h,f,c
  3238  000456  50DF               	movf	indf2,w,c
  3239  000458  6F28               	movwf	40,b	;volatile
  3240  00045A                     
  3241                           ; BSR set to: 15
  3242                           ;mcc_generated_files/ecan.c: 256:         TXB0D3 = tempCanMsg->frame.data3;
  3243  00045A  EE20 F009          	lfsr	2,9
  3244  00045E  5046               	movf	CAN_transmit@tempCanMsg^0,w,c
  3245  000460  26D9               	addwf	fsr2l,f,c
  3246  000462  5047               	movf	(CAN_transmit@tempCanMsg+1)^0,w,c
  3247  000464  22DA               	addwfc	fsr2h,f,c
  3248  000466  50DF               	movf	indf2,w,c
  3249  000468  6F29               	movwf	41,b	;volatile
  3250  00046A                     
  3251                           ; BSR set to: 15
  3252                           ;mcc_generated_files/ecan.c: 257:         TXB0D4 = tempCanMsg->frame.data4;
  3253  00046A  EE20 F00A          	lfsr	2,10
  3254  00046E  5046               	movf	CAN_transmit@tempCanMsg^0,w,c
  3255  000470  26D9               	addwf	fsr2l,f,c
  3256  000472  5047               	movf	(CAN_transmit@tempCanMsg+1)^0,w,c
  3257  000474  22DA               	addwfc	fsr2h,f,c
  3258  000476  50DF               	movf	indf2,w,c
  3259  000478  6F2A               	movwf	42,b	;volatile
  3260  00047A                     
  3261                           ; BSR set to: 15
  3262                           ;mcc_generated_files/ecan.c: 258:         TXB0D5 = tempCanMsg->frame.data5;
  3263  00047A  EE20 F00B          	lfsr	2,11
  3264  00047E  5046               	movf	CAN_transmit@tempCanMsg^0,w,c
  3265  000480  26D9               	addwf	fsr2l,f,c
  3266  000482  5047               	movf	(CAN_transmit@tempCanMsg+1)^0,w,c
  3267  000484  22DA               	addwfc	fsr2h,f,c
  3268  000486  50DF               	movf	indf2,w,c
  3269  000488  6F2B               	movwf	43,b	;volatile
  3270  00048A                     
  3271                           ; BSR set to: 15
  3272                           ;mcc_generated_files/ecan.c: 259:         TXB0D6 = tempCanMsg->frame.data6;
  3273  00048A  EE20 F00C          	lfsr	2,12
  3274  00048E  5046               	movf	CAN_transmit@tempCanMsg^0,w,c
  3275  000490  26D9               	addwf	fsr2l,f,c
  3276  000492  5047               	movf	(CAN_transmit@tempCanMsg+1)^0,w,c
  3277  000494  22DA               	addwfc	fsr2h,f,c
  3278  000496  50DF               	movf	indf2,w,c
  3279  000498  6F2C               	movwf	44,b	;volatile
  3280  00049A                     
  3281                           ; BSR set to: 15
  3282                           ;mcc_generated_files/ecan.c: 260:         TXB0D7 = tempCanMsg->frame.data7;
  3283  00049A  EE20 F00D          	lfsr	2,13
  3284  00049E  5046               	movf	CAN_transmit@tempCanMsg^0,w,c
  3285  0004A0  26D9               	addwf	fsr2l,f,c
  3286  0004A2  5047               	movf	(CAN_transmit@tempCanMsg+1)^0,w,c
  3287  0004A4  22DA               	addwfc	fsr2h,f,c
  3288  0004A6  50DF               	movf	indf2,w,c
  3289  0004A8  6F2D               	movwf	45,b	;volatile
  3290  0004AA                     
  3291                           ; BSR set to: 15
  3292                           ;mcc_generated_files/ecan.c: 262:         TXB0CONbits.TXREQ = 1;
  3293  0004AA  8720               	bsf	32,3,b	;volatile
  3294  0004AC                     l2651:
  3295                           
  3296                           ; BSR set to: 15
  3297                           ;mcc_generated_files/ecan.c: 265:     }
  3298  0004AC  EF5A  F003         	goto	l516
  3299  0004B0                     l511:
  3300                           
  3301                           ; BSR set to: 15
  3302  0004B0  B710               	btfsc	16,3,b	;volatile
  3303  0004B2  EF5D  F002         	goto	u581
  3304  0004B6  EF5F  F002         	goto	u580
  3305  0004BA                     u581:
  3306  0004BA  EFD9  F002         	goto	l513
  3307  0004BE                     u580:
  3308  0004BE                     
  3309                           ; BSR set to: 15
  3310                           ;mcc_generated_files/ecan.c: 267:     {;mcc_generated_files/ecan.c: 269:         convert
      +                          CANid2Reg(tempCanMsg->frame.id, tempCanMsg->frame.idType, &tempEIDH, &tempEIDL, &tempSID
      +                          H, &tempSIDL);
  3311  0004BE  EE20 F001          	lfsr	2,1
  3312  0004C2  5046               	movf	CAN_transmit@tempCanMsg^0,w,c
  3313  0004C4  26D9               	addwf	fsr2l,f,c
  3314  0004C6  5047               	movf	(CAN_transmit@tempCanMsg+1)^0,w,c
  3315  0004C8  22DA               	addwfc	fsr2h,f,c
  3316  0004CA  CFDE F034          	movff	postinc2,convertCANid2Reg@tempPassedInID
  3317  0004CE  CFDE F035          	movff	postinc2,convertCANid2Reg@tempPassedInID+1
  3318  0004D2  CFDE F036          	movff	postinc2,convertCANid2Reg@tempPassedInID+2
  3319  0004D6  CFDE F037          	movff	postinc2,convertCANid2Reg@tempPassedInID+3
  3320  0004DA  C046  FFD9         	movff	CAN_transmit@tempCanMsg,fsr2l
  3321  0004DE  C047  FFDA         	movff	CAN_transmit@tempCanMsg+1,fsr2h
  3322  0004E2  50DF               	movf	indf2,w,c
  3323  0004E4  6E38               	movwf	convertCANid2Reg@canIdType^0,c
  3324  0004E6  0E48               	movlw	low CAN_transmit@tempEIDH
  3325  0004E8  6E39               	movwf	convertCANid2Reg@passedInEIDH^0,c
  3326  0004EA  0E00               	movlw	high CAN_transmit@tempEIDH
  3327  0004EC  6E3A               	movwf	(convertCANid2Reg@passedInEIDH+1)^0,c
  3328  0004EE  0E49               	movlw	low CAN_transmit@tempEIDL
  3329  0004F0  6E3B               	movwf	convertCANid2Reg@passedInEIDL^0,c
  3330  0004F2  0E00               	movlw	high CAN_transmit@tempEIDL
  3331  0004F4  6E3C               	movwf	(convertCANid2Reg@passedInEIDL+1)^0,c
  3332  0004F6  0E4A               	movlw	low CAN_transmit@tempSIDH
  3333  0004F8  6E3D               	movwf	convertCANid2Reg@passedInSIDH^0,c
  3334  0004FA  0E00               	movlw	high CAN_transmit@tempSIDH
  3335  0004FC  6E3E               	movwf	(convertCANid2Reg@passedInSIDH+1)^0,c
  3336  0004FE  0E4B               	movlw	low CAN_transmit@tempSIDL
  3337  000500  6E3F               	movwf	convertCANid2Reg@passedInSIDL^0,c
  3338  000502  0E00               	movlw	high CAN_transmit@tempSIDL
  3339  000504  6E40               	movwf	(convertCANid2Reg@passedInSIDL+1)^0,c
  3340  000506  EC57  F005         	call	_convertCANid2Reg	;wreg free
  3341  00050A                     
  3342                           ;mcc_generated_files/ecan.c: 271:         TXB1EIDH = tempEIDH;
  3343  00050A  C048  FF13         	movff	CAN_transmit@tempEIDH,3859	;volatile
  3344  00050E                     
  3345                           ;mcc_generated_files/ecan.c: 272:         TXB1EIDL = tempEIDL;
  3346  00050E  C049  FF14         	movff	CAN_transmit@tempEIDL,3860	;volatile
  3347  000512                     
  3348                           ;mcc_generated_files/ecan.c: 273:         TXB1SIDH = tempSIDH;
  3349  000512  C04A  FF11         	movff	CAN_transmit@tempSIDH,3857	;volatile
  3350  000516                     
  3351                           ;mcc_generated_files/ecan.c: 274:         TXB1SIDL = tempSIDL;
  3352  000516  C04B  FF12         	movff	CAN_transmit@tempSIDL,3858	;volatile
  3353  00051A                     
  3354                           ;mcc_generated_files/ecan.c: 275:         TXB1DLC = tempCanMsg->frame.dlc;
  3355  00051A  EE20 F005          	lfsr	2,5
  3356  00051E  5046               	movf	CAN_transmit@tempCanMsg^0,w,c
  3357  000520  26D9               	addwf	fsr2l,f,c
  3358  000522  5047               	movf	(CAN_transmit@tempCanMsg+1)^0,w,c
  3359  000524  22DA               	addwfc	fsr2h,f,c
  3360  000526  50DF               	movf	indf2,w,c
  3361  000528  010F               	movlb	15	; () banked
  3362  00052A  6F15               	movwf	21,b	;volatile
  3363  00052C                     
  3364                           ; BSR set to: 15
  3365                           ;mcc_generated_files/ecan.c: 276:         TXB1D0 = tempCanMsg->frame.data0;
  3366  00052C  EE20 F006          	lfsr	2,6
  3367  000530  5046               	movf	CAN_transmit@tempCanMsg^0,w,c
  3368  000532  26D9               	addwf	fsr2l,f,c
  3369  000534  5047               	movf	(CAN_transmit@tempCanMsg+1)^0,w,c
  3370  000536  22DA               	addwfc	fsr2h,f,c
  3371  000538  50DF               	movf	indf2,w,c
  3372  00053A  6F16               	movwf	22,b	;volatile
  3373  00053C                     
  3374                           ; BSR set to: 15
  3375                           ;mcc_generated_files/ecan.c: 277:         TXB1D1 = tempCanMsg->frame.data1;
  3376  00053C  EE20 F007          	lfsr	2,7
  3377  000540  5046               	movf	CAN_transmit@tempCanMsg^0,w,c
  3378  000542  26D9               	addwf	fsr2l,f,c
  3379  000544  5047               	movf	(CAN_transmit@tempCanMsg+1)^0,w,c
  3380  000546  22DA               	addwfc	fsr2h,f,c
  3381  000548  50DF               	movf	indf2,w,c
  3382  00054A  6F17               	movwf	23,b	;volatile
  3383  00054C                     
  3384                           ; BSR set to: 15
  3385                           ;mcc_generated_files/ecan.c: 278:         TXB1D2 = tempCanMsg->frame.data2;
  3386  00054C  EE20 F008          	lfsr	2,8
  3387  000550  5046               	movf	CAN_transmit@tempCanMsg^0,w,c
  3388  000552  26D9               	addwf	fsr2l,f,c
  3389  000554  5047               	movf	(CAN_transmit@tempCanMsg+1)^0,w,c
  3390  000556  22DA               	addwfc	fsr2h,f,c
  3391  000558  50DF               	movf	indf2,w,c
  3392  00055A  6F18               	movwf	24,b	;volatile
  3393  00055C                     
  3394                           ; BSR set to: 15
  3395                           ;mcc_generated_files/ecan.c: 279:         TXB1D3 = tempCanMsg->frame.data3;
  3396  00055C  EE20 F009          	lfsr	2,9
  3397  000560  5046               	movf	CAN_transmit@tempCanMsg^0,w,c
  3398  000562  26D9               	addwf	fsr2l,f,c
  3399  000564  5047               	movf	(CAN_transmit@tempCanMsg+1)^0,w,c
  3400  000566  22DA               	addwfc	fsr2h,f,c
  3401  000568  50DF               	movf	indf2,w,c
  3402  00056A  6F19               	movwf	25,b	;volatile
  3403  00056C                     
  3404                           ; BSR set to: 15
  3405                           ;mcc_generated_files/ecan.c: 280:         TXB1D4 = tempCanMsg->frame.data4;
  3406  00056C  EE20 F00A          	lfsr	2,10
  3407  000570  5046               	movf	CAN_transmit@tempCanMsg^0,w,c
  3408  000572  26D9               	addwf	fsr2l,f,c
  3409  000574  5047               	movf	(CAN_transmit@tempCanMsg+1)^0,w,c
  3410  000576  22DA               	addwfc	fsr2h,f,c
  3411  000578  50DF               	movf	indf2,w,c
  3412  00057A  6F1A               	movwf	26,b	;volatile
  3413  00057C                     
  3414                           ; BSR set to: 15
  3415                           ;mcc_generated_files/ecan.c: 281:         TXB1D5 = tempCanMsg->frame.data5;
  3416  00057C  EE20 F00B          	lfsr	2,11
  3417  000580  5046               	movf	CAN_transmit@tempCanMsg^0,w,c
  3418  000582  26D9               	addwf	fsr2l,f,c
  3419  000584  5047               	movf	(CAN_transmit@tempCanMsg+1)^0,w,c
  3420  000586  22DA               	addwfc	fsr2h,f,c
  3421  000588  50DF               	movf	indf2,w,c
  3422  00058A  6F1B               	movwf	27,b	;volatile
  3423  00058C                     
  3424                           ; BSR set to: 15
  3425                           ;mcc_generated_files/ecan.c: 282:         TXB1D6 = tempCanMsg->frame.data6;
  3426  00058C  EE20 F00C          	lfsr	2,12
  3427  000590  5046               	movf	CAN_transmit@tempCanMsg^0,w,c
  3428  000592  26D9               	addwf	fsr2l,f,c
  3429  000594  5047               	movf	(CAN_transmit@tempCanMsg+1)^0,w,c
  3430  000596  22DA               	addwfc	fsr2h,f,c
  3431  000598  50DF               	movf	indf2,w,c
  3432  00059A  6F1C               	movwf	28,b	;volatile
  3433  00059C                     
  3434                           ; BSR set to: 15
  3435                           ;mcc_generated_files/ecan.c: 283:         TXB1D7 = tempCanMsg->frame.data7;
  3436  00059C  EE20 F00D          	lfsr	2,13
  3437  0005A0  5046               	movf	CAN_transmit@tempCanMsg^0,w,c
  3438  0005A2  26D9               	addwf	fsr2l,f,c
  3439  0005A4  5047               	movf	(CAN_transmit@tempCanMsg+1)^0,w,c
  3440  0005A6  22DA               	addwfc	fsr2h,f,c
  3441  0005A8  50DF               	movf	indf2,w,c
  3442  0005AA  6F1D               	movwf	29,b	;volatile
  3443  0005AC                     
  3444                           ; BSR set to: 15
  3445                           ;mcc_generated_files/ecan.c: 285:         TXB1CONbits.TXREQ = 1;
  3446  0005AC  8710               	bsf	16,3,b	;volatile
  3447  0005AE  EF56  F002         	goto	l2651
  3448  0005B2                     l513:
  3449                           
  3450                           ; BSR set to: 15
  3451  0005B2  B700               	btfsc	0,3,b	;volatile
  3452  0005B4  EFDE  F002         	goto	u591
  3453  0005B8  EFE0  F002         	goto	u590
  3454  0005BC                     u591:
  3455  0005BC  EF5A  F003         	goto	l512
  3456  0005C0                     u590:
  3457  0005C0                     
  3458                           ; BSR set to: 15
  3459                           ;mcc_generated_files/ecan.c: 289:     {;mcc_generated_files/ecan.c: 291:         convert
      +                          CANid2Reg(tempCanMsg->frame.id, tempCanMsg->frame.idType, &tempEIDH, &tempEIDL, &tempSID
      +                          H, &tempSIDL);
  3460  0005C0  EE20 F001          	lfsr	2,1
  3461  0005C4  5046               	movf	CAN_transmit@tempCanMsg^0,w,c
  3462  0005C6  26D9               	addwf	fsr2l,f,c
  3463  0005C8  5047               	movf	(CAN_transmit@tempCanMsg+1)^0,w,c
  3464  0005CA  22DA               	addwfc	fsr2h,f,c
  3465  0005CC  CFDE F034          	movff	postinc2,convertCANid2Reg@tempPassedInID
  3466  0005D0  CFDE F035          	movff	postinc2,convertCANid2Reg@tempPassedInID+1
  3467  0005D4  CFDE F036          	movff	postinc2,convertCANid2Reg@tempPassedInID+2
  3468  0005D8  CFDE F037          	movff	postinc2,convertCANid2Reg@tempPassedInID+3
  3469  0005DC  C046  FFD9         	movff	CAN_transmit@tempCanMsg,fsr2l
  3470  0005E0  C047  FFDA         	movff	CAN_transmit@tempCanMsg+1,fsr2h
  3471  0005E4  50DF               	movf	indf2,w,c
  3472  0005E6  6E38               	movwf	convertCANid2Reg@canIdType^0,c
  3473  0005E8  0E48               	movlw	low CAN_transmit@tempEIDH
  3474  0005EA  6E39               	movwf	convertCANid2Reg@passedInEIDH^0,c
  3475  0005EC  0E00               	movlw	high CAN_transmit@tempEIDH
  3476  0005EE  6E3A               	movwf	(convertCANid2Reg@passedInEIDH+1)^0,c
  3477  0005F0  0E49               	movlw	low CAN_transmit@tempEIDL
  3478  0005F2  6E3B               	movwf	convertCANid2Reg@passedInEIDL^0,c
  3479  0005F4  0E00               	movlw	high CAN_transmit@tempEIDL
  3480  0005F6  6E3C               	movwf	(convertCANid2Reg@passedInEIDL+1)^0,c
  3481  0005F8  0E4A               	movlw	low CAN_transmit@tempSIDH
  3482  0005FA  6E3D               	movwf	convertCANid2Reg@passedInSIDH^0,c
  3483  0005FC  0E00               	movlw	high CAN_transmit@tempSIDH
  3484  0005FE  6E3E               	movwf	(convertCANid2Reg@passedInSIDH+1)^0,c
  3485  000600  0E4B               	movlw	low CAN_transmit@tempSIDL
  3486  000602  6E3F               	movwf	convertCANid2Reg@passedInSIDL^0,c
  3487  000604  0E00               	movlw	high CAN_transmit@tempSIDL
  3488  000606  6E40               	movwf	(convertCANid2Reg@passedInSIDL+1)^0,c
  3489  000608  EC57  F005         	call	_convertCANid2Reg	;wreg free
  3490  00060C                     
  3491                           ;mcc_generated_files/ecan.c: 293:         TXB2EIDH = tempEIDH;
  3492  00060C  C048  FF03         	movff	CAN_transmit@tempEIDH,3843	;volatile
  3493  000610                     
  3494                           ;mcc_generated_files/ecan.c: 294:         TXB2EIDL = tempEIDL;
  3495  000610  C049  FF04         	movff	CAN_transmit@tempEIDL,3844	;volatile
  3496  000614                     
  3497                           ;mcc_generated_files/ecan.c: 295:         TXB2SIDH = tempSIDH;
  3498  000614  C04A  FF01         	movff	CAN_transmit@tempSIDH,3841	;volatile
  3499  000618                     
  3500                           ;mcc_generated_files/ecan.c: 296:         TXB2SIDL = tempSIDL;
  3501  000618  C04B  FF02         	movff	CAN_transmit@tempSIDL,3842	;volatile
  3502  00061C                     
  3503                           ;mcc_generated_files/ecan.c: 297:         TXB2DLC = tempCanMsg->frame.dlc;
  3504  00061C  EE20 F005          	lfsr	2,5
  3505  000620  5046               	movf	CAN_transmit@tempCanMsg^0,w,c
  3506  000622  26D9               	addwf	fsr2l,f,c
  3507  000624  5047               	movf	(CAN_transmit@tempCanMsg+1)^0,w,c
  3508  000626  22DA               	addwfc	fsr2h,f,c
  3509  000628  50DF               	movf	indf2,w,c
  3510  00062A  010F               	movlb	15	; () banked
  3511  00062C  6F05               	movwf	5,b	;volatile
  3512  00062E                     
  3513                           ; BSR set to: 15
  3514                           ;mcc_generated_files/ecan.c: 298:         TXB2D0 = tempCanMsg->frame.data0;
  3515  00062E  EE20 F006          	lfsr	2,6
  3516  000632  5046               	movf	CAN_transmit@tempCanMsg^0,w,c
  3517  000634  26D9               	addwf	fsr2l,f,c
  3518  000636  5047               	movf	(CAN_transmit@tempCanMsg+1)^0,w,c
  3519  000638  22DA               	addwfc	fsr2h,f,c
  3520  00063A  50DF               	movf	indf2,w,c
  3521  00063C  6F06               	movwf	6,b	;volatile
  3522  00063E                     
  3523                           ; BSR set to: 15
  3524                           ;mcc_generated_files/ecan.c: 299:         TXB2D1 = tempCanMsg->frame.data1;
  3525  00063E  EE20 F007          	lfsr	2,7
  3526  000642  5046               	movf	CAN_transmit@tempCanMsg^0,w,c
  3527  000644  26D9               	addwf	fsr2l,f,c
  3528  000646  5047               	movf	(CAN_transmit@tempCanMsg+1)^0,w,c
  3529  000648  22DA               	addwfc	fsr2h,f,c
  3530  00064A  50DF               	movf	indf2,w,c
  3531  00064C  6F07               	movwf	7,b	;volatile
  3532  00064E                     
  3533                           ; BSR set to: 15
  3534                           ;mcc_generated_files/ecan.c: 300:         TXB2D2 = tempCanMsg->frame.data2;
  3535  00064E  EE20 F008          	lfsr	2,8
  3536  000652  5046               	movf	CAN_transmit@tempCanMsg^0,w,c
  3537  000654  26D9               	addwf	fsr2l,f,c
  3538  000656  5047               	movf	(CAN_transmit@tempCanMsg+1)^0,w,c
  3539  000658  22DA               	addwfc	fsr2h,f,c
  3540  00065A  50DF               	movf	indf2,w,c
  3541  00065C  6F08               	movwf	8,b	;volatile
  3542  00065E                     
  3543                           ; BSR set to: 15
  3544                           ;mcc_generated_files/ecan.c: 301:         TXB2D3 = tempCanMsg->frame.data3;
  3545  00065E  EE20 F009          	lfsr	2,9
  3546  000662  5046               	movf	CAN_transmit@tempCanMsg^0,w,c
  3547  000664  26D9               	addwf	fsr2l,f,c
  3548  000666  5047               	movf	(CAN_transmit@tempCanMsg+1)^0,w,c
  3549  000668  22DA               	addwfc	fsr2h,f,c
  3550  00066A  50DF               	movf	indf2,w,c
  3551  00066C  6F09               	movwf	9,b	;volatile
  3552  00066E                     
  3553                           ; BSR set to: 15
  3554                           ;mcc_generated_files/ecan.c: 302:         TXB2D4 = tempCanMsg->frame.data4;
  3555  00066E  EE20 F00A          	lfsr	2,10
  3556  000672  5046               	movf	CAN_transmit@tempCanMsg^0,w,c
  3557  000674  26D9               	addwf	fsr2l,f,c
  3558  000676  5047               	movf	(CAN_transmit@tempCanMsg+1)^0,w,c
  3559  000678  22DA               	addwfc	fsr2h,f,c
  3560  00067A  50DF               	movf	indf2,w,c
  3561  00067C  6F0A               	movwf	10,b	;volatile
  3562  00067E                     
  3563                           ; BSR set to: 15
  3564                           ;mcc_generated_files/ecan.c: 303:         TXB2D5 = tempCanMsg->frame.data5;
  3565  00067E  EE20 F00B          	lfsr	2,11
  3566  000682  5046               	movf	CAN_transmit@tempCanMsg^0,w,c
  3567  000684  26D9               	addwf	fsr2l,f,c
  3568  000686  5047               	movf	(CAN_transmit@tempCanMsg+1)^0,w,c
  3569  000688  22DA               	addwfc	fsr2h,f,c
  3570  00068A  50DF               	movf	indf2,w,c
  3571  00068C  6F0B               	movwf	11,b	;volatile
  3572  00068E                     
  3573                           ; BSR set to: 15
  3574                           ;mcc_generated_files/ecan.c: 304:         TXB2D6 = tempCanMsg->frame.data6;
  3575  00068E  EE20 F00C          	lfsr	2,12
  3576  000692  5046               	movf	CAN_transmit@tempCanMsg^0,w,c
  3577  000694  26D9               	addwf	fsr2l,f,c
  3578  000696  5047               	movf	(CAN_transmit@tempCanMsg+1)^0,w,c
  3579  000698  22DA               	addwfc	fsr2h,f,c
  3580  00069A  50DF               	movf	indf2,w,c
  3581  00069C  6F0C               	movwf	12,b	;volatile
  3582  00069E                     
  3583                           ; BSR set to: 15
  3584                           ;mcc_generated_files/ecan.c: 305:         TXB2D7 = tempCanMsg->frame.data7;
  3585  00069E  EE20 F00D          	lfsr	2,13
  3586  0006A2  5046               	movf	CAN_transmit@tempCanMsg^0,w,c
  3587  0006A4  26D9               	addwf	fsr2l,f,c
  3588  0006A6  5047               	movf	(CAN_transmit@tempCanMsg+1)^0,w,c
  3589  0006A8  22DA               	addwfc	fsr2h,f,c
  3590  0006AA  50DF               	movf	indf2,w,c
  3591  0006AC  6F0D               	movwf	13,b	;volatile
  3592  0006AE                     
  3593                           ; BSR set to: 15
  3594                           ;mcc_generated_files/ecan.c: 307:         TXB2CONbits.TXREQ = 1;
  3595  0006AE  8700               	bsf	0,3,b	;volatile
  3596  0006B0  EF56  F002         	goto	l2651
  3597  0006B4                     l512:
  3598  0006B4                     l516:
  3599                           
  3600                           ; BSR set to: 15
  3601  0006B4  0012               	return		;funcret
  3602  0006B6                     __end_of_CAN_transmit:
  3603                           	callstack 0
  3604                           
  3605 ;; *************** function _convertCANid2Reg *****************
  3606 ;; Defined at:
  3607 ;;		line 463 in file "mcc_generated_files/ecan.c"
  3608 ;; Parameters:    Size  Location     Type
  3609 ;;  tempPassedIn    4    2[COMRAM] unsigned long 
  3610 ;;  canIdType       1    6[COMRAM] unsigned char 
  3611 ;;  passedInEIDH    2    7[COMRAM] PTR unsigned char 
  3612 ;;		 -> CAN_transmit@tempEIDH(1), 
  3613 ;;  passedInEIDL    2    9[COMRAM] PTR unsigned char 
  3614 ;;		 -> CAN_transmit@tempEIDL(1), 
  3615 ;;  passedInSIDH    2   11[COMRAM] PTR unsigned char 
  3616 ;;		 -> CAN_transmit@tempSIDH(1), 
  3617 ;;  passedInSIDL    2   13[COMRAM] PTR unsigned char 
  3618 ;;		 -> CAN_transmit@tempSIDL(1), 
  3619 ;; Auto vars:     Size  Location     Type
  3620 ;;  wipSIDL         1   19[COMRAM] unsigned char 
  3621 ;; Return value:  Size  Location     Type
  3622 ;;                  1    wreg      void 
  3623 ;; Registers used:
  3624 ;;		wreg, fsr2l, fsr2h, status,2, status,0
  3625 ;; Tracked objects:
  3626 ;;		On entry : 0/0
  3627 ;;		On exit  : 0/0
  3628 ;;		Unchanged: 0/0
  3629 ;; Data sizes:     COMRAM   BANK0   BANK1   BANK2   BANK3   BANK4   BANK5   BANK6   BANK7   BANK8   BANK9  BANK10  BANK1
      +1  BANK12  BANK13  BANK14
  3630 ;;      Params:        13       0       0       0       0       0       0       0       0       0       0       0       
      +0       0       0       0
  3631 ;;      Locals:         1       0       0       0       0       0       0       0       0       0       0       0       
      +0       0       0       0
  3632 ;;      Temps:          4       0       0       0       0       0       0       0       0       0       0       0       
      +0       0       0       0
  3633 ;;      Totals:        18       0       0       0       0       0       0       0       0       0       0       0       
      +0       0       0       0
  3634 ;;Total ram usage:       18 bytes
  3635 ;; Hardware stack levels used: 1
  3636 ;; Hardware stack levels required when called: 3
  3637 ;; This function calls:
  3638 ;;		Nothing
  3639 ;; This function is called by:
  3640 ;;		_CAN_transmit
  3641 ;; This function uses a non-reentrant model
  3642 ;;
  3643                           
  3644                           	psect	text17
  3645  000AAE                     __ptext17:
  3646                           	callstack 0
  3647  000AAE                     _convertCANid2Reg:
  3648                           	callstack 25
  3649  000AAE                     
  3650                           ;mcc_generated_files/ecan.c: 466:     if (canIdType == 2) {
  3651  000AAE  0E02               	movlw	2
  3652  000AB0  1838               	xorwf	convertCANid2Reg@canIdType^0,w,c
  3653  000AB2  A4D8               	btfss	status,2,c
  3654  000AB4  EF5E  F005         	goto	u521
  3655  000AB8  EF60  F005         	goto	u520
  3656  000ABC                     u521:
  3657  000ABC  EFE3  F005         	goto	l2563
  3658  000AC0                     u520:
  3659  000AC0                     
  3660                           ;mcc_generated_files/ecan.c: 469:         *passedInEIDL = 0xFF & tempPassedInID;
  3661  000AC0  C03B  FFD9         	movff	convertCANid2Reg@passedInEIDL,fsr2l
  3662  000AC4  C03C  FFDA         	movff	convertCANid2Reg@passedInEIDL+1,fsr2h
  3663  000AC8  C034  FFDF         	movff	convertCANid2Reg@tempPassedInID,indf2
  3664  000ACC                     
  3665                           ;mcc_generated_files/ecan.c: 470:         tempPassedInID = tempPassedInID >> 8;
  3666  000ACC  C034  F041         	movff	convertCANid2Reg@tempPassedInID,??_convertCANid2Reg
  3667  000AD0  C035  F042         	movff	convertCANid2Reg@tempPassedInID+1,??_convertCANid2Reg+1
  3668  000AD4  C036  F043         	movff	convertCANid2Reg@tempPassedInID+2,??_convertCANid2Reg+2
  3669  000AD8  C037  F044         	movff	convertCANid2Reg@tempPassedInID+3,??_convertCANid2Reg+3
  3670  000ADC  C042  F041         	movff	??_convertCANid2Reg+1,??_convertCANid2Reg
  3671  000AE0  C043  F042         	movff	??_convertCANid2Reg+2,??_convertCANid2Reg+1
  3672  000AE4  C044  F043         	movff	??_convertCANid2Reg+3,??_convertCANid2Reg+2
  3673  000AE8  6A44               	clrf	(??_convertCANid2Reg+3)^0,c
  3674  000AEA  C041  F034         	movff	??_convertCANid2Reg,convertCANid2Reg@tempPassedInID
  3675  000AEE  C042  F035         	movff	??_convertCANid2Reg+1,convertCANid2Reg@tempPassedInID+1
  3676  000AF2  C043  F036         	movff	??_convertCANid2Reg+2,convertCANid2Reg@tempPassedInID+2
  3677  000AF6  C044  F037         	movff	??_convertCANid2Reg+3,convertCANid2Reg@tempPassedInID+3
  3678  000AFA                     
  3679                           ;mcc_generated_files/ecan.c: 473:         *passedInEIDH = 0xFF & tempPassedInID;
  3680  000AFA  C039  FFD9         	movff	convertCANid2Reg@passedInEIDH,fsr2l
  3681  000AFE  C03A  FFDA         	movff	convertCANid2Reg@passedInEIDH+1,fsr2h
  3682  000B02  C034  FFDF         	movff	convertCANid2Reg@tempPassedInID,indf2
  3683                           
  3684                           ;mcc_generated_files/ecan.c: 474:         tempPassedInID = tempPassedInID >> 8;
  3685  000B06  C034  F041         	movff	convertCANid2Reg@tempPassedInID,??_convertCANid2Reg
  3686  000B0A  C035  F042         	movff	convertCANid2Reg@tempPassedInID+1,??_convertCANid2Reg+1
  3687  000B0E  C036  F043         	movff	convertCANid2Reg@tempPassedInID+2,??_convertCANid2Reg+2
  3688  000B12  C037  F044         	movff	convertCANid2Reg@tempPassedInID+3,??_convertCANid2Reg+3
  3689  000B16  C042  F041         	movff	??_convertCANid2Reg+1,??_convertCANid2Reg
  3690  000B1A  C043  F042         	movff	??_convertCANid2Reg+2,??_convertCANid2Reg+1
  3691  000B1E  C044  F043         	movff	??_convertCANid2Reg+3,??_convertCANid2Reg+2
  3692  000B22  6A44               	clrf	(??_convertCANid2Reg+3)^0,c
  3693  000B24  C041  F034         	movff	??_convertCANid2Reg,convertCANid2Reg@tempPassedInID
  3694  000B28  C042  F035         	movff	??_convertCANid2Reg+1,convertCANid2Reg@tempPassedInID+1
  3695  000B2C  C043  F036         	movff	??_convertCANid2Reg+2,convertCANid2Reg@tempPassedInID+2
  3696  000B30  C044  F037         	movff	??_convertCANid2Reg+3,convertCANid2Reg@tempPassedInID+3
  3697  000B34                     
  3698                           ;mcc_generated_files/ecan.c: 478:         wipSIDL = 0x03 & tempPassedInID;
  3699  000B34  5034               	movf	convertCANid2Reg@tempPassedInID^0,w,c
  3700  000B36  0B03               	andlw	3
  3701  000B38  6E45               	movwf	convertCANid2Reg@wipSIDL^0,c
  3702  000B3A                     
  3703                           ;mcc_generated_files/ecan.c: 479:         tempPassedInID = tempPassedInID << 3;
  3704  000B3A  C034  F041         	movff	convertCANid2Reg@tempPassedInID,??_convertCANid2Reg
  3705  000B3E  C035  F042         	movff	convertCANid2Reg@tempPassedInID+1,??_convertCANid2Reg+1
  3706  000B42  C036  F043         	movff	convertCANid2Reg@tempPassedInID+2,??_convertCANid2Reg+2
  3707  000B46  C037  F044         	movff	convertCANid2Reg@tempPassedInID+3,??_convertCANid2Reg+3
  3708  000B4A  0E03               	movlw	3
  3709  000B4C                     u535:
  3710  000B4C  90D8               	bcf	status,0,c
  3711  000B4E  3641               	rlcf	??_convertCANid2Reg^0,f,c
  3712  000B50  3642               	rlcf	(??_convertCANid2Reg+1)^0,f,c
  3713  000B52  3643               	rlcf	(??_convertCANid2Reg+2)^0,f,c
  3714  000B54  3644               	rlcf	(??_convertCANid2Reg+3)^0,f,c
  3715  000B56  2EE8               	decfsz	wreg,f,c
  3716  000B58  EFA6  F005         	goto	u535
  3717  000B5C  C041  F034         	movff	??_convertCANid2Reg,convertCANid2Reg@tempPassedInID
  3718  000B60  C042  F035         	movff	??_convertCANid2Reg+1,convertCANid2Reg@tempPassedInID+1
  3719  000B64  C043  F036         	movff	??_convertCANid2Reg+2,convertCANid2Reg@tempPassedInID+2
  3720  000B68  C044  F037         	movff	??_convertCANid2Reg+3,convertCANid2Reg@tempPassedInID+3
  3721  000B6C                     
  3722                           ;mcc_generated_files/ecan.c: 480:         wipSIDL = (0xE0 & tempPassedInID) + wipSIDL;
  3723  000B6C  5034               	movf	convertCANid2Reg@tempPassedInID^0,w,c
  3724  000B6E  0BE0               	andlw	224
  3725  000B70  2445               	addwf	convertCANid2Reg@wipSIDL^0,w,c
  3726  000B72  6E45               	movwf	convertCANid2Reg@wipSIDL^0,c
  3727  000B74                     
  3728                           ;mcc_generated_files/ecan.c: 481:         wipSIDL = (uint8_t)(wipSIDL + 0x08);
  3729  000B74  5045               	movf	convertCANid2Reg@wipSIDL^0,w,c
  3730  000B76  0F08               	addlw	8
  3731  000B78  6E45               	movwf	convertCANid2Reg@wipSIDL^0,c
  3732  000B7A                     
  3733                           ;mcc_generated_files/ecan.c: 482:         *passedInSIDL = (uint8_t)(0xEB & wipSIDL);
  3734  000B7A  5045               	movf	convertCANid2Reg@wipSIDL^0,w,c
  3735  000B7C  0BEB               	andlw	235
  3736  000B7E  C03F  FFD9         	movff	convertCANid2Reg@passedInSIDL,fsr2l
  3737  000B82  C040  FFDA         	movff	convertCANid2Reg@passedInSIDL+1,fsr2h
  3738  000B86  6EDF               	movwf	indf2,c
  3739  000B88                     l2559:
  3740                           
  3741                           ;mcc_generated_files/ecan.c: 485:         tempPassedInID = tempPassedInID >> 8;
  3742  000B88  C034  F041         	movff	convertCANid2Reg@tempPassedInID,??_convertCANid2Reg
  3743  000B8C  C035  F042         	movff	convertCANid2Reg@tempPassedInID+1,??_convertCANid2Reg+1
  3744  000B90  C036  F043         	movff	convertCANid2Reg@tempPassedInID+2,??_convertCANid2Reg+2
  3745  000B94  C037  F044         	movff	convertCANid2Reg@tempPassedInID+3,??_convertCANid2Reg+3
  3746  000B98  C042  F041         	movff	??_convertCANid2Reg+1,??_convertCANid2Reg
  3747  000B9C  C043  F042         	movff	??_convertCANid2Reg+2,??_convertCANid2Reg+1
  3748  000BA0  C044  F043         	movff	??_convertCANid2Reg+3,??_convertCANid2Reg+2
  3749  000BA4  6A44               	clrf	(??_convertCANid2Reg+3)^0,c
  3750  000BA6  C041  F034         	movff	??_convertCANid2Reg,convertCANid2Reg@tempPassedInID
  3751  000BAA  C042  F035         	movff	??_convertCANid2Reg+1,convertCANid2Reg@tempPassedInID+1
  3752  000BAE  C043  F036         	movff	??_convertCANid2Reg+2,convertCANid2Reg@tempPassedInID+2
  3753  000BB2  C044  F037         	movff	??_convertCANid2Reg+3,convertCANid2Reg@tempPassedInID+3
  3754  000BB6                     
  3755                           ;mcc_generated_files/ecan.c: 486:         *passedInSIDH = 0xFF & tempPassedInID;
  3756  000BB6  C03D  FFD9         	movff	convertCANid2Reg@passedInSIDH,fsr2l
  3757  000BBA  C03E  FFDA         	movff	convertCANid2Reg@passedInSIDH+1,fsr2h
  3758  000BBE  C034  FFDF         	movff	convertCANid2Reg@tempPassedInID,indf2
  3759                           
  3760                           ;mcc_generated_files/ecan.c: 487:     } else
  3761  000BC2  EF10  F006         	goto	l554
  3762  000BC6                     l2563:
  3763                           
  3764                           ;mcc_generated_files/ecan.c: 488:     {;mcc_generated_files/ecan.c: 489:         *passed
      +                          InEIDH = 0;
  3765  000BC6  C039  FFD9         	movff	convertCANid2Reg@passedInEIDH,fsr2l
  3766  000BCA  C03A  FFDA         	movff	convertCANid2Reg@passedInEIDH+1,fsr2h
  3767  000BCE  0E00               	movlw	0
  3768  000BD0  6EDF               	movwf	indf2,c
  3769                           
  3770                           ;mcc_generated_files/ecan.c: 490:         *passedInEIDL = 0;
  3771  000BD2  C03B  FFD9         	movff	convertCANid2Reg@passedInEIDL,fsr2l
  3772  000BD6  C03C  FFDA         	movff	convertCANid2Reg@passedInEIDL+1,fsr2h
  3773  000BDA  0E00               	movlw	0
  3774  000BDC  6EDF               	movwf	indf2,c
  3775  000BDE                     
  3776                           ;mcc_generated_files/ecan.c: 491:         tempPassedInID = tempPassedInID << 5;
  3777  000BDE  C034  F041         	movff	convertCANid2Reg@tempPassedInID,??_convertCANid2Reg
  3778  000BE2  C035  F042         	movff	convertCANid2Reg@tempPassedInID+1,??_convertCANid2Reg+1
  3779  000BE6  C036  F043         	movff	convertCANid2Reg@tempPassedInID+2,??_convertCANid2Reg+2
  3780  000BEA  C037  F044         	movff	convertCANid2Reg@tempPassedInID+3,??_convertCANid2Reg+3
  3781  000BEE  0E05               	movlw	5
  3782  000BF0                     u545:
  3783  000BF0  90D8               	bcf	status,0,c
  3784  000BF2  3641               	rlcf	??_convertCANid2Reg^0,f,c
  3785  000BF4  3642               	rlcf	(??_convertCANid2Reg+1)^0,f,c
  3786  000BF6  3643               	rlcf	(??_convertCANid2Reg+2)^0,f,c
  3787  000BF8  3644               	rlcf	(??_convertCANid2Reg+3)^0,f,c
  3788  000BFA  2EE8               	decfsz	wreg,f,c
  3789  000BFC  EFF8  F005         	goto	u545
  3790  000C00  C041  F034         	movff	??_convertCANid2Reg,convertCANid2Reg@tempPassedInID
  3791  000C04  C042  F035         	movff	??_convertCANid2Reg+1,convertCANid2Reg@tempPassedInID+1
  3792  000C08  C043  F036         	movff	??_convertCANid2Reg+2,convertCANid2Reg@tempPassedInID+2
  3793  000C0C  C044  F037         	movff	??_convertCANid2Reg+3,convertCANid2Reg@tempPassedInID+3
  3794  000C10                     
  3795                           ;mcc_generated_files/ecan.c: 492:         *passedInSIDL = 0xFF & tempPassedInID;
  3796  000C10  C03F  FFD9         	movff	convertCANid2Reg@passedInSIDL,fsr2l
  3797  000C14  C040  FFDA         	movff	convertCANid2Reg@passedInSIDL+1,fsr2h
  3798  000C18  C034  FFDF         	movff	convertCANid2Reg@tempPassedInID,indf2
  3799  000C1C  EFC4  F005         	goto	l2559
  3800  000C20                     l554:
  3801  000C20  0012               	return		;funcret
  3802  000C22                     __end_of_convertCANid2Reg:
  3803                           	callstack 0
  3804                           
  3805 ;; *************** function _SYSTEM_Initialize *****************
  3806 ;; Defined at:
  3807 ;;		line 50 in file "mcc_generated_files/mcc.c"
  3808 ;; Parameters:    Size  Location     Type
  3809 ;;		None
  3810 ;; Auto vars:     Size  Location     Type
  3811 ;;		None
  3812 ;; Return value:  Size  Location     Type
  3813 ;;                  1    wreg      void 
  3814 ;; Registers used:
  3815 ;;		wreg, status,2, status,0, cstack
  3816 ;; Tracked objects:
  3817 ;;		On entry : 0/0
  3818 ;;		On exit  : 0/0
  3819 ;;		Unchanged: 0/0
  3820 ;; Data sizes:     COMRAM   BANK0   BANK1   BANK2   BANK3   BANK4   BANK5   BANK6   BANK7   BANK8   BANK9  BANK10  BANK1
      +1  BANK12  BANK13  BANK14
  3821 ;;      Params:         0       0       0       0       0       0       0       0       0       0       0       0       
      +0       0       0       0
  3822 ;;      Locals:         0       0       0       0       0       0       0       0       0       0       0       0       
      +0       0       0       0
  3823 ;;      Temps:          0       0       0       0       0       0       0       0       0       0       0       0       
      +0       0       0       0
  3824 ;;      Totals:         0       0       0       0       0       0       0       0       0       0       0       0       
      +0       0       0       0
  3825 ;;Total ram usage:        0 bytes
  3826 ;; Hardware stack levels used: 1
  3827 ;; Hardware stack levels required when called: 5
  3828 ;; This function calls:
  3829 ;;		_ECAN_Initialize
  3830 ;;		_EUSART1_Initialize
  3831 ;;		_INTERRUPT_Initialize
  3832 ;;		_OSCILLATOR_Initialize
  3833 ;;		_PIN_MANAGER_Initialize
  3834 ;; This function is called by:
  3835 ;;		_main
  3836 ;; This function uses a non-reentrant model
  3837 ;;
  3838                           
  3839                           	psect	text18
  3840  001592                     __ptext18:
  3841                           	callstack 0
  3842  001592                     _SYSTEM_Initialize:
  3843                           	callstack 25
  3844  001592                     
  3845                           ;mcc_generated_files/mcc.c: 53:     INTERRUPT_Initialize();
  3846  001592  ECF1  F00A         	call	_INTERRUPT_Initialize	;wreg free
  3847  001596                     
  3848                           ;mcc_generated_files/mcc.c: 54:     PIN_MANAGER_Initialize();
  3849  001596  EC3E  F00A         	call	_PIN_MANAGER_Initialize	;wreg free
  3850  00159A                     
  3851                           ;mcc_generated_files/mcc.c: 55:     OSCILLATOR_Initialize();
  3852  00159A  ECD4  F00A         	call	_OSCILLATOR_Initialize	;wreg free
  3853  00159E                     
  3854                           ;mcc_generated_files/mcc.c: 56:     EUSART1_Initialize();
  3855  00159E  EC1F  F00A         	call	_EUSART1_Initialize	;wreg free
  3856  0015A2                     
  3857                           ;mcc_generated_files/mcc.c: 57:     ECAN_Initialize();
  3858  0015A2  EC85  F004         	call	_ECAN_Initialize	;wreg free
  3859  0015A6  0012               	return		;funcret
  3860  0015A8                     __end_of_SYSTEM_Initialize:
  3861                           	callstack 0
  3862                           
  3863 ;; *************** function _PIN_MANAGER_Initialize *****************
  3864 ;; Defined at:
  3865 ;;		line 55 in file "mcc_generated_files/pin_manager.c"
  3866 ;; Parameters:    Size  Location     Type
  3867 ;;		None
  3868 ;; Auto vars:     Size  Location     Type
  3869 ;;		None
  3870 ;; Return value:  Size  Location     Type
  3871 ;;                  1    wreg      void 
  3872 ;; Registers used:
  3873 ;;		wreg, status,2
  3874 ;; Tracked objects:
  3875 ;;		On entry : 0/0
  3876 ;;		On exit  : 0/0
  3877 ;;		Unchanged: 0/0
  3878 ;; Data sizes:     COMRAM   BANK0   BANK1   BANK2   BANK3   BANK4   BANK5   BANK6   BANK7   BANK8   BANK9  BANK10  BANK1
      +1  BANK12  BANK13  BANK14
  3879 ;;      Params:         0       0       0       0       0       0       0       0       0       0       0       0       
      +0       0       0       0
  3880 ;;      Locals:         0       0       0       0       0       0       0       0       0       0       0       0       
      +0       0       0       0
  3881 ;;      Temps:          0       0       0       0       0       0       0       0       0       0       0       0       
      +0       0       0       0
  3882 ;;      Totals:         0       0       0       0       0       0       0       0       0       0       0       0       
      +0       0       0       0
  3883 ;;Total ram usage:        0 bytes
  3884 ;; Hardware stack levels used: 1
  3885 ;; Hardware stack levels required when called: 3
  3886 ;; This function calls:
  3887 ;;		Nothing
  3888 ;; This function is called by:
  3889 ;;		_SYSTEM_Initialize
  3890 ;; This function uses a non-reentrant model
  3891 ;;
  3892                           
  3893                           	psect	text19
  3894  00147C                     __ptext19:
  3895                           	callstack 0
  3896  00147C                     _PIN_MANAGER_Initialize:
  3897                           	callstack 26
  3898  00147C                     
  3899                           ;mcc_generated_files/pin_manager.c: 60:     LATE = 0x00;
  3900  00147C  0E00               	movlw	0
  3901  00147E  6E8D               	movwf	141,c	;volatile
  3902                           
  3903                           ;mcc_generated_files/pin_manager.c: 61:     LATD = 0x00;
  3904  001480  0E00               	movlw	0
  3905  001482  6E8C               	movwf	140,c	;volatile
  3906                           
  3907                           ;mcc_generated_files/pin_manager.c: 62:     LATA = 0x00;
  3908  001484  0E00               	movlw	0
  3909  001486  6E89               	movwf	137,c	;volatile
  3910                           
  3911                           ;mcc_generated_files/pin_manager.c: 63:     LATB = 0x00;
  3912  001488  0E00               	movlw	0
  3913  00148A  6E8A               	movwf	138,c	;volatile
  3914                           
  3915                           ;mcc_generated_files/pin_manager.c: 64:     LATC = 0x00;
  3916  00148C  0E00               	movlw	0
  3917  00148E  6E8B               	movwf	139,c	;volatile
  3918                           
  3919                           ;mcc_generated_files/pin_manager.c: 69:     TRISE = 0x07;
  3920  001490  0E07               	movlw	7
  3921  001492  6E96               	movwf	150,c	;volatile
  3922                           
  3923                           ;mcc_generated_files/pin_manager.c: 70:     TRISA = 0xCF;
  3924  001494  0ECF               	movlw	207
  3925  001496  6E92               	movwf	146,c	;volatile
  3926                           
  3927                           ;mcc_generated_files/pin_manager.c: 71:     TRISB = 0xFB;
  3928  001498  0EFB               	movlw	251
  3929  00149A  6E93               	movwf	147,c	;volatile
  3930                           
  3931                           ;mcc_generated_files/pin_manager.c: 72:     TRISC = 0xBF;
  3932  00149C  0EBF               	movlw	191
  3933  00149E  6E94               	movwf	148,c	;volatile
  3934  0014A0                     
  3935                           ;mcc_generated_files/pin_manager.c: 73:     TRISD = 0xFF;
  3936  0014A0  6895               	setf	149,c	;volatile
  3937                           
  3938                           ;mcc_generated_files/pin_manager.c: 78:     ANCON0 = 0xF0;
  3939  0014A2  0EF0               	movlw	240
  3940  0014A4  010F               	movlb	15	; () banked
  3941  0014A6  6F5D               	movwf	93,b	;volatile
  3942                           
  3943                           ;mcc_generated_files/pin_manager.c: 79:     ANCON1 = 0x67;
  3944  0014A8  0E67               	movlw	103
  3945  0014AA  6F5C               	movwf	92,b	;volatile
  3946                           
  3947                           ;mcc_generated_files/pin_manager.c: 84:     WPUB = 0x00;
  3948  0014AC  0E00               	movlw	0
  3949  0014AE  6F5B               	movwf	91,b	;volatile
  3950  0014B0                     
  3951                           ; BSR set to: 15
  3952                           ;mcc_generated_files/pin_manager.c: 85:     INTCON2bits.nRBPU = 1;
  3953  0014B0  8EF1               	bsf	241,7,c	;volatile
  3954  0014B2                     
  3955                           ; BSR set to: 15
  3956  0014B2  0012               	return		;funcret
  3957  0014B4                     __end_of_PIN_MANAGER_Initialize:
  3958                           	callstack 0
  3959                           
  3960 ;; *************** function _OSCILLATOR_Initialize *****************
  3961 ;; Defined at:
  3962 ;;		line 60 in file "mcc_generated_files/mcc.c"
  3963 ;; Parameters:    Size  Location     Type
  3964 ;;		None
  3965 ;; Auto vars:     Size  Location     Type
  3966 ;;		None
  3967 ;; Return value:  Size  Location     Type
  3968 ;;                  1    wreg      void 
  3969 ;; Registers used:
  3970 ;;		wreg, status,2
  3971 ;; Tracked objects:
  3972 ;;		On entry : 0/0
  3973 ;;		On exit  : 0/0
  3974 ;;		Unchanged: 0/0
  3975 ;; Data sizes:     COMRAM   BANK0   BANK1   BANK2   BANK3   BANK4   BANK5   BANK6   BANK7   BANK8   BANK9  BANK10  BANK1
      +1  BANK12  BANK13  BANK14
  3976 ;;      Params:         0       0       0       0       0       0       0       0       0       0       0       0       
      +0       0       0       0
  3977 ;;      Locals:         0       0       0       0       0       0       0       0       0       0       0       0       
      +0       0       0       0
  3978 ;;      Temps:          0       0       0       0       0       0       0       0       0       0       0       0       
      +0       0       0       0
  3979 ;;      Totals:         0       0       0       0       0       0       0       0       0       0       0       0       
      +0       0       0       0
  3980 ;;Total ram usage:        0 bytes
  3981 ;; Hardware stack levels used: 1
  3982 ;; Hardware stack levels required when called: 3
  3983 ;; This function calls:
  3984 ;;		Nothing
  3985 ;; This function is called by:
  3986 ;;		_SYSTEM_Initialize
  3987 ;; This function uses a non-reentrant model
  3988 ;;
  3989                           
  3990                           	psect	text20
  3991  0015A8                     __ptext20:
  3992                           	callstack 0
  3993  0015A8                     _OSCILLATOR_Initialize:
  3994                           	callstack 26
  3995  0015A8                     
  3996                           ;mcc_generated_files/mcc.c: 63:     OSCCON = 0x60;
  3997  0015A8  0E60               	movlw	96
  3998  0015AA  6ED3               	movwf	211,c	;volatile
  3999                           
  4000                           ;mcc_generated_files/mcc.c: 65:     OSCCON2 = 0x00;
  4001  0015AC  0E00               	movlw	0
  4002  0015AE  6ED2               	movwf	210,c	;volatile
  4003                           
  4004                           ;mcc_generated_files/mcc.c: 67:     OSCTUNE = 0x00;
  4005  0015B0  0E00               	movlw	0
  4006  0015B2  6E9B               	movwf	155,c	;volatile
  4007                           
  4008                           ;mcc_generated_files/mcc.c: 69:     REFOCON = 0x00;
  4009  0015B4  0E00               	movlw	0
  4010  0015B6  6E9A               	movwf	154,c	;volatile
  4011  0015B8  0012               	return		;funcret
  4012  0015BA                     __end_of_OSCILLATOR_Initialize:
  4013                           	callstack 0
  4014                           
  4015 ;; *************** function _INTERRUPT_Initialize *****************
  4016 ;; Defined at:
  4017 ;;		line 52 in file "mcc_generated_files/interrupt_manager.c"
  4018 ;; Parameters:    Size  Location     Type
  4019 ;;		None
  4020 ;; Auto vars:     Size  Location     Type
  4021 ;;		None
  4022 ;; Return value:  Size  Location     Type
  4023 ;;                  1    wreg      void 
  4024 ;; Registers used:
  4025 ;;		None
  4026 ;; Tracked objects:
  4027 ;;		On entry : 0/0
  4028 ;;		On exit  : 0/0
  4029 ;;		Unchanged: 0/0
  4030 ;; Data sizes:     COMRAM   BANK0   BANK1   BANK2   BANK3   BANK4   BANK5   BANK6   BANK7   BANK8   BANK9  BANK10  BANK1
      +1  BANK12  BANK13  BANK14
  4031 ;;      Params:         0       0       0       0       0       0       0       0       0       0       0       0       
      +0       0       0       0
  4032 ;;      Locals:         0       0       0       0       0       0       0       0       0       0       0       0       
      +0       0       0       0
  4033 ;;      Temps:          0       0       0       0       0       0       0       0       0       0       0       0       
      +0       0       0       0
  4034 ;;      Totals:         0       0       0       0       0       0       0       0       0       0       0       0       
      +0       0       0       0
  4035 ;;Total ram usage:        0 bytes
  4036 ;; Hardware stack levels used: 1
  4037 ;; Hardware stack levels required when called: 3
  4038 ;; This function calls:
  4039 ;;		Nothing
  4040 ;; This function is called by:
  4041 ;;		_SYSTEM_Initialize
  4042 ;; This function uses a non-reentrant model
  4043 ;;
  4044                           
  4045                           	psect	text21
  4046  0015E2                     __ptext21:
  4047                           	callstack 0
  4048  0015E2                     _INTERRUPT_Initialize:
  4049                           	callstack 26
  4050  0015E2                     
  4051                           ;mcc_generated_files/interrupt_manager.c: 55:     RCONbits.IPEN = 0;
  4052  0015E2  9ED0               	bcf	208,7,c	;volatile
  4053  0015E4  0012               	return		;funcret
  4054  0015E6                     __end_of_INTERRUPT_Initialize:
  4055                           	callstack 0
  4056                           
  4057 ;; *************** function _EUSART1_Initialize *****************
  4058 ;; Defined at:
  4059 ;;		line 66 in file "mcc_generated_files/eusart1.c"
  4060 ;; Parameters:    Size  Location     Type
  4061 ;;		None
  4062 ;; Auto vars:     Size  Location     Type
  4063 ;;		None
  4064 ;; Return value:  Size  Location     Type
  4065 ;;                  1    wreg      void 
  4066 ;; Registers used:
  4067 ;;		wreg, status,2, status,0, cstack
  4068 ;; Tracked objects:
  4069 ;;		On entry : 0/0
  4070 ;;		On exit  : 0/0
  4071 ;;		Unchanged: 0/0
  4072 ;; Data sizes:     COMRAM   BANK0   BANK1   BANK2   BANK3   BANK4   BANK5   BANK6   BANK7   BANK8   BANK9  BANK10  BANK1
      +1  BANK12  BANK13  BANK14
  4073 ;;      Params:         0       0       0       0       0       0       0       0       0       0       0       0       
      +0       0       0       0
  4074 ;;      Locals:         0       0       0       0       0       0       0       0       0       0       0       0       
      +0       0       0       0
  4075 ;;      Temps:          0       0       0       0       0       0       0       0       0       0       0       0       
      +0       0       0       0
  4076 ;;      Totals:         0       0       0       0       0       0       0       0       0       0       0       0       
      +0       0       0       0
  4077 ;;Total ram usage:        0 bytes
  4078 ;; Hardware stack levels used: 1
  4079 ;; Hardware stack levels required when called: 4
  4080 ;; This function calls:
  4081 ;;		_EUSART1_SetErrorHandler
  4082 ;;		_EUSART1_SetFramingErrorHandler
  4083 ;;		_EUSART1_SetOverrunErrorHandler
  4084 ;; This function is called by:
  4085 ;;		_SYSTEM_Initialize
  4086 ;; This function uses a non-reentrant model
  4087 ;;
  4088                           
  4089                           	psect	text22
  4090  00143E                     __ptext22:
  4091                           	callstack 0
  4092  00143E                     _EUSART1_Initialize:
  4093                           	callstack 25
  4094  00143E                     
  4095                           ;mcc_generated_files/eusart1.c: 71:     BAUDCON1 = 0x08;
  4096  00143E  0E08               	movlw	8
  4097  001440  6EA7               	movwf	167,c	;volatile
  4098                           
  4099                           ;mcc_generated_files/eusart1.c: 74:     RCSTA1 = 0x80;
  4100  001442  0E80               	movlw	128
  4101  001444  6EAB               	movwf	171,c	;volatile
  4102                           
  4103                           ;mcc_generated_files/eusart1.c: 77:     TXSTA1 = 0x24;
  4104  001446  0E24               	movlw	36
  4105  001448  6EAC               	movwf	172,c	;volatile
  4106                           
  4107                           ;mcc_generated_files/eusart1.c: 80:     SPBRG1 = 0xCF;
  4108  00144A  0ECF               	movlw	207
  4109  00144C  6EAF               	movwf	175,c	;volatile
  4110                           
  4111                           ;mcc_generated_files/eusart1.c: 83:     SPBRGH1 = 0x00;
  4112  00144E  0E00               	movlw	0
  4113  001450  6E7D               	movwf	125,c	;volatile
  4114  001452                     
  4115                           ;mcc_generated_files/eusart1.c: 86:     EUSART1_SetFramingErrorHandler(EUSART1_DefaultFr
      +                          amingErrorHandler);
  4116  001452  0E00               	movlw	0
  4117  001454  6E34               	movwf	EUSART1_SetFramingErrorHandler@interruptHandler^0,c
  4118  001456  0E00               	movlw	0
  4119  001458  6E35               	movwf	(EUSART1_SetFramingErrorHandler@interruptHandler+1)^0,c
  4120  00145A  ECE2  F00A         	call	_EUSART1_SetFramingErrorHandler	;wreg free
  4121  00145E                     
  4122                           ;mcc_generated_files/eusart1.c: 87:     EUSART1_SetOverrunErrorHandler(EUSART1_DefaultOv
      +                          errunErrorHandler);
  4123  00145E  0E00               	movlw	0
  4124  001460  6E34               	movwf	EUSART1_SetOverrunErrorHandler@interruptHandler^0,c
  4125  001462  0E00               	movlw	0
  4126  001464  6E35               	movwf	(EUSART1_SetOverrunErrorHandler@interruptHandler+1)^0,c
  4127  001466  ECDD  F00A         	call	_EUSART1_SetOverrunErrorHandler	;wreg free
  4128  00146A                     
  4129                           ;mcc_generated_files/eusart1.c: 88:     EUSART1_SetErrorHandler(EUSART1_DefaultErrorHand
      +                          ler);
  4130  00146A  0E00               	movlw	0
  4131  00146C  6E34               	movwf	EUSART1_SetErrorHandler@interruptHandler^0,c
  4132  00146E  0E00               	movlw	0
  4133  001470  6E35               	movwf	(EUSART1_SetErrorHandler@interruptHandler+1)^0,c
  4134  001472  ECE7  F00A         	call	_EUSART1_SetErrorHandler	;wreg free
  4135  001476                     
  4136                           ;mcc_generated_files/eusart1.c: 90:     eusart1RxLastError.status = 0;
  4137  001476  0E00               	movlw	0
  4138  001478  6E23               	movwf	_eusart1RxLastError^0,c	;volatile
  4139  00147A  0012               	return		;funcret
  4140  00147C                     __end_of_EUSART1_Initialize:
  4141                           	callstack 0
  4142                           
  4143 ;; *************** function _EUSART1_SetOverrunErrorHandler *****************
  4144 ;; Defined at:
  4145 ;;		line 161 in file "mcc_generated_files/eusart1.c"
  4146 ;; Parameters:    Size  Location     Type
  4147 ;;  interruptHan    2    2[COMRAM] PTR FTN()void 
  4148 ;;		 -> EUSART1_DefaultOverrunErrorHandler(1), 
  4149 ;; Auto vars:     Size  Location     Type
  4150 ;;		None
  4151 ;; Return value:  Size  Location     Type
  4152 ;;                  1    wreg      void 
  4153 ;; Registers used:
  4154 ;;		wreg, status,2, status,0
  4155 ;; Tracked objects:
  4156 ;;		On entry : 0/0
  4157 ;;		On exit  : 0/0
  4158 ;;		Unchanged: 0/0
  4159 ;; Data sizes:     COMRAM   BANK0   BANK1   BANK2   BANK3   BANK4   BANK5   BANK6   BANK7   BANK8   BANK9  BANK10  BANK1
      +1  BANK12  BANK13  BANK14
  4160 ;;      Params:         2       0       0       0       0       0       0       0       0       0       0       0       
      +0       0       0       0
  4161 ;;      Locals:         0       0       0       0       0       0       0       0       0       0       0       0       
      +0       0       0       0
  4162 ;;      Temps:          0       0       0       0       0       0       0       0       0       0       0       0       
      +0       0       0       0
  4163 ;;      Totals:         2       0       0       0       0       0       0       0       0       0       0       0       
      +0       0       0       0
  4164 ;;Total ram usage:        2 bytes
  4165 ;; Hardware stack levels used: 1
  4166 ;; Hardware stack levels required when called: 3
  4167 ;; This function calls:
  4168 ;;		Nothing
  4169 ;; This function is called by:
  4170 ;;		_EUSART1_Initialize
  4171 ;; This function uses a non-reentrant model
  4172 ;;
  4173                           
  4174                           	psect	text23
  4175  0015BA                     __ptext23:
  4176                           	callstack 0
  4177  0015BA                     _EUSART1_SetOverrunErrorHandler:
  4178                           	callstack 25
  4179  0015BA                     
  4180                           ;mcc_generated_files/eusart1.c: 162:     EUSART1_OverrunErrorHandler = interruptHandler;
  4181  0015BA  C034  F057         	movff	EUSART1_SetOverrunErrorHandler@interruptHandler,_EUSART1_OverrunErrorHandler
  4182  0015BE  C035  F058         	movff	EUSART1_SetOverrunErrorHandler@interruptHandler+1,_EUSART1_OverrunErrorHandler+1
  4183  0015C2  0012               	return		;funcret
  4184  0015C4                     __end_of_EUSART1_SetOverrunErrorHandler:
  4185                           	callstack 0
  4186                           
  4187 ;; *************** function _EUSART1_SetFramingErrorHandler *****************
  4188 ;; Defined at:
  4189 ;;		line 157 in file "mcc_generated_files/eusart1.c"
  4190 ;; Parameters:    Size  Location     Type
  4191 ;;  interruptHan    2    2[COMRAM] PTR FTN()void 
  4192 ;;		 -> EUSART1_DefaultFramingErrorHandler(1), 
  4193 ;; Auto vars:     Size  Location     Type
  4194 ;;		None
  4195 ;; Return value:  Size  Location     Type
  4196 ;;                  1    wreg      void 
  4197 ;; Registers used:
  4198 ;;		wreg, status,2, status,0
  4199 ;; Tracked objects:
  4200 ;;		On entry : 0/0
  4201 ;;		On exit  : 0/0
  4202 ;;		Unchanged: 0/0
  4203 ;; Data sizes:     COMRAM   BANK0   BANK1   BANK2   BANK3   BANK4   BANK5   BANK6   BANK7   BANK8   BANK9  BANK10  BANK1
      +1  BANK12  BANK13  BANK14
  4204 ;;      Params:         2       0       0       0       0       0       0       0       0       0       0       0       
      +0       0       0       0
  4205 ;;      Locals:         0       0       0       0       0       0       0       0       0       0       0       0       
      +0       0       0       0
  4206 ;;      Temps:          0       0       0       0       0       0       0       0       0       0       0       0       
      +0       0       0       0
  4207 ;;      Totals:         2       0       0       0       0       0       0       0       0       0       0       0       
      +0       0       0       0
  4208 ;;Total ram usage:        2 bytes
  4209 ;; Hardware stack levels used: 1
  4210 ;; Hardware stack levels required when called: 3
  4211 ;; This function calls:
  4212 ;;		Nothing
  4213 ;; This function is called by:
  4214 ;;		_EUSART1_Initialize
  4215 ;; This function uses a non-reentrant model
  4216 ;;
  4217                           
  4218                           	psect	text24
  4219  0015C4                     __ptext24:
  4220                           	callstack 0
  4221  0015C4                     _EUSART1_SetFramingErrorHandler:
  4222                           	callstack 25
  4223  0015C4                     
  4224                           ;mcc_generated_files/eusart1.c: 158:     EUSART1_FramingErrorHandler = interruptHandler;
  4225  0015C4  C034  F059         	movff	EUSART1_SetFramingErrorHandler@interruptHandler,_EUSART1_FramingErrorHandler
  4226  0015C8  C035  F05A         	movff	EUSART1_SetFramingErrorHandler@interruptHandler+1,_EUSART1_FramingErrorHandler+1
  4227  0015CC  0012               	return		;funcret
  4228  0015CE                     __end_of_EUSART1_SetFramingErrorHandler:
  4229                           	callstack 0
  4230                           
  4231 ;; *************** function _EUSART1_SetErrorHandler *****************
  4232 ;; Defined at:
  4233 ;;		line 165 in file "mcc_generated_files/eusart1.c"
  4234 ;; Parameters:    Size  Location     Type
  4235 ;;  interruptHan    2    2[COMRAM] PTR FTN()void 
  4236 ;;		 -> EUSART1_DefaultErrorHandler(1), 
  4237 ;; Auto vars:     Size  Location     Type
  4238 ;;		None
  4239 ;; Return value:  Size  Location     Type
  4240 ;;                  1    wreg      void 
  4241 ;; Registers used:
  4242 ;;		wreg, status,2, status,0
  4243 ;; Tracked objects:
  4244 ;;		On entry : 0/0
  4245 ;;		On exit  : 0/0
  4246 ;;		Unchanged: 0/0
  4247 ;; Data sizes:     COMRAM   BANK0   BANK1   BANK2   BANK3   BANK4   BANK5   BANK6   BANK7   BANK8   BANK9  BANK10  BANK1
      +1  BANK12  BANK13  BANK14
  4248 ;;      Params:         2       0       0       0       0       0       0       0       0       0       0       0       
      +0       0       0       0
  4249 ;;      Locals:         0       0       0       0       0       0       0       0       0       0       0       0       
      +0       0       0       0
  4250 ;;      Temps:          0       0       0       0       0       0       0       0       0       0       0       0       
      +0       0       0       0
  4251 ;;      Totals:         2       0       0       0       0       0       0       0       0       0       0       0       
      +0       0       0       0
  4252 ;;Total ram usage:        2 bytes
  4253 ;; Hardware stack levels used: 1
  4254 ;; Hardware stack levels required when called: 3
  4255 ;; This function calls:
  4256 ;;		Nothing
  4257 ;; This function is called by:
  4258 ;;		_EUSART1_Initialize
  4259 ;; This function uses a non-reentrant model
  4260 ;;
  4261                           
  4262                           	psect	text25
  4263  0015CE                     __ptext25:
  4264                           	callstack 0
  4265  0015CE                     _EUSART1_SetErrorHandler:
  4266                           	callstack 25
  4267  0015CE                     
  4268                           ;mcc_generated_files/eusart1.c: 166:     EUSART1_ErrorHandler = interruptHandler;
  4269  0015CE  C034  F055         	movff	EUSART1_SetErrorHandler@interruptHandler,_EUSART1_ErrorHandler
  4270  0015D2  C035  F056         	movff	EUSART1_SetErrorHandler@interruptHandler+1,_EUSART1_ErrorHandler+1
  4271  0015D6  0012               	return		;funcret
  4272  0015D8                     __end_of_EUSART1_SetErrorHandler:
  4273                           	callstack 0
  4274                           
  4275 ;; *************** function _ECAN_Initialize *****************
  4276 ;; Defined at:
  4277 ;;		line 65 in file "mcc_generated_files/ecan.c"
  4278 ;; Parameters:    Size  Location     Type
  4279 ;;		None
  4280 ;; Auto vars:     Size  Location     Type
  4281 ;;		None
  4282 ;; Return value:  Size  Location     Type
  4283 ;;                  1    wreg      void 
  4284 ;; Registers used:
  4285 ;;		wreg, status,2, status,0, cstack
  4286 ;; Tracked objects:
  4287 ;;		On entry : 0/0
  4288 ;;		On exit  : 0/0
  4289 ;;		Unchanged: 0/0
  4290 ;; Data sizes:     COMRAM   BANK0   BANK1   BANK2   BANK3   BANK4   BANK5   BANK6   BANK7   BANK8   BANK9  BANK10  BANK1
      +1  BANK12  BANK13  BANK14
  4291 ;;      Params:         0       0       0       0       0       0       0       0       0       0       0       0       
      +0       0       0       0
  4292 ;;      Locals:         0       0       0       0       0       0       0       0       0       0       0       0       
      +0       0       0       0
  4293 ;;      Temps:          1       0       0       0       0       0       0       0       0       0       0       0       
      +0       0       0       0
  4294 ;;      Totals:         1       0       0       0       0       0       0       0       0       0       0       0       
      +0       0       0       0
  4295 ;;Total ram usage:        1 bytes
  4296 ;; Hardware stack levels used: 1
  4297 ;; Hardware stack levels required when called: 4
  4298 ;; This function calls:
  4299 ;;		_ECAN_SetWakeUpInterruptHandler
  4300 ;; This function is called by:
  4301 ;;		_SYSTEM_Initialize
  4302 ;; This function uses a non-reentrant model
  4303 ;;
  4304                           
  4305                           	psect	text26
  4306  00090A                     __ptext26:
  4307                           	callstack 0
  4308  00090A                     _ECAN_Initialize:
  4309                           	callstack 25
  4310  00090A                     
  4311                           ;mcc_generated_files/ecan.c: 67:     CANCON = 0x80;
  4312  00090A  0E80               	movlw	128
  4313  00090C  6E6F               	movwf	111,c	;volatile
  4314  00090E                     l2585:
  4315  00090E  506E               	movf	110,w,c	;volatile
  4316  000910  0BE0               	andlw	224
  4317  000912  0A80               	xorlw	128
  4318  000914  A4D8               	btfss	status,2,c
  4319  000916  EF8F  F004         	goto	u551
  4320  00091A  EF91  F004         	goto	u550
  4321  00091E                     u551:
  4322  00091E  EF87  F004         	goto	l2585
  4323  000922                     u550:
  4324  000922                     
  4325                           ;mcc_generated_files/ecan.c: 73:     ECANCON = 0x40;
  4326  000922  0E40               	movlw	64
  4327  000924  6E72               	movwf	114,c	;volatile
  4328                           
  4329                           ;mcc_generated_files/ecan.c: 78:     CIOCON = 0x20;
  4330  000926  0E20               	movlw	32
  4331  000928  6E70               	movwf	112,c	;volatile
  4332                           
  4333                           ;mcc_generated_files/ecan.c: 92:     BSEL0 = 0x00;
  4334  00092A  0E00               	movlw	0
  4335  00092C  010E               	movlb	14	; () banked
  4336  00092E  6F7D               	movwf	125,b	;volatile
  4337  000930                     
  4338                           ; BSR set to: 14
  4339                           ;mcc_generated_files/ecan.c: 97:     RXM0EIDH = 0xFF;
  4340  000930  69FA               	setf	250,b	;volatile
  4341  000932                     
  4342                           ; BSR set to: 14
  4343                           ;mcc_generated_files/ecan.c: 98:     RXM0EIDL = 0xFF;
  4344  000932  69FB               	setf	251,b	;volatile
  4345  000934                     
  4346                           ; BSR set to: 14
  4347                           ;mcc_generated_files/ecan.c: 99:     RXM0SIDH = 0xFF;
  4348  000934  69F8               	setf	248,b	;volatile
  4349                           
  4350                           ;mcc_generated_files/ecan.c: 100:     RXM0SIDL = 0xE3;
  4351  000936  0EE3               	movlw	227
  4352  000938  6FF9               	movwf	249,b	;volatile
  4353  00093A                     
  4354                           ; BSR set to: 14
  4355                           ;mcc_generated_files/ecan.c: 101:     RXM1EIDH = 0xFF;
  4356  00093A  69FE               	setf	254,b	;volatile
  4357  00093C                     
  4358                           ; BSR set to: 14
  4359                           ;mcc_generated_files/ecan.c: 102:     RXM1EIDL = 0xFF;
  4360  00093C  69FF               	setf	255,b	;volatile
  4361  00093E                     
  4362                           ; BSR set to: 14
  4363                           ;mcc_generated_files/ecan.c: 103:     RXM1SIDH = 0xFF;
  4364  00093E  69FC               	setf	252,b	;volatile
  4365                           
  4366                           ;mcc_generated_files/ecan.c: 104:     RXM1SIDL = 0xE3;
  4367  000940  0EE3               	movlw	227
  4368  000942  6FFD               	movwf	253,b	;volatile
  4369                           
  4370                           ;mcc_generated_files/ecan.c: 109:     RXFCON0 = 0x01;
  4371  000944  0E01               	movlw	1
  4372  000946  6F46               	movwf	70,b	;volatile
  4373                           
  4374                           ;mcc_generated_files/ecan.c: 110:     RXFCON1 = 0x00;
  4375  000948  0E00               	movlw	0
  4376  00094A  6F47               	movwf	71,b	;volatile
  4377                           
  4378                           ;mcc_generated_files/ecan.c: 114:     MSEL0 = 0x00;
  4379  00094C  0E00               	movlw	0
  4380  00094E  6F79               	movwf	121,b	;volatile
  4381                           
  4382                           ;mcc_generated_files/ecan.c: 115:     MSEL1 = 0x00;
  4383  000950  0E00               	movlw	0
  4384  000952  6F7A               	movwf	122,b	;volatile
  4385                           
  4386                           ;mcc_generated_files/ecan.c: 116:     MSEL2 = 0x00;
  4387  000954  0E00               	movlw	0
  4388  000956  6F7B               	movwf	123,b	;volatile
  4389                           
  4390                           ;mcc_generated_files/ecan.c: 117:     MSEL3 = 0x00;
  4391  000958  0E00               	movlw	0
  4392  00095A  6F7C               	movwf	124,b	;volatile
  4393                           
  4394                           ;mcc_generated_files/ecan.c: 122:     RXFBCON0 = 0x00;
  4395  00095C  0E00               	movlw	0
  4396  00095E  6F71               	movwf	113,b	;volatile
  4397                           
  4398                           ;mcc_generated_files/ecan.c: 123:     RXFBCON1 = 0x00;
  4399  000960  0E00               	movlw	0
  4400  000962  6F72               	movwf	114,b	;volatile
  4401                           
  4402                           ;mcc_generated_files/ecan.c: 124:     RXFBCON2 = 0x00;
  4403  000964  0E00               	movlw	0
  4404  000966  6F73               	movwf	115,b	;volatile
  4405                           
  4406                           ;mcc_generated_files/ecan.c: 125:     RXFBCON3 = 0x00;
  4407  000968  0E00               	movlw	0
  4408  00096A  6F74               	movwf	116,b	;volatile
  4409                           
  4410                           ;mcc_generated_files/ecan.c: 126:     RXFBCON4 = 0x00;
  4411  00096C  0E00               	movlw	0
  4412  00096E  6F75               	movwf	117,b	;volatile
  4413                           
  4414                           ;mcc_generated_files/ecan.c: 127:     RXFBCON5 = 0x00;
  4415  000970  0E00               	movlw	0
  4416  000972  6F76               	movwf	118,b	;volatile
  4417                           
  4418                           ;mcc_generated_files/ecan.c: 128:     RXFBCON6 = 0x00;
  4419  000974  0E00               	movlw	0
  4420  000976  6F77               	movwf	119,b	;volatile
  4421                           
  4422                           ;mcc_generated_files/ecan.c: 129:     RXFBCON7 = 0x00;
  4423  000978  0E00               	movlw	0
  4424  00097A  6F78               	movwf	120,b	;volatile
  4425                           
  4426                           ;mcc_generated_files/ecan.c: 134:     RXF0EIDH = 0x00;
  4427  00097C  0E00               	movlw	0
  4428  00097E  6FE2               	movwf	226,b	;volatile
  4429                           
  4430                           ;mcc_generated_files/ecan.c: 135:     RXF0EIDL = 0x00;
  4431  000980  0E00               	movlw	0
  4432  000982  6FE3               	movwf	227,b	;volatile
  4433                           
  4434                           ;mcc_generated_files/ecan.c: 136:     RXF0SIDH = 0x02;
  4435  000984  0E02               	movlw	2
  4436  000986  6FE0               	movwf	224,b	;volatile
  4437                           
  4438                           ;mcc_generated_files/ecan.c: 137:     RXF0SIDL = 0xC0;
  4439  000988  0EC0               	movlw	192
  4440  00098A  6FE1               	movwf	225,b	;volatile
  4441                           
  4442                           ;mcc_generated_files/ecan.c: 138:     RXF1EIDH = 0x00;
  4443  00098C  0E00               	movlw	0
  4444  00098E  6FE6               	movwf	230,b	;volatile
  4445                           
  4446                           ;mcc_generated_files/ecan.c: 139:     RXF1EIDL = 0x00;
  4447  000990  0E00               	movlw	0
  4448  000992  6FE7               	movwf	231,b	;volatile
  4449                           
  4450                           ;mcc_generated_files/ecan.c: 140:     RXF1SIDH = 0x00;
  4451  000994  0E00               	movlw	0
  4452  000996  6FE4               	movwf	228,b	;volatile
  4453                           
  4454                           ;mcc_generated_files/ecan.c: 141:     RXF1SIDL = 0x00;
  4455  000998  0E00               	movlw	0
  4456  00099A  6FE5               	movwf	229,b	;volatile
  4457                           
  4458                           ;mcc_generated_files/ecan.c: 142:     RXF2EIDH = 0x00;
  4459  00099C  0E00               	movlw	0
  4460  00099E  6FEA               	movwf	234,b	;volatile
  4461                           
  4462                           ;mcc_generated_files/ecan.c: 143:     RXF2EIDL = 0x00;
  4463  0009A0  0E00               	movlw	0
  4464  0009A2  6FEB               	movwf	235,b	;volatile
  4465                           
  4466                           ;mcc_generated_files/ecan.c: 144:     RXF2SIDH = 0x00;
  4467  0009A4  0E00               	movlw	0
  4468  0009A6  6FE8               	movwf	232,b	;volatile
  4469                           
  4470                           ;mcc_generated_files/ecan.c: 145:     RXF2SIDL = 0x00;
  4471  0009A8  0E00               	movlw	0
  4472  0009AA  6FE9               	movwf	233,b	;volatile
  4473                           
  4474                           ;mcc_generated_files/ecan.c: 146:     RXF3EIDH = 0x00;
  4475  0009AC  0E00               	movlw	0
  4476  0009AE  6FEE               	movwf	238,b	;volatile
  4477                           
  4478                           ;mcc_generated_files/ecan.c: 147:     RXF3EIDL = 0x00;
  4479  0009B0  0E00               	movlw	0
  4480  0009B2  6FEF               	movwf	239,b	;volatile
  4481                           
  4482                           ;mcc_generated_files/ecan.c: 148:     RXF3SIDH = 0x00;
  4483  0009B4  0E00               	movlw	0
  4484  0009B6  6FEC               	movwf	236,b	;volatile
  4485                           
  4486                           ;mcc_generated_files/ecan.c: 149:     RXF3SIDL = 0x00;
  4487  0009B8  0E00               	movlw	0
  4488  0009BA  6FED               	movwf	237,b	;volatile
  4489                           
  4490                           ;mcc_generated_files/ecan.c: 150:     RXF4EIDH = 0x00;
  4491  0009BC  0E00               	movlw	0
  4492  0009BE  6FF2               	movwf	242,b	;volatile
  4493                           
  4494                           ;mcc_generated_files/ecan.c: 151:     RXF4EIDL = 0x00;
  4495  0009C0  0E00               	movlw	0
  4496  0009C2  6FF3               	movwf	243,b	;volatile
  4497                           
  4498                           ;mcc_generated_files/ecan.c: 152:     RXF4SIDH = 0x00;
  4499  0009C4  0E00               	movlw	0
  4500  0009C6  6FF0               	movwf	240,b	;volatile
  4501                           
  4502                           ;mcc_generated_files/ecan.c: 153:     RXF4SIDL = 0x00;
  4503  0009C8  0E00               	movlw	0
  4504  0009CA  6FF1               	movwf	241,b	;volatile
  4505                           
  4506                           ;mcc_generated_files/ecan.c: 154:     RXF5EIDH = 0x00;
  4507  0009CC  0E00               	movlw	0
  4508  0009CE  6FF6               	movwf	246,b	;volatile
  4509                           
  4510                           ;mcc_generated_files/ecan.c: 155:     RXF5EIDL = 0x00;
  4511  0009D0  0E00               	movlw	0
  4512  0009D2  6FF7               	movwf	247,b	;volatile
  4513                           
  4514                           ;mcc_generated_files/ecan.c: 156:     RXF5SIDH = 0x00;
  4515  0009D4  0E00               	movlw	0
  4516  0009D6  6FF4               	movwf	244,b	;volatile
  4517                           
  4518                           ;mcc_generated_files/ecan.c: 157:     RXF5SIDL = 0x00;
  4519  0009D8  0E00               	movlw	0
  4520  0009DA  6FF5               	movwf	245,b	;volatile
  4521                           
  4522                           ;mcc_generated_files/ecan.c: 159:     RXF6EIDH = 0x00;
  4523  0009DC  0E00               	movlw	0
  4524  0009DE  6F4A               	movwf	74,b	;volatile
  4525                           
  4526                           ;mcc_generated_files/ecan.c: 160:     RXF6EIDL = 0x00;
  4527  0009E0  0E00               	movlw	0
  4528  0009E2  6F4B               	movwf	75,b	;volatile
  4529                           
  4530                           ;mcc_generated_files/ecan.c: 161:     RXF6SIDH = 0x00;
  4531  0009E4  0E00               	movlw	0
  4532  0009E6  6F48               	movwf	72,b	;volatile
  4533                           
  4534                           ;mcc_generated_files/ecan.c: 162:     RXF6SIDL = 0x00;
  4535  0009E8  0E00               	movlw	0
  4536  0009EA  6F49               	movwf	73,b	;volatile
  4537                           
  4538                           ;mcc_generated_files/ecan.c: 163:     RXF7EIDH = 0x00;
  4539  0009EC  0E00               	movlw	0
  4540  0009EE  6F4E               	movwf	78,b	;volatile
  4541                           
  4542                           ;mcc_generated_files/ecan.c: 164:     RXF7EIDL = 0x00;
  4543  0009F0  0E00               	movlw	0
  4544  0009F2  6F4F               	movwf	79,b	;volatile
  4545                           
  4546                           ;mcc_generated_files/ecan.c: 165:     RXF7SIDH = 0x00;
  4547  0009F4  0E00               	movlw	0
  4548  0009F6  6F4C               	movwf	76,b	;volatile
  4549                           
  4550                           ;mcc_generated_files/ecan.c: 166:     RXF7SIDL = 0x00;
  4551  0009F8  0E00               	movlw	0
  4552  0009FA  6F4D               	movwf	77,b	;volatile
  4553                           
  4554                           ;mcc_generated_files/ecan.c: 167:     RXF8EIDH = 0x00;
  4555  0009FC  0E00               	movlw	0
  4556  0009FE  6F52               	movwf	82,b	;volatile
  4557                           
  4558                           ;mcc_generated_files/ecan.c: 168:     RXF8EIDL = 0x00;
  4559  000A00  0E00               	movlw	0
  4560  000A02  6F53               	movwf	83,b	;volatile
  4561                           
  4562                           ;mcc_generated_files/ecan.c: 169:     RXF8SIDH = 0x00;
  4563  000A04  0E00               	movlw	0
  4564  000A06  6F50               	movwf	80,b	;volatile
  4565                           
  4566                           ;mcc_generated_files/ecan.c: 170:     RXF8SIDL = 0x00;
  4567  000A08  0E00               	movlw	0
  4568  000A0A  6F51               	movwf	81,b	;volatile
  4569                           
  4570                           ;mcc_generated_files/ecan.c: 171:     RXF9EIDH = 0x00;
  4571  000A0C  0E00               	movlw	0
  4572  000A0E  6F56               	movwf	86,b	;volatile
  4573                           
  4574                           ;mcc_generated_files/ecan.c: 172:     RXF9EIDL = 0x00;
  4575  000A10  0E00               	movlw	0
  4576  000A12  6F57               	movwf	87,b	;volatile
  4577                           
  4578                           ;mcc_generated_files/ecan.c: 173:     RXF9SIDH = 0x00;
  4579  000A14  0E00               	movlw	0
  4580  000A16  6F54               	movwf	84,b	;volatile
  4581                           
  4582                           ;mcc_generated_files/ecan.c: 174:     RXF9SIDL = 0x00;
  4583  000A18  0E00               	movlw	0
  4584  000A1A  6F55               	movwf	85,b	;volatile
  4585                           
  4586                           ;mcc_generated_files/ecan.c: 175:     RXF10EIDH = 0x00;
  4587  000A1C  0E00               	movlw	0
  4588  000A1E  6F5A               	movwf	90,b	;volatile
  4589                           
  4590                           ;mcc_generated_files/ecan.c: 176:     RXF10EIDL = 0x00;
  4591  000A20  0E00               	movlw	0
  4592  000A22  6F5B               	movwf	91,b	;volatile
  4593                           
  4594                           ;mcc_generated_files/ecan.c: 177:     RXF10SIDH = 0x00;
  4595  000A24  0E00               	movlw	0
  4596  000A26  6F58               	movwf	88,b	;volatile
  4597                           
  4598                           ;mcc_generated_files/ecan.c: 178:     RXF10SIDL = 0x00;
  4599  000A28  0E00               	movlw	0
  4600  000A2A  6F59               	movwf	89,b	;volatile
  4601                           
  4602                           ;mcc_generated_files/ecan.c: 179:     RXF11EIDH = 0x00;
  4603  000A2C  0E00               	movlw	0
  4604  000A2E  6F5E               	movwf	94,b	;volatile
  4605                           
  4606                           ;mcc_generated_files/ecan.c: 180:     RXF11EIDL = 0x00;
  4607  000A30  0E00               	movlw	0
  4608  000A32  6F5F               	movwf	95,b	;volatile
  4609                           
  4610                           ;mcc_generated_files/ecan.c: 181:     RXF11SIDH = 0x00;
  4611  000A34  0E00               	movlw	0
  4612  000A36  6F5C               	movwf	92,b	;volatile
  4613                           
  4614                           ;mcc_generated_files/ecan.c: 182:     RXF11SIDL = 0x00;
  4615  000A38  0E00               	movlw	0
  4616  000A3A  6F5D               	movwf	93,b	;volatile
  4617                           
  4618                           ;mcc_generated_files/ecan.c: 183:     RXF12EIDH = 0x00;
  4619  000A3C  0E00               	movlw	0
  4620  000A3E  6F62               	movwf	98,b	;volatile
  4621                           
  4622                           ;mcc_generated_files/ecan.c: 184:     RXF12EIDL = 0x00;
  4623  000A40  0E00               	movlw	0
  4624  000A42  6F63               	movwf	99,b	;volatile
  4625                           
  4626                           ;mcc_generated_files/ecan.c: 185:     RXF12SIDH = 0x00;
  4627  000A44  0E00               	movlw	0
  4628  000A46  6F60               	movwf	96,b	;volatile
  4629                           
  4630                           ;mcc_generated_files/ecan.c: 186:     RXF12SIDL = 0x00;
  4631  000A48  0E00               	movlw	0
  4632  000A4A  6F61               	movwf	97,b	;volatile
  4633                           
  4634                           ;mcc_generated_files/ecan.c: 187:     RXF13EIDH = 0x00;
  4635  000A4C  0E00               	movlw	0
  4636  000A4E  6F66               	movwf	102,b	;volatile
  4637                           
  4638                           ;mcc_generated_files/ecan.c: 188:     RXF13EIDL = 0x00;
  4639  000A50  0E00               	movlw	0
  4640  000A52  6F67               	movwf	103,b	;volatile
  4641                           
  4642                           ;mcc_generated_files/ecan.c: 189:     RXF13SIDH = 0x00;
  4643  000A54  0E00               	movlw	0
  4644  000A56  6F64               	movwf	100,b	;volatile
  4645                           
  4646                           ;mcc_generated_files/ecan.c: 190:     RXF13SIDL = 0x00;
  4647  000A58  0E00               	movlw	0
  4648  000A5A  6F65               	movwf	101,b	;volatile
  4649                           
  4650                           ;mcc_generated_files/ecan.c: 191:     RXF14EIDH = 0x00;
  4651  000A5C  0E00               	movlw	0
  4652  000A5E  6F6A               	movwf	106,b	;volatile
  4653                           
  4654                           ;mcc_generated_files/ecan.c: 192:     RXF14EIDL = 0x00;
  4655  000A60  0E00               	movlw	0
  4656  000A62  6F6B               	movwf	107,b	;volatile
  4657                           
  4658                           ;mcc_generated_files/ecan.c: 193:     RXF14SIDH = 0x00;
  4659  000A64  0E00               	movlw	0
  4660  000A66  6F68               	movwf	104,b	;volatile
  4661                           
  4662                           ;mcc_generated_files/ecan.c: 194:     RXF14SIDL = 0x00;
  4663  000A68  0E00               	movlw	0
  4664  000A6A  6F69               	movwf	105,b	;volatile
  4665  000A6C                     
  4666                           ; BSR set to: 14
  4667                           ;mcc_generated_files/ecan.c: 195:     RXF15EIDH = 0xFF;
  4668  000A6C  696E               	setf	110,b	;volatile
  4669  000A6E                     
  4670                           ; BSR set to: 14
  4671                           ;mcc_generated_files/ecan.c: 196:     RXF15EIDL = 0xFF;
  4672  000A6E  696F               	setf	111,b	;volatile
  4673  000A70                     
  4674                           ; BSR set to: 14
  4675                           ;mcc_generated_files/ecan.c: 197:     RXF15SIDH = 0xFF;
  4676  000A70  696C               	setf	108,b	;volatile
  4677                           
  4678                           ;mcc_generated_files/ecan.c: 198:     RXF15SIDL = 0xE3;
  4679  000A72  0EE3               	movlw	227
  4680  000A74  6F6D               	movwf	109,b	;volatile
  4681                           
  4682                           ;mcc_generated_files/ecan.c: 213:     BRGCON1 = 0x13;
  4683  000A76  0E13               	movlw	19
  4684  000A78  6F43               	movwf	67,b	;volatile
  4685                           
  4686                           ;mcc_generated_files/ecan.c: 214:     BRGCON2 = 0xA8;
  4687  000A7A  0EA8               	movlw	168
  4688  000A7C  6F44               	movwf	68,b	;volatile
  4689                           
  4690                           ;mcc_generated_files/ecan.c: 215:     BRGCON3 = 0x01;
  4691  000A7E  0E01               	movlw	1
  4692  000A80  6F45               	movwf	69,b	;volatile
  4693  000A82                     
  4694                           ; BSR set to: 14
  4695                           ;mcc_generated_files/ecan.c: 217:     ECAN_SetWakeUpInterruptHandler(WakeUpDefaultInterr
      +                          uptHandler);
  4696  000A82  0EE6               	movlw	low _WakeUpDefaultInterruptHandler
  4697  000A84  6E34               	movwf	ECAN_SetWakeUpInterruptHandler@handler^0,c
  4698  000A86  0E15               	movlw	high _WakeUpDefaultInterruptHandler
  4699  000A88  6E35               	movwf	(ECAN_SetWakeUpInterruptHandler@handler+1)^0,c
  4700  000A8A  ECEC  F00A         	call	_ECAN_SetWakeUpInterruptHandler	;wreg free
  4701  000A8E                     
  4702                           ;mcc_generated_files/ecan.c: 218:     PIR5bits.WAKIF = 0;
  4703  000A8E  9C77               	bcf	119,6,c	;volatile
  4704  000A90                     
  4705                           ;mcc_generated_files/ecan.c: 219:     PIE5bits.WAKIE = 1;
  4706  000A90  8C76               	bsf	118,6,c	;volatile
  4707  000A92                     
  4708                           ;mcc_generated_files/ecan.c: 221:     CANCON = 0x00;
  4709  000A92  0E00               	movlw	0
  4710  000A94  6E6F               	movwf	111,c	;volatile
  4711  000A96                     l2615:
  4712  000A96  CF6E F036          	movff	3950,??_ECAN_Initialize	;volatile
  4713  000A9A  0EE0               	movlw	224
  4714  000A9C  1636               	andwf	??_ECAN_Initialize^0,f,c
  4715  000A9E  A4D8               	btfss	status,2,c
  4716  000AA0  EF54  F005         	goto	u561
  4717  000AA4  EF56  F005         	goto	u560
  4718  000AA8                     u561:
  4719  000AA8  EF4B  F005         	goto	l2615
  4720  000AAC                     u560:
  4721  000AAC  0012               	return		;funcret
  4722  000AAE                     __end_of_ECAN_Initialize:
  4723                           	callstack 0
  4724                           
  4725 ;; *************** function _ECAN_SetWakeUpInterruptHandler *****************
  4726 ;; Defined at:
  4727 ;;		line 498 in file "mcc_generated_files/ecan.c"
  4728 ;; Parameters:    Size  Location     Type
  4729 ;;  handler         2    2[COMRAM] PTR FTN()void 
  4730 ;;		 -> WakeUpDefaultInterruptHandler(1), 
  4731 ;; Auto vars:     Size  Location     Type
  4732 ;;		None
  4733 ;; Return value:  Size  Location     Type
  4734 ;;                  1    wreg      void 
  4735 ;; Registers used:
  4736 ;;		wreg, status,2, status,0
  4737 ;; Tracked objects:
  4738 ;;		On entry : 0/0
  4739 ;;		On exit  : 0/0
  4740 ;;		Unchanged: 0/0
  4741 ;; Data sizes:     COMRAM   BANK0   BANK1   BANK2   BANK3   BANK4   BANK5   BANK6   BANK7   BANK8   BANK9  BANK10  BANK1
      +1  BANK12  BANK13  BANK14
  4742 ;;      Params:         2       0       0       0       0       0       0       0       0       0       0       0       
      +0       0       0       0
  4743 ;;      Locals:         0       0       0       0       0       0       0       0       0       0       0       0       
      +0       0       0       0
  4744 ;;      Temps:          0       0       0       0       0       0       0       0       0       0       0       0       
      +0       0       0       0
  4745 ;;      Totals:         2       0       0       0       0       0       0       0       0       0       0       0       
      +0       0       0       0
  4746 ;;Total ram usage:        2 bytes
  4747 ;; Hardware stack levels used: 1
  4748 ;; Hardware stack levels required when called: 3
  4749 ;; This function calls:
  4750 ;;		Nothing
  4751 ;; This function is called by:
  4752 ;;		_ECAN_Initialize
  4753 ;; This function uses a non-reentrant model
  4754 ;;
  4755                           
  4756                           	psect	text27
  4757  0015D8                     __ptext27:
  4758                           	callstack 0
  4759  0015D8                     _ECAN_SetWakeUpInterruptHandler:
  4760                           	callstack 25
  4761  0015D8                     
  4762                           ;mcc_generated_files/ecan.c: 498: void ECAN_SetWakeUpInterruptHandler(void (*handler)(vo
      +                          id));mcc_generated_files/ecan.c: 499: {;mcc_generated_files/ecan.c: 500:     WakeUpInter
      +                          ruptHandler = handler;
  4763  0015D8  C034  F021         	movff	ECAN_SetWakeUpInterruptHandler@handler,_WakeUpInterruptHandler
  4764  0015DC  C035  F022         	movff	ECAN_SetWakeUpInterruptHandler@handler+1,_WakeUpInterruptHandler+1
  4765  0015E0  0012               	return		;funcret
  4766  0015E2                     __end_of_ECAN_SetWakeUpInterruptHandler:
  4767                           	callstack 0
  4768                           
  4769 ;; *************** function _CAN_receive *****************
  4770 ;; Defined at:
  4771 ;;		line 313 in file "mcc_generated_files/ecan.c"
  4772 ;; Parameters:    Size  Location     Type
  4773 ;;  tempCanMsg      2   21[COMRAM] PTR struct .
  4774 ;;		 -> rx(14), 
  4775 ;; Auto vars:     Size  Location     Type
  4776 ;;  returnValue     1   23[COMRAM] unsigned char 
  4777 ;; Return value:  Size  Location     Type
  4778 ;;                  1    wreg      unsigned char 
  4779 ;; Registers used:
  4780 ;;		wreg, fsr2l, fsr2h, status,2, status,0, cstack
  4781 ;; Tracked objects:
  4782 ;;		On entry : 0/0
  4783 ;;		On exit  : 0/0
  4784 ;;		Unchanged: 0/0
  4785 ;; Data sizes:     COMRAM   BANK0   BANK1   BANK2   BANK3   BANK4   BANK5   BANK6   BANK7   BANK8   BANK9  BANK10  BANK1
      +1  BANK12  BANK13  BANK14
  4786 ;;      Params:         2       0       0       0       0       0       0       0       0       0       0       0       
      +0       0       0       0
  4787 ;;      Locals:         1       0       0       0       0       0       0       0       0       0       0       0       
      +0       0       0       0
  4788 ;;      Temps:          0       0       0       0       0       0       0       0       0       0       0       0       
      +0       0       0       0
  4789 ;;      Totals:         3       0       0       0       0       0       0       0       0       0       0       0       
      +0       0       0       0
  4790 ;;Total ram usage:        3 bytes
  4791 ;; Hardware stack levels used: 1
  4792 ;; Hardware stack levels required when called: 4
  4793 ;; This function calls:
  4794 ;;		_convertReg2ExtendedCANid
  4795 ;;		_convertReg2StandardCANid
  4796 ;; This function is called by:
  4797 ;;		_main
  4798 ;; This function uses a non-reentrant model
  4799 ;;
  4800                           
  4801                           	psect	text28
  4802  0006B6                     __ptext28:
  4803                           	callstack 0
  4804  0006B6                     _CAN_receive:
  4805                           	callstack 26
  4806  0006B6                     
  4807                           ;mcc_generated_files/ecan.c: 313: uint8_t CAN_receive(uCAN_MSG *tempCanMsg);mcc_generate
      +                          d_files/ecan.c: 314: {;mcc_generated_files/ecan.c: 315:     uint8_t returnValue = 0;
  4808  0006B6  0E00               	movlw	0
  4809  0006B8  6E49               	movwf	CAN_receive@returnValue^0,c
  4810  0006BA                     
  4811                           ;mcc_generated_files/ecan.c: 318:     if (RXB0CONbits.RXFUL != 0)
  4812  0006BA  AE60               	btfss	96,7,c	;volatile
  4813  0006BC  EF62  F003         	goto	u621
  4814  0006C0  EF64  F003         	goto	u620
  4815  0006C4                     u621:
  4816  0006C4  EFF0  F003         	goto	l519
  4817  0006C8                     u620:
  4818  0006C8                     
  4819                           ;mcc_generated_files/ecan.c: 319:     {;mcc_generated_files/ecan.c: 320:         if ((RX
      +                          B0SIDL & 0x08) == 0x08)
  4820  0006C8  A662               	btfss	98,3,c	;volatile
  4821  0006CA  EF69  F003         	goto	u631
  4822  0006CE  EF6B  F003         	goto	u630
  4823  0006D2                     u631:
  4824  0006D2  EF8A  F003         	goto	l3025
  4825  0006D6                     u630:
  4826  0006D6                     
  4827                           ;mcc_generated_files/ecan.c: 321:         {;mcc_generated_files/ecan.c: 323:            
      +                           tempCanMsg->frame.idType = (uint8_t) 2;
  4828  0006D6  C047  FFD9         	movff	CAN_receive@tempCanMsg,fsr2l
  4829  0006DA  C048  FFDA         	movff	CAN_receive@tempCanMsg+1,fsr2h
  4830  0006DE  0E02               	movlw	2
  4831  0006E0  6EDF               	movwf	indf2,c
  4832  0006E2                     
  4833                           ;mcc_generated_files/ecan.c: 324:             tempCanMsg->frame.id = convertReg2Extended
      +                          CANid(RXB0EIDH, RXB0EIDL, RXB0SIDH, RXB0SIDL);
  4834  0006E2  CF64 F034          	movff	3940,convertReg2ExtendedCANid@tempRXBn_EIDL	;volatile
  4835  0006E6  CF61 F035          	movff	3937,convertReg2ExtendedCANid@tempRXBn_SIDH	;volatile
  4836  0006EA  CF62 F036          	movff	3938,convertReg2ExtendedCANid@tempRXBn_SIDL	;volatile
  4837  0006EE  5063               	movf	99,w,c	;volatile
  4838  0006F0  EC11  F006         	call	_convertReg2ExtendedCANid
  4839  0006F4  EE20 F001          	lfsr	2,1
  4840  0006F8  5047               	movf	CAN_receive@tempCanMsg^0,w,c
  4841  0006FA  26D9               	addwf	fsr2l,f,c
  4842  0006FC  5048               	movf	(CAN_receive@tempCanMsg+1)^0,w,c
  4843  0006FE  22DA               	addwfc	fsr2h,f,c
  4844  000700  C034  FFDE         	movff	?_convertReg2ExtendedCANid,postinc2
  4845  000704  C035  FFDE         	movff	?_convertReg2ExtendedCANid+1,postinc2
  4846  000708  C036  FFDE         	movff	?_convertReg2ExtendedCANid+2,postinc2
  4847  00070C  C037  FFDE         	movff	?_convertReg2ExtendedCANid+3,postinc2
  4848                           
  4849                           ;mcc_generated_files/ecan.c: 325:         }
  4850  000710  EFA3  F003         	goto	l3029
  4851  000714                     l3025:
  4852                           
  4853                           ;mcc_generated_files/ecan.c: 327:         {;mcc_generated_files/ecan.c: 329:            
      +                           tempCanMsg->frame.idType = (uint8_t) 1;
  4854  000714  C047  FFD9         	movff	CAN_receive@tempCanMsg,fsr2l
  4855  000718  C048  FFDA         	movff	CAN_receive@tempCanMsg+1,fsr2h
  4856  00071C  0E01               	movlw	1
  4857  00071E  6EDF               	movwf	indf2,c
  4858  000720                     
  4859                           ;mcc_generated_files/ecan.c: 330:             tempCanMsg->frame.id = convertReg2Standard
      +                          CANid(RXB0SIDH, RXB0SIDL);
  4860  000720  CF62 F034          	movff	3938,convertReg2StandardCANid@tempRXBn_SIDL	;volatile
  4861  000724  5061               	movf	97,w,c	;volatile
  4862  000726  ECE3  F009         	call	_convertReg2StandardCANid
  4863  00072A  EE20 F001          	lfsr	2,1
  4864  00072E  5047               	movf	CAN_receive@tempCanMsg^0,w,c
  4865  000730  26D9               	addwf	fsr2l,f,c
  4866  000732  5048               	movf	(CAN_receive@tempCanMsg+1)^0,w,c
  4867  000734  22DA               	addwfc	fsr2h,f,c
  4868  000736  C034  FFDE         	movff	?_convertReg2StandardCANid,postinc2
  4869  00073A  C035  FFDE         	movff	?_convertReg2StandardCANid+1,postinc2
  4870  00073E  C036  FFDE         	movff	?_convertReg2StandardCANid+2,postinc2
  4871  000742  C037  FFDE         	movff	?_convertReg2StandardCANid+3,postinc2
  4872  000746                     l3029:
  4873                           
  4874                           ;mcc_generated_files/ecan.c: 333:         tempCanMsg->frame.dlc = RXB0DLC;
  4875  000746  EE20 F005          	lfsr	2,5
  4876  00074A  5047               	movf	CAN_receive@tempCanMsg^0,w,c
  4877  00074C  26D9               	addwf	fsr2l,f,c
  4878  00074E  5048               	movf	(CAN_receive@tempCanMsg+1)^0,w,c
  4879  000750  22DA               	addwfc	fsr2h,f,c
  4880  000752  CF65 FFDF          	movff	3941,indf2	;volatile
  4881  000756                     
  4882                           ;mcc_generated_files/ecan.c: 334:         tempCanMsg->frame.data0 = RXB0D0;
  4883  000756  EE20 F006          	lfsr	2,6
  4884  00075A  5047               	movf	CAN_receive@tempCanMsg^0,w,c
  4885  00075C  26D9               	addwf	fsr2l,f,c
  4886  00075E  5048               	movf	(CAN_receive@tempCanMsg+1)^0,w,c
  4887  000760  22DA               	addwfc	fsr2h,f,c
  4888  000762  CF66 FFDF          	movff	3942,indf2	;volatile
  4889  000766                     
  4890                           ;mcc_generated_files/ecan.c: 335:         tempCanMsg->frame.data1 = RXB0D1;
  4891  000766  EE20 F007          	lfsr	2,7
  4892  00076A  5047               	movf	CAN_receive@tempCanMsg^0,w,c
  4893  00076C  26D9               	addwf	fsr2l,f,c
  4894  00076E  5048               	movf	(CAN_receive@tempCanMsg+1)^0,w,c
  4895  000770  22DA               	addwfc	fsr2h,f,c
  4896  000772  CF67 FFDF          	movff	3943,indf2	;volatile
  4897  000776                     
  4898                           ;mcc_generated_files/ecan.c: 336:         tempCanMsg->frame.data2 = RXB0D2;
  4899  000776  EE20 F008          	lfsr	2,8
  4900  00077A  5047               	movf	CAN_receive@tempCanMsg^0,w,c
  4901  00077C  26D9               	addwf	fsr2l,f,c
  4902  00077E  5048               	movf	(CAN_receive@tempCanMsg+1)^0,w,c
  4903  000780  22DA               	addwfc	fsr2h,f,c
  4904  000782  CF68 FFDF          	movff	3944,indf2	;volatile
  4905  000786                     
  4906                           ;mcc_generated_files/ecan.c: 337:         tempCanMsg->frame.data3 = RXB0D3;
  4907  000786  EE20 F009          	lfsr	2,9
  4908  00078A  5047               	movf	CAN_receive@tempCanMsg^0,w,c
  4909  00078C  26D9               	addwf	fsr2l,f,c
  4910  00078E  5048               	movf	(CAN_receive@tempCanMsg+1)^0,w,c
  4911  000790  22DA               	addwfc	fsr2h,f,c
  4912  000792  CF69 FFDF          	movff	3945,indf2	;volatile
  4913  000796                     
  4914                           ;mcc_generated_files/ecan.c: 338:         tempCanMsg->frame.data4 = RXB0D4;
  4915  000796  EE20 F00A          	lfsr	2,10
  4916  00079A  5047               	movf	CAN_receive@tempCanMsg^0,w,c
  4917  00079C  26D9               	addwf	fsr2l,f,c
  4918  00079E  5048               	movf	(CAN_receive@tempCanMsg+1)^0,w,c
  4919  0007A0  22DA               	addwfc	fsr2h,f,c
  4920  0007A2  CF6A FFDF          	movff	3946,indf2	;volatile
  4921  0007A6                     
  4922                           ;mcc_generated_files/ecan.c: 339:         tempCanMsg->frame.data5 = RXB0D5;
  4923  0007A6  EE20 F00B          	lfsr	2,11
  4924  0007AA  5047               	movf	CAN_receive@tempCanMsg^0,w,c
  4925  0007AC  26D9               	addwf	fsr2l,f,c
  4926  0007AE  5048               	movf	(CAN_receive@tempCanMsg+1)^0,w,c
  4927  0007B0  22DA               	addwfc	fsr2h,f,c
  4928  0007B2  CF6B FFDF          	movff	3947,indf2	;volatile
  4929  0007B6                     
  4930                           ;mcc_generated_files/ecan.c: 340:         tempCanMsg->frame.data6 = RXB0D6;
  4931  0007B6  EE20 F00C          	lfsr	2,12
  4932  0007BA  5047               	movf	CAN_receive@tempCanMsg^0,w,c
  4933  0007BC  26D9               	addwf	fsr2l,f,c
  4934  0007BE  5048               	movf	(CAN_receive@tempCanMsg+1)^0,w,c
  4935  0007C0  22DA               	addwfc	fsr2h,f,c
  4936  0007C2  CF6C FFDF          	movff	3948,indf2	;volatile
  4937  0007C6                     
  4938                           ;mcc_generated_files/ecan.c: 341:         tempCanMsg->frame.data7 = RXB0D7;
  4939  0007C6  EE20 F00D          	lfsr	2,13
  4940  0007CA  5047               	movf	CAN_receive@tempCanMsg^0,w,c
  4941  0007CC  26D9               	addwf	fsr2l,f,c
  4942  0007CE  5048               	movf	(CAN_receive@tempCanMsg+1)^0,w,c
  4943  0007D0  22DA               	addwfc	fsr2h,f,c
  4944  0007D2  CF6D FFDF          	movff	3949,indf2	;volatile
  4945  0007D6                     
  4946                           ;mcc_generated_files/ecan.c: 342:         RXB0CONbits.RXFUL = 0;
  4947  0007D6  9E60               	bcf	96,7,c	;volatile
  4948  0007D8                     l3049:
  4949                           
  4950                           ;mcc_generated_files/ecan.c: 343:         returnValue = 1;
  4951  0007D8  0E01               	movlw	1
  4952  0007DA  6E49               	movwf	CAN_receive@returnValue^0,c
  4953                           
  4954                           ;mcc_generated_files/ecan.c: 344:     }
  4955  0007DC  EF83  F004         	goto	l3083
  4956  0007E0                     l519:
  4957  0007E0  010F               	movlb	15	; () banked
  4958  0007E2  AF30               	btfss	48,7,b	;volatile
  4959  0007E4  EFF6  F003         	goto	u641
  4960  0007E8  EFF8  F003         	goto	u640
  4961  0007EC                     u641:
  4962  0007EC  EF83  F004         	goto	l3083
  4963  0007F0                     u640:
  4964  0007F0                     
  4965                           ; BSR set to: 15
  4966                           ;mcc_generated_files/ecan.c: 346:     {;mcc_generated_files/ecan.c: 347:         if ((RX
      +                          B1SIDL & 0x08) == 0x08)
  4967  0007F0  A732               	btfss	50,3,b	;volatile
  4968  0007F2  EFFD  F003         	goto	u651
  4969  0007F6  EFFF  F003         	goto	u650
  4970  0007FA                     u651:
  4971  0007FA  EF1E  F004         	goto	l3057
  4972  0007FE                     u650:
  4973  0007FE                     
  4974                           ; BSR set to: 15
  4975                           ;mcc_generated_files/ecan.c: 348:         {;mcc_generated_files/ecan.c: 350:            
      +                           tempCanMsg->frame.idType = (uint8_t) 2;
  4976  0007FE  C047  FFD9         	movff	CAN_receive@tempCanMsg,fsr2l
  4977  000802  C048  FFDA         	movff	CAN_receive@tempCanMsg+1,fsr2h
  4978  000806  0E02               	movlw	2
  4979  000808  6EDF               	movwf	indf2,c
  4980  00080A                     
  4981                           ; BSR set to: 15
  4982                           ;mcc_generated_files/ecan.c: 351:             tempCanMsg->frame.id = convertReg2Extended
      +                          CANid(RXB1EIDH, RXB1EIDL, RXB1SIDH, RXB1SIDL);
  4983  00080A  CF34 F034          	movff	3892,convertReg2ExtendedCANid@tempRXBn_EIDL	;volatile
  4984  00080E  CF31 F035          	movff	3889,convertReg2ExtendedCANid@tempRXBn_SIDH	;volatile
  4985  000812  CF32 F036          	movff	3890,convertReg2ExtendedCANid@tempRXBn_SIDL	;volatile
  4986  000816  5133               	movf	51,w,b	;volatile
  4987  000818  EC11  F006         	call	_convertReg2ExtendedCANid
  4988  00081C  EE20 F001          	lfsr	2,1
  4989  000820  5047               	movf	CAN_receive@tempCanMsg^0,w,c
  4990  000822  26D9               	addwf	fsr2l,f,c
  4991  000824  5048               	movf	(CAN_receive@tempCanMsg+1)^0,w,c
  4992  000826  22DA               	addwfc	fsr2h,f,c
  4993  000828  C034  FFDE         	movff	?_convertReg2ExtendedCANid,postinc2
  4994  00082C  C035  FFDE         	movff	?_convertReg2ExtendedCANid+1,postinc2
  4995  000830  C036  FFDE         	movff	?_convertReg2ExtendedCANid+2,postinc2
  4996  000834  C037  FFDE         	movff	?_convertReg2ExtendedCANid+3,postinc2
  4997                           
  4998                           ;mcc_generated_files/ecan.c: 352:         }
  4999  000838  EF37  F004         	goto	l3061
  5000  00083C                     l3057:
  5001                           
  5002                           ; BSR set to: 15
  5003                           ;mcc_generated_files/ecan.c: 354:         {;mcc_generated_files/ecan.c: 356:            
      +                           tempCanMsg->frame.idType = (uint8_t) 1;
  5004  00083C  C047  FFD9         	movff	CAN_receive@tempCanMsg,fsr2l
  5005  000840  C048  FFDA         	movff	CAN_receive@tempCanMsg+1,fsr2h
  5006  000844  0E01               	movlw	1
  5007  000846  6EDF               	movwf	indf2,c
  5008  000848                     
  5009                           ; BSR set to: 15
  5010                           ;mcc_generated_files/ecan.c: 357:             tempCanMsg->frame.id = convertReg2Standard
      +                          CANid(RXB1SIDH, RXB1SIDL);
  5011  000848  CF32 F034          	movff	3890,convertReg2StandardCANid@tempRXBn_SIDL	;volatile
  5012  00084C  5131               	movf	49,w,b	;volatile
  5013  00084E  ECE3  F009         	call	_convertReg2StandardCANid
  5014  000852  EE20 F001          	lfsr	2,1
  5015  000856  5047               	movf	CAN_receive@tempCanMsg^0,w,c
  5016  000858  26D9               	addwf	fsr2l,f,c
  5017  00085A  5048               	movf	(CAN_receive@tempCanMsg+1)^0,w,c
  5018  00085C  22DA               	addwfc	fsr2h,f,c
  5019  00085E  C034  FFDE         	movff	?_convertReg2StandardCANid,postinc2
  5020  000862  C035  FFDE         	movff	?_convertReg2StandardCANid+1,postinc2
  5021  000866  C036  FFDE         	movff	?_convertReg2StandardCANid+2,postinc2
  5022  00086A  C037  FFDE         	movff	?_convertReg2StandardCANid+3,postinc2
  5023  00086E                     l3061:
  5024                           
  5025                           ;mcc_generated_files/ecan.c: 360:         tempCanMsg->frame.dlc = RXB1DLC;
  5026  00086E  EE20 F005          	lfsr	2,5
  5027  000872  5047               	movf	CAN_receive@tempCanMsg^0,w,c
  5028  000874  26D9               	addwf	fsr2l,f,c
  5029  000876  5048               	movf	(CAN_receive@tempCanMsg+1)^0,w,c
  5030  000878  22DA               	addwfc	fsr2h,f,c
  5031  00087A  CF35 FFDF          	movff	3893,indf2	;volatile
  5032  00087E                     
  5033                           ;mcc_generated_files/ecan.c: 361:         tempCanMsg->frame.data0 = RXB1D0;
  5034  00087E  EE20 F006          	lfsr	2,6
  5035  000882  5047               	movf	CAN_receive@tempCanMsg^0,w,c
  5036  000884  26D9               	addwf	fsr2l,f,c
  5037  000886  5048               	movf	(CAN_receive@tempCanMsg+1)^0,w,c
  5038  000888  22DA               	addwfc	fsr2h,f,c
  5039  00088A  CF36 FFDF          	movff	3894,indf2	;volatile
  5040  00088E                     
  5041                           ;mcc_generated_files/ecan.c: 362:         tempCanMsg->frame.data1 = RXB1D1;
  5042  00088E  EE20 F007          	lfsr	2,7
  5043  000892  5047               	movf	CAN_receive@tempCanMsg^0,w,c
  5044  000894  26D9               	addwf	fsr2l,f,c
  5045  000896  5048               	movf	(CAN_receive@tempCanMsg+1)^0,w,c
  5046  000898  22DA               	addwfc	fsr2h,f,c
  5047  00089A  CF37 FFDF          	movff	3895,indf2	;volatile
  5048  00089E                     
  5049                           ;mcc_generated_files/ecan.c: 363:         tempCanMsg->frame.data2 = RXB1D2;
  5050  00089E  EE20 F008          	lfsr	2,8
  5051  0008A2  5047               	movf	CAN_receive@tempCanMsg^0,w,c
  5052  0008A4  26D9               	addwf	fsr2l,f,c
  5053  0008A6  5048               	movf	(CAN_receive@tempCanMsg+1)^0,w,c
  5054  0008A8  22DA               	addwfc	fsr2h,f,c
  5055  0008AA  CF38 FFDF          	movff	3896,indf2	;volatile
  5056  0008AE                     
  5057                           ;mcc_generated_files/ecan.c: 364:         tempCanMsg->frame.data3 = RXB1D3;
  5058  0008AE  EE20 F009          	lfsr	2,9
  5059  0008B2  5047               	movf	CAN_receive@tempCanMsg^0,w,c
  5060  0008B4  26D9               	addwf	fsr2l,f,c
  5061  0008B6  5048               	movf	(CAN_receive@tempCanMsg+1)^0,w,c
  5062  0008B8  22DA               	addwfc	fsr2h,f,c
  5063  0008BA  CF39 FFDF          	movff	3897,indf2	;volatile
  5064  0008BE                     
  5065                           ;mcc_generated_files/ecan.c: 365:         tempCanMsg->frame.data4 = RXB1D4;
  5066  0008BE  EE20 F00A          	lfsr	2,10
  5067  0008C2  5047               	movf	CAN_receive@tempCanMsg^0,w,c
  5068  0008C4  26D9               	addwf	fsr2l,f,c
  5069  0008C6  5048               	movf	(CAN_receive@tempCanMsg+1)^0,w,c
  5070  0008C8  22DA               	addwfc	fsr2h,f,c
  5071  0008CA  CF3A FFDF          	movff	3898,indf2	;volatile
  5072  0008CE                     
  5073                           ;mcc_generated_files/ecan.c: 366:         tempCanMsg->frame.data5 = RXB1D5;
  5074  0008CE  EE20 F00B          	lfsr	2,11
  5075  0008D2  5047               	movf	CAN_receive@tempCanMsg^0,w,c
  5076  0008D4  26D9               	addwf	fsr2l,f,c
  5077  0008D6  5048               	movf	(CAN_receive@tempCanMsg+1)^0,w,c
  5078  0008D8  22DA               	addwfc	fsr2h,f,c
  5079  0008DA  CF3B FFDF          	movff	3899,indf2	;volatile
  5080  0008DE                     
  5081                           ;mcc_generated_files/ecan.c: 367:         tempCanMsg->frame.data6 = RXB1D6;
  5082  0008DE  EE20 F00C          	lfsr	2,12
  5083  0008E2  5047               	movf	CAN_receive@tempCanMsg^0,w,c
  5084  0008E4  26D9               	addwf	fsr2l,f,c
  5085  0008E6  5048               	movf	(CAN_receive@tempCanMsg+1)^0,w,c
  5086  0008E8  22DA               	addwfc	fsr2h,f,c
  5087  0008EA  CF3C FFDF          	movff	3900,indf2	;volatile
  5088  0008EE                     
  5089                           ;mcc_generated_files/ecan.c: 368:         tempCanMsg->frame.data7 = RXB1D7;
  5090  0008EE  EE20 F00D          	lfsr	2,13
  5091  0008F2  5047               	movf	CAN_receive@tempCanMsg^0,w,c
  5092  0008F4  26D9               	addwf	fsr2l,f,c
  5093  0008F6  5048               	movf	(CAN_receive@tempCanMsg+1)^0,w,c
  5094  0008F8  22DA               	addwfc	fsr2h,f,c
  5095  0008FA  CF3D FFDF          	movff	3901,indf2	;volatile
  5096  0008FE                     
  5097                           ;mcc_generated_files/ecan.c: 369:         RXB1CONbits.RXFUL = 0;
  5098  0008FE  010F               	movlb	15	; () banked
  5099  000900  9F30               	bcf	48,7,b	;volatile
  5100  000902  EFEC  F003         	goto	l3049
  5101  000906                     l3083:
  5102                           
  5103                           ;mcc_generated_files/ecan.c: 372:     return (returnValue);
  5104  000906  5049               	movf	CAN_receive@returnValue^0,w,c
  5105  000908  0012               	return		;funcret
  5106  00090A                     __end_of_CAN_receive:
  5107                           	callstack 0
  5108                           
  5109 ;; *************** function _convertReg2StandardCANid *****************
  5110 ;; Defined at:
  5111 ;;		line 451 in file "mcc_generated_files/ecan.c"
  5112 ;; Parameters:    Size  Location     Type
  5113 ;;  tempRXBn_SID    1    wreg     unsigned char 
  5114 ;;  tempRXBn_SID    1    2[COMRAM] unsigned char 
  5115 ;; Auto vars:     Size  Location     Type
  5116 ;;  tempRXBn_SID    1    8[COMRAM] unsigned char 
  5117 ;;  ConvertedID     4   13[COMRAM] unsigned long 
  5118 ;;  returnValue     4    9[COMRAM] unsigned long 
  5119 ;; Return value:  Size  Location     Type
  5120 ;;                  4    2[COMRAM] unsigned long 
  5121 ;; Registers used:
  5122 ;;		wreg, status,2, status,0
  5123 ;; Tracked objects:
  5124 ;;		On entry : 0/0
  5125 ;;		On exit  : 0/0
  5126 ;;		Unchanged: 0/0
  5127 ;; Data sizes:     COMRAM   BANK0   BANK1   BANK2   BANK3   BANK4   BANK5   BANK6   BANK7   BANK8   BANK9  BANK10  BANK1
      +1  BANK12  BANK13  BANK14
  5128 ;;      Params:         4       0       0       0       0       0       0       0       0       0       0       0       
      +0       0       0       0
  5129 ;;      Locals:         9       0       0       0       0       0       0       0       0       0       0       0       
      +0       0       0       0
  5130 ;;      Temps:          2       0       0       0       0       0       0       0       0       0       0       0       
      +0       0       0       0
  5131 ;;      Totals:        15       0       0       0       0       0       0       0       0       0       0       0       
      +0       0       0       0
  5132 ;;Total ram usage:       15 bytes
  5133 ;; Hardware stack levels used: 1
  5134 ;; Hardware stack levels required when called: 3
  5135 ;; This function calls:
  5136 ;;		Nothing
  5137 ;; This function is called by:
  5138 ;;		_CAN_receive
  5139 ;; This function uses a non-reentrant model
  5140 ;;
  5141                           
  5142                           	psect	text29
  5143  0013C6                     __ptext29:
  5144                           	callstack 0
  5145  0013C6                     _convertReg2StandardCANid:
  5146                           	callstack 26
  5147                           
  5148                           ;incstack = 0
  5149                           ;convertReg2StandardCANid@tempRXBn_SIDH stored from wreg
  5150  0013C6  6E3A               	movwf	convertReg2StandardCANid@tempRXBn_SIDH^0,c
  5151  0013C8                     
  5152                           ;mcc_generated_files/ecan.c: 453:     uint32_t ConvertedID;;mcc_generated_files/ecan.c: 
      +                          457:     ConvertedID = (uint32_t)(tempRXBn_SIDH << 3);
  5153  0013C8  503A               	movf	convertReg2StandardCANid@tempRXBn_SIDH^0,w,c
  5154  0013CA  6E38               	movwf	??_convertReg2StandardCANid^0,c
  5155  0013CC  6A39               	clrf	(??_convertReg2StandardCANid+1)^0,c
  5156  0013CE  90D8               	bcf	status,0,c
  5157  0013D0  3638               	rlcf	??_convertReg2StandardCANid^0,f,c
  5158  0013D2  3639               	rlcf	(??_convertReg2StandardCANid+1)^0,f,c
  5159  0013D4  90D8               	bcf	status,0,c
  5160  0013D6  3638               	rlcf	??_convertReg2StandardCANid^0,f,c
  5161  0013D8  3639               	rlcf	(??_convertReg2StandardCANid+1)^0,f,c
  5162  0013DA  90D8               	bcf	status,0,c
  5163  0013DC  3638               	rlcf	??_convertReg2StandardCANid^0,f,c
  5164  0013DE  3639               	rlcf	(??_convertReg2StandardCANid+1)^0,f,c
  5165  0013E0  C038  F03F         	movff	??_convertReg2StandardCANid,convertReg2StandardCANid@ConvertedID
  5166  0013E4  C039  F040         	movff	??_convertReg2StandardCANid+1,convertReg2StandardCANid@ConvertedID+1
  5167  0013E8  0E00               	movlw	0
  5168  0013EA  BE40               	btfsc	(convertReg2StandardCANid@ConvertedID+1)^0,7,c
  5169  0013EC  0EFF               	movlw	-1
  5170  0013EE  6E41               	movwf	(convertReg2StandardCANid@ConvertedID+2)^0,c
  5171  0013F0  6E42               	movwf	(convertReg2StandardCANid@ConvertedID+3)^0,c
  5172  0013F2                     
  5173                           ;mcc_generated_files/ecan.c: 458:     ConvertedID = ConvertedID + (uint32_t)(tempRXBn_SI
      +                          DL >> 5);
  5174  0013F2  C034  F038         	movff	convertReg2StandardCANid@tempRXBn_SIDL,??_convertReg2StandardCANid
  5175  0013F6  0E05               	movlw	5
  5176  0013F8  6E39               	movwf	(??_convertReg2StandardCANid+1)^0,c
  5177  0013FA                     u615:
  5178  0013FA  90D8               	bcf	status,0,c
  5179  0013FC  3238               	rrcf	??_convertReg2StandardCANid^0,f,c
  5180  0013FE  2E39               	decfsz	(??_convertReg2StandardCANid+1)^0,f,c
  5181  001400  EFFD  F009         	goto	u615
  5182  001404  5038               	movf	??_convertReg2StandardCANid^0,w,c
  5183  001406  243F               	addwf	convertReg2StandardCANid@ConvertedID^0,w,c
  5184  001408  6E3F               	movwf	convertReg2StandardCANid@ConvertedID^0,c
  5185  00140A  0E00               	movlw	0
  5186  00140C  2040               	addwfc	(convertReg2StandardCANid@ConvertedID+1)^0,w,c
  5187  00140E  6E40               	movwf	(convertReg2StandardCANid@ConvertedID+1)^0,c
  5188  001410  0E00               	movlw	0
  5189  001412  2041               	addwfc	(convertReg2StandardCANid@ConvertedID+2)^0,w,c
  5190  001414  6E41               	movwf	(convertReg2StandardCANid@ConvertedID+2)^0,c
  5191  001416  0E00               	movlw	0
  5192  001418  2042               	addwfc	(convertReg2StandardCANid@ConvertedID+3)^0,w,c
  5193  00141A  6E42               	movwf	(convertReg2StandardCANid@ConvertedID+3)^0,c
  5194  00141C                     
  5195                           ;mcc_generated_files/ecan.c: 459:     returnValue = ConvertedID;
  5196  00141C  C03F  F03B         	movff	convertReg2StandardCANid@ConvertedID,convertReg2StandardCANid@returnValue
  5197  001420  C040  F03C         	movff	convertReg2StandardCANid@ConvertedID+1,convertReg2StandardCANid@returnValue+1
  5198  001424  C041  F03D         	movff	convertReg2StandardCANid@ConvertedID+2,convertReg2StandardCANid@returnValue+2
  5199  001428  C042  F03E         	movff	convertReg2StandardCANid@ConvertedID+3,convertReg2StandardCANid@returnValue+3
  5200  00142C                     
  5201                           ;mcc_generated_files/ecan.c: 460:     return (returnValue);
  5202  00142C  C03B  F034         	movff	convertReg2StandardCANid@returnValue,?_convertReg2StandardCANid
  5203  001430  C03C  F035         	movff	convertReg2StandardCANid@returnValue+1,?_convertReg2StandardCANid+1
  5204  001434  C03D  F036         	movff	convertReg2StandardCANid@returnValue+2,?_convertReg2StandardCANid+2
  5205  001438  C03E  F037         	movff	convertReg2StandardCANid@returnValue+3,?_convertReg2StandardCANid+3
  5206  00143C  0012               	return		;funcret
  5207  00143E                     __end_of_convertReg2StandardCANid:
  5208                           	callstack 0
  5209                           
  5210 ;; *************** function _convertReg2ExtendedCANid *****************
  5211 ;; Defined at:
  5212 ;;		line 431 in file "mcc_generated_files/ecan.c"
  5213 ;; Parameters:    Size  Location     Type
  5214 ;;  tempRXBn_EID    1    wreg     unsigned char 
  5215 ;;  tempRXBn_EID    1    2[COMRAM] unsigned char 
  5216 ;;  tempRXBn_SID    1    3[COMRAM] unsigned char 
  5217 ;;  tempRXBn_SID    1    4[COMRAM] unsigned char 
  5218 ;; Auto vars:     Size  Location     Type
  5219 ;;  tempRXBn_EID    1   10[COMRAM] unsigned char 
  5220 ;;  ConvertedID     4   17[COMRAM] unsigned long 
  5221 ;;  returnValue     4   11[COMRAM] unsigned long 
  5222 ;;  CAN_standard    1   16[COMRAM] unsigned char 
  5223 ;;  CAN_standard    1   15[COMRAM] unsigned char 
  5224 ;; Return value:  Size  Location     Type
  5225 ;;                  4    2[COMRAM] unsigned long 
  5226 ;; Registers used:
  5227 ;;		wreg, status,2, status,0
  5228 ;; Tracked objects:
  5229 ;;		On entry : 0/0
  5230 ;;		On exit  : 0/0
  5231 ;;		Unchanged: 0/0
  5232 ;; Data sizes:     COMRAM   BANK0   BANK1   BANK2   BANK3   BANK4   BANK5   BANK6   BANK7   BANK8   BANK9  BANK10  BANK1
      +1  BANK12  BANK13  BANK14
  5233 ;;      Params:         4       0       0       0       0       0       0       0       0       0       0       0       
      +0       0       0       0
  5234 ;;      Locals:        11       0       0       0       0       0       0       0       0       0       0       0       
      +0       0       0       0
  5235 ;;      Temps:          4       0       0       0       0       0       0       0       0       0       0       0       
      +0       0       0       0
  5236 ;;      Totals:        19       0       0       0       0       0       0       0       0       0       0       0       
      +0       0       0       0
  5237 ;;Total ram usage:       19 bytes
  5238 ;; Hardware stack levels used: 1
  5239 ;; Hardware stack levels required when called: 3
  5240 ;; This function calls:
  5241 ;;		Nothing
  5242 ;; This function is called by:
  5243 ;;		_CAN_receive
  5244 ;; This function uses a non-reentrant model
  5245 ;;
  5246                           
  5247                           	psect	text30
  5248  000C22                     __ptext30:
  5249                           	callstack 0
  5250  000C22                     _convertReg2ExtendedCANid:
  5251                           	callstack 26
  5252                           
  5253                           ;incstack = 0
  5254                           ;convertReg2ExtendedCANid@tempRXBn_EIDH stored from wreg
  5255  000C22  6E3C               	movwf	convertReg2ExtendedCANid@tempRXBn_EIDH^0,c
  5256  000C24                     
  5257                           ;mcc_generated_files/ecan.c: 433:     uint32_t ConvertedID = 0;
  5258  000C24  0E00               	movlw	0
  5259  000C26  6E43               	movwf	convertReg2ExtendedCANid@ConvertedID^0,c
  5260  000C28  0E00               	movlw	0
  5261  000C2A  6E44               	movwf	(convertReg2ExtendedCANid@ConvertedID+1)^0,c
  5262  000C2C  0E00               	movlw	0
  5263  000C2E  6E45               	movwf	(convertReg2ExtendedCANid@ConvertedID+2)^0,c
  5264  000C30  0E00               	movlw	0
  5265  000C32  6E46               	movwf	(convertReg2ExtendedCANid@ConvertedID+3)^0,c
  5266  000C34                     
  5267                           ;mcc_generated_files/ecan.c: 434:     uint8_t CAN_standardLo_ID_lo2bits;;mcc_generated_f
      +                          iles/ecan.c: 435:     uint8_t CAN_standardLo_ID_hi3bits;;mcc_generated_files/ecan.c: 437
      +                          :     CAN_standardLo_ID_lo2bits = (uint8_t)(tempRXBn_SIDL & 0x03);
  5268  000C34  5036               	movf	convertReg2ExtendedCANid@tempRXBn_SIDL^0,w,c
  5269  000C36  0B03               	andlw	3
  5270  000C38  6E41               	movwf	convertReg2ExtendedCANid@CAN_standardLo_ID_lo2bits^0,c
  5271  000C3A                     
  5272                           ;mcc_generated_files/ecan.c: 438:     CAN_standardLo_ID_hi3bits = (uint8_t)(tempRXBn_SID
      +                          L >> 5);
  5273  000C3A  3836               	swapf	convertReg2ExtendedCANid@tempRXBn_SIDL^0,w,c
  5274  000C3C  42E8               	rrncf	wreg,f,c
  5275  000C3E  0B07               	andlw	7
  5276  000C40  6E42               	movwf	convertReg2ExtendedCANid@CAN_standardLo_ID_hi3bits^0,c
  5277  000C42                     
  5278                           ;mcc_generated_files/ecan.c: 439:     ConvertedID = (uint32_t)(tempRXBn_SIDH << 3);
  5279  000C42  5035               	movf	convertReg2ExtendedCANid@tempRXBn_SIDH^0,w,c
  5280  000C44  6E38               	movwf	??_convertReg2ExtendedCANid^0,c
  5281  000C46  6A39               	clrf	(??_convertReg2ExtendedCANid+1)^0,c
  5282  000C48  90D8               	bcf	status,0,c
  5283  000C4A  3638               	rlcf	??_convertReg2ExtendedCANid^0,f,c
  5284  000C4C  3639               	rlcf	(??_convertReg2ExtendedCANid+1)^0,f,c
  5285  000C4E  90D8               	bcf	status,0,c
  5286  000C50  3638               	rlcf	??_convertReg2ExtendedCANid^0,f,c
  5287  000C52  3639               	rlcf	(??_convertReg2ExtendedCANid+1)^0,f,c
  5288  000C54  90D8               	bcf	status,0,c
  5289  000C56  3638               	rlcf	??_convertReg2ExtendedCANid^0,f,c
  5290  000C58  3639               	rlcf	(??_convertReg2ExtendedCANid+1)^0,f,c
  5291  000C5A  C038  F043         	movff	??_convertReg2ExtendedCANid,convertReg2ExtendedCANid@ConvertedID
  5292  000C5E  C039  F044         	movff	??_convertReg2ExtendedCANid+1,convertReg2ExtendedCANid@ConvertedID+1
  5293  000C62  0E00               	movlw	0
  5294  000C64  BE44               	btfsc	(convertReg2ExtendedCANid@ConvertedID+1)^0,7,c
  5295  000C66  0EFF               	movlw	-1
  5296  000C68  6E45               	movwf	(convertReg2ExtendedCANid@ConvertedID+2)^0,c
  5297  000C6A  6E46               	movwf	(convertReg2ExtendedCANid@ConvertedID+3)^0,c
  5298  000C6C                     
  5299                           ;mcc_generated_files/ecan.c: 440:     ConvertedID = ConvertedID + CAN_standardLo_ID_hi3b
      +                          its;
  5300  000C6C  5042               	movf	convertReg2ExtendedCANid@CAN_standardLo_ID_hi3bits^0,w,c
  5301  000C6E  2443               	addwf	convertReg2ExtendedCANid@ConvertedID^0,w,c
  5302  000C70  6E43               	movwf	convertReg2ExtendedCANid@ConvertedID^0,c
  5303  000C72  0E00               	movlw	0
  5304  000C74  2044               	addwfc	(convertReg2ExtendedCANid@ConvertedID+1)^0,w,c
  5305  000C76  6E44               	movwf	(convertReg2ExtendedCANid@ConvertedID+1)^0,c
  5306  000C78  0E00               	movlw	0
  5307  000C7A  2045               	addwfc	(convertReg2ExtendedCANid@ConvertedID+2)^0,w,c
  5308  000C7C  6E45               	movwf	(convertReg2ExtendedCANid@ConvertedID+2)^0,c
  5309  000C7E  0E00               	movlw	0
  5310  000C80  2046               	addwfc	(convertReg2ExtendedCANid@ConvertedID+3)^0,w,c
  5311  000C82  6E46               	movwf	(convertReg2ExtendedCANid@ConvertedID+3)^0,c
  5312  000C84                     
  5313                           ;mcc_generated_files/ecan.c: 441:     ConvertedID = (ConvertedID << 2);
  5314  000C84  C043  F038         	movff	convertReg2ExtendedCANid@ConvertedID,??_convertReg2ExtendedCANid
  5315  000C88  C044  F039         	movff	convertReg2ExtendedCANid@ConvertedID+1,??_convertReg2ExtendedCANid+1
  5316  000C8C  C045  F03A         	movff	convertReg2ExtendedCANid@ConvertedID+2,??_convertReg2ExtendedCANid+2
  5317  000C90  C046  F03B         	movff	convertReg2ExtendedCANid@ConvertedID+3,??_convertReg2ExtendedCANid+3
  5318  000C94  0E02               	movlw	2
  5319  000C96                     u605:
  5320  000C96  90D8               	bcf	status,0,c
  5321  000C98  3638               	rlcf	??_convertReg2ExtendedCANid^0,f,c
  5322  000C9A  3639               	rlcf	(??_convertReg2ExtendedCANid+1)^0,f,c
  5323  000C9C  363A               	rlcf	(??_convertReg2ExtendedCANid+2)^0,f,c
  5324  000C9E  363B               	rlcf	(??_convertReg2ExtendedCANid+3)^0,f,c
  5325  000CA0  2EE8               	decfsz	wreg,f,c
  5326  000CA2  EF4B  F006         	goto	u605
  5327  000CA6  C038  F043         	movff	??_convertReg2ExtendedCANid,convertReg2ExtendedCANid@ConvertedID
  5328  000CAA  C039  F044         	movff	??_convertReg2ExtendedCANid+1,convertReg2ExtendedCANid@ConvertedID+1
  5329  000CAE  C03A  F045         	movff	??_convertReg2ExtendedCANid+2,convertReg2ExtendedCANid@ConvertedID+2
  5330  000CB2  C03B  F046         	movff	??_convertReg2ExtendedCANid+3,convertReg2ExtendedCANid@ConvertedID+3
  5331  000CB6                     
  5332                           ;mcc_generated_files/ecan.c: 442:     ConvertedID = ConvertedID + CAN_standardLo_ID_lo2b
      +                          its;
  5333  000CB6  5041               	movf	convertReg2ExtendedCANid@CAN_standardLo_ID_lo2bits^0,w,c
  5334  000CB8  2443               	addwf	convertReg2ExtendedCANid@ConvertedID^0,w,c
  5335  000CBA  6E43               	movwf	convertReg2ExtendedCANid@ConvertedID^0,c
  5336  000CBC  0E00               	movlw	0
  5337  000CBE  2044               	addwfc	(convertReg2ExtendedCANid@ConvertedID+1)^0,w,c
  5338  000CC0  6E44               	movwf	(convertReg2ExtendedCANid@ConvertedID+1)^0,c
  5339  000CC2  0E00               	movlw	0
  5340  000CC4  2045               	addwfc	(convertReg2ExtendedCANid@ConvertedID+2)^0,w,c
  5341  000CC6  6E45               	movwf	(convertReg2ExtendedCANid@ConvertedID+2)^0,c
  5342  000CC8  0E00               	movlw	0
  5343  000CCA  2046               	addwfc	(convertReg2ExtendedCANid@ConvertedID+3)^0,w,c
  5344  000CCC  6E46               	movwf	(convertReg2ExtendedCANid@ConvertedID+3)^0,c
  5345                           
  5346                           ;mcc_generated_files/ecan.c: 443:     ConvertedID = (ConvertedID << 8);
  5347  000CCE  C043  F039         	movff	convertReg2ExtendedCANid@ConvertedID,??_convertReg2ExtendedCANid+1
  5348  000CD2  C044  F03A         	movff	convertReg2ExtendedCANid@ConvertedID+1,??_convertReg2ExtendedCANid+2
  5349  000CD6  C045  F03B         	movff	convertReg2ExtendedCANid@ConvertedID+2,??_convertReg2ExtendedCANid+3
  5350  000CDA  6A38               	clrf	??_convertReg2ExtendedCANid^0,c
  5351  000CDC  C038  F043         	movff	??_convertReg2ExtendedCANid,convertReg2ExtendedCANid@ConvertedID
  5352  000CE0  C039  F044         	movff	??_convertReg2ExtendedCANid+1,convertReg2ExtendedCANid@ConvertedID+1
  5353  000CE4  C03A  F045         	movff	??_convertReg2ExtendedCANid+2,convertReg2ExtendedCANid@ConvertedID+2
  5354  000CE8  C03B  F046         	movff	??_convertReg2ExtendedCANid+3,convertReg2ExtendedCANid@ConvertedID+3
  5355  000CEC                     
  5356                           ;mcc_generated_files/ecan.c: 444:     ConvertedID = ConvertedID + tempRXBn_EIDH;
  5357  000CEC  503C               	movf	convertReg2ExtendedCANid@tempRXBn_EIDH^0,w,c
  5358  000CEE  2443               	addwf	convertReg2ExtendedCANid@ConvertedID^0,w,c
  5359  000CF0  6E43               	movwf	convertReg2ExtendedCANid@ConvertedID^0,c
  5360  000CF2  0E00               	movlw	0
  5361  000CF4  2044               	addwfc	(convertReg2ExtendedCANid@ConvertedID+1)^0,w,c
  5362  000CF6  6E44               	movwf	(convertReg2ExtendedCANid@ConvertedID+1)^0,c
  5363  000CF8  0E00               	movlw	0
  5364  000CFA  2045               	addwfc	(convertReg2ExtendedCANid@ConvertedID+2)^0,w,c
  5365  000CFC  6E45               	movwf	(convertReg2ExtendedCANid@ConvertedID+2)^0,c
  5366  000CFE  0E00               	movlw	0
  5367  000D00  2046               	addwfc	(convertReg2ExtendedCANid@ConvertedID+3)^0,w,c
  5368  000D02  6E46               	movwf	(convertReg2ExtendedCANid@ConvertedID+3)^0,c
  5369  000D04                     
  5370                           ;mcc_generated_files/ecan.c: 445:     ConvertedID = (ConvertedID << 8);
  5371  000D04  C043  F039         	movff	convertReg2ExtendedCANid@ConvertedID,??_convertReg2ExtendedCANid+1
  5372  000D08  C044  F03A         	movff	convertReg2ExtendedCANid@ConvertedID+1,??_convertReg2ExtendedCANid+2
  5373  000D0C  C045  F03B         	movff	convertReg2ExtendedCANid@ConvertedID+2,??_convertReg2ExtendedCANid+3
  5374  000D10  6A38               	clrf	??_convertReg2ExtendedCANid^0,c
  5375  000D12  C038  F043         	movff	??_convertReg2ExtendedCANid,convertReg2ExtendedCANid@ConvertedID
  5376  000D16  C039  F044         	movff	??_convertReg2ExtendedCANid+1,convertReg2ExtendedCANid@ConvertedID+1
  5377  000D1A  C03A  F045         	movff	??_convertReg2ExtendedCANid+2,convertReg2ExtendedCANid@ConvertedID+2
  5378  000D1E  C03B  F046         	movff	??_convertReg2ExtendedCANid+3,convertReg2ExtendedCANid@ConvertedID+3
  5379                           
  5380                           ;mcc_generated_files/ecan.c: 446:     ConvertedID = ConvertedID + tempRXBn_EIDL;
  5381  000D22  5034               	movf	convertReg2ExtendedCANid@tempRXBn_EIDL^0,w,c
  5382  000D24  2443               	addwf	convertReg2ExtendedCANid@ConvertedID^0,w,c
  5383  000D26  6E43               	movwf	convertReg2ExtendedCANid@ConvertedID^0,c
  5384  000D28  0E00               	movlw	0
  5385  000D2A  2044               	addwfc	(convertReg2ExtendedCANid@ConvertedID+1)^0,w,c
  5386  000D2C  6E44               	movwf	(convertReg2ExtendedCANid@ConvertedID+1)^0,c
  5387  000D2E  0E00               	movlw	0
  5388  000D30  2045               	addwfc	(convertReg2ExtendedCANid@ConvertedID+2)^0,w,c
  5389  000D32  6E45               	movwf	(convertReg2ExtendedCANid@ConvertedID+2)^0,c
  5390  000D34  0E00               	movlw	0
  5391  000D36  2046               	addwfc	(convertReg2ExtendedCANid@ConvertedID+3)^0,w,c
  5392  000D38  6E46               	movwf	(convertReg2ExtendedCANid@ConvertedID+3)^0,c
  5393  000D3A                     
  5394                           ;mcc_generated_files/ecan.c: 447:     returnValue = ConvertedID;
  5395  000D3A  C043  F03D         	movff	convertReg2ExtendedCANid@ConvertedID,convertReg2ExtendedCANid@returnValue
  5396  000D3E  C044  F03E         	movff	convertReg2ExtendedCANid@ConvertedID+1,convertReg2ExtendedCANid@returnValue+1
  5397  000D42  C045  F03F         	movff	convertReg2ExtendedCANid@ConvertedID+2,convertReg2ExtendedCANid@returnValue+2
  5398  000D46  C046  F040         	movff	convertReg2ExtendedCANid@ConvertedID+3,convertReg2ExtendedCANid@returnValue+3
  5399  000D4A                     
  5400                           ;mcc_generated_files/ecan.c: 448:     return (returnValue);
  5401  000D4A  C03D  F034         	movff	convertReg2ExtendedCANid@returnValue,?_convertReg2ExtendedCANid
  5402  000D4E  C03E  F035         	movff	convertReg2ExtendedCANid@returnValue+1,?_convertReg2ExtendedCANid+1
  5403  000D52  C03F  F036         	movff	convertReg2ExtendedCANid@returnValue+2,?_convertReg2ExtendedCANid+2
  5404  000D56  C040  F037         	movff	convertReg2ExtendedCANid@returnValue+3,?_convertReg2ExtendedCANid+3
  5405  000D5A  0012               	return		;funcret
  5406  000D5C                     __end_of_convertReg2ExtendedCANid:
  5407                           	callstack 0
  5408                           
  5409 ;; *************** function _INTERRUPT_InterruptManager *****************
  5410 ;; Defined at:
  5411 ;;		line 58 in file "mcc_generated_files/interrupt_manager.c"
  5412 ;; Parameters:    Size  Location     Type
  5413 ;;		None
  5414 ;; Auto vars:     Size  Location     Type
  5415 ;;		None
  5416 ;; Return value:  Size  Location     Type
  5417 ;;                  1    wreg      void 
  5418 ;; Registers used:
  5419 ;;		wreg, pcl, pclath, pclatu, tosl, cstack
  5420 ;; Tracked objects:
  5421 ;;		On entry : 0/0
  5422 ;;		On exit  : 0/0
  5423 ;;		Unchanged: 0/0
  5424 ;; Data sizes:     COMRAM   BANK0   BANK1   BANK2   BANK3   BANK4   BANK5   BANK6   BANK7   BANK8   BANK9  BANK10  BANK1
      +1  BANK12  BANK13  BANK14
  5425 ;;      Params:         0       0       0       0       0       0       0       0       0       0       0       0       
      +0       0       0       0
  5426 ;;      Locals:         0       0       0       0       0       0       0       0       0       0       0       0       
      +0       0       0       0
  5427 ;;      Temps:          2       0       0       0       0       0       0       0       0       0       0       0       
      +0       0       0       0
  5428 ;;      Totals:         2       0       0       0       0       0       0       0       0       0       0       0       
      +0       0       0       0
  5429 ;;Total ram usage:        2 bytes
  5430 ;; Hardware stack levels used: 1
  5431 ;; Hardware stack levels required when called: 2
  5432 ;; This function calls:
  5433 ;;		_ECAN_WAKI_ISR
  5434 ;; This function is called by:
  5435 ;;		Interrupt level 2
  5436 ;; This function uses a non-reentrant model
  5437 ;;
  5438                           
  5439                           	psect	intcode
  5440  000008                     __pintcode:
  5441                           	callstack 0
  5442  000008                     _INTERRUPT_InterruptManager:
  5443                           	callstack 25
  5444                           
  5445                           ;incstack = 0
  5446  000008  825B               	bsf	int$flags,1,c	;set compiler interrupt flag (level 2)
  5447  00000A  CFFA F032          	movff	pclath,??_INTERRUPT_InterruptManager
  5448  00000E  CFFB F033          	movff	pclatu,??_INTERRUPT_InterruptManager+1
  5449  000012                     
  5450                           ;mcc_generated_files/interrupt_manager.c: 61:     if(INTCONbits.PEIE == 1)
  5451  000012  ACF2               	btfss	242,6,c	;volatile
  5452  000014  EF0E  F000         	goto	i2u21_41
  5453  000018  EF10  F000         	goto	i2u21_40
  5454  00001C                     i2u21_41:
  5455  00001C  EF20  F000         	goto	i2l110
  5456  000020                     i2u21_40:
  5457  000020                     
  5458                           ;mcc_generated_files/interrupt_manager.c: 62:     {;mcc_generated_files/interrupt_manage
      +                          r.c: 63:         if(PIE5bits.WAKIE == 1 && PIR5bits.WAKIF == 1)
  5459  000020  AC76               	btfss	118,6,c	;volatile
  5460  000022  EF15  F000         	goto	i2u22_41
  5461  000026  EF17  F000         	goto	i2u22_40
  5462  00002A                     i2u22_41:
  5463  00002A  EF20  F000         	goto	i2l110
  5464  00002E                     i2u22_40:
  5465  00002E  AC77               	btfss	119,6,c	;volatile
  5466  000030  EF1C  F000         	goto	i2u23_41
  5467  000034  EF1E  F000         	goto	i2u23_40
  5468  000038                     i2u23_41:
  5469  000038  EF20  F000         	goto	i2l110
  5470  00003C                     i2u23_40:
  5471  00003C                     
  5472                           ;mcc_generated_files/interrupt_manager.c: 64:         {;mcc_generated_files/interrupt_ma
      +                          nager.c: 65:             ECAN_WAKI_ISR();
  5473  00003C  ECAF  F00A         	call	_ECAN_WAKI_ISR	;wreg free
  5474  000040                     i2l110:
  5475  000040  C033  FFFB         	movff	??_INTERRUPT_InterruptManager+1,pclatu
  5476  000044  C032  FFFA         	movff	??_INTERRUPT_InterruptManager,pclath
  5477  000048  925B               	bcf	int$flags,1,c	;clear compiler interrupt flag (level 2)
  5478  00004A  0011               	retfie		f
  5479  00004C                     __end_of_INTERRUPT_InterruptManager:
  5480                           	callstack 0
  5481                           
  5482 ;; *************** function _ECAN_WAKI_ISR *****************
  5483 ;; Defined at:
  5484 ;;		line 503 in file "mcc_generated_files/ecan.c"
  5485 ;; Parameters:    Size  Location     Type
  5486 ;;		None
  5487 ;; Auto vars:     Size  Location     Type
  5488 ;;		None
  5489 ;; Return value:  Size  Location     Type
  5490 ;;                  1    wreg      void 
  5491 ;; Registers used:
  5492 ;;		wreg, pcl, pclath, pclatu, tosl, cstack
  5493 ;; Tracked objects:
  5494 ;;		On entry : 0/0
  5495 ;;		On exit  : 0/0
  5496 ;;		Unchanged: 0/0
  5497 ;; Data sizes:     COMRAM   BANK0   BANK1   BANK2   BANK3   BANK4   BANK5   BANK6   BANK7   BANK8   BANK9  BANK10  BANK1
      +1  BANK12  BANK13  BANK14
  5498 ;;      Params:         0       0       0       0       0       0       0       0       0       0       0       0       
      +0       0       0       0
  5499 ;;      Locals:         0       0       0       0       0       0       0       0       0       0       0       0       
      +0       0       0       0
  5500 ;;      Temps:          0       0       0       0       0       0       0       0       0       0       0       0       
      +0       0       0       0
  5501 ;;      Totals:         0       0       0       0       0       0       0       0       0       0       0       0       
      +0       0       0       0
  5502 ;;Total ram usage:        0 bytes
  5503 ;; Hardware stack levels used: 1
  5504 ;; Hardware stack levels required when called: 1
  5505 ;; This function calls:
  5506 ;;		Absolute function
  5507 ;;		_WakeUpDefaultInterruptHandler
  5508 ;; This function is called by:
  5509 ;;		_INTERRUPT_InterruptManager
  5510 ;; This function uses a non-reentrant model
  5511 ;;
  5512                           
  5513                           	psect	text32
  5514  00155E                     __ptext32:
  5515                           	callstack 0
  5516  00155E                     _ECAN_WAKI_ISR:
  5517                           	callstack 25
  5518  00155E                     
  5519                           ;mcc_generated_files/ecan.c: 505:     WakeUpInterruptHandler();
  5520  00155E  D802               	call	i2u12_48
  5521  001560  EFBC  F00A         	goto	i2u12_49
  5522  001564                     i2u12_48:
  5523  001564  0005               	push	
  5524  001566  6EFA               	movwf	pclath,c
  5525  001568  5021               	movf	_WakeUpInterruptHandler^0,w,c
  5526  00156A  6EFD               	movwf	tosl,c
  5527  00156C  5022               	movf	(_WakeUpInterruptHandler+1)^0,w,c
  5528  00156E  6EFE               	movwf	tosh,c
  5529  001570  50F8               	movf	tblptru,w,c
  5530  001572  6EFF               	movwf	tosu,c
  5531  001574  50FA               	movf	pclath,w,c
  5532  001576  0012               	return		;indir
  5533  001578                     i2u12_49:
  5534  001578                     
  5535                           ;mcc_generated_files/ecan.c: 506:     PIR5bits.WAKIF = 0;
  5536  001578  9C77               	bcf	119,6,c	;volatile
  5537  00157A  0012               	return		;funcret
  5538  00157C                     __end_of_ECAN_WAKI_ISR:
  5539                           	callstack 0
  5540                           
  5541 ;; *************** function _WakeUpDefaultInterruptHandler *****************
  5542 ;; Defined at:
  5543 ;;		line 63 in file "mcc_generated_files/ecan.c"
  5544 ;; Parameters:    Size  Location     Type
  5545 ;;		None
  5546 ;; Auto vars:     Size  Location     Type
  5547 ;;		None
  5548 ;; Return value:  Size  Location     Type
  5549 ;;                  1    wreg      void 
  5550 ;; Registers used:
  5551 ;;		None
  5552 ;; Tracked objects:
  5553 ;;		On entry : 0/0
  5554 ;;		On exit  : 0/0
  5555 ;;		Unchanged: 0/0
  5556 ;; Data sizes:     COMRAM   BANK0   BANK1   BANK2   BANK3   BANK4   BANK5   BANK6   BANK7   BANK8   BANK9  BANK10  BANK1
      +1  BANK12  BANK13  BANK14
  5557 ;;      Params:         0       0       0       0       0       0       0       0       0       0       0       0       
      +0       0       0       0
  5558 ;;      Locals:         0       0       0       0       0       0       0       0       0       0       0       0       
      +0       0       0       0
  5559 ;;      Temps:          0       0       0       0       0       0       0       0       0       0       0       0       
      +0       0       0       0
  5560 ;;      Totals:         0       0       0       0       0       0       0       0       0       0       0       0       
      +0       0       0       0
  5561 ;;Total ram usage:        0 bytes
  5562 ;; Hardware stack levels used: 1
  5563 ;; This function calls:
  5564 ;;		Nothing
  5565 ;; This function is called by:
  5566 ;;		_ECAN_Initialize
  5567 ;;		_ECAN_WAKI_ISR
  5568 ;; This function uses a non-reentrant model
  5569 ;;
  5570                           
  5571                           	psect	text33
  5572  0015E6                     __ptext33:
  5573                           	callstack 0
  5574  0015E6                     _WakeUpDefaultInterruptHandler:
  5575                           	callstack 25
  5576  0015E6  0012               	return		;funcret
  5577  0015E8                     __end_of_WakeUpDefaultInterruptHandler:
  5578                           	callstack 0
  5579  0000                     
  5580                           	psect	text34
  5581  000000                     __ptext34:
  5582                           	callstack 0
  5583  000000                     
  5584                           	psect	rparam
  5585  0000                     
  5586                           	psect	temp
  5587  00005B                     btemp:
  5588                           	callstack 0
  5589  00005B                     	ds	1
  5590  0000                     int$flags	set	btemp
  5591  0000                     wtemp8	set	btemp+1
  5592  0000                     ttemp5	set	btemp+1
  5593  0000                     ttemp6	set	btemp+4
  5594  0000                     ttemp7	set	btemp+8
  5595                           
  5596                           	psect	idloc
  5597                           
  5598                           ;Config register IDLOC0 @ 0x200000
  5599                           ;	unspecified, using default values
  5600  200000                     	org	2097152
  5601  200000  FF                 	db	255
  5602                           
  5603                           ;Config register IDLOC1 @ 0x200001
  5604                           ;	unspecified, using default values
  5605  200001                     	org	2097153
  5606  200001  FF                 	db	255
  5607                           
  5608                           ;Config register IDLOC2 @ 0x200002
  5609                           ;	unspecified, using default values
  5610  200002                     	org	2097154
  5611  200002  FF                 	db	255
  5612                           
  5613                           ;Config register IDLOC3 @ 0x200003
  5614                           ;	unspecified, using default values
  5615  200003                     	org	2097155
  5616  200003  FF                 	db	255
  5617                           
  5618                           ;Config register IDLOC4 @ 0x200004
  5619                           ;	unspecified, using default values
  5620  200004                     	org	2097156
  5621  200004  FF                 	db	255
  5622                           
  5623                           ;Config register IDLOC5 @ 0x200005
  5624                           ;	unspecified, using default values
  5625  200005                     	org	2097157
  5626  200005  FF                 	db	255
  5627                           
  5628                           ;Config register IDLOC6 @ 0x200006
  5629                           ;	unspecified, using default values
  5630  200006                     	org	2097158
  5631  200006  FF                 	db	255
  5632                           
  5633                           ;Config register IDLOC7 @ 0x200007
  5634                           ;	unspecified, using default values
  5635  200007                     	org	2097159
  5636  200007  FF                 	db	255
  5637                           
  5638                           	psect	config
  5639                           
  5640                           ;Config register CONFIG1L @ 0x300000
  5641                           ;	VREG Sleep Enable bit
  5642                           ;	RETEN = OFF, Ultra low-power regulator is Disabled (Controlled by REGSLP bit)
  5643                           ;	LF-INTOSC Low-power Enable bit
  5644                           ;	INTOSCSEL = HIGH, LF-INTOSC in High-power mode during Sleep
  5645                           ;	SOSC Power Selection and mode Configuration bits
  5646                           ;	SOSCSEL = DIG, Digital (SCLKI) mode
  5647                           ;	Extended Instruction Set
  5648                           ;	XINST = OFF, Disabled
  5649  300000                     	org	3145728
  5650  300000  15                 	db	21
  5651                           
  5652                           ;Config register CONFIG1H @ 0x300001
  5653                           ;	Oscillator
  5654                           ;	FOSC = HS2, HS oscillator (High power, 16 MHz - 25 MHz)
  5655                           ;	PLL x4 Enable bit
  5656                           ;	PLLCFG = OFF, Disabled
  5657                           ;	Fail-Safe Clock Monitor
  5658                           ;	FCMEN = OFF, Disabled
  5659                           ;	Internal External Oscillator Switch Over Mode
  5660                           ;	IESO = OFF, Disabled
  5661  300001                     	org	3145729
  5662  300001  02                 	db	2
  5663                           
  5664                           ;Config register CONFIG2L @ 0x300002
  5665                           ;	Power Up Timer
  5666                           ;	PWRTEN = OFF, Disabled
  5667                           ;	Brown Out Detect
  5668                           ;	BOREN = SBORDIS, Enabled in hardware, SBOREN disabled
  5669                           ;	Brown-out Reset Voltage bits
  5670                           ;	BORV = 3, 1.8V
  5671                           ;	BORMV Power level
  5672                           ;	BORPWR = ZPBORMV, ZPBORMV instead of BORMV is selected
  5673  300002                     	org	3145730
  5674  300002  7F                 	db	127
  5675                           
  5676                           ;Config register CONFIG2H @ 0x300003
  5677                           ;	Watchdog Timer
  5678                           ;	WDTEN = OFF, WDT disabled in hardware; SWDTEN bit disabled
  5679                           ;	Watchdog Postscaler
  5680                           ;	WDTPS = 1048576, 1:1048576
  5681  300003                     	org	3145731
  5682  300003  7C                 	db	124
  5683                           
  5684                           ; Padding undefined space
  5685  300004                     	org	3145732
  5686  300004  FF                 	db	255
  5687                           
  5688                           ;Config register CONFIG3H @ 0x300005
  5689                           ;	ECAN Mux bit
  5690                           ;	CANMX = PORTB, ECAN TX and RX pins are located on RB2 and RB3, respectively
  5691                           ;	MSSP address masking
  5692                           ;	MSSPMSK = MSK7, 7 Bit address masking mode
  5693                           ;	Master Clear Enable
  5694                           ;	MCLRE = ON, MCLR Enabled, RE3 Disabled
  5695  300005                     	org	3145733
  5696  300005  89                 	db	137
  5697                           
  5698                           ;Config register CONFIG4L @ 0x300006
  5699                           ;	Stack Overflow Reset
  5700                           ;	STVREN = ON, Enabled
  5701                           ;	Boot Block Size
  5702                           ;	BBSIZ = BB2K, 2K word Boot Block size
  5703  300006                     	org	3145734
  5704  300006  91                 	db	145
  5705                           
  5706                           ; Padding undefined space
  5707  300007                     	org	3145735
  5708  300007  FF                 	db	255
  5709                           
  5710                           ;Config register CONFIG5L @ 0x300008
  5711                           ;	Code Protect 00800-03FFF
  5712                           ;	CP0 = OFF, Disabled
  5713                           ;	Code Protect 04000-07FFF
  5714                           ;	CP1 = OFF, Disabled
  5715                           ;	Code Protect 08000-0BFFF
  5716                           ;	CP2 = OFF, Disabled
  5717                           ;	Code Protect 0C000-0FFFF
  5718                           ;	CP3 = OFF, Disabled
  5719  300008                     	org	3145736
  5720  300008  0F                 	db	15
  5721                           
  5722                           ;Config register CONFIG5H @ 0x300009
  5723                           ;	Code Protect Boot
  5724                           ;	CPB = OFF, Disabled
  5725                           ;	Data EE Read Protect
  5726                           ;	CPD = OFF, Disabled
  5727  300009                     	org	3145737
  5728  300009  C0                 	db	192
  5729                           
  5730                           ;Config register CONFIG6L @ 0x30000A
  5731                           ;	Table Write Protect 00800-03FFF
  5732                           ;	WRT0 = OFF, Disabled
  5733                           ;	Table Write Protect 04000-07FFF
  5734                           ;	WRT1 = OFF, Disabled
  5735                           ;	Table Write Protect 08000-0BFFF
  5736                           ;	WRT2 = OFF, Disabled
  5737                           ;	Table Write Protect 0C000-0FFFF
  5738                           ;	WRT3 = OFF, Disabled
  5739  30000A                     	org	3145738
  5740  30000A  0F                 	db	15
  5741                           
  5742                           ;Config register CONFIG6H @ 0x30000B
  5743                           ;	Config. Write Protect
  5744                           ;	WRTC = OFF, Disabled
  5745                           ;	Table Write Protect Boot
  5746                           ;	WRTB = OFF, Disabled
  5747                           ;	Data EE Write Protect
  5748                           ;	WRTD = OFF, Disabled
  5749  30000B                     	org	3145739
  5750  30000B  E0                 	db	224
  5751                           
  5752                           ;Config register CONFIG7L @ 0x30000C
  5753                           ;	Table Read Protect 00800-03FFF
  5754                           ;	EBTR0 = OFF, Disabled
  5755                           ;	Table Read Protect 04000-07FFF
  5756                           ;	EBTR1 = OFF, Disabled
  5757                           ;	Table Read Protect 08000-0BFFF
  5758                           ;	EBTR2 = OFF, Disabled
  5759                           ;	Table Read Protect 0C000-0FFFF
  5760                           ;	EBTR3 = OFF, Disabled
  5761  30000C                     	org	3145740
  5762  30000C  0F                 	db	15
  5763                           
  5764                           ;Config register CONFIG7H @ 0x30000D
  5765                           ;	Table Read Protect Boot
  5766                           ;	EBTRB = OFF, Disabled
  5767  30000D                     	org	3145741
  5768  30000D  40                 	db	64
  5769                           tosu	equ	0xFFF
  5770                           tosh	equ	0xFFE
  5771                           tosl	equ	0xFFD
  5772                           stkptr	equ	0xFFC
  5773                           pclatu	equ	0xFFB
  5774                           pclath	equ	0xFFA
  5775                           pcl	equ	0xFF9
  5776                           tblptru	equ	0xFF8
  5777                           tblptrh	equ	0xFF7
  5778                           tblptrl	equ	0xFF6
  5779                           tablat	equ	0xFF5
  5780                           prodh	equ	0xFF4
  5781                           prodl	equ	0xFF3
  5782                           indf0	equ	0xFEF
  5783                           postinc0	equ	0xFEE
  5784                           postdec0	equ	0xFED
  5785                           preinc0	equ	0xFEC
  5786                           plusw0	equ	0xFEB
  5787                           fsr0h	equ	0xFEA
  5788                           fsr0l	equ	0xFE9
  5789                           wreg	equ	0xFE8
  5790                           indf1	equ	0xFE7
  5791                           postinc1	equ	0xFE6
  5792                           postdec1	equ	0xFE5
  5793                           preinc1	equ	0xFE4
  5794                           plusw1	equ	0xFE3
  5795                           fsr1h	equ	0xFE2
  5796                           fsr1l	equ	0xFE1
  5797                           bsr	equ	0xFE0
  5798                           indf2	equ	0xFDF
  5799                           postinc2	equ	0xFDE
  5800                           postdec2	equ	0xFDD
  5801                           preinc2	equ	0xFDC
  5802                           plusw2	equ	0xFDB
  5803                           fsr2h	equ	0xFDA
  5804                           fsr2l	equ	0xFD9
  5805                           status	equ	0xFD8

Data Sizes:
    Strings     0
    Constant    0
    Data        0
    BSS         133
    Persistent  6
    Stack       0

Auto Spaces:
    Space          Size  Autos    Used
    COMRAM           94     35      90
    BANK0           160      0      84
    BANK1           256      0       0
    BANK2           256      0       0
    BANK3           256      0       0
    BANK4           256      0       0
    BANK5           256      0       0
    BANK6           256      0       0
    BANK7           256      0       0
    BANK8           256      0       0
    BANK9           256      0       0
    BANK10          256      0       0
    BANK11          256      0       0
    BANK12          256      0       0
    BANK13          256      0       0
    BANK14           65      0       0

Pointer List with Targets:

    ECAN_SetWakeUpInterruptHandler@handler	PTR FTN()void  size(2) Largest target is 1
		 -> WakeUpDefaultInterruptHandler(), 

    WakeUpInterruptHandler	PTR FTN()void  size(2) Largest target is 1
		 -> Absolute function(), WakeUpDefaultInterruptHandler(), 

    convertCANid2Reg@passedInSIDH	PTR unsigned char  size(2) Largest target is 1
		 -> CAN_transmit@tempSIDH(COMRAM[1]), 

    convertCANid2Reg@passedInSIDL	PTR unsigned char  size(2) Largest target is 1
		 -> CAN_transmit@tempSIDL(COMRAM[1]), 

    convertCANid2Reg@passedInEIDH	PTR unsigned char  size(2) Largest target is 1
		 -> CAN_transmit@tempEIDH(COMRAM[1]), 

    convertCANid2Reg@passedInEIDL	PTR unsigned char  size(2) Largest target is 1
		 -> CAN_transmit@tempEIDL(COMRAM[1]), 

    CAN_receive@tempCanMsg	PTR struct . size(2) Largest target is 14
		 -> rx(COMRAM[14]), 

    CAN_transmit@tempCanMsg	PTR struct . size(2) Largest target is 14
		 -> tx6(BANK0[14]), tx5(BANK0[14]), tx4(BANK0[14]), tx3(BANK0[14]), 
		 -> tx2(BANK0[14]), tx1(BANK0[14]), 

    EUSART1_SetErrorHandler@interruptHandler	PTR FTN()void  size(2) Largest target is 1
		 -> EUSART1_DefaultErrorHandler(), 

    EUSART1_ErrorHandler	PTR FTN()void  size(2) Largest target is 1
		 -> Absolute function(), EUSART1_DefaultErrorHandler(), 

    EUSART1_SetOverrunErrorHandler@interruptHandler	PTR FTN()void  size(2) Largest target is 1
		 -> EUSART1_DefaultOverrunErrorHandler(), 

    EUSART1_OverrunErrorHandler	PTR FTN()void  size(2) Largest target is 1
		 -> Absolute function(), EUSART1_DefaultOverrunErrorHandler(), 

    EUSART1_SetFramingErrorHandler@interruptHandler	PTR FTN()void  size(2) Largest target is 1
		 -> EUSART1_DefaultFramingErrorHandler(), 

    EUSART1_FramingErrorHandler	PTR FTN()void  size(2) Largest target is 1
		 -> Absolute function(), EUSART1_DefaultFramingErrorHandler(), 


Critical Paths under _main in COMRAM

    _main->_canHazardSignal
    _main->_canLeftSignal
    _main->_canRightSignal
    _init->_auxBattConn
    _init->_batterySOC
    _init->_batterySOCGraphic
    _init->_batteryTemp
    _init->_hazardSignal
    _init->_leftTurnIndicator
    _init->_motorControllerTemp
    _init->_motorSpeed
    _init->_rightTurnIndicator
    _init->_warningLED
    _warningLED->_EUSART1_Write
    _rightTurnIndicator->_EUSART1_Write
    _motorSpeed->_EUSART1_Write
    _motorControllerTemp->_EUSART1_Write
    _leftTurnIndicator->_EUSART1_Write
    _hazardSignal->_EUSART1_Write
    _batteryTemp->_EUSART1_Write
    _batterySOCGraphic->_EUSART1_Write
    _batterySOC->_EUSART1_Write
    _auxBattConn->_EUSART1_Write
    _canRightSignal->_CAN_transmit
    _canLeftSignal->_CAN_transmit
    _canHazardSignal->_CAN_transmit
    _CAN_transmit->_convertCANid2Reg
    _SYSTEM_Initialize->_ECAN_Initialize
    _EUSART1_Initialize->_EUSART1_SetErrorHandler
    _EUSART1_Initialize->_EUSART1_SetFramingErrorHandler
    _EUSART1_Initialize->_EUSART1_SetOverrunErrorHandler
    _ECAN_Initialize->_ECAN_SetWakeUpInterruptHandler
    _CAN_receive->_convertReg2ExtendedCANid

Critical Paths under _INTERRUPT_InterruptManager in COMRAM

    None.

Critical Paths under _main in BANK0

    None.

Critical Paths under _INTERRUPT_InterruptManager in BANK0

    None.

Critical Paths under _main in BANK1

    None.

Critical Paths under _INTERRUPT_InterruptManager in BANK1

    None.

Critical Paths under _main in BANK2

    None.

Critical Paths under _INTERRUPT_InterruptManager in BANK2

    None.

Critical Paths under _main in BANK3

    None.

Critical Paths under _INTERRUPT_InterruptManager in BANK3

    None.

Critical Paths under _main in BANK4

    None.

Critical Paths under _INTERRUPT_InterruptManager in BANK4

    None.

Critical Paths under _main in BANK5

    None.

Critical Paths under _INTERRUPT_InterruptManager in BANK5

    None.

Critical Paths under _main in BANK6

    None.

Critical Paths under _INTERRUPT_InterruptManager in BANK6

    None.

Critical Paths under _main in BANK7

    None.

Critical Paths under _INTERRUPT_InterruptManager in BANK7

    None.

Critical Paths under _main in BANK8

    None.

Critical Paths under _INTERRUPT_InterruptManager in BANK8

    None.

Critical Paths under _main in BANK9

    None.

Critical Paths under _INTERRUPT_InterruptManager in BANK9

    None.

Critical Paths under _main in BANK10

    None.

Critical Paths under _INTERRUPT_InterruptManager in BANK10

    None.

Critical Paths under _main in BANK11

    None.

Critical Paths under _INTERRUPT_InterruptManager in BANK11

    None.

Critical Paths under _main in BANK12

    None.

Critical Paths under _INTERRUPT_InterruptManager in BANK12

    None.

Critical Paths under _main in BANK13

    None.

Critical Paths under _INTERRUPT_InterruptManager in BANK13

    None.

Critical Paths under _main in BANK14

    None.

Critical Paths under _INTERRUPT_InterruptManager in BANK14

    None.

Call Graph Tables:

 ---------------------------------------------------------------------------------
 (Depth) Function   	        Calls       Base Space   Used Autos Params    Refs
 ---------------------------------------------------------------------------------
 (0) _main                                                 7     7      0   22853
                                             28 COMRAM     7     7      0
                        _CAN_receive
                  _SYSTEM_Initialize
                        _auxBattConn
                    _canHazardSignal
                      _canLeftSignal
                     _canRightSignal
                       _hazardSignal
                               _init
                  _leftTurnIndicator
                         _motorSpeed
                 _rightTurnIndicator
                         _warningLED
 ---------------------------------------------------------------------------------
 (1) _init                                                 0     0      0    5128
                        _auxBattConn
                         _batterySOC
                  _batterySOCGraphic
                        _batteryTemp
                       _hazardSignal
                  _leftTurnIndicator
                _motorControllerTemp
                         _motorSpeed
                 _rightTurnIndicator
                         _warningLED
 ---------------------------------------------------------------------------------
 (1) _warningLED                                          13    11      2     414
                                              3 COMRAM    11     9      2
                      _EUSART1_Write
 ---------------------------------------------------------------------------------
 (1) _rightTurnIndicator                                  13    11      2     870
                                              3 COMRAM    11     9      2
                      _EUSART1_Write
 ---------------------------------------------------------------------------------
 (1) _motorSpeed                                          13    11      2     414
                                              3 COMRAM    11     9      2
                      _EUSART1_Write
 ---------------------------------------------------------------------------------
 (2) _motorControllerTemp                                 13    11      2     338
                                              3 COMRAM    11     9      2
                      _EUSART1_Write
 ---------------------------------------------------------------------------------
 (1) _leftTurnIndicator                                   13    11      2     946
                                              3 COMRAM    11     9      2
                      _EUSART1_Write
 ---------------------------------------------------------------------------------
 (2) _hazardSignal                                        13    11      2     642
                                              3 COMRAM    11     9      2
                      _EUSART1_Write
 ---------------------------------------------------------------------------------
 (2) _batteryTemp                                         13    11      2     338
                                              3 COMRAM    11     9      2
                      _EUSART1_Write
 ---------------------------------------------------------------------------------
 (2) _batterySOCGraphic                                   13    11      2     338
                                              3 COMRAM    11     9      2
                      _EUSART1_Write
 ---------------------------------------------------------------------------------
 (2) _batterySOC                                          13    11      2     338
                                              3 COMRAM    11     9      2
                      _EUSART1_Write
 ---------------------------------------------------------------------------------
 (2) _auxBattConn                                         13    11      2     490
                                              3 COMRAM    11     9      2
                      _EUSART1_Write
 ---------------------------------------------------------------------------------
 (2) _EUSART1_Write                                        1     1      0      15
                                              2 COMRAM     1     1      0
 ---------------------------------------------------------------------------------
 (1) _canRightSignal                                       2     0      2    3918
                                             26 COMRAM     2     0      2
                       _CAN_transmit
 ---------------------------------------------------------------------------------
 (1) _canLeftSignal                                        2     0      2    3918
                                             26 COMRAM     2     0      2
                       _CAN_transmit
 ---------------------------------------------------------------------------------
 (1) _canHazardSignal                                      2     0      2    3842
                                             26 COMRAM     2     0      2
                       _CAN_transmit
 ---------------------------------------------------------------------------------
 (2) _CAN_transmit                                         7     5      2    3668
                                             20 COMRAM     6     4      2
                   _convertCANid2Reg
 ---------------------------------------------------------------------------------
 (3) _convertCANid2Reg                                    18     5     13    1928
                                              2 COMRAM    18     5     13
 ---------------------------------------------------------------------------------
 (1) _SYSTEM_Initialize                                    0     0      0     392
                    _ECAN_Initialize
                 _EUSART1_Initialize
               _INTERRUPT_Initialize
              _OSCILLATOR_Initialize
             _PIN_MANAGER_Initialize
 ---------------------------------------------------------------------------------
 (2) _PIN_MANAGER_Initialize                               0     0      0       0
 ---------------------------------------------------------------------------------
 (2) _OSCILLATOR_Initialize                                0     0      0       0
 ---------------------------------------------------------------------------------
 (2) _INTERRUPT_Initialize                                 0     0      0       0
 ---------------------------------------------------------------------------------
 (2) _EUSART1_Initialize                                   0     0      0     294
            _EUSART1_SetErrorHandler
     _EUSART1_SetFramingErrorHandler
     _EUSART1_SetOverrunErrorHandler
 ---------------------------------------------------------------------------------
 (3) _EUSART1_SetOverrunErrorHandler                       2     0      2      98
                                              2 COMRAM     2     0      2
 ---------------------------------------------------------------------------------
 (3) _EUSART1_SetFramingErrorHandler                       2     0      2      98
                                              2 COMRAM     2     0      2
 ---------------------------------------------------------------------------------
 (3) _EUSART1_SetErrorHandler                              2     0      2      98
                                              2 COMRAM     2     0      2
 ---------------------------------------------------------------------------------
 (2) _ECAN_Initialize                                      1     1      0      98
                                              4 COMRAM     1     1      0
     _ECAN_SetWakeUpInterruptHandler
 ---------------------------------------------------------------------------------
 (3) _ECAN_SetWakeUpInterruptHandler                       2     0      2      98
                                              2 COMRAM     2     0      2
 ---------------------------------------------------------------------------------
 (1) _CAN_receive                                          3     1      2    1760
                                             21 COMRAM     3     1      2
           _convertReg2ExtendedCANid
           _convertReg2StandardCANid
 ---------------------------------------------------------------------------------
 (2) _convertReg2StandardCANid                            15    11      4     266
                                              2 COMRAM    15    11      4
 ---------------------------------------------------------------------------------
 (2) _convertReg2ExtendedCANid                            19    15      4     821
                                              2 COMRAM    19    15      4
 ---------------------------------------------------------------------------------
 Estimated maximum stack depth 3
 ---------------------------------------------------------------------------------
 (Depth) Function   	        Calls       Base Space   Used Autos Params    Refs
 ---------------------------------------------------------------------------------
 (4) _INTERRUPT_InterruptManager                           2     2      0       0
                                              0 COMRAM     2     2      0
                      _ECAN_WAKI_ISR
 ---------------------------------------------------------------------------------
 (5) _ECAN_WAKI_ISR                                        0     0      0       0
                   Absolute function *
      _WakeUpDefaultInterruptHandler *
 ---------------------------------------------------------------------------------
 (6) _WakeUpDefaultInterruptHandler                        0     0      0       0
 ---------------------------------------------------------------------------------
 (6) Absolute function(Fake)                               0     0      0       0
 ---------------------------------------------------------------------------------
 Estimated maximum stack depth 6
 ---------------------------------------------------------------------------------

 Call Graph Graphs:

 _main (ROOT)
   _CAN_receive
     _convertReg2ExtendedCANid
     _convertReg2StandardCANid
   _SYSTEM_Initialize
     _ECAN_Initialize
       _ECAN_SetWakeUpInterruptHandler
     _EUSART1_Initialize
       _EUSART1_SetErrorHandler
       _EUSART1_SetFramingErrorHandler
       _EUSART1_SetOverrunErrorHandler
     _INTERRUPT_Initialize
     _OSCILLATOR_Initialize
     _PIN_MANAGER_Initialize
   _auxBattConn
     _EUSART1_Write
   _canHazardSignal
     _CAN_transmit
       _convertCANid2Reg
   _canLeftSignal
     _CAN_transmit
   _canRightSignal
     _CAN_transmit
   _hazardSignal
     _EUSART1_Write
   _init
     _auxBattConn
     _batterySOC
       _EUSART1_Write
     _batterySOCGraphic
       _EUSART1_Write
     _batteryTemp
       _EUSART1_Write
     _hazardSignal
     _leftTurnIndicator
       _EUSART1_Write
     _motorControllerTemp
       _EUSART1_Write
     _motorSpeed
       _EUSART1_Write
     _rightTurnIndicator
       _EUSART1_Write
     _warningLED
       _EUSART1_Write
   _leftTurnIndicator
   _motorSpeed
   _rightTurnIndicator
   _warningLED

 _INTERRUPT_InterruptManager (ROOT)
   _ECAN_WAKI_ISR
     Absolute function(Fake) *
     _WakeUpDefaultInterruptHandler *

 Address spaces:
Name               Size   Autos  Total    Cost      Usage
BIGRAM             E40      0       0      57        0.0%
EEDATA             400      0       0       0        0.0%
BITBANK13          100      0       0      54        0.0%
BANK13             100      0       0      23        0.0%
BITBANK12          100      0       0      21        0.0%
BANK12             100      0       0      22        0.0%
BITBANK11          100      0       0      53        0.0%
BANK11             100      0       0      20        0.0%
BITBANK10          100      0       0      52        0.0%
BANK10             100      0       0      19        0.0%
BITBANK9           100      0       0      51        0.0%
BANK9              100      0       0      18        0.0%
BITBANK8           100      0       0      50        0.0%
BANK8              100      0       0      17        0.0%
BITBANK7           100      0       0      49        0.0%
BANK7              100      0       0      16        0.0%
BITBANK6           100      0       0      48        0.0%
BANK6              100      0       0      15        0.0%
BITBANK5           100      0       0      47        0.0%
BANK5              100      0       0      14        0.0%
BITBANK4           100      0       0      12        0.0%
BANK4              100      0       0      13        0.0%
BITBANK3           100      0       0      10        0.0%
BANK3              100      0       0      11        0.0%
BITBANK2           100      0       0       8        0.0%
BANK2              100      0       0       9        0.0%
BITBANK1           100      0       0       6        0.0%
BANK1              100      0       0       7        0.0%
BITBANK0            A0      0       0       4        0.0%
BANK0               A0      0      54       5       52.5%
BITBIGSFRllllhl     62      0       0      43        0.0%
BITCOMRAM           5E      0       0       0        0.0%
COMRAM              5E     23      5A       1       95.7%
BITBANK14           41      0       0      55        0.0%
BANK14              41      0       0      56        0.0%
BITBIGSFRhhhl       20      0       0      27        0.0%
BITBIGSFRhhhhlh     1D      0       0      25        0.0%
BITBIGSFRllllhh     1D      0       0      39        0.0%
BITBIGSFRhhhhh       D      0       0      24        0.0%
BITBIGSFRlhh         8      0       0      29        0.0%
BITBIGSFRlhlllh      6      0       0      33        0.0%
BITBIGSFRllh         5      0       0      36        0.0%
BITBIGSFRlhlhll      4      0       0      32        0.0%
BITBIGSFRlllhhh      3      0       0      37        0.0%
BITBIGSFRlhlhhl      3      0       0      31        0.0%
BITBIGSFRhl          3      0       0      28        0.0%
BITBIGSFRlhlhhh      2      0       0      30        0.0%
BITBIGSFRllllhh      2      0       0      42        0.0%
BITBIGSFRllllhh      2      0       0      41        0.0%
BITBIGSFRllllhh      2      0       0      40        0.0%
BITBIGSFRlllhll      2      0       0      38        0.0%
BITBIGSFRlhllll      2      0       0      35        0.0%
BITBIGSFRllllll      2      0       0      45        0.0%
BITBIGSFRlhlllh      1      0       0      34        0.0%
BITBIGSFRlllllh      1      0       0      44        0.0%
BITBIGSFRhhhhll      1      0       0      26        0.0%
BIGSFR               0      0       0     200        0.0%
BITSFR_2             0      0       0     200        0.0%
SFR_2                0      0       0     200        0.0%
BITSFR_1             0      0       0     200        0.0%
SFR_1                0      0       0     200        0.0%
BITSFR               0      0       0     200        0.0%
SFR                  0      0       0     200        0.0%
STACK                0      0       0       2        0.0%
NULL                 0      0       0       0        0.0%
ABS                  0      0      AE      46        0.0%
DATA                 0      0      AE       3        0.0%
CODE                 0      0       0       0        0.0%


Microchip Technology PIC18 Macro Assembler V2.36 build 20220127204148 
Symbol Table                                                                                   Sun Jul 30 14:59:14 2023

                                               l43 147A                                                 l70 1590  
                                               l82 15CC                                                 l67 157E  
                                               l85 15C2                                                 l88 15D6  
                                               u10 158C                                                 u11 1588  
                                               _rx 0024                                      ?_hazardSignal 0035  
                                              l101 15E4                                                l143 14B2  
                                              l502 0AAC                                                l511 04B0  
                                              l512 06B4                                                l513 05B2  
                                              l516 06B4                                                l526 0908  
                                              l702 10EA                                                l519 07E0  
                                              l711 13C4                                                l705 12B2  
                                              l546 0D5A                                                l554 0C20  
                                              l708 121A                                                l549 143C  
                                              l557 15E0                                                l581 15A6  
                                              l822 1536                                                l663 0394  
                                              l584 15B8                                                l816 14DE  
                                              l681 1052                                                l690 134A  
                                              l819 150A                                                l684 0E8A  
                                              l693 0F22                                                l687 0DF2  
                                              l696 0FBA                                                l699 1182  
                                              u520 0AC0                                                u521 0ABC  
            ECAN_SetWakeUpInterruptHandler@handler 0034                                                u620 06C8  
                                              u700 0200                                                u605 0C96  
                                              u621 06C4                                                u701 01FC  
                                              u630 06D6                                                u550 0922  
                                              u710 0212                                                u615 13FA  
                                              u631 06D2                                                u551 091E  
                                              u535 0B4C                                                u711 020E  
                                              u640 07F0                                                u560 0AAC  
                                              u800 0326                                                u720 0246  
                                              u641 07EC                                                u561 0AA8  
                                              u545 0BF0                                                u801 0322  
                                              u721 0242                                                u650 07FE  
                                              u570 03BC                                                u810 037A  
                                              u730 0256                                                u651 07FA  
                                              u571 03B8                                                u811 0376  
                                              u731 0252                                                u580 04BE  
                                              u740 0272                                                u660 00AA  
                                              u581 04BA                                                u741 026E  
                                              u661 00A6                                                u590 05C0  
                                              u750 028E                                                u670 00FC  
                                              u591 05BC                                                u751 028A  
                                              u671 00F8                                                u760 02AA  
                                              u680 014E                                                u761 02A6  
                                              u681 014A                                                u770 02C6  
                                              u690 019E                                                u771 02C2  
                                              u907 01BE                                                u691 019A  
                                              u827 0060                                                u780 02E2  
                                              u917 02E8                                                u781 02DE  
                                              u837 008E                                                u790 0316  
                                              u927 032C                                                u791 0312  
                                              u847 00C4                                                u937 034C  
                                              u857 00E0                                                u947 0380  
                                              u867 0116                                                u957 0D8A  
                                              u877 0132                                                u967 0DA0  
                                              u887 0168                                                u977 0DB6  
                                              u897 0184                                                u987 0DCC  
                                              u997 0DE2                                 motorSpeed@checksum 0038  
                                              _tx1 00A6                                                _tx2 0098  
                                              _tx3 008A                                                _tx4 007C  
                                              _tx5 006E                                                _tx6 0060  
                                              tosl 000FFD                                                wreg 000FE8  
                                       _TXSTA1bits 000FAC                         ??_convertReg2StandardCANid 0038  
                           batterySOCGraphic@value 0035                                               l3001 11D2  
                                             l3011 1204                                               l3003 11D8  
                                             l3021 06D6                                               l3101 14CE  
                                             l3013 1214                                               l3005 11E8  
                                             l3031 0756                                               l3023 06E2  
                                             l3015 06B6                                               l3111 150C  
                                             l3103 14D2                                               l3007 11EE  
                                             l3041 07A6                                               l3033 0766  
                                             l3025 0714                                               l3017 06BA  
                                             l3113 1526                                               l3105 14E0  
                                             l1513 157E                                               l3009 11FE  
                                             l3201 00BE                                               l3121 0056  
                                             l3051 07F0                                               l3043 07B6  
                                             l3035 0776                                               l3027 0720  
                                             l3019 06C8                                               l3115 152A  
                                             l3107 14FA                                               l1515 158C  
                                             l3211 0104                                               l3203 00CE  
                                             l3131 0084                                               l3123 006C  
                                             l3061 086E                                               l3053 07FE  
                                             l3045 07C6                                               l3037 0786  
                                             l3029 0746                                               l3109 14FE  
                                             l3221 014E                                               l3213 0110  
                                             l3205 00DA                                               l3133 0088  
                                             l3125 0070                                               l3117 0050  
                                             l3071 08BE                                               l3063 087E  
                                             l3055 080A                                               l3047 07D6  
                                             l3039 0796                                               l3223 0156  
                                             l3231 018E                                               l3215 0120  
                                             l3207 00EA                                               l3127 0074  
                                             l3119 0054                                               l3073 08CE  
                                             l3065 088E                                               l3057 083C  
                                             l3049 07D8                                               l2601 0A6C  
                                             l3241 01CC                                               l3233 019E  
                                             l3225 0162                                               l3217 012C  
                                             l3209 00FC                                               l3129 007C  
                                             l3075 08DE                                               l3067 089E  
                                             l3059 0848                                               l3083 0906  
                                             l2611 0A90                                               l2603 0A6E  
                                             l2531 15C4                                               l1563 15E2  
                                             l3091 159A                                               l3251 0212  
                                             l3243 01D4                                               l3235 01A6  
                                             l3227 0172                                               l3219 013C  
                                             l3077 08EE                                               l3069 08AE  
                                             l2613 0A92                                               l2605 0A70  
                                             l2533 15BA                                               l1565 147C  
                                             l3093 159E                                               l2541 0AAE  
                                             l2701 064E                                               l2621 03BC  
                                             l3261 0256                                               l3253 021A  
                                             l3245 01DC                                               l3237 01AA  
                                             l3229 017E                                               l3079 08FE  
                                             l2615 0A96                                               l2607 0A82  
                                             l2535 15CE                                               l1743 15A8  
                                             l1567 14A0                                               l3095 15A2  
                                             l3087 1592                                               l2551 0B3A  
                                             l2543 0AC0                                               l2711 069E  
                                             l2703 065E                                               l2631 0418  
                                             l2623 0408                                               l3263 0272  
                                             l3271 02E2                                               l3255 0226  
                                             l3247 01E4                                               l3239 01B4  
                                             l2721 0C34                                               l2537 15D8  
                                             l2609 0A8E                                               l1569 14B0  
                                             l3089 1596                                               l2561 0BB6  
                                             l2553 0B6C                                               l2545 0ACC  
                                             l2713 06AE                                               l2705 066E  
                                             l2641 046A                                               l2633 042A  
                                             l2625 040C                                               l2617 039C  
                                             l2801 1036                                               l3097 134C  
                                             l3281 0336                                               l3273 02F2  
                                             l3265 028E                                               l3249 0200  
                                             l3257 022A                                               l2731 0CB6  
                                             l2723 0C3A                                               l2555 0B74  
                                             l2547 0AFA                                               l2563 0BC6  
                                             l2539 0AAE                                               l2707 067E  
                                             l2651 04AC                                               l2643 047A  
                                             l2635 043A                                               l2627 0410  
                                             l2619 03AC                                               l3099 14B4  
                                             l2811 1076                                               l2803 103C  
                                             l3291 038A                                               l3283 0346  
                                             l3275 02FE                                               l3267 02AA  
                                             l3259 0246                                               l3195 0098  
                                             l2733 0CEC                                               l2725 0C42  
                                             l2581 1476                                               l2573 143E  
                                             l2565 0BDE                                               l2557 0B7A  
                                             l2549 0B34                                               l2709 068E  
                                             l2661 0516                                               l2653 04BE  
                                             l2645 048A                                               l2637 044A  
                                             l2629 0414                                               l2901 1318  
                                             l2821 10A8                                               l2813 107C  
                                             l2805 104C                                               l3285 0356  
                                             l3277 0316                                               l3269 02C6  
                                             l3197 00AA                                               l2735 0D04  
                                             l2727 0C6C                                               l2719 0C24  
                                             l2751 142C                                               l2743 13C8  
                                             l2591 0932                                               l2583 090A  
                                             l2575 1452                                               l2567 0C10  
                                             l2559 0B88                                               l2671 055C  
                                             l2663 051A                                               l2655 050A  
                                             l2647 049A                                               l2639 045A  
                                             l2903 131E                                               l2831 10E4  
                                             l2823 10B8                                               l2815 108C  
                                             l2807 1054                                               l2911 0F24  
                                             l3279 0326                                               l3287 0362  
                                             l3199 00B2                                               l2737 0D3A  
                                             l2729 0C84                                               l2745 13C8  
                                             l2593 0934                                               l2585 090E  
                                             l2577 145E                                               l2681 05AC  
                                             l2673 056C                                               l2665 052C  
                                             l2657 050E                                               l2649 04AA  
                                             l2905 132E                                               l2825 10BE  
                                             l2817 1092                                               l2809 106C  
                                             l2921 0F62                                               l2913 0F3C  
                                             l2841 0EC4                                               l2833 0E8C  
                                             l2761 0E1C                                               l3289 037A  
                                             l2739 0D4A                                               l2747 13F2  
                                             l2595 093A                                               l2587 0922  
                                             l2579 146A                                               l2691 0614  
                                             l2675 057C                                               l2667 053C  
                                             l2659 0512                                               l2907 1334  
                                             l2827 10CE                                               l2819 10A2  
                                             l2931 0F9E                                               l2923 0F72  
                                             l2915 0F46                                               l2851 0EF6  
                                             l2843 0ECA                                               l2835 0EA4  
                                             l2771 0E58                                               l2763 0E2C  
                                             l2755 0DF4                                               l2749 141C  
                                             l2597 093C                                               l2589 0930  
                                             l2693 0618                                               l2685 05C0  
                                             l2677 058C                                               l2669 054C  
                                             l2909 1344                                               l2941 110E  
                                             l2829 10D4                                               l2781 0FBC  
                                             l2933 0FA4                                               l2925 0F78  
                                             l2917 0F4C                                               l2853 0F06  
                                             l2845 0EDA                                               l2837 0EAE  
                                             l2773 0E5E                                               l2765 0E32  
                                             l2757 0E0C                                               l2861 0D74  
                                             l2599 093E                                               l2695 061C  
                                             l2687 060C                                               l2679 059C  
                                             l2951 1140                                               l2943 1114  
                                             l2791 0FFA                                               l2783 0FD4  
                                             l2935 0FB4                                               l2927 0F88  
                                             l2919 0F5C                                               l2855 0F0C  
                                             l2847 0EE0                                               l2839 0EB4  
                                             l2775 0E6E                                               l2767 0E42  
                                             l2759 0E16                                               l2871 0DAA  
                                             l2863 0D7E                                               l2697 062E  
                                             l2689 0610                                               l2961 117C  
                                             l2953 1150                                               l2945 1124  
                                             l2937 10EC                                               l2793 100A  
                                             l2785 0FDE                                               l2929 0F8E  
                                             l2857 0F1C                                               l2849 0EF0  
                                             l2777 0E74                                               l2769 0E48  
                                             l2881 0DDC                                               l2873 0DB0  
                                             l2865 0D84                                               l2699 063E  
                                             l2891 12DC                                               l2971 1254  
                                             l2963 121C                                               l2955 1156  
                                             l2947 112A                                               l2939 1104  
                                             l2795 1010                                               l2787 0FE4  
                                             l2779 0E84                                               l2883 0DEC  
                                             l2875 0DC0                                               l2867 0D94  
                                             l2859 0D5C                                               l2893 12EC  
                                             l2885 12B4                                               l2981 1286  
                                             l2973 125A                                               l2965 1234  
                                             l2957 1166                                               l2949 113A  
                                             l2797 1020                                               l2789 0FF4  
                                             l2877 0DC6                                               l2869 0D9A  
                                             l2895 12F2                                               l2887 12CC  
                                             l2983 1296                                               l2975 126A  
                                             l2967 123E                                               l2991 119C  
                                             l2959 116C                                               l2799 1026  
                                             l2879 0DD6                                               l2897 1302  
                                             l2889 12D6                                               l2985 129C  
                                             l2977 1270                                               l2969 1244  
                                             l2993 11A6                                               l2899 1308  
                                             l2987 12AC                                               l2979 1280  
                                             l2995 11AC                                               l2997 11BC  
                                             l2989 1184                                               l2999 11C2  
                                             u1007 0E22                                               u1017 0E38  
                                             u1107 0F52                                               u1027 0E4E  
                                             u1117 0F68                                               u1037 0E64  
                                             u1207 1082                                               u1127 0F7E  
                                             u1047 0E7A                                               u1217 1098  
                                             u1137 0F94                                               u1057 0EBA  
                                             u1307 11B2                                               u1227 10AE  
                                             u1147 0FAA                                               u1067 0ED0  
                                             u1317 11C8                                               u1237 10C4  
                                             u1157 0FEA                                               u1077 0EE6  
                                             _LATA 000F89                                               _LATB 000F8A  
                                             u1407 12E2                                               u1327 11DE  
                                             u1247 10DA                                               u1167 1000  
                                             u1087 0EFC                                               _LATC 000F8B  
                                             _LATD 000F8C                                               u1417 12F8  
                                             u1337 11F4                                               u1257 111A  
                                             u1177 1016                                               u1097 0F12  
                                             _LATE 000F8D                                               u1427 130E  
                                             u1347 120A                                               u1267 1130  
                                             u1187 102C                                               u1437 1324  
                                             u1357 124A                                               u1277 1146  
                                             u1197 1042                                               u1447 133A  
                                             u1367 1260                                               u1287 115C  
                                             u1377 1276                                               u1297 1172  
                                             u1387 128C                                               u1397 12A2  
                                      main@counter 0050                                _motorControllerTemp 0F24  
                                             _WPUB 000F5B                                      _EUSART1_Write 157C  
                                             _main 0050                                               _init 134C  
                     convertCANid2Reg@passedInEIDH 0039                       convertCANid2Reg@passedInEIDL 003B  
                                             fsr2h 000FDA                                               indf2 000FDF  
                                             fsr2l 000FD9                                               btemp 005B  
                     convertCANid2Reg@passedInSIDH 003D                       convertCANid2Reg@passedInSIDL 003F  
                                             start 004C                                       warningLED@v2 003A  
                                     warningLED@v3 003C                                       warningLED@v4 003E  
                                     ___param_bank 000000                                   ?_canHazardSignal 004C  
                             ?_motorControllerTemp 0035                                     ??_hazardSignal 0037  
                       __end_of_rightTurnIndicator 0E8C                      __end_of_OSCILLATOR_Initialize 15BA  
                                            ?_main 0032                                              ?_init 0032  
                                            _BSEL0 000E7D                                              i2l110 0040  
                                            i2l560 157A                                              i2l493 15E6  
                                            _MSEL0 000E79                                              _MSEL1 000E7A  
                                            _MSEL2 000E7B                                              _MSEL3 000E7C  
                                            _TRISA 000F92                                              _TRISB 000F93  
                                            _TRISC 000F94                                              _TRISD 000F95  
                                            _TRISE 000F96                                       _b1FuncActive 001F  
                            CAN_receive@tempCanMsg 0047                               __end_of_CAN_transmit 06B6  
                           leftTurnIndicator@value 0035                                     ?_EUSART1_Write 0032  
                                     _b2FuncActive 0019                                              pclath 000FFA  
                                            pclatu 000FFB                                              ttemp5 005C  
                                            ttemp6 005F                                              ttemp7 0063  
              convertReg2ExtendedCANid@ConvertedID 0043                                              status 000FD8  
                                            wtemp8 005C                               CAN_transmit@tempEIDH 0048  
                             CAN_transmit@tempEIDL 0049                               CAN_transmit@tempSIDH 004A  
                             CAN_transmit@tempSIDL 004B                 _EUSART1_DefaultFramingErrorHandler 000000  
                                     _b3FuncActive 0013                           motorControllerTemp@value 0035  
                                  __initialization 1538                         __end_of_EUSART1_Initialize 147C  
                                     __end_of_main 039C                                       __end_of_init 13C6  
                            ??_motorControllerTemp 0037                                       _b4FuncActive 0011  
                      ?_INTERRUPT_InterruptManager 0032                                             ??_main 004E  
                                           ??_init 0040                                  _leftTurnIndicator 0FBC  
                                    __activetblptr 000002                                 ?_leftTurnIndicator 0035  
                                     _b5FuncActive 000F                    ??_WakeUpDefaultInterruptHandler 0032  
                                ??_ECAN_Initialize 0036                                   batteryTemp@value 0035  
                                           _CANCON 000F6F                                             _ANCON0 000F5D  
                                           _ANCON1 000F5C                                             _CIOCON 000F70  
                              ??_leftTurnIndicator 0037                                       _b6FuncActive 000D  
                                           i2l2005 155E                                             i2l2007 1578  
                                           i2l2141 0012                                             i2l2143 0020  
                                           i2l2145 002E                                             i2l2147 003C  
                                           _RCREG1 000FAE                                             _RCSTA1 000FAB  
                                           _OSCCON 000FD3                                             _RXB0D0 000F66  
                                           _RXB0D1 000F67                                             _RXB0D2 000F68  
                                           _RXB0D3 000F69                                             _RXB1D0 000F36  
                                           _RXB0D4 000F6A                                             _RXB1D1 000F37  
                                           _RXB0D5 000F6B                                             _RXB1D2 000F38  
                                           _RXB0D6 000F6C                                             _RXB1D3 000F39  
                                           _RXB0D7 000F6D                                             _RXB1D4 000F3A  
                                           _RXB1D5 000F3B                                             _RXB1D6 000F3C  
                                           _RXB1D7 000F3D                                             _SPBRG1 000FAF  
                                           _TXB0D0 000F26                                             _TXB0D1 000F27  
                                           _TXB0D2 000F28                                             _TXB0D3 000F29  
                                           _TXB1D0 000F16                                             _TXB0D4 000F2A  
                                           _TXB1D1 000F17                                             _TXB0D5 000F2B  
                                           _TXB1D2 000F18                                             _TXB0D6 000F2C  
                                           _TXB1D3 000F19                                             _TXB0D7 000F2D  
                                           _TXB2D0 000F06                                             _TXB1D4 000F1A  
                                           _TXB2D1 000F07                                             _TXB1D5 000F1B  
                                           _TXB2D2 000F08                                             _TXB1D6 000F1C  
                                           _TXB2D3 000F09                                             _TXB1D7 000F1D  
                                           _TXB2D4 000F0A                                             _TXB2D5 000F0B  
                                           _TXB2D6 000F0C                                             _TXB2D7 000F0D  
                                           _TXREG1 000FAD                                             _TXSTA1 000FAC  
                             canRightSignal@number 004C                                       _b7FuncActive 000B  
                         ?_EUSART1_SetErrorHandler 0034                                             _lastb1 001D  
                                           _lastb2 0017                          __end_of_leftTurnIndicator 1054  
                                     _b8FuncActive 0009                                             clear_0 153E  
                                           clear_1 154A                                             isa$std 000001  
                 ??_EUSART1_SetOverrunErrorHandler 0036                    ?_EUSART1_SetOverrunErrorHandler 0034  
                                    _canLeftSignal 14E0                                       _b9FuncActive 0007  
                 __end_of_convertReg2StandardCANid 143E                                             tblptru 000FF8  
                                  ??_EUSART1_Write 0034                         rightTurnIndicator@checksum 0038  
                                _SYSTEM_Initialize 1592                               __end_of_hazardSignal 10EC  
                                       __accesstop 0060                            __end_of__initialization 1550  
                               ?_SYSTEM_Initialize 0032                           _convertReg2ExtendedCANid 0C22  
                           CAN_receive@returnValue 0049                                      ___rparam_used 000001  
                               warningLED@checksum 0038                                     __pcstackCOMRAM 0032  
                              ??_SYSTEM_Initialize 0037                                batteryTemp@checksum 0038  
                                   ?_canLeftSignal 004C                                      _ECAN_WAKI_ISR 155E  
            convertReg2StandardCANid@tempRXBn_SIDH 003A              convertReg2StandardCANid@tempRXBn_SIDL 0034  
                        __end_of_SYSTEM_Initialize 15A8                                         __pbssBANK0 0060  
            __end_of_WakeUpDefaultInterruptHandler 15E8                      _WakeUpDefaultInterruptHandler 15E6  
                                       __pnvCOMRAM 0055                                         _batterySOC 121C  
                                hazardSignal@value 0035                    __end_of_EUSART1_SetErrorHandler 15D8  
                                     _CAN_transmit 039C                                            _ECANCON 000F72  
                                          _CANSTAT 000F6E                   ??_ECAN_SetWakeUpInterruptHandler 0036  
                  ?_ECAN_SetWakeUpInterruptHandler 0034                                            _BRGCON1 000E43  
                                          _BRGCON2 000E44                                            _BRGCON3 000E45  
           __end_of_EUSART1_SetFramingErrorHandler 15CE                     _EUSART1_SetFramingErrorHandler 15C4  
                                          _REFOCON 000F9A                                            _OSCCON2 000FD2  
                                   ?_ECAN_WAKI_ISR 0032                                            i2u12_48 1564  
                                          i2u21_40 0020                                            i2u12_49 1578  
                                          i2u21_41 001C                                            i2u22_40 002E  
                                          i2u22_41 002A                                            i2u23_40 003C  
                                          i2u23_41 0038                                            _RXB0DLC 000F65  
                                          _RXB1DLC 000F35                                            _OSCTUNE 000F9B  
                                          _SPBRGH1 000F7D                                            _TXB0DLC 000F25  
                                          _TXB1DLC 000F15                                            _TXB2DLC 000F05  
                                          _RXFCON0 000E46                                            _RXFCON1 000E47  
                               _rightTurnIndicator 0DF4                                    motorSpeed@value 0035  
                        leftTurnIndicator@checksum 0038                                ?_rightTurnIndicator 0035  
                                          __Hparam 0000                                            __Lparam 0000  
                        ?_convertReg2StandardCANid 0034                                    _ECAN_Initialize 090A  
                                  ??_canLeftSignal 004E                                     hazardSignal@v2 003A  
                                          __pcinit 1538                                     hazardSignal@v3 003C  
                                   hazardSignal@v4 003E                                            __ramtop 0F00  
                                          _blinkb1 001B                                            _blinkb2 0015  
                                          __ptext0 0050                                            __ptext1 134C  
                                          __ptext2 0D5C                                            __ptext3 0DF4  
                                          __ptext4 0E8C                                            __ptext5 0F24  
                                          __ptext6 0FBC                                            __ptext7 1054  
                                          __ptext8 10EC                                            __ptext9 1184  
                                          _lastb10 0003                               ??_rightTurnIndicator 0037  
                            _OSCILLATOR_Initialize 15A8                                 _EUSART1_Initialize 143E  
                                 _convertCANid2Reg 0AAE                           ??_PIN_MANAGER_Initialize 0034  
                                          main@tog 0054                               end_of_initialization 1550  
                           _WakeUpInterruptHandler 0021                                ?_EUSART1_Initialize 0032  
                                    __Lmediumconst 0000                        _EUSART1_OverrunErrorHandler 0057  
                                    ??_batteryTemp 0037                                      ??_CAN_receive 0049  
                                      ?_batterySOC 0035                   fp__WakeUpDefaultInterruptHandler 0000  
                   ?_WakeUpDefaultInterruptHandler 0032                        __end_of_motorControllerTemp 0FBC  
                                        _RXF10EIDH 000E5A                                          _RXF10EIDL 000E5B  
                                        _RXF11EIDH 000E5E                                          _RXF11EIDL 000E5F  
                                        _RXF12EIDH 000E62                                          _RXF12EIDL 000E63  
                                        _RXF13EIDH 000E66                                          _RXF13EIDL 000E67  
                                        _RXF14EIDH 000E6A                                          _RXF14EIDL 000E6B  
                                        _RXF15EIDH 000E6E                                          _RXF15EIDL 000E6F  
                                        _RXF10SIDH 000E58                                          _RXF10SIDL 000E59  
                                        _RXF11SIDH 000E5C                                          _RXF11SIDL 000E5D  
                                        _RXF12SIDH 000E60                                          _RXF12SIDL 000E61  
                                        _RXF13SIDH 000E64                                          _RXF13SIDL 000E65  
                                        _RXF14SIDH 000E68                                          _RXF14SIDL 000E69  
                                        _RXF15SIDH 000E6C                                          _RXF15SIDL 000E6D  
                                          postinc0 000FEE                                            postinc2 000FDE  
                                       _motorSpeed 0E8C                               ??_EUSART1_Initialize 0036  
                                     _hazardSignal 1054                                          _PORTAbits 000F80  
                                        _PORTCbits 000F82                                      _b10FuncActive 0005  
                                  ??_ECAN_WAKI_ISR 0032                                         _warningLED 0D5C  
                           CAN_transmit@tempCanMsg 0046                         ??_convertReg2ExtendedCANid 0038  
                              EUSART1_Write@txData 0034                                      ??_auxBattConn 0037  
                              leftTurnIndicator@v2 003A                                leftTurnIndicator@v3 003C  
                              leftTurnIndicator@v4 003E                              motorControllerTemp@v2 003A  
                            motorControllerTemp@v3 003C                              motorControllerTemp@v4 003E  
                                    batteryTemp@v2 003A                                      batteryTemp@v3 003C  
                                    batteryTemp@v4 003E                            __end_of_ECAN_Initialize 0AAE  
                                  warningLED@value 0035                                __end_of_batteryTemp 1184  
                     __end_of_INTERRUPT_Initialize 15E6                                __end_of_CAN_receive 090A  
                      motorControllerTemp@checksum 0038                             ?_OSCILLATOR_Initialize 0032  
                              start_initialization 1538                            rightTurnIndicator@value 0035  
                             rightTurnIndicator@v2 003A                               rightTurnIndicator@v3 003C  
                             rightTurnIndicator@v4 003E                              __end_of_EUSART1_Write 1592  
                                ??_canHazardSignal 004E                                     _canRightSignal 14B4  
              convertReg2StandardCANid@returnValue 003B                               hazardSignal@checksum 0038  
                              __end_of_auxBattConn 134C                                        ?_motorSpeed 0035  
                                      ?_warningLED 0035                                batterySOCGraphic@v2 003A  
                              batterySOCGraphic@v3 003C                                batterySOCGraphic@v4 003E  
                                      __pbssCOMRAM 0001                             __end_of_canRightSignal 14E0  
           __end_of_ECAN_SetWakeUpInterruptHandler 15E2                     _ECAN_SetWakeUpInterruptHandler 15D8  
                 ??_EUSART1_SetFramingErrorHandler 0036                    ?_EUSART1_SetFramingErrorHandler 0034  
                                      _batteryTemp 10EC                                        _CAN_receive 06B6  
                                 ?_ECAN_Initialize 0032                             _PIN_MANAGER_Initialize 147C  
                         __end_of_convertCANid2Reg 0C22                                          __pintcode 0008  
                              auxBattConn@checksum 0038                       ??_INTERRUPT_InterruptManager 0032  
                                         _BAUDCON1 000FA7                                        _COMSTATbits 000F71  
               _EUSART1_DefaultOverrunErrorHandler 000000                               _EUSART1_ErrorHandler 0055  
                 __end_of_convertReg2ExtendedCANid 0D5C                            _EUSART1_SetErrorHandler 15CE  
                   convertCANid2Reg@tempPassedInID 0034                                    ?_canRightSignal 004C  
                             _INTERRUPT_Initialize 15E2                                        _auxBattConn 12B4  
          EUSART1_SetErrorHandler@interruptHandler 0034                                           _LATCbits 000F8B  
                                     ??_batterySOC 0037                                           _PIE5bits 000F76  
                                         _PIR1bits 000F9E                                           _PIR5bits 000F77  
                                         _RXB0EIDH 000F63                                           _RXB0EIDL 000F64  
                                         _RXB1EIDH 000F33                                           _RXB1EIDL 000F34  
                                         _RCONbits 000FD0                                           _RXB0SIDH 000F61  
                                         _RXB0SIDL 000F62                                           _RXF0EIDH 000EE2  
                                         _RXB1SIDH 000F31                                           _RXF0EIDL 000EE3  
                                         _RXB1SIDL 000F32                                           _RXF1EIDH 000EE6  
                                         _RXF1EIDL 000EE7                                           _RXF2EIDH 000EEA  
                                         _RXF2EIDL 000EEB                                           _RXF3EIDH 000EEE  
                                         _RXF3EIDL 000EEF                                           _RXF4EIDH 000EF2  
                                         _RXF4EIDL 000EF3                                           _RXF5EIDH 000EF6  
                                         _RXF5EIDL 000EF7                                           _RXF6EIDH 000E4A  
                                         _RXF6EIDL 000E4B                                           _RXF0SIDH 000EE0  
                                         _RXF7EIDH 000E4E                                           _RXF0SIDL 000EE1  
                                         _RXF7EIDL 000E4F                                           _RXF1SIDH 000EE4  
                                         _RXF8EIDH 000E52                                           _TXB0EIDH 000F23  
                                         _TXB0EIDL 000F24                                           _RXF1SIDL 000EE5  
                                         _RXF8EIDL 000E53                                           _RXF2SIDH 000EE8  
                                         _RXF9EIDH 000E56                                           _TXB1EIDH 000F13  
                                         _TXB1EIDL 000F14                                           _RXF2SIDL 000EE9  
                                         _RXF9EIDL 000E57                                           _RXF3SIDH 000EEC  
                                         _TXB2EIDH 000F03                                           _TXB2EIDL 000F04  
                                         _RXF3SIDL 000EED                                           _RXF4SIDH 000EF0  
                                         _RXF4SIDL 000EF1                                           _RXF5SIDH 000EF4  
                                         _RXF5SIDL 000EF5                                           _RXF6SIDH 000E48  
                                         _RXF6SIDL 000E49                                           _RXM0EIDH 000EFA  
                                         _RXF7SIDH 000E4C                                           _RXM0EIDL 000EFB  
                                         _RXF7SIDL 000E4D                                           _RXM1EIDH 000EFE  
                                         _RXF8SIDH 000E50                                           _TXB0SIDH 000F21  
                                         _RXM1EIDL 000EFF                                           _RXF8SIDL 000E51  
                                         _TXB0SIDL 000F22                                           _RXF9SIDH 000E54  
                                         _TXB1SIDH 000F11                                           _RXF9SIDL 000E55  
                                         _TXB1SIDL 000F12                                           _TXB2SIDH 000F01  
                                         _TXB2SIDL 000F02                                           _RXFBCON0 000E71  
                                         _RXFBCON1 000E72                                           _RXFBCON2 000E73  
                                         _RXFBCON3 000E74                                           _RXFBCON4 000E75  
                                         _RXFBCON5 000E76                                           _RXFBCON6 000E77  
                                         _RXFBCON7 000E78                                           _RXM0SIDH 000EF8  
                                         _RXM0SIDL 000EF9                                           _RXM1SIDH 000EFC  
                                         _RXM1SIDL 000EFD                                       batterySOC@v2 003A  
                                     batterySOC@v3 003C                                       batterySOC@v4 003E  
                            __end_of_canLeftSignal 150C                                 batterySOC@checksum 0038  
                                        main@speed 0052                                canLeftSignal@number 004C  
                               __end_of_batterySOC 12B4                                        _INTCON2bits 000FF1  
                            ?_INTERRUPT_Initialize 0032                           _convertReg2StandardCANid 13C6  
            convertReg2ExtendedCANid@tempRXBn_EIDH 003C              convertReg2ExtendedCANid@tempRXBn_EIDL 0034  
                                _batterySOCGraphic 1184              convertReg2ExtendedCANid@tempRXBn_SIDH 0035  
            convertReg2ExtendedCANid@tempRXBn_SIDL 0036                                           __Hrparam 0000  
                                         __Lrparam 0000                                 ?_batterySOCGraphic 0035  
                        convertCANid2Reg@canIdType 0038                            ??_OSCILLATOR_Initialize 0034  
                              ??_batterySOCGraphic 0037  convertReg2ExtendedCANid@CAN_standardLo_ID_hi3bits 0042  
                        ??_EUSART1_SetErrorHandler 0036                        _EUSART1_DefaultErrorHandler 000000  
                                  _canHazardSignal 150C  convertReg2ExtendedCANid@CAN_standardLo_ID_lo2bits 0041  
                          convertCANid2Reg@wipSIDL 0045                              canHazardSignal@number 004C  
                            __end_of_ECAN_WAKI_ISR 157C                                           _blinkb10 0001  
                                         __ptext10 121C                                           __ptext11 12B4  
                                         __ptext20 15A8                                           __ptext12 157C  
                                         __ptext21 15E2                                           __ptext13 14B4  
                                         __ptext30 0C22                                           __ptext22 143E  
                                         __ptext14 14E0                                           __ptext23 15BA  
                                         __ptext15 150C                                           __ptext32 155E  
                                         __ptext24 15C4                                           __ptext16 039C  
                                         __ptext33 15E6                                           __ptext25 15CE  
                                         __ptext17 0AAE                                           __ptext34 0000  
                                         __ptext26 090A                                           __ptext18 1592  
                                         __ptext27 15D8                                           __ptext19 147C  
                                         __ptext28 06B6                                           __ptext29 13C6  
                                 auxBattConn@value 0035                convertReg2StandardCANid@ConvertedID 003F  
                        __end_of_batterySOCGraphic 121C                          batterySOCGraphic@checksum 0038  
              convertReg2ExtendedCANid@returnValue 003D     EUSART1_SetOverrunErrorHandler@interruptHandler 0034  
                                         isa$xinst 000000                          ?_convertReg2ExtendedCANid 0034  
                                    ?_CAN_transmit 0046                                       ??_motorSpeed 0037  
                                         int$flags 005B                 __end_of_INTERRUPT_InterruptManager 004C  
                       _INTERRUPT_InterruptManager 0008                        _EUSART1_FramingErrorHandler 0059  
                                     ??_warningLED 0037                                        _RXB0CONbits 000F60  
                                      _RXB1CONbits 000F30                                         _INTCONbits 000FF2  
                           ??_INTERRUPT_Initialize 0034                                           intlevel2 0000  
                               __end_of_motorSpeed 0F24                            ?_PIN_MANAGER_Initialize 0032  
                                     motorSpeed@v2 003A                                       motorSpeed@v3 003C  
                                     motorSpeed@v4 003E                                       ?_batteryTemp 0035  
           __end_of_EUSART1_SetOverrunErrorHandler 15C4                     _EUSART1_SetOverrunErrorHandler 15BA  
                                      _TXB0CONbits 000F20                                         _RCSTA1bits 000FAB  
                                     ?_CAN_receive 0047                                        _TXB1CONbits 000F10  
                                      _TXB2CONbits 000F00                                 __end_of_warningLED 0DF4  
                                   ??_CAN_transmit 0048                                  ?_convertCANid2Reg 0034  
   EUSART1_SetFramingErrorHandler@interruptHandler 0034                                 ??_convertCANid2Reg 0041  
                          __end_of_canHazardSignal 1538                                 _eusart1RxLastError 0023  
                                 ??_canRightSignal 004E                                    batterySOC@value 0035  
                                    auxBattConn@v2 003A                                      auxBattConn@v3 003C  
                                    auxBattConn@v4 003E                                       ?_auxBattConn 0035  
                   __end_of_PIN_MANAGER_Initialize 14B4  
